
CAN_USB.elf:     file format elf32-littlearm

Sections:
Idx Name          Size      VMA       LMA       File off  Algn
  0 .isr_vector   0000010c  08000000  08000000  00010000  2**0
                  CONTENTS, ALLOC, LOAD, READONLY, DATA
  1 .text         00008310  0800010c  0800010c  0001010c  2**2
                  CONTENTS, ALLOC, LOAD, READONLY, CODE
  2 .rodata       00000610  0800841c  0800841c  0001841c  2**0
                  CONTENTS, ALLOC, LOAD, READONLY, DATA
  3 .init_array   00000004  08008a2c  08008a2c  00018a2c  2**2
                  CONTENTS, ALLOC, LOAD, DATA
  4 .fini_array   00000004  08008a30  08008a30  00018a30  2**2
                  CONTENTS, ALLOC, LOAD, DATA
  5 .data         000000a8  20000000  08008a34  00020000  2**2
                  CONTENTS, ALLOC, LOAD, DATA
  6 .bss          00002f64  200000a8  08008adc  000200a8  2**3
                  ALLOC
  7 ._user_heap_stack 00000600  2000300c  08008adc  0002300c  2**0
                  ALLOC
  8 .ARM.attributes 00000029  00000000  00000000  000200a8  2**0
                  CONTENTS, READONLY
  9 .debug_info   000245de  00000000  00000000  000200d1  2**0
                  CONTENTS, READONLY, DEBUGGING, OCTETS
 10 .debug_abbrev 000056d7  00000000  00000000  000446af  2**0
                  CONTENTS, READONLY, DEBUGGING, OCTETS
 11 .debug_loc    0001005c  00000000  00000000  00049d86  2**0
                  CONTENTS, READONLY, DEBUGGING, OCTETS
 12 .debug_aranges 00001080  00000000  00000000  00059de8  2**3
                  CONTENTS, READONLY, DEBUGGING, OCTETS
 13 .debug_ranges 00001930  00000000  00000000  0005ae68  2**3
                  CONTENTS, READONLY, DEBUGGING, OCTETS
 14 .debug_macro  00017e7c  00000000  00000000  0005c798  2**0
                  CONTENTS, READONLY, DEBUGGING, OCTETS
 15 .debug_line   0001df57  00000000  00000000  00074614  2**0
                  CONTENTS, READONLY, DEBUGGING, OCTETS
 16 .debug_str    00075db0  00000000  00000000  0009256b  2**0
                  CONTENTS, READONLY, DEBUGGING, OCTETS
 17 .comment      00000053  00000000  00000000  0010831b  2**0
                  CONTENTS, READONLY
 18 .debug_frame  00003460  00000000  00000000  00108370  2**2
                  CONTENTS, READONLY, DEBUGGING, OCTETS

Disassembly of section .text:

0800010c <__do_global_dtors_aux>:
 800010c:	b510      	push	{r4, lr}
 800010e:	4c05      	ldr	r4, [pc, #20]	; (8000124 <__do_global_dtors_aux+0x18>)
 8000110:	7823      	ldrb	r3, [r4, #0]
 8000112:	b933      	cbnz	r3, 8000122 <__do_global_dtors_aux+0x16>
 8000114:	4b04      	ldr	r3, [pc, #16]	; (8000128 <__do_global_dtors_aux+0x1c>)
 8000116:	b113      	cbz	r3, 800011e <__do_global_dtors_aux+0x12>
 8000118:	4804      	ldr	r0, [pc, #16]	; (800012c <__do_global_dtors_aux+0x20>)
 800011a:	f3af 8000 	nop.w
 800011e:	2301      	movs	r3, #1
 8000120:	7023      	strb	r3, [r4, #0]
 8000122:	bd10      	pop	{r4, pc}
 8000124:	200000a8 	.word	0x200000a8
 8000128:	00000000 	.word	0x00000000
 800012c:	08008404 	.word	0x08008404

08000130 <frame_dummy>:
 8000130:	b508      	push	{r3, lr}
 8000132:	4b03      	ldr	r3, [pc, #12]	; (8000140 <frame_dummy+0x10>)
 8000134:	b11b      	cbz	r3, 800013e <frame_dummy+0xe>
 8000136:	4903      	ldr	r1, [pc, #12]	; (8000144 <frame_dummy+0x14>)
 8000138:	4803      	ldr	r0, [pc, #12]	; (8000148 <frame_dummy+0x18>)
 800013a:	f3af 8000 	nop.w
 800013e:	bd08      	pop	{r3, pc}
 8000140:	00000000 	.word	0x00000000
 8000144:	200000ac 	.word	0x200000ac
 8000148:	08008404 	.word	0x08008404

0800014c <strlen>:
 800014c:	4603      	mov	r3, r0
 800014e:	f813 2b01 	ldrb.w	r2, [r3], #1
 8000152:	2a00      	cmp	r2, #0
 8000154:	d1fb      	bne.n	800014e <strlen+0x2>
 8000156:	1a18      	subs	r0, r3, r0
 8000158:	3801      	subs	r0, #1
 800015a:	4770      	bx	lr

0800015c <__aeabi_frsub>:
 800015c:	f080 4000 	eor.w	r0, r0, #2147483648	; 0x80000000
 8000160:	e002      	b.n	8000168 <__addsf3>
 8000162:	bf00      	nop

08000164 <__aeabi_fsub>:
 8000164:	f081 4100 	eor.w	r1, r1, #2147483648	; 0x80000000

08000168 <__addsf3>:
 8000168:	0042      	lsls	r2, r0, #1
 800016a:	bf1f      	itttt	ne
 800016c:	ea5f 0341 	movsne.w	r3, r1, lsl #1
 8000170:	ea92 0f03 	teqne	r2, r3
 8000174:	ea7f 6c22 	mvnsne.w	ip, r2, asr #24
 8000178:	ea7f 6c23 	mvnsne.w	ip, r3, asr #24
 800017c:	d06a      	beq.n	8000254 <__addsf3+0xec>
 800017e:	ea4f 6212 	mov.w	r2, r2, lsr #24
 8000182:	ebd2 6313 	rsbs	r3, r2, r3, lsr #24
 8000186:	bfc1      	itttt	gt
 8000188:	18d2      	addgt	r2, r2, r3
 800018a:	4041      	eorgt	r1, r0
 800018c:	4048      	eorgt	r0, r1
 800018e:	4041      	eorgt	r1, r0
 8000190:	bfb8      	it	lt
 8000192:	425b      	neglt	r3, r3
 8000194:	2b19      	cmp	r3, #25
 8000196:	bf88      	it	hi
 8000198:	4770      	bxhi	lr
 800019a:	f010 4f00 	tst.w	r0, #2147483648	; 0x80000000
 800019e:	f440 0000 	orr.w	r0, r0, #8388608	; 0x800000
 80001a2:	f020 407f 	bic.w	r0, r0, #4278190080	; 0xff000000
 80001a6:	bf18      	it	ne
 80001a8:	4240      	negne	r0, r0
 80001aa:	f011 4f00 	tst.w	r1, #2147483648	; 0x80000000
 80001ae:	f441 0100 	orr.w	r1, r1, #8388608	; 0x800000
 80001b2:	f021 417f 	bic.w	r1, r1, #4278190080	; 0xff000000
 80001b6:	bf18      	it	ne
 80001b8:	4249      	negne	r1, r1
 80001ba:	ea92 0f03 	teq	r2, r3
 80001be:	d03f      	beq.n	8000240 <__addsf3+0xd8>
 80001c0:	f1a2 0201 	sub.w	r2, r2, #1
 80001c4:	fa41 fc03 	asr.w	ip, r1, r3
 80001c8:	eb10 000c 	adds.w	r0, r0, ip
 80001cc:	f1c3 0320 	rsb	r3, r3, #32
 80001d0:	fa01 f103 	lsl.w	r1, r1, r3
 80001d4:	f000 4300 	and.w	r3, r0, #2147483648	; 0x80000000
 80001d8:	d502      	bpl.n	80001e0 <__addsf3+0x78>
 80001da:	4249      	negs	r1, r1
 80001dc:	eb60 0040 	sbc.w	r0, r0, r0, lsl #1
 80001e0:	f5b0 0f00 	cmp.w	r0, #8388608	; 0x800000
 80001e4:	d313      	bcc.n	800020e <__addsf3+0xa6>
 80001e6:	f1b0 7f80 	cmp.w	r0, #16777216	; 0x1000000
 80001ea:	d306      	bcc.n	80001fa <__addsf3+0x92>
 80001ec:	0840      	lsrs	r0, r0, #1
 80001ee:	ea4f 0131 	mov.w	r1, r1, rrx
 80001f2:	f102 0201 	add.w	r2, r2, #1
 80001f6:	2afe      	cmp	r2, #254	; 0xfe
 80001f8:	d251      	bcs.n	800029e <__addsf3+0x136>
 80001fa:	f1b1 4f00 	cmp.w	r1, #2147483648	; 0x80000000
 80001fe:	eb40 50c2 	adc.w	r0, r0, r2, lsl #23
 8000202:	bf08      	it	eq
 8000204:	f020 0001 	biceq.w	r0, r0, #1
 8000208:	ea40 0003 	orr.w	r0, r0, r3
 800020c:	4770      	bx	lr
 800020e:	0049      	lsls	r1, r1, #1
 8000210:	eb40 0000 	adc.w	r0, r0, r0
 8000214:	3a01      	subs	r2, #1
 8000216:	bf28      	it	cs
 8000218:	f5b0 0f00 	cmpcs.w	r0, #8388608	; 0x800000
 800021c:	d2ed      	bcs.n	80001fa <__addsf3+0x92>
 800021e:	fab0 fc80 	clz	ip, r0
 8000222:	f1ac 0c08 	sub.w	ip, ip, #8
 8000226:	ebb2 020c 	subs.w	r2, r2, ip
 800022a:	fa00 f00c 	lsl.w	r0, r0, ip
 800022e:	bfaa      	itet	ge
 8000230:	eb00 50c2 	addge.w	r0, r0, r2, lsl #23
 8000234:	4252      	neglt	r2, r2
 8000236:	4318      	orrge	r0, r3
 8000238:	bfbc      	itt	lt
 800023a:	40d0      	lsrlt	r0, r2
 800023c:	4318      	orrlt	r0, r3
 800023e:	4770      	bx	lr
 8000240:	f092 0f00 	teq	r2, #0
 8000244:	f481 0100 	eor.w	r1, r1, #8388608	; 0x800000
 8000248:	bf06      	itte	eq
 800024a:	f480 0000 	eoreq.w	r0, r0, #8388608	; 0x800000
 800024e:	3201      	addeq	r2, #1
 8000250:	3b01      	subne	r3, #1
 8000252:	e7b5      	b.n	80001c0 <__addsf3+0x58>
 8000254:	ea4f 0341 	mov.w	r3, r1, lsl #1
 8000258:	ea7f 6c22 	mvns.w	ip, r2, asr #24
 800025c:	bf18      	it	ne
 800025e:	ea7f 6c23 	mvnsne.w	ip, r3, asr #24
 8000262:	d021      	beq.n	80002a8 <__addsf3+0x140>
 8000264:	ea92 0f03 	teq	r2, r3
 8000268:	d004      	beq.n	8000274 <__addsf3+0x10c>
 800026a:	f092 0f00 	teq	r2, #0
 800026e:	bf08      	it	eq
 8000270:	4608      	moveq	r0, r1
 8000272:	4770      	bx	lr
 8000274:	ea90 0f01 	teq	r0, r1
 8000278:	bf1c      	itt	ne
 800027a:	2000      	movne	r0, #0
 800027c:	4770      	bxne	lr
 800027e:	f012 4f7f 	tst.w	r2, #4278190080	; 0xff000000
 8000282:	d104      	bne.n	800028e <__addsf3+0x126>
 8000284:	0040      	lsls	r0, r0, #1
 8000286:	bf28      	it	cs
 8000288:	f040 4000 	orrcs.w	r0, r0, #2147483648	; 0x80000000
 800028c:	4770      	bx	lr
 800028e:	f112 7200 	adds.w	r2, r2, #33554432	; 0x2000000
 8000292:	bf3c      	itt	cc
 8000294:	f500 0000 	addcc.w	r0, r0, #8388608	; 0x800000
 8000298:	4770      	bxcc	lr
 800029a:	f000 4300 	and.w	r3, r0, #2147483648	; 0x80000000
 800029e:	f043 40fe 	orr.w	r0, r3, #2130706432	; 0x7f000000
 80002a2:	f440 0000 	orr.w	r0, r0, #8388608	; 0x800000
 80002a6:	4770      	bx	lr
 80002a8:	ea7f 6222 	mvns.w	r2, r2, asr #24
 80002ac:	bf16      	itet	ne
 80002ae:	4608      	movne	r0, r1
 80002b0:	ea7f 6323 	mvnseq.w	r3, r3, asr #24
 80002b4:	4601      	movne	r1, r0
 80002b6:	0242      	lsls	r2, r0, #9
 80002b8:	bf06      	itte	eq
 80002ba:	ea5f 2341 	movseq.w	r3, r1, lsl #9
 80002be:	ea90 0f01 	teqeq	r0, r1
 80002c2:	f440 0080 	orrne.w	r0, r0, #4194304	; 0x400000
 80002c6:	4770      	bx	lr

080002c8 <__aeabi_ui2f>:
 80002c8:	f04f 0300 	mov.w	r3, #0
 80002cc:	e004      	b.n	80002d8 <__aeabi_i2f+0x8>
 80002ce:	bf00      	nop

080002d0 <__aeabi_i2f>:
 80002d0:	f010 4300 	ands.w	r3, r0, #2147483648	; 0x80000000
 80002d4:	bf48      	it	mi
 80002d6:	4240      	negmi	r0, r0
 80002d8:	ea5f 0c00 	movs.w	ip, r0
 80002dc:	bf08      	it	eq
 80002de:	4770      	bxeq	lr
 80002e0:	f043 4396 	orr.w	r3, r3, #1258291200	; 0x4b000000
 80002e4:	4601      	mov	r1, r0
 80002e6:	f04f 0000 	mov.w	r0, #0
 80002ea:	e01c      	b.n	8000326 <__aeabi_l2f+0x2a>

080002ec <__aeabi_ul2f>:
 80002ec:	ea50 0201 	orrs.w	r2, r0, r1
 80002f0:	bf08      	it	eq
 80002f2:	4770      	bxeq	lr
 80002f4:	f04f 0300 	mov.w	r3, #0
 80002f8:	e00a      	b.n	8000310 <__aeabi_l2f+0x14>
 80002fa:	bf00      	nop

080002fc <__aeabi_l2f>:
 80002fc:	ea50 0201 	orrs.w	r2, r0, r1
 8000300:	bf08      	it	eq
 8000302:	4770      	bxeq	lr
 8000304:	f011 4300 	ands.w	r3, r1, #2147483648	; 0x80000000
 8000308:	d502      	bpl.n	8000310 <__aeabi_l2f+0x14>
 800030a:	4240      	negs	r0, r0
 800030c:	eb61 0141 	sbc.w	r1, r1, r1, lsl #1
 8000310:	ea5f 0c01 	movs.w	ip, r1
 8000314:	bf02      	ittt	eq
 8000316:	4684      	moveq	ip, r0
 8000318:	4601      	moveq	r1, r0
 800031a:	2000      	moveq	r0, #0
 800031c:	f043 43b6 	orr.w	r3, r3, #1526726656	; 0x5b000000
 8000320:	bf08      	it	eq
 8000322:	f1a3 5380 	subeq.w	r3, r3, #268435456	; 0x10000000
 8000326:	f5a3 0300 	sub.w	r3, r3, #8388608	; 0x800000
 800032a:	fabc f28c 	clz	r2, ip
 800032e:	3a08      	subs	r2, #8
 8000330:	eba3 53c2 	sub.w	r3, r3, r2, lsl #23
 8000334:	db10      	blt.n	8000358 <__aeabi_l2f+0x5c>
 8000336:	fa01 fc02 	lsl.w	ip, r1, r2
 800033a:	4463      	add	r3, ip
 800033c:	fa00 fc02 	lsl.w	ip, r0, r2
 8000340:	f1c2 0220 	rsb	r2, r2, #32
 8000344:	f1bc 4f00 	cmp.w	ip, #2147483648	; 0x80000000
 8000348:	fa20 f202 	lsr.w	r2, r0, r2
 800034c:	eb43 0002 	adc.w	r0, r3, r2
 8000350:	bf08      	it	eq
 8000352:	f020 0001 	biceq.w	r0, r0, #1
 8000356:	4770      	bx	lr
 8000358:	f102 0220 	add.w	r2, r2, #32
 800035c:	fa01 fc02 	lsl.w	ip, r1, r2
 8000360:	f1c2 0220 	rsb	r2, r2, #32
 8000364:	ea50 004c 	orrs.w	r0, r0, ip, lsl #1
 8000368:	fa21 f202 	lsr.w	r2, r1, r2
 800036c:	eb43 0002 	adc.w	r0, r3, r2
 8000370:	bf08      	it	eq
 8000372:	ea20 70dc 	biceq.w	r0, r0, ip, lsr #31
 8000376:	4770      	bx	lr

08000378 <__aeabi_fmul>:
 8000378:	f04f 0cff 	mov.w	ip, #255	; 0xff
 800037c:	ea1c 52d0 	ands.w	r2, ip, r0, lsr #23
 8000380:	bf1e      	ittt	ne
 8000382:	ea1c 53d1 	andsne.w	r3, ip, r1, lsr #23
 8000386:	ea92 0f0c 	teqne	r2, ip
 800038a:	ea93 0f0c 	teqne	r3, ip
 800038e:	d06f      	beq.n	8000470 <__aeabi_fmul+0xf8>
 8000390:	441a      	add	r2, r3
 8000392:	ea80 0c01 	eor.w	ip, r0, r1
 8000396:	0240      	lsls	r0, r0, #9
 8000398:	bf18      	it	ne
 800039a:	ea5f 2141 	movsne.w	r1, r1, lsl #9
 800039e:	d01e      	beq.n	80003de <__aeabi_fmul+0x66>
 80003a0:	f04f 6300 	mov.w	r3, #134217728	; 0x8000000
 80003a4:	ea43 1050 	orr.w	r0, r3, r0, lsr #5
 80003a8:	ea43 1151 	orr.w	r1, r3, r1, lsr #5
 80003ac:	fba0 3101 	umull	r3, r1, r0, r1
 80003b0:	f00c 4000 	and.w	r0, ip, #2147483648	; 0x80000000
 80003b4:	f5b1 0f00 	cmp.w	r1, #8388608	; 0x800000
 80003b8:	bf3e      	ittt	cc
 80003ba:	0049      	lslcc	r1, r1, #1
 80003bc:	ea41 71d3 	orrcc.w	r1, r1, r3, lsr #31
 80003c0:	005b      	lslcc	r3, r3, #1
 80003c2:	ea40 0001 	orr.w	r0, r0, r1
 80003c6:	f162 027f 	sbc.w	r2, r2, #127	; 0x7f
 80003ca:	2afd      	cmp	r2, #253	; 0xfd
 80003cc:	d81d      	bhi.n	800040a <__aeabi_fmul+0x92>
 80003ce:	f1b3 4f00 	cmp.w	r3, #2147483648	; 0x80000000
 80003d2:	eb40 50c2 	adc.w	r0, r0, r2, lsl #23
 80003d6:	bf08      	it	eq
 80003d8:	f020 0001 	biceq.w	r0, r0, #1
 80003dc:	4770      	bx	lr
 80003de:	f090 0f00 	teq	r0, #0
 80003e2:	f00c 4c00 	and.w	ip, ip, #2147483648	; 0x80000000
 80003e6:	bf08      	it	eq
 80003e8:	0249      	lsleq	r1, r1, #9
 80003ea:	ea4c 2050 	orr.w	r0, ip, r0, lsr #9
 80003ee:	ea40 2051 	orr.w	r0, r0, r1, lsr #9
 80003f2:	3a7f      	subs	r2, #127	; 0x7f
 80003f4:	bfc2      	ittt	gt
 80003f6:	f1d2 03ff 	rsbsgt	r3, r2, #255	; 0xff
 80003fa:	ea40 50c2 	orrgt.w	r0, r0, r2, lsl #23
 80003fe:	4770      	bxgt	lr
 8000400:	f440 0000 	orr.w	r0, r0, #8388608	; 0x800000
 8000404:	f04f 0300 	mov.w	r3, #0
 8000408:	3a01      	subs	r2, #1
 800040a:	dc5d      	bgt.n	80004c8 <__aeabi_fmul+0x150>
 800040c:	f112 0f19 	cmn.w	r2, #25
 8000410:	bfdc      	itt	le
 8000412:	f000 4000 	andle.w	r0, r0, #2147483648	; 0x80000000
 8000416:	4770      	bxle	lr
 8000418:	f1c2 0200 	rsb	r2, r2, #0
 800041c:	0041      	lsls	r1, r0, #1
 800041e:	fa21 f102 	lsr.w	r1, r1, r2
 8000422:	f1c2 0220 	rsb	r2, r2, #32
 8000426:	fa00 fc02 	lsl.w	ip, r0, r2
 800042a:	ea5f 0031 	movs.w	r0, r1, rrx
 800042e:	f140 0000 	adc.w	r0, r0, #0
 8000432:	ea53 034c 	orrs.w	r3, r3, ip, lsl #1
 8000436:	bf08      	it	eq
 8000438:	ea20 70dc 	biceq.w	r0, r0, ip, lsr #31
 800043c:	4770      	bx	lr
 800043e:	f092 0f00 	teq	r2, #0
 8000442:	f000 4c00 	and.w	ip, r0, #2147483648	; 0x80000000
 8000446:	bf02      	ittt	eq
 8000448:	0040      	lsleq	r0, r0, #1
 800044a:	f410 0f00 	tsteq.w	r0, #8388608	; 0x800000
 800044e:	3a01      	subeq	r2, #1
 8000450:	d0f9      	beq.n	8000446 <__aeabi_fmul+0xce>
 8000452:	ea40 000c 	orr.w	r0, r0, ip
 8000456:	f093 0f00 	teq	r3, #0
 800045a:	f001 4c00 	and.w	ip, r1, #2147483648	; 0x80000000
 800045e:	bf02      	ittt	eq
 8000460:	0049      	lsleq	r1, r1, #1
 8000462:	f411 0f00 	tsteq.w	r1, #8388608	; 0x800000
 8000466:	3b01      	subeq	r3, #1
 8000468:	d0f9      	beq.n	800045e <__aeabi_fmul+0xe6>
 800046a:	ea41 010c 	orr.w	r1, r1, ip
 800046e:	e78f      	b.n	8000390 <__aeabi_fmul+0x18>
 8000470:	ea0c 53d1 	and.w	r3, ip, r1, lsr #23
 8000474:	ea92 0f0c 	teq	r2, ip
 8000478:	bf18      	it	ne
 800047a:	ea93 0f0c 	teqne	r3, ip
 800047e:	d00a      	beq.n	8000496 <__aeabi_fmul+0x11e>
 8000480:	f030 4c00 	bics.w	ip, r0, #2147483648	; 0x80000000
 8000484:	bf18      	it	ne
 8000486:	f031 4c00 	bicsne.w	ip, r1, #2147483648	; 0x80000000
 800048a:	d1d8      	bne.n	800043e <__aeabi_fmul+0xc6>
 800048c:	ea80 0001 	eor.w	r0, r0, r1
 8000490:	f000 4000 	and.w	r0, r0, #2147483648	; 0x80000000
 8000494:	4770      	bx	lr
 8000496:	f090 0f00 	teq	r0, #0
 800049a:	bf17      	itett	ne
 800049c:	f090 4f00 	teqne	r0, #2147483648	; 0x80000000
 80004a0:	4608      	moveq	r0, r1
 80004a2:	f091 0f00 	teqne	r1, #0
 80004a6:	f091 4f00 	teqne	r1, #2147483648	; 0x80000000
 80004aa:	d014      	beq.n	80004d6 <__aeabi_fmul+0x15e>
 80004ac:	ea92 0f0c 	teq	r2, ip
 80004b0:	d101      	bne.n	80004b6 <__aeabi_fmul+0x13e>
 80004b2:	0242      	lsls	r2, r0, #9
 80004b4:	d10f      	bne.n	80004d6 <__aeabi_fmul+0x15e>
 80004b6:	ea93 0f0c 	teq	r3, ip
 80004ba:	d103      	bne.n	80004c4 <__aeabi_fmul+0x14c>
 80004bc:	024b      	lsls	r3, r1, #9
 80004be:	bf18      	it	ne
 80004c0:	4608      	movne	r0, r1
 80004c2:	d108      	bne.n	80004d6 <__aeabi_fmul+0x15e>
 80004c4:	ea80 0001 	eor.w	r0, r0, r1
 80004c8:	f000 4000 	and.w	r0, r0, #2147483648	; 0x80000000
 80004cc:	f040 40fe 	orr.w	r0, r0, #2130706432	; 0x7f000000
 80004d0:	f440 0000 	orr.w	r0, r0, #8388608	; 0x800000
 80004d4:	4770      	bx	lr
 80004d6:	f040 40fe 	orr.w	r0, r0, #2130706432	; 0x7f000000
 80004da:	f440 0040 	orr.w	r0, r0, #12582912	; 0xc00000
 80004de:	4770      	bx	lr

080004e0 <__aeabi_fdiv>:
 80004e0:	f04f 0cff 	mov.w	ip, #255	; 0xff
 80004e4:	ea1c 52d0 	ands.w	r2, ip, r0, lsr #23
 80004e8:	bf1e      	ittt	ne
 80004ea:	ea1c 53d1 	andsne.w	r3, ip, r1, lsr #23
 80004ee:	ea92 0f0c 	teqne	r2, ip
 80004f2:	ea93 0f0c 	teqne	r3, ip
 80004f6:	d069      	beq.n	80005cc <__aeabi_fdiv+0xec>
 80004f8:	eba2 0203 	sub.w	r2, r2, r3
 80004fc:	ea80 0c01 	eor.w	ip, r0, r1
 8000500:	0249      	lsls	r1, r1, #9
 8000502:	ea4f 2040 	mov.w	r0, r0, lsl #9
 8000506:	d037      	beq.n	8000578 <__aeabi_fdiv+0x98>
 8000508:	f04f 5380 	mov.w	r3, #268435456	; 0x10000000
 800050c:	ea43 1111 	orr.w	r1, r3, r1, lsr #4
 8000510:	ea43 1310 	orr.w	r3, r3, r0, lsr #4
 8000514:	f00c 4000 	and.w	r0, ip, #2147483648	; 0x80000000
 8000518:	428b      	cmp	r3, r1
 800051a:	bf38      	it	cc
 800051c:	005b      	lslcc	r3, r3, #1
 800051e:	f142 027d 	adc.w	r2, r2, #125	; 0x7d
 8000522:	f44f 0c00 	mov.w	ip, #8388608	; 0x800000
 8000526:	428b      	cmp	r3, r1
 8000528:	bf24      	itt	cs
 800052a:	1a5b      	subcs	r3, r3, r1
 800052c:	ea40 000c 	orrcs.w	r0, r0, ip
 8000530:	ebb3 0f51 	cmp.w	r3, r1, lsr #1
 8000534:	bf24      	itt	cs
 8000536:	eba3 0351 	subcs.w	r3, r3, r1, lsr #1
 800053a:	ea40 005c 	orrcs.w	r0, r0, ip, lsr #1
 800053e:	ebb3 0f91 	cmp.w	r3, r1, lsr #2
 8000542:	bf24      	itt	cs
 8000544:	eba3 0391 	subcs.w	r3, r3, r1, lsr #2
 8000548:	ea40 009c 	orrcs.w	r0, r0, ip, lsr #2
 800054c:	ebb3 0fd1 	cmp.w	r3, r1, lsr #3
 8000550:	bf24      	itt	cs
 8000552:	eba3 03d1 	subcs.w	r3, r3, r1, lsr #3
 8000556:	ea40 00dc 	orrcs.w	r0, r0, ip, lsr #3
 800055a:	011b      	lsls	r3, r3, #4
 800055c:	bf18      	it	ne
 800055e:	ea5f 1c1c 	movsne.w	ip, ip, lsr #4
 8000562:	d1e0      	bne.n	8000526 <__aeabi_fdiv+0x46>
 8000564:	2afd      	cmp	r2, #253	; 0xfd
 8000566:	f63f af50 	bhi.w	800040a <__aeabi_fmul+0x92>
 800056a:	428b      	cmp	r3, r1
 800056c:	eb40 50c2 	adc.w	r0, r0, r2, lsl #23
 8000570:	bf08      	it	eq
 8000572:	f020 0001 	biceq.w	r0, r0, #1
 8000576:	4770      	bx	lr
 8000578:	f00c 4c00 	and.w	ip, ip, #2147483648	; 0x80000000
 800057c:	ea4c 2050 	orr.w	r0, ip, r0, lsr #9
 8000580:	327f      	adds	r2, #127	; 0x7f
 8000582:	bfc2      	ittt	gt
 8000584:	f1d2 03ff 	rsbsgt	r3, r2, #255	; 0xff
 8000588:	ea40 50c2 	orrgt.w	r0, r0, r2, lsl #23
 800058c:	4770      	bxgt	lr
 800058e:	f440 0000 	orr.w	r0, r0, #8388608	; 0x800000
 8000592:	f04f 0300 	mov.w	r3, #0
 8000596:	3a01      	subs	r2, #1
 8000598:	e737      	b.n	800040a <__aeabi_fmul+0x92>
 800059a:	f092 0f00 	teq	r2, #0
 800059e:	f000 4c00 	and.w	ip, r0, #2147483648	; 0x80000000
 80005a2:	bf02      	ittt	eq
 80005a4:	0040      	lsleq	r0, r0, #1
 80005a6:	f410 0f00 	tsteq.w	r0, #8388608	; 0x800000
 80005aa:	3a01      	subeq	r2, #1
 80005ac:	d0f9      	beq.n	80005a2 <__aeabi_fdiv+0xc2>
 80005ae:	ea40 000c 	orr.w	r0, r0, ip
 80005b2:	f093 0f00 	teq	r3, #0
 80005b6:	f001 4c00 	and.w	ip, r1, #2147483648	; 0x80000000
 80005ba:	bf02      	ittt	eq
 80005bc:	0049      	lsleq	r1, r1, #1
 80005be:	f411 0f00 	tsteq.w	r1, #8388608	; 0x800000
 80005c2:	3b01      	subeq	r3, #1
 80005c4:	d0f9      	beq.n	80005ba <__aeabi_fdiv+0xda>
 80005c6:	ea41 010c 	orr.w	r1, r1, ip
 80005ca:	e795      	b.n	80004f8 <__aeabi_fdiv+0x18>
 80005cc:	ea0c 53d1 	and.w	r3, ip, r1, lsr #23
 80005d0:	ea92 0f0c 	teq	r2, ip
 80005d4:	d108      	bne.n	80005e8 <__aeabi_fdiv+0x108>
 80005d6:	0242      	lsls	r2, r0, #9
 80005d8:	f47f af7d 	bne.w	80004d6 <__aeabi_fmul+0x15e>
 80005dc:	ea93 0f0c 	teq	r3, ip
 80005e0:	f47f af70 	bne.w	80004c4 <__aeabi_fmul+0x14c>
 80005e4:	4608      	mov	r0, r1
 80005e6:	e776      	b.n	80004d6 <__aeabi_fmul+0x15e>
 80005e8:	ea93 0f0c 	teq	r3, ip
 80005ec:	d104      	bne.n	80005f8 <__aeabi_fdiv+0x118>
 80005ee:	024b      	lsls	r3, r1, #9
 80005f0:	f43f af4c 	beq.w	800048c <__aeabi_fmul+0x114>
 80005f4:	4608      	mov	r0, r1
 80005f6:	e76e      	b.n	80004d6 <__aeabi_fmul+0x15e>
 80005f8:	f030 4c00 	bics.w	ip, r0, #2147483648	; 0x80000000
 80005fc:	bf18      	it	ne
 80005fe:	f031 4c00 	bicsne.w	ip, r1, #2147483648	; 0x80000000
 8000602:	d1ca      	bne.n	800059a <__aeabi_fdiv+0xba>
 8000604:	f030 4200 	bics.w	r2, r0, #2147483648	; 0x80000000
 8000608:	f47f af5c 	bne.w	80004c4 <__aeabi_fmul+0x14c>
 800060c:	f031 4300 	bics.w	r3, r1, #2147483648	; 0x80000000
 8000610:	f47f af3c 	bne.w	800048c <__aeabi_fmul+0x114>
 8000614:	e75f      	b.n	80004d6 <__aeabi_fmul+0x15e>
 8000616:	bf00      	nop

08000618 <__gesf2>:
 8000618:	f04f 3cff 	mov.w	ip, #4294967295
 800061c:	e006      	b.n	800062c <__cmpsf2+0x4>
 800061e:	bf00      	nop

08000620 <__lesf2>:
 8000620:	f04f 0c01 	mov.w	ip, #1
 8000624:	e002      	b.n	800062c <__cmpsf2+0x4>
 8000626:	bf00      	nop

08000628 <__cmpsf2>:
 8000628:	f04f 0c01 	mov.w	ip, #1
 800062c:	f84d cd04 	str.w	ip, [sp, #-4]!
 8000630:	ea4f 0240 	mov.w	r2, r0, lsl #1
 8000634:	ea4f 0341 	mov.w	r3, r1, lsl #1
 8000638:	ea7f 6c22 	mvns.w	ip, r2, asr #24
 800063c:	bf18      	it	ne
 800063e:	ea7f 6c23 	mvnsne.w	ip, r3, asr #24
 8000642:	d011      	beq.n	8000668 <__cmpsf2+0x40>
 8000644:	b001      	add	sp, #4
 8000646:	ea52 0c53 	orrs.w	ip, r2, r3, lsr #1
 800064a:	bf18      	it	ne
 800064c:	ea90 0f01 	teqne	r0, r1
 8000650:	bf58      	it	pl
 8000652:	ebb2 0003 	subspl.w	r0, r2, r3
 8000656:	bf88      	it	hi
 8000658:	17c8      	asrhi	r0, r1, #31
 800065a:	bf38      	it	cc
 800065c:	ea6f 70e1 	mvncc.w	r0, r1, asr #31
 8000660:	bf18      	it	ne
 8000662:	f040 0001 	orrne.w	r0, r0, #1
 8000666:	4770      	bx	lr
 8000668:	ea7f 6c22 	mvns.w	ip, r2, asr #24
 800066c:	d102      	bne.n	8000674 <__cmpsf2+0x4c>
 800066e:	ea5f 2c40 	movs.w	ip, r0, lsl #9
 8000672:	d105      	bne.n	8000680 <__cmpsf2+0x58>
 8000674:	ea7f 6c23 	mvns.w	ip, r3, asr #24
 8000678:	d1e4      	bne.n	8000644 <__cmpsf2+0x1c>
 800067a:	ea5f 2c41 	movs.w	ip, r1, lsl #9
 800067e:	d0e1      	beq.n	8000644 <__cmpsf2+0x1c>
 8000680:	f85d 0b04 	ldr.w	r0, [sp], #4
 8000684:	4770      	bx	lr
 8000686:	bf00      	nop

08000688 <__aeabi_cfrcmple>:
 8000688:	4684      	mov	ip, r0
 800068a:	4608      	mov	r0, r1
 800068c:	4661      	mov	r1, ip
 800068e:	e7ff      	b.n	8000690 <__aeabi_cfcmpeq>

08000690 <__aeabi_cfcmpeq>:
 8000690:	b50f      	push	{r0, r1, r2, r3, lr}
 8000692:	f7ff ffc9 	bl	8000628 <__cmpsf2>
 8000696:	2800      	cmp	r0, #0
 8000698:	bf48      	it	mi
 800069a:	f110 0f00 	cmnmi.w	r0, #0
 800069e:	bd0f      	pop	{r0, r1, r2, r3, pc}

080006a0 <__aeabi_fcmpeq>:
 80006a0:	f84d ed08 	str.w	lr, [sp, #-8]!
 80006a4:	f7ff fff4 	bl	8000690 <__aeabi_cfcmpeq>
 80006a8:	bf0c      	ite	eq
 80006aa:	2001      	moveq	r0, #1
 80006ac:	2000      	movne	r0, #0
 80006ae:	f85d fb08 	ldr.w	pc, [sp], #8
 80006b2:	bf00      	nop

080006b4 <__aeabi_fcmplt>:
 80006b4:	f84d ed08 	str.w	lr, [sp, #-8]!
 80006b8:	f7ff ffea 	bl	8000690 <__aeabi_cfcmpeq>
 80006bc:	bf34      	ite	cc
 80006be:	2001      	movcc	r0, #1
 80006c0:	2000      	movcs	r0, #0
 80006c2:	f85d fb08 	ldr.w	pc, [sp], #8
 80006c6:	bf00      	nop

080006c8 <__aeabi_fcmple>:
 80006c8:	f84d ed08 	str.w	lr, [sp, #-8]!
 80006cc:	f7ff ffe0 	bl	8000690 <__aeabi_cfcmpeq>
 80006d0:	bf94      	ite	ls
 80006d2:	2001      	movls	r0, #1
 80006d4:	2000      	movhi	r0, #0
 80006d6:	f85d fb08 	ldr.w	pc, [sp], #8
 80006da:	bf00      	nop

080006dc <__aeabi_fcmpge>:
 80006dc:	f84d ed08 	str.w	lr, [sp, #-8]!
 80006e0:	f7ff ffd2 	bl	8000688 <__aeabi_cfrcmple>
 80006e4:	bf94      	ite	ls
 80006e6:	2001      	movls	r0, #1
 80006e8:	2000      	movhi	r0, #0
 80006ea:	f85d fb08 	ldr.w	pc, [sp], #8
 80006ee:	bf00      	nop

080006f0 <__aeabi_fcmpgt>:
 80006f0:	f84d ed08 	str.w	lr, [sp, #-8]!
 80006f4:	f7ff ffc8 	bl	8000688 <__aeabi_cfrcmple>
 80006f8:	bf34      	ite	cc
 80006fa:	2001      	movcc	r0, #1
 80006fc:	2000      	movcs	r0, #0
 80006fe:	f85d fb08 	ldr.w	pc, [sp], #8
 8000702:	bf00      	nop

08000704 <__aeabi_f2uiz>:
 8000704:	0042      	lsls	r2, r0, #1
 8000706:	d20e      	bcs.n	8000726 <__aeabi_f2uiz+0x22>
 8000708:	f1b2 4ffe 	cmp.w	r2, #2130706432	; 0x7f000000
 800070c:	d30b      	bcc.n	8000726 <__aeabi_f2uiz+0x22>
 800070e:	f04f 039e 	mov.w	r3, #158	; 0x9e
 8000712:	ebb3 6212 	subs.w	r2, r3, r2, lsr #24
 8000716:	d409      	bmi.n	800072c <__aeabi_f2uiz+0x28>
 8000718:	ea4f 2300 	mov.w	r3, r0, lsl #8
 800071c:	f043 4300 	orr.w	r3, r3, #2147483648	; 0x80000000
 8000720:	fa23 f002 	lsr.w	r0, r3, r2
 8000724:	4770      	bx	lr
 8000726:	f04f 0000 	mov.w	r0, #0
 800072a:	4770      	bx	lr
 800072c:	f112 0f61 	cmn.w	r2, #97	; 0x61
 8000730:	d101      	bne.n	8000736 <__aeabi_f2uiz+0x32>
 8000732:	0242      	lsls	r2, r0, #9
 8000734:	d102      	bne.n	800073c <__aeabi_f2uiz+0x38>
 8000736:	f04f 30ff 	mov.w	r0, #4294967295
 800073a:	4770      	bx	lr
 800073c:	f04f 0000 	mov.w	r0, #0
 8000740:	4770      	bx	lr
 8000742:	bf00      	nop

08000744 <HAL_InitTick>:
  *       implementation  in user file.
  * @param TickPriority Tick interrupt priority.
  * @retval HAL status
  */
__weak HAL_StatusTypeDef HAL_InitTick(uint32_t TickPriority)
{
 8000744:	b538      	push	{r3, r4, r5, lr}
  /* Configure the SysTick to have interrupt in 1ms time basis*/
  if (HAL_SYSTICK_Config(SystemCoreClock / (1000U / uwTickFreq)) > 0U)
 8000746:	4b0e      	ldr	r3, [pc, #56]	; (8000780 <HAL_InitTick+0x3c>)
{
 8000748:	4605      	mov	r5, r0
  if (HAL_SYSTICK_Config(SystemCoreClock / (1000U / uwTickFreq)) > 0U)
 800074a:	7818      	ldrb	r0, [r3, #0]
 800074c:	f44f 737a 	mov.w	r3, #1000	; 0x3e8
 8000750:	fbb3 f3f0 	udiv	r3, r3, r0
 8000754:	4a0b      	ldr	r2, [pc, #44]	; (8000784 <HAL_InitTick+0x40>)
 8000756:	6810      	ldr	r0, [r2, #0]
 8000758:	fbb0 f0f3 	udiv	r0, r0, r3
 800075c:	f000 fc0a 	bl	8000f74 <HAL_SYSTICK_Config>
 8000760:	4604      	mov	r4, r0
 8000762:	b958      	cbnz	r0, 800077c <HAL_InitTick+0x38>
  {
    return HAL_ERROR;
  }

  /* Configure the SysTick IRQ priority */
  if (TickPriority < (1UL << __NVIC_PRIO_BITS))
 8000764:	2d0f      	cmp	r5, #15
 8000766:	d809      	bhi.n	800077c <HAL_InitTick+0x38>
  {
    HAL_NVIC_SetPriority(SysTick_IRQn, TickPriority, 0U);
 8000768:	4602      	mov	r2, r0
 800076a:	4629      	mov	r1, r5
 800076c:	f04f 30ff 	mov.w	r0, #4294967295
 8000770:	f000 fbac 	bl	8000ecc <HAL_NVIC_SetPriority>
    uwTickPrio = TickPriority;
 8000774:	4620      	mov	r0, r4
 8000776:	4b04      	ldr	r3, [pc, #16]	; (8000788 <HAL_InitTick+0x44>)
 8000778:	601d      	str	r5, [r3, #0]
    return HAL_ERROR;
  }

  /* Return function status */
  return HAL_OK;
}
 800077a:	bd38      	pop	{r3, r4, r5, pc}
    return HAL_ERROR;
 800077c:	2001      	movs	r0, #1
 800077e:	e7fc      	b.n	800077a <HAL_InitTick+0x36>
 8000780:	20000000 	.word	0x20000000
 8000784:	2000002c 	.word	0x2000002c
 8000788:	20000004 	.word	0x20000004

0800078c <HAL_Init>:
  __HAL_FLASH_PREFETCH_BUFFER_ENABLE();
 800078c:	4a07      	ldr	r2, [pc, #28]	; (80007ac <HAL_Init+0x20>)
{
 800078e:	b508      	push	{r3, lr}
  __HAL_FLASH_PREFETCH_BUFFER_ENABLE();
 8000790:	6813      	ldr	r3, [r2, #0]
  HAL_NVIC_SetPriorityGrouping(NVIC_PRIORITYGROUP_4);
 8000792:	2003      	movs	r0, #3
  __HAL_FLASH_PREFETCH_BUFFER_ENABLE();
 8000794:	f043 0310 	orr.w	r3, r3, #16
 8000798:	6013      	str	r3, [r2, #0]
  HAL_NVIC_SetPriorityGrouping(NVIC_PRIORITYGROUP_4);
 800079a:	f000 fb85 	bl	8000ea8 <HAL_NVIC_SetPriorityGrouping>
  HAL_InitTick(TICK_INT_PRIORITY);
 800079e:	2001      	movs	r0, #1
 80007a0:	f7ff ffd0 	bl	8000744 <HAL_InitTick>
  HAL_MspInit();
 80007a4:	f006 fed8 	bl	8007558 <HAL_MspInit>
}
 80007a8:	2000      	movs	r0, #0
 80007aa:	bd08      	pop	{r3, pc}
 80007ac:	40022000 	.word	0x40022000

080007b0 <HAL_IncTick>:
  *      implementations in user file.
  * @retval None
  */
__weak void HAL_IncTick(void)
{
  uwTick += uwTickFreq;
 80007b0:	4a03      	ldr	r2, [pc, #12]	; (80007c0 <HAL_IncTick+0x10>)
 80007b2:	4b04      	ldr	r3, [pc, #16]	; (80007c4 <HAL_IncTick+0x14>)
 80007b4:	6811      	ldr	r1, [r2, #0]
 80007b6:	781b      	ldrb	r3, [r3, #0]
 80007b8:	440b      	add	r3, r1
 80007ba:	6013      	str	r3, [r2, #0]
}
 80007bc:	4770      	bx	lr
 80007be:	bf00      	nop
 80007c0:	20000164 	.word	0x20000164
 80007c4:	20000000 	.word	0x20000000

080007c8 <HAL_GetTick>:
  *       implementations in user file.
  * @retval tick value
  */
__weak uint32_t HAL_GetTick(void)
{
  return uwTick;
 80007c8:	4b01      	ldr	r3, [pc, #4]	; (80007d0 <HAL_GetTick+0x8>)
 80007ca:	6818      	ldr	r0, [r3, #0]
}
 80007cc:	4770      	bx	lr
 80007ce:	bf00      	nop
 80007d0:	20000164 	.word	0x20000164

080007d4 <HAL_Delay>:
  *       implementations in user file.
  * @param Delay specifies the delay time length, in milliseconds.
  * @retval None
  */
__weak void HAL_Delay(uint32_t Delay)
{
 80007d4:	b538      	push	{r3, r4, r5, lr}
 80007d6:	4604      	mov	r4, r0
  uint32_t tickstart = HAL_GetTick();
 80007d8:	f7ff fff6 	bl	80007c8 <HAL_GetTick>
 80007dc:	4605      	mov	r5, r0
  uint32_t wait = Delay;

  /* Add a freq to guarantee minimum wait */
  if (wait < HAL_MAX_DELAY)
 80007de:	1c63      	adds	r3, r4, #1
  {
    wait += (uint32_t)(uwTickFreq);
 80007e0:	bf1e      	ittt	ne
 80007e2:	4b04      	ldrne	r3, [pc, #16]	; (80007f4 <HAL_Delay+0x20>)
 80007e4:	781b      	ldrbne	r3, [r3, #0]
 80007e6:	18e4      	addne	r4, r4, r3
  }

  while ((HAL_GetTick() - tickstart) < wait)
 80007e8:	f7ff ffee 	bl	80007c8 <HAL_GetTick>
 80007ec:	1b43      	subs	r3, r0, r5
 80007ee:	42a3      	cmp	r3, r4
 80007f0:	d3fa      	bcc.n	80007e8 <HAL_Delay+0x14>
  {
  }
}
 80007f2:	bd38      	pop	{r3, r4, r5, pc}
 80007f4:	20000000 	.word	0x20000000

080007f8 <HAL_CAN_Init>:
  * @param  hcan pointer to a CAN_HandleTypeDef structure that contains
  *         the configuration information for the specified CAN.
  * @retval HAL status
  */
HAL_StatusTypeDef HAL_CAN_Init(CAN_HandleTypeDef *hcan)
{
 80007f8:	b538      	push	{r3, r4, r5, lr}
  uint32_t tickstart;

  /* Check CAN handle */
  if (hcan == NULL)
 80007fa:	4604      	mov	r4, r0
 80007fc:	2800      	cmp	r0, #0
 80007fe:	d06e      	beq.n	80008de <HAL_CAN_Init+0xe6>
    /* Init the low level hardware: CLOCK, NVIC */
    hcan->MspInitCallback(hcan);
  }

#else
  if (hcan->State == HAL_CAN_STATE_RESET)
 8000800:	f890 3020 	ldrb.w	r3, [r0, #32]
 8000804:	b90b      	cbnz	r3, 800080a <HAL_CAN_Init+0x12>
  {
    /* Init the low level hardware: CLOCK, NVIC */
    HAL_CAN_MspInit(hcan);
 8000806:	f005 fb4b 	bl	8005ea0 <HAL_CAN_MspInit>
  }
#endif /* (USE_HAL_CAN_REGISTER_CALLBACKS) */

  /* Exit from sleep mode */
  CLEAR_BIT(hcan->Instance->MCR, CAN_MCR_SLEEP);
 800080a:	6822      	ldr	r2, [r4, #0]
 800080c:	6813      	ldr	r3, [r2, #0]
 800080e:	f023 0302 	bic.w	r3, r3, #2
 8000812:	6013      	str	r3, [r2, #0]

  /* Get tick */
  tickstart = HAL_GetTick();
 8000814:	f7ff ffd8 	bl	80007c8 <HAL_GetTick>
 8000818:	4605      	mov	r5, r0

  /* Check Sleep mode leave acknowledge */
  while ((hcan->Instance->MSR & CAN_MSR_SLAK) != 0U)
 800081a:	6823      	ldr	r3, [r4, #0]
 800081c:	685a      	ldr	r2, [r3, #4]
 800081e:	0791      	lsls	r1, r2, #30
 8000820:	d451      	bmi.n	80008c6 <HAL_CAN_Init+0xce>
      return HAL_ERROR;
    }
  }

  /* Request initialisation */
  SET_BIT(hcan->Instance->MCR, CAN_MCR_INRQ);
 8000822:	681a      	ldr	r2, [r3, #0]
 8000824:	f042 0201 	orr.w	r2, r2, #1
 8000828:	601a      	str	r2, [r3, #0]

  /* Get tick */
  tickstart = HAL_GetTick();
 800082a:	f7ff ffcd 	bl	80007c8 <HAL_GetTick>
 800082e:	4605      	mov	r5, r0

  /* Wait initialisation acknowledge */
  while ((hcan->Instance->MSR & CAN_MSR_INAK) == 0U)
 8000830:	6823      	ldr	r3, [r4, #0]
 8000832:	685a      	ldr	r2, [r3, #4]
 8000834:	07d2      	lsls	r2, r2, #31
 8000836:	d554      	bpl.n	80008e2 <HAL_CAN_Init+0xea>
      return HAL_ERROR;
    }
  }

  /* Set the time triggered communication mode */
  if (hcan->Init.TimeTriggeredMode == ENABLE)
 8000838:	7e22      	ldrb	r2, [r4, #24]
                                            hcan->Init.TimeSeg1       |
                                            hcan->Init.TimeSeg2       |
                                            (hcan->Init.Prescaler - 1U)));

  /* Initialize the error code */
  hcan->ErrorCode = HAL_CAN_ERROR_NONE;
 800083a:	2000      	movs	r0, #0
  if (hcan->Init.TimeTriggeredMode == ENABLE)
 800083c:	2a01      	cmp	r2, #1
    SET_BIT(hcan->Instance->MCR, CAN_MCR_TTCM);
 800083e:	681a      	ldr	r2, [r3, #0]
 8000840:	bf0c      	ite	eq
 8000842:	f042 0280 	orreq.w	r2, r2, #128	; 0x80
    CLEAR_BIT(hcan->Instance->MCR, CAN_MCR_TTCM);
 8000846:	f022 0280 	bicne.w	r2, r2, #128	; 0x80
 800084a:	601a      	str	r2, [r3, #0]
  if (hcan->Init.AutoBusOff == ENABLE)
 800084c:	7e62      	ldrb	r2, [r4, #25]
 800084e:	2a01      	cmp	r2, #1
    SET_BIT(hcan->Instance->MCR, CAN_MCR_ABOM);
 8000850:	681a      	ldr	r2, [r3, #0]
 8000852:	bf0c      	ite	eq
 8000854:	f042 0240 	orreq.w	r2, r2, #64	; 0x40
    CLEAR_BIT(hcan->Instance->MCR, CAN_MCR_ABOM);
 8000858:	f022 0240 	bicne.w	r2, r2, #64	; 0x40
 800085c:	601a      	str	r2, [r3, #0]
  if (hcan->Init.AutoWakeUp == ENABLE)
 800085e:	7ea2      	ldrb	r2, [r4, #26]
 8000860:	2a01      	cmp	r2, #1
    SET_BIT(hcan->Instance->MCR, CAN_MCR_AWUM);
 8000862:	681a      	ldr	r2, [r3, #0]
 8000864:	bf0c      	ite	eq
 8000866:	f042 0220 	orreq.w	r2, r2, #32
    CLEAR_BIT(hcan->Instance->MCR, CAN_MCR_AWUM);
 800086a:	f022 0220 	bicne.w	r2, r2, #32
 800086e:	601a      	str	r2, [r3, #0]
  if (hcan->Init.AutoRetransmission == ENABLE)
 8000870:	7ee2      	ldrb	r2, [r4, #27]
 8000872:	2a01      	cmp	r2, #1
    CLEAR_BIT(hcan->Instance->MCR, CAN_MCR_NART);
 8000874:	681a      	ldr	r2, [r3, #0]
 8000876:	bf0c      	ite	eq
 8000878:	f022 0210 	biceq.w	r2, r2, #16
    SET_BIT(hcan->Instance->MCR, CAN_MCR_NART);
 800087c:	f042 0210 	orrne.w	r2, r2, #16
 8000880:	601a      	str	r2, [r3, #0]
  if (hcan->Init.ReceiveFifoLocked == ENABLE)
 8000882:	7f22      	ldrb	r2, [r4, #28]
 8000884:	2a01      	cmp	r2, #1
    SET_BIT(hcan->Instance->MCR, CAN_MCR_RFLM);
 8000886:	681a      	ldr	r2, [r3, #0]
 8000888:	bf0c      	ite	eq
 800088a:	f042 0208 	orreq.w	r2, r2, #8
    CLEAR_BIT(hcan->Instance->MCR, CAN_MCR_RFLM);
 800088e:	f022 0208 	bicne.w	r2, r2, #8
 8000892:	601a      	str	r2, [r3, #0]
  if (hcan->Init.TransmitFifoPriority == ENABLE)
 8000894:	7f62      	ldrb	r2, [r4, #29]
 8000896:	2a01      	cmp	r2, #1
    SET_BIT(hcan->Instance->MCR, CAN_MCR_TXFP);
 8000898:	681a      	ldr	r2, [r3, #0]
 800089a:	bf0c      	ite	eq
 800089c:	f042 0204 	orreq.w	r2, r2, #4
    CLEAR_BIT(hcan->Instance->MCR, CAN_MCR_TXFP);
 80008a0:	f022 0204 	bicne.w	r2, r2, #4
 80008a4:	601a      	str	r2, [r3, #0]
  WRITE_REG(hcan->Instance->BTR, (uint32_t)(hcan->Init.Mode           |
 80008a6:	e9d4 2102 	ldrd	r2, r1, [r4, #8]
 80008aa:	430a      	orrs	r2, r1
 80008ac:	6921      	ldr	r1, [r4, #16]
 80008ae:	430a      	orrs	r2, r1
 80008b0:	6961      	ldr	r1, [r4, #20]
 80008b2:	430a      	orrs	r2, r1
 80008b4:	6861      	ldr	r1, [r4, #4]
 80008b6:	3901      	subs	r1, #1
 80008b8:	430a      	orrs	r2, r1
 80008ba:	61da      	str	r2, [r3, #28]

  /* Initialize the CAN state */
  hcan->State = HAL_CAN_STATE_READY;
 80008bc:	2301      	movs	r3, #1
  hcan->ErrorCode = HAL_CAN_ERROR_NONE;
 80008be:	6260      	str	r0, [r4, #36]	; 0x24
  hcan->State = HAL_CAN_STATE_READY;
 80008c0:	f884 3020 	strb.w	r3, [r4, #32]

  /* Return function status */
  return HAL_OK;
}
 80008c4:	bd38      	pop	{r3, r4, r5, pc}
    if ((HAL_GetTick() - tickstart) > CAN_TIMEOUT_VALUE)
 80008c6:	f7ff ff7f 	bl	80007c8 <HAL_GetTick>
 80008ca:	1b40      	subs	r0, r0, r5
 80008cc:	280a      	cmp	r0, #10
 80008ce:	d9a4      	bls.n	800081a <HAL_CAN_Init+0x22>
      hcan->ErrorCode |= HAL_CAN_ERROR_TIMEOUT;
 80008d0:	6a63      	ldr	r3, [r4, #36]	; 0x24
 80008d2:	f443 3300 	orr.w	r3, r3, #131072	; 0x20000
 80008d6:	6263      	str	r3, [r4, #36]	; 0x24
      hcan->State = HAL_CAN_STATE_ERROR;
 80008d8:	2305      	movs	r3, #5
 80008da:	f884 3020 	strb.w	r3, [r4, #32]
    return HAL_ERROR;
 80008de:	2001      	movs	r0, #1
 80008e0:	e7f0      	b.n	80008c4 <HAL_CAN_Init+0xcc>
    if ((HAL_GetTick() - tickstart) > CAN_TIMEOUT_VALUE)
 80008e2:	f7ff ff71 	bl	80007c8 <HAL_GetTick>
 80008e6:	1b40      	subs	r0, r0, r5
 80008e8:	280a      	cmp	r0, #10
 80008ea:	d9a1      	bls.n	8000830 <HAL_CAN_Init+0x38>
 80008ec:	e7f0      	b.n	80008d0 <HAL_CAN_Init+0xd8>

080008ee <HAL_CAN_ConfigFilter>:
  * @param  sFilterConfig pointer to a CAN_FilterTypeDef structure that
  *         contains the filter configuration information.
  * @retval None
  */
HAL_StatusTypeDef HAL_CAN_ConfigFilter(CAN_HandleTypeDef *hcan, CAN_FilterTypeDef *sFilterConfig)
{
 80008ee:	b570      	push	{r4, r5, r6, lr}
  uint32_t filternbrbitpos;
  CAN_TypeDef *can_ip = hcan->Instance;
  HAL_CAN_StateTypeDef state = hcan->State;
 80008f0:	f890 3020 	ldrb.w	r3, [r0, #32]

  if ((state == HAL_CAN_STATE_READY) ||
 80008f4:	3b01      	subs	r3, #1
 80008f6:	2b01      	cmp	r3, #1
 80008f8:	d862      	bhi.n	80009c0 <HAL_CAN_ConfigFilter+0xd2>
    CLEAR_BIT(can_ip->FMR, CAN_FMR_CAN2SB);
    SET_BIT(can_ip->FMR, sFilterConfig->SlaveStartFilterBank << CAN_FMR_CAN2SB_Pos);

#endif
    /* Convert filter number into bit position */
    filternbrbitpos = (uint32_t)1 << (sFilterConfig->FilterBank & 0x1FU);
 80008fa:	2401      	movs	r4, #1
  CAN_TypeDef *can_ip = hcan->Instance;
 80008fc:	6803      	ldr	r3, [r0, #0]
    SET_BIT(can_ip->FMR, CAN_FMR_FINIT);
 80008fe:	f8d3 2200 	ldr.w	r2, [r3, #512]	; 0x200
 8000902:	f042 0201 	orr.w	r2, r2, #1
 8000906:	f8c3 2200 	str.w	r2, [r3, #512]	; 0x200
    filternbrbitpos = (uint32_t)1 << (sFilterConfig->FilterBank & 0x1FU);
 800090a:	694a      	ldr	r2, [r1, #20]

    /* Filter Deactivation */
    CLEAR_BIT(can_ip->FA1R, filternbrbitpos);
 800090c:	f8d3 521c 	ldr.w	r5, [r3, #540]	; 0x21c
    filternbrbitpos = (uint32_t)1 << (sFilterConfig->FilterBank & 0x1FU);
 8000910:	f002 001f 	and.w	r0, r2, #31
 8000914:	fa04 f000 	lsl.w	r0, r4, r0
    CLEAR_BIT(can_ip->FA1R, filternbrbitpos);
 8000918:	ea25 0500 	bic.w	r5, r5, r0
 800091c:	f8c3 521c 	str.w	r5, [r3, #540]	; 0x21c

    /* Filter Scale */
    if (sFilterConfig->FilterScale == CAN_FILTERSCALE_16BIT)
 8000920:	69cd      	ldr	r5, [r1, #28]
    CLEAR_BIT(can_ip->FA1R, filternbrbitpos);
 8000922:	43c4      	mvns	r4, r0
    if (sFilterConfig->FilterScale == CAN_FILTERSCALE_16BIT)
 8000924:	bb85      	cbnz	r5, 8000988 <HAL_CAN_ConfigFilter+0x9a>
    {
      /* 16-bit scale for the filter */
      CLEAR_BIT(can_ip->FS1R, filternbrbitpos);
 8000926:	f8d3 520c 	ldr.w	r5, [r3, #524]	; 0x20c

      /* First 16-bit identifier and First 16-bit mask */
      /* Or First 16-bit identifier and Second 16-bit identifier */
      can_ip->sFilterRegister[sFilterConfig->FilterBank].FR1 =
        ((0x0000FFFFU & (uint32_t)sFilterConfig->FilterMaskIdLow) << 16U) |
 800092a:	68ce      	ldr	r6, [r1, #12]
      CLEAR_BIT(can_ip->FS1R, filternbrbitpos);
 800092c:	4025      	ands	r5, r4
 800092e:	f8c3 520c 	str.w	r5, [r3, #524]	; 0x20c
        (0x0000FFFFU & (uint32_t)sFilterConfig->FilterIdLow);
 8000932:	888d      	ldrh	r5, [r1, #4]
 8000934:	eb03 02c2 	add.w	r2, r3, r2, lsl #3
        ((0x0000FFFFU & (uint32_t)sFilterConfig->FilterMaskIdLow) << 16U) |
 8000938:	ea45 4506 	orr.w	r5, r5, r6, lsl #16
      can_ip->sFilterRegister[sFilterConfig->FilterBank].FR1 =
 800093c:	f8c2 5240 	str.w	r5, [r2, #576]	; 0x240

      /* Second 16-bit identifier and Second 16-bit mask */
      /* Or Third 16-bit identifier and Fourth 16-bit identifier */
      can_ip->sFilterRegister[sFilterConfig->FilterBank].FR2 =
        ((0x0000FFFFU & (uint32_t)sFilterConfig->FilterMaskIdHigh) << 16U) |
 8000940:	688e      	ldr	r6, [r1, #8]
        (0x0000FFFFU & (uint32_t)sFilterConfig->FilterIdHigh);
 8000942:	880d      	ldrh	r5, [r1, #0]
        ((0x0000FFFFU & (uint32_t)sFilterConfig->FilterIdHigh) << 16U) |
        (0x0000FFFFU & (uint32_t)sFilterConfig->FilterIdLow);

      /* 32-bit mask or Second 32-bit identifier */
      can_ip->sFilterRegister[sFilterConfig->FilterBank].FR2 =
        ((0x0000FFFFU & (uint32_t)sFilterConfig->FilterMaskIdHigh) << 16U) |
 8000944:	ea45 4506 	orr.w	r5, r5, r6, lsl #16
      can_ip->sFilterRegister[sFilterConfig->FilterBank].FR2 =
 8000948:	f8c2 5244 	str.w	r5, [r2, #580]	; 0x244
        (0x0000FFFFU & (uint32_t)sFilterConfig->FilterMaskIdLow);
    }

    /* Filter Mode */
    if (sFilterConfig->FilterMode == CAN_FILTERMODE_IDMASK)
 800094c:	698a      	ldr	r2, [r1, #24]
 800094e:	bb6a      	cbnz	r2, 80009ac <HAL_CAN_ConfigFilter+0xbe>
    {
      /* Id/Mask mode for the filter*/
      CLEAR_BIT(can_ip->FM1R, filternbrbitpos);
 8000950:	f8d3 2204 	ldr.w	r2, [r3, #516]	; 0x204
 8000954:	4022      	ands	r2, r4
    }
    else /* CAN_FilterInitStruct->CAN_FilterMode == CAN_FilterMode_IdList */
    {
      /* Identifier list mode for the filter*/
      SET_BIT(can_ip->FM1R, filternbrbitpos);
 8000956:	f8c3 2204 	str.w	r2, [r3, #516]	; 0x204
    }

    /* Filter FIFO assignment */
    if (sFilterConfig->FilterFIFOAssignment == CAN_FILTER_FIFO0)
 800095a:	690a      	ldr	r2, [r1, #16]
 800095c:	bb52      	cbnz	r2, 80009b4 <HAL_CAN_ConfigFilter+0xc6>
    {
      /* FIFO 0 assignation for the filter */
      CLEAR_BIT(can_ip->FFA1R, filternbrbitpos);
 800095e:	f8d3 2214 	ldr.w	r2, [r3, #532]	; 0x214
 8000962:	4014      	ands	r4, r2
 8000964:	f8c3 4214 	str.w	r4, [r3, #532]	; 0x214
      /* FIFO 1 assignation for the filter */
      SET_BIT(can_ip->FFA1R, filternbrbitpos);
    }

    /* Filter activation */
    if (sFilterConfig->FilterActivation == CAN_FILTER_ENABLE)
 8000968:	6a0a      	ldr	r2, [r1, #32]
 800096a:	2a01      	cmp	r2, #1
    {
      SET_BIT(can_ip->FA1R, filternbrbitpos);
 800096c:	bf02      	ittt	eq
 800096e:	f8d3 221c 	ldreq.w	r2, [r3, #540]	; 0x21c
 8000972:	4310      	orreq	r0, r2
 8000974:	f8c3 021c 	streq.w	r0, [r3, #540]	; 0x21c

    /* Leave the initialisation mode for the filter */
    CLEAR_BIT(can_ip->FMR, CAN_FMR_FINIT);

    /* Return function status */
    return HAL_OK;
 8000978:	2000      	movs	r0, #0
    CLEAR_BIT(can_ip->FMR, CAN_FMR_FINIT);
 800097a:	f8d3 2200 	ldr.w	r2, [r3, #512]	; 0x200
 800097e:	f022 0201 	bic.w	r2, r2, #1
 8000982:	f8c3 2200 	str.w	r2, [r3, #512]	; 0x200
    /* Update error code */
    hcan->ErrorCode |= HAL_CAN_ERROR_NOT_INITIALIZED;

    return HAL_ERROR;
  }
}
 8000986:	bd70      	pop	{r4, r5, r6, pc}
    if (sFilterConfig->FilterScale == CAN_FILTERSCALE_32BIT)
 8000988:	2d01      	cmp	r5, #1
 800098a:	d1df      	bne.n	800094c <HAL_CAN_ConfigFilter+0x5e>
      SET_BIT(can_ip->FS1R, filternbrbitpos);
 800098c:	f8d3 520c 	ldr.w	r5, [r3, #524]	; 0x20c
        ((0x0000FFFFU & (uint32_t)sFilterConfig->FilterIdHigh) << 16U) |
 8000990:	680e      	ldr	r6, [r1, #0]
      SET_BIT(can_ip->FS1R, filternbrbitpos);
 8000992:	4305      	orrs	r5, r0
 8000994:	f8c3 520c 	str.w	r5, [r3, #524]	; 0x20c
        (0x0000FFFFU & (uint32_t)sFilterConfig->FilterIdLow);
 8000998:	888d      	ldrh	r5, [r1, #4]
 800099a:	eb03 02c2 	add.w	r2, r3, r2, lsl #3
        ((0x0000FFFFU & (uint32_t)sFilterConfig->FilterIdHigh) << 16U) |
 800099e:	ea45 4506 	orr.w	r5, r5, r6, lsl #16
      can_ip->sFilterRegister[sFilterConfig->FilterBank].FR1 =
 80009a2:	f8c2 5240 	str.w	r5, [r2, #576]	; 0x240
        ((0x0000FFFFU & (uint32_t)sFilterConfig->FilterMaskIdHigh) << 16U) |
 80009a6:	688e      	ldr	r6, [r1, #8]
        (0x0000FFFFU & (uint32_t)sFilterConfig->FilterMaskIdLow);
 80009a8:	898d      	ldrh	r5, [r1, #12]
 80009aa:	e7cb      	b.n	8000944 <HAL_CAN_ConfigFilter+0x56>
      SET_BIT(can_ip->FM1R, filternbrbitpos);
 80009ac:	f8d3 2204 	ldr.w	r2, [r3, #516]	; 0x204
 80009b0:	4302      	orrs	r2, r0
 80009b2:	e7d0      	b.n	8000956 <HAL_CAN_ConfigFilter+0x68>
      SET_BIT(can_ip->FFA1R, filternbrbitpos);
 80009b4:	f8d3 2214 	ldr.w	r2, [r3, #532]	; 0x214
 80009b8:	4302      	orrs	r2, r0
 80009ba:	f8c3 2214 	str.w	r2, [r3, #532]	; 0x214
 80009be:	e7d3      	b.n	8000968 <HAL_CAN_ConfigFilter+0x7a>
    hcan->ErrorCode |= HAL_CAN_ERROR_NOT_INITIALIZED;
 80009c0:	6a43      	ldr	r3, [r0, #36]	; 0x24
 80009c2:	f443 2380 	orr.w	r3, r3, #262144	; 0x40000
 80009c6:	6243      	str	r3, [r0, #36]	; 0x24
    return HAL_ERROR;
 80009c8:	2001      	movs	r0, #1
 80009ca:	e7dc      	b.n	8000986 <HAL_CAN_ConfigFilter+0x98>

080009cc <HAL_CAN_Start>:
  * @param  hcan pointer to an CAN_HandleTypeDef structure that contains
  *         the configuration information for the specified CAN.
  * @retval HAL status
  */
HAL_StatusTypeDef HAL_CAN_Start(CAN_HandleTypeDef *hcan)
{
 80009cc:	b570      	push	{r4, r5, r6, lr}
  uint32_t tickstart;

  if (hcan->State == HAL_CAN_STATE_READY)
 80009ce:	f890 3020 	ldrb.w	r3, [r0, #32]
{
 80009d2:	4604      	mov	r4, r0
  if (hcan->State == HAL_CAN_STATE_READY)
 80009d4:	2b01      	cmp	r3, #1
 80009d6:	b2dd      	uxtb	r5, r3
 80009d8:	d120      	bne.n	8000a1c <HAL_CAN_Start+0x50>
  {
    /* Change CAN peripheral state */
    hcan->State = HAL_CAN_STATE_LISTENING;
 80009da:	2302      	movs	r3, #2

    /* Request leave initialisation */
    CLEAR_BIT(hcan->Instance->MCR, CAN_MCR_INRQ);
 80009dc:	6802      	ldr	r2, [r0, #0]
    hcan->State = HAL_CAN_STATE_LISTENING;
 80009de:	f880 3020 	strb.w	r3, [r0, #32]
    CLEAR_BIT(hcan->Instance->MCR, CAN_MCR_INRQ);
 80009e2:	6813      	ldr	r3, [r2, #0]
 80009e4:	f023 0301 	bic.w	r3, r3, #1
 80009e8:	6013      	str	r3, [r2, #0]

    /* Get tick */
    tickstart = HAL_GetTick();
 80009ea:	f7ff feed 	bl	80007c8 <HAL_GetTick>
 80009ee:	4606      	mov	r6, r0

    /* Wait the acknowledge */
    while ((hcan->Instance->MSR & CAN_MSR_INAK) != 0U)
 80009f0:	6823      	ldr	r3, [r4, #0]
 80009f2:	685b      	ldr	r3, [r3, #4]
 80009f4:	f013 0301 	ands.w	r3, r3, #1
 80009f8:	d102      	bne.n	8000a00 <HAL_CAN_Start+0x34>

    /* Reset the CAN ErrorCode */
    hcan->ErrorCode = HAL_CAN_ERROR_NONE;

    /* Return function status */
    return HAL_OK;
 80009fa:	461d      	mov	r5, r3
    hcan->ErrorCode = HAL_CAN_ERROR_NONE;
 80009fc:	6263      	str	r3, [r4, #36]	; 0x24
    return HAL_OK;
 80009fe:	e00b      	b.n	8000a18 <HAL_CAN_Start+0x4c>
      if ((HAL_GetTick() - tickstart) > CAN_TIMEOUT_VALUE)
 8000a00:	f7ff fee2 	bl	80007c8 <HAL_GetTick>
 8000a04:	1b80      	subs	r0, r0, r6
 8000a06:	280a      	cmp	r0, #10
 8000a08:	d9f2      	bls.n	80009f0 <HAL_CAN_Start+0x24>
        hcan->ErrorCode |= HAL_CAN_ERROR_TIMEOUT;
 8000a0a:	6a63      	ldr	r3, [r4, #36]	; 0x24
 8000a0c:	f443 3300 	orr.w	r3, r3, #131072	; 0x20000
 8000a10:	6263      	str	r3, [r4, #36]	; 0x24
        hcan->State = HAL_CAN_STATE_ERROR;
 8000a12:	2305      	movs	r3, #5
 8000a14:	f884 3020 	strb.w	r3, [r4, #32]
    /* Update error code */
    hcan->ErrorCode |= HAL_CAN_ERROR_NOT_READY;

    return HAL_ERROR;
  }
}
 8000a18:	4628      	mov	r0, r5
 8000a1a:	bd70      	pop	{r4, r5, r6, pc}
    hcan->ErrorCode |= HAL_CAN_ERROR_NOT_READY;
 8000a1c:	6a43      	ldr	r3, [r0, #36]	; 0x24
    return HAL_ERROR;
 8000a1e:	2501      	movs	r5, #1
    hcan->ErrorCode |= HAL_CAN_ERROR_NOT_READY;
 8000a20:	f443 2300 	orr.w	r3, r3, #524288	; 0x80000
 8000a24:	6243      	str	r3, [r0, #36]	; 0x24
    return HAL_ERROR;
 8000a26:	e7f7      	b.n	8000a18 <HAL_CAN_Start+0x4c>

08000a28 <HAL_CAN_Stop>:
  * @param  hcan pointer to an CAN_HandleTypeDef structure that contains
  *         the configuration information for the specified CAN.
  * @retval HAL status
  */
HAL_StatusTypeDef HAL_CAN_Stop(CAN_HandleTypeDef *hcan)
{
 8000a28:	b538      	push	{r3, r4, r5, lr}
  uint32_t tickstart;

  if (hcan->State == HAL_CAN_STATE_LISTENING)
 8000a2a:	f890 3020 	ldrb.w	r3, [r0, #32]
{
 8000a2e:	4604      	mov	r4, r0
  if (hcan->State == HAL_CAN_STATE_LISTENING)
 8000a30:	2b02      	cmp	r3, #2
 8000a32:	d122      	bne.n	8000a7a <HAL_CAN_Stop+0x52>
  {
    /* Request initialisation */
    SET_BIT(hcan->Instance->MCR, CAN_MCR_INRQ);
 8000a34:	6802      	ldr	r2, [r0, #0]
 8000a36:	6813      	ldr	r3, [r2, #0]
 8000a38:	f043 0301 	orr.w	r3, r3, #1
 8000a3c:	6013      	str	r3, [r2, #0]

    /* Get tick */
    tickstart = HAL_GetTick();
 8000a3e:	f7ff fec3 	bl	80007c8 <HAL_GetTick>
 8000a42:	4605      	mov	r5, r0

    /* Wait the acknowledge */
    while ((hcan->Instance->MSR & CAN_MSR_INAK) == 0U)
 8000a44:	6823      	ldr	r3, [r4, #0]
 8000a46:	685a      	ldr	r2, [r3, #4]
 8000a48:	07d2      	lsls	r2, r2, #31
 8000a4a:	d508      	bpl.n	8000a5e <HAL_CAN_Stop+0x36>
        return HAL_ERROR;
      }
    }

    /* Exit from sleep mode */
    CLEAR_BIT(hcan->Instance->MCR, CAN_MCR_SLEEP);
 8000a4c:	681a      	ldr	r2, [r3, #0]

    /* Change CAN peripheral state */
    hcan->State = HAL_CAN_STATE_READY;

    /* Return function status */
    return HAL_OK;
 8000a4e:	2000      	movs	r0, #0
    CLEAR_BIT(hcan->Instance->MCR, CAN_MCR_SLEEP);
 8000a50:	f022 0202 	bic.w	r2, r2, #2
 8000a54:	601a      	str	r2, [r3, #0]
    hcan->State = HAL_CAN_STATE_READY;
 8000a56:	2301      	movs	r3, #1
 8000a58:	f884 3020 	strb.w	r3, [r4, #32]
    /* Update error code */
    hcan->ErrorCode |= HAL_CAN_ERROR_NOT_STARTED;

    return HAL_ERROR;
  }
}
 8000a5c:	bd38      	pop	{r3, r4, r5, pc}
      if ((HAL_GetTick() - tickstart) > CAN_TIMEOUT_VALUE)
 8000a5e:	f7ff feb3 	bl	80007c8 <HAL_GetTick>
 8000a62:	1b40      	subs	r0, r0, r5
 8000a64:	280a      	cmp	r0, #10
 8000a66:	d9ed      	bls.n	8000a44 <HAL_CAN_Stop+0x1c>
        hcan->ErrorCode |= HAL_CAN_ERROR_TIMEOUT;
 8000a68:	6a63      	ldr	r3, [r4, #36]	; 0x24
 8000a6a:	f443 3300 	orr.w	r3, r3, #131072	; 0x20000
 8000a6e:	6263      	str	r3, [r4, #36]	; 0x24
        hcan->State = HAL_CAN_STATE_ERROR;
 8000a70:	2305      	movs	r3, #5
 8000a72:	f884 3020 	strb.w	r3, [r4, #32]
    return HAL_ERROR;
 8000a76:	2001      	movs	r0, #1
 8000a78:	e7f0      	b.n	8000a5c <HAL_CAN_Stop+0x34>
    hcan->ErrorCode |= HAL_CAN_ERROR_NOT_STARTED;
 8000a7a:	6a43      	ldr	r3, [r0, #36]	; 0x24
 8000a7c:	f443 1380 	orr.w	r3, r3, #1048576	; 0x100000
 8000a80:	6243      	str	r3, [r0, #36]	; 0x24
 8000a82:	e7f8      	b.n	8000a76 <HAL_CAN_Stop+0x4e>

08000a84 <HAL_CAN_DeInit>:
{
 8000a84:	b510      	push	{r4, lr}
  if (hcan == NULL)
 8000a86:	4604      	mov	r4, r0
 8000a88:	b170      	cbz	r0, 8000aa8 <HAL_CAN_DeInit+0x24>
  (void)HAL_CAN_Stop(hcan);
 8000a8a:	f7ff ffcd 	bl	8000a28 <HAL_CAN_Stop>
  HAL_CAN_MspDeInit(hcan);
 8000a8e:	4620      	mov	r0, r4
 8000a90:	f005 fa54 	bl	8005f3c <HAL_CAN_MspDeInit>
  hcan->ErrorCode = HAL_CAN_ERROR_NONE;
 8000a94:	2000      	movs	r0, #0
  SET_BIT(hcan->Instance->MCR, CAN_MCR_RESET);
 8000a96:	6822      	ldr	r2, [r4, #0]
 8000a98:	6813      	ldr	r3, [r2, #0]
 8000a9a:	f443 4300 	orr.w	r3, r3, #32768	; 0x8000
 8000a9e:	6013      	str	r3, [r2, #0]
  hcan->ErrorCode = HAL_CAN_ERROR_NONE;
 8000aa0:	6260      	str	r0, [r4, #36]	; 0x24
  hcan->State = HAL_CAN_STATE_RESET;
 8000aa2:	f884 0020 	strb.w	r0, [r4, #32]
}
 8000aa6:	bd10      	pop	{r4, pc}
    return HAL_ERROR;
 8000aa8:	2001      	movs	r0, #1
 8000aaa:	e7fc      	b.n	8000aa6 <HAL_CAN_DeInit+0x22>

08000aac <HAL_CAN_AddTxMessage>:
  *         the TxMailbox used to store the Tx message.
  *         This parameter can be a value of @arg CAN_Tx_Mailboxes.
  * @retval HAL status
  */
HAL_StatusTypeDef HAL_CAN_AddTxMessage(CAN_HandleTypeDef *hcan, CAN_TxHeaderTypeDef *pHeader, uint8_t aData[], uint32_t *pTxMailbox)
{
 8000aac:	b5f0      	push	{r4, r5, r6, r7, lr}
  uint32_t transmitmailbox;
  HAL_CAN_StateTypeDef state = hcan->State;
 8000aae:	f890 5020 	ldrb.w	r5, [r0, #32]
  uint32_t tsr = READ_REG(hcan->Instance->TSR);
 8000ab2:	6806      	ldr	r6, [r0, #0]
  {
    assert_param(IS_CAN_EXTID(pHeader->ExtId));
  }
  assert_param(IS_FUNCTIONAL_STATE(pHeader->TransmitGlobalTime));

  if ((state == HAL_CAN_STATE_READY) ||
 8000ab4:	3d01      	subs	r5, #1
 8000ab6:	2d01      	cmp	r5, #1
  uint32_t tsr = READ_REG(hcan->Instance->TSR);
 8000ab8:	68b4      	ldr	r4, [r6, #8]
  if ((state == HAL_CAN_STATE_READY) ||
 8000aba:	d841      	bhi.n	8000b40 <HAL_CAN_AddTxMessage+0x94>
      (state == HAL_CAN_STATE_LISTENING))
  {
    /* Check that all the Tx mailboxes are not full */
    if (((tsr & CAN_TSR_TME0) != 0U) ||
 8000abc:	f014 5fe0 	tst.w	r4, #469762048	; 0x1c000000
 8000ac0:	d03a      	beq.n	8000b38 <HAL_CAN_AddTxMessage+0x8c>
        ((tsr & CAN_TSR_TME1) != 0U) ||
        ((tsr & CAN_TSR_TME2) != 0U))
    {
      /* Select an empty transmit mailbox */
      transmitmailbox = (tsr & CAN_TSR_CODE) >> CAN_TSR_CODE_Pos;
 8000ac2:	f3c4 6401 	ubfx	r4, r4, #24, #2

      /* Check transmit mailbox value */
      if (transmitmailbox > 2U)
 8000ac6:	2c03      	cmp	r4, #3
 8000ac8:	f04f 0501 	mov.w	r5, #1
 8000acc:	d105      	bne.n	8000ada <HAL_CAN_AddTxMessage+0x2e>
      {
        /* Update error code */
        hcan->ErrorCode |= HAL_CAN_ERROR_INTERNAL;
 8000ace:	6a43      	ldr	r3, [r0, #36]	; 0x24
 8000ad0:	f443 0300 	orr.w	r3, r3, #8388608	; 0x800000
    }
  }
  else
  {
    /* Update error code */
    hcan->ErrorCode |= HAL_CAN_ERROR_NOT_INITIALIZED;
 8000ad4:	6243      	str	r3, [r0, #36]	; 0x24

    return HAL_ERROR;
 8000ad6:	2001      	movs	r0, #1
 8000ad8:	e028      	b.n	8000b2c <HAL_CAN_AddTxMessage+0x80>
      *pTxMailbox = (uint32_t)1 << transmitmailbox;
 8000ada:	40a5      	lsls	r5, r4
 8000adc:	601d      	str	r5, [r3, #0]
      if (pHeader->IDE == CAN_ID_STD)
 8000ade:	e9d1 0702 	ldrd	r0, r7, [r1, #8]
 8000ae2:	f104 0318 	add.w	r3, r4, #24
 8000ae6:	bb10      	cbnz	r0, 8000b2e <HAL_CAN_AddTxMessage+0x82>
        hcan->Instance->sTxMailBox[transmitmailbox].TIR = ((pHeader->StdId << CAN_TI0R_STID_Pos) |
 8000ae8:	6808      	ldr	r0, [r1, #0]
 8000aea:	ea47 5040 	orr.w	r0, r7, r0, lsl #21
        hcan->Instance->sTxMailBox[transmitmailbox].TIR = ((pHeader->ExtId << CAN_TI0R_EXID_Pos) |
 8000aee:	011b      	lsls	r3, r3, #4
 8000af0:	50f0      	str	r0, [r6, r3]
      hcan->Instance->sTxMailBox[transmitmailbox].TDTR = (pHeader->DLC);
 8000af2:	0120      	lsls	r0, r4, #4
 8000af4:	eb06 1304 	add.w	r3, r6, r4, lsl #4
      WRITE_REG(hcan->Instance->sTxMailBox[transmitmailbox].TDHR,
 8000af8:	4406      	add	r6, r0
      return HAL_OK;
 8000afa:	2000      	movs	r0, #0
      hcan->Instance->sTxMailBox[transmitmailbox].TDTR = (pHeader->DLC);
 8000afc:	690d      	ldr	r5, [r1, #16]
 8000afe:	f8c3 5184 	str.w	r5, [r3, #388]	; 0x184
      if (pHeader->TransmitGlobalTime == ENABLE)
 8000b02:	7d09      	ldrb	r1, [r1, #20]
 8000b04:	2901      	cmp	r1, #1
        SET_BIT(hcan->Instance->sTxMailBox[transmitmailbox].TDTR, CAN_TDT0R_TGT);
 8000b06:	bf02      	ittt	eq
 8000b08:	f8d3 1184 	ldreq.w	r1, [r3, #388]	; 0x184
 8000b0c:	f441 7180 	orreq.w	r1, r1, #256	; 0x100
 8000b10:	f8c3 1184 	streq.w	r1, [r3, #388]	; 0x184
      WRITE_REG(hcan->Instance->sTxMailBox[transmitmailbox].TDHR,
 8000b14:	6851      	ldr	r1, [r2, #4]
 8000b16:	f8c6 118c 	str.w	r1, [r6, #396]	; 0x18c
      WRITE_REG(hcan->Instance->sTxMailBox[transmitmailbox].TDLR,
 8000b1a:	6812      	ldr	r2, [r2, #0]
 8000b1c:	f8c6 2188 	str.w	r2, [r6, #392]	; 0x188
      SET_BIT(hcan->Instance->sTxMailBox[transmitmailbox].TIR, CAN_TI0R_TXRQ);
 8000b20:	f8d3 2180 	ldr.w	r2, [r3, #384]	; 0x180
 8000b24:	f042 0201 	orr.w	r2, r2, #1
 8000b28:	f8c3 2180 	str.w	r2, [r3, #384]	; 0x180
  }
}
 8000b2c:	bdf0      	pop	{r4, r5, r6, r7, pc}
        hcan->Instance->sTxMailBox[transmitmailbox].TIR = ((pHeader->ExtId << CAN_TI0R_EXID_Pos) |
 8000b2e:	684d      	ldr	r5, [r1, #4]
                                                           pHeader->IDE |
 8000b30:	4338      	orrs	r0, r7
 8000b32:	ea40 00c5 	orr.w	r0, r0, r5, lsl #3
 8000b36:	e7da      	b.n	8000aee <HAL_CAN_AddTxMessage+0x42>
      hcan->ErrorCode |= HAL_CAN_ERROR_PARAM;
 8000b38:	6a43      	ldr	r3, [r0, #36]	; 0x24
 8000b3a:	f443 1300 	orr.w	r3, r3, #2097152	; 0x200000
 8000b3e:	e7c9      	b.n	8000ad4 <HAL_CAN_AddTxMessage+0x28>
    hcan->ErrorCode |= HAL_CAN_ERROR_NOT_INITIALIZED;
 8000b40:	6a43      	ldr	r3, [r0, #36]	; 0x24
 8000b42:	f443 2380 	orr.w	r3, r3, #262144	; 0x40000
 8000b46:	e7c5      	b.n	8000ad4 <HAL_CAN_AddTxMessage+0x28>

08000b48 <HAL_CAN_GetRxMessage>:
  *         of the Rx frame will be stored.
  * @param  aData array where the payload of the Rx frame will be stored.
  * @retval HAL status
  */
HAL_StatusTypeDef HAL_CAN_GetRxMessage(CAN_HandleTypeDef *hcan, uint32_t RxFifo, CAN_RxHeaderTypeDef *pHeader, uint8_t aData[])
{
 8000b48:	b5f0      	push	{r4, r5, r6, r7, lr}
  HAL_CAN_StateTypeDef state = hcan->State;
 8000b4a:	f890 4020 	ldrb.w	r4, [r0, #32]

  assert_param(IS_CAN_RX_FIFO(RxFifo));

  if ((state == HAL_CAN_STATE_READY) ||
 8000b4e:	3c01      	subs	r4, #1
 8000b50:	2c01      	cmp	r4, #1
 8000b52:	d86c      	bhi.n	8000c2e <HAL_CAN_GetRxMessage+0xe6>
      (state == HAL_CAN_STATE_LISTENING))
  {
    /* Check the Rx FIFO */
    if (RxFifo == CAN_RX_FIFO0) /* Rx element is assigned to Rx FIFO 0 */
 8000b54:	6806      	ldr	r6, [r0, #0]
 8000b56:	b941      	cbnz	r1, 8000b6a <HAL_CAN_GetRxMessage+0x22>
    {
      /* Check that the Rx FIFO 0 is not empty */
      if ((hcan->Instance->RF0R & CAN_RF0R_FMP0) == 0U)
 8000b58:	68f4      	ldr	r4, [r6, #12]
      }
    }
    else /* Rx element is assigned to Rx FIFO 1 */
    {
      /* Check that the Rx FIFO 1 is not empty */
      if ((hcan->Instance->RF1R & CAN_RF1R_FMP1) == 0U)
 8000b5a:	07a4      	lsls	r4, r4, #30
 8000b5c:	d107      	bne.n	8000b6e <HAL_CAN_GetRxMessage+0x26>
      {
        /* Update error code */
        hcan->ErrorCode |= HAL_CAN_ERROR_PARAM;
 8000b5e:	6a43      	ldr	r3, [r0, #36]	; 0x24
 8000b60:	f443 1300 	orr.w	r3, r3, #2097152	; 0x200000
    return HAL_OK;
  }
  else
  {
    /* Update error code */
    hcan->ErrorCode |= HAL_CAN_ERROR_NOT_INITIALIZED;
 8000b64:	6243      	str	r3, [r0, #36]	; 0x24

    return HAL_ERROR;
 8000b66:	2001      	movs	r0, #1
 8000b68:	e056      	b.n	8000c18 <HAL_CAN_GetRxMessage+0xd0>
      if ((hcan->Instance->RF1R & CAN_RF1R_FMP1) == 0U)
 8000b6a:	6934      	ldr	r4, [r6, #16]
 8000b6c:	e7f5      	b.n	8000b5a <HAL_CAN_GetRxMessage+0x12>
    pHeader->IDE = CAN_RI0R_IDE & hcan->Instance->sFIFOMailBox[RxFifo].RIR;
 8000b6e:	eb06 1501 	add.w	r5, r6, r1, lsl #4
 8000b72:	f8d5 71b0 	ldr.w	r7, [r5, #432]	; 0x1b0
 8000b76:	010c      	lsls	r4, r1, #4
 8000b78:	f007 0704 	and.w	r7, r7, #4
 8000b7c:	6097      	str	r7, [r2, #8]
    if (pHeader->IDE == CAN_ID_STD)
 8000b7e:	2f00      	cmp	r7, #0
 8000b80:	d14b      	bne.n	8000c1a <HAL_CAN_GetRxMessage+0xd2>
      pHeader->StdId = (CAN_RI0R_STID & hcan->Instance->sFIFOMailBox[RxFifo].RIR) >> CAN_TI0R_STID_Pos;
 8000b82:	f8d5 71b0 	ldr.w	r7, [r5, #432]	; 0x1b0
 8000b86:	0d7f      	lsrs	r7, r7, #21
 8000b88:	6017      	str	r7, [r2, #0]
    pHeader->RTR = (CAN_RI0R_RTR & hcan->Instance->sFIFOMailBox[RxFifo].RIR);
 8000b8a:	f8d5 71b0 	ldr.w	r7, [r5, #432]	; 0x1b0
    aData[0] = (uint8_t)((CAN_RDL0R_DATA0 & hcan->Instance->sFIFOMailBox[RxFifo].RDLR) >> CAN_RDL0R_DATA0_Pos);
 8000b8e:	4426      	add	r6, r4
    pHeader->RTR = (CAN_RI0R_RTR & hcan->Instance->sFIFOMailBox[RxFifo].RIR);
 8000b90:	f007 0702 	and.w	r7, r7, #2
 8000b94:	60d7      	str	r7, [r2, #12]
    pHeader->DLC = (CAN_RDT0R_DLC & hcan->Instance->sFIFOMailBox[RxFifo].RDTR) >> CAN_RDT0R_DLC_Pos;
 8000b96:	f8d5 71b4 	ldr.w	r7, [r5, #436]	; 0x1b4
 8000b9a:	f007 070f 	and.w	r7, r7, #15
 8000b9e:	6117      	str	r7, [r2, #16]
    pHeader->FilterMatchIndex = (CAN_RDT0R_FMI & hcan->Instance->sFIFOMailBox[RxFifo].RDTR) >> CAN_RDT0R_FMI_Pos;
 8000ba0:	f8d5 71b4 	ldr.w	r7, [r5, #436]	; 0x1b4
    pHeader->Timestamp = (CAN_RDT0R_TIME & hcan->Instance->sFIFOMailBox[RxFifo].RDTR) >> CAN_RDT0R_TIME_Pos;
 8000ba4:	f8d5 51b4 	ldr.w	r5, [r5, #436]	; 0x1b4
    pHeader->FilterMatchIndex = (CAN_RDT0R_FMI & hcan->Instance->sFIFOMailBox[RxFifo].RDTR) >> CAN_RDT0R_FMI_Pos;
 8000ba8:	f3c7 2707 	ubfx	r7, r7, #8, #8
    pHeader->Timestamp = (CAN_RDT0R_TIME & hcan->Instance->sFIFOMailBox[RxFifo].RDTR) >> CAN_RDT0R_TIME_Pos;
 8000bac:	0c2d      	lsrs	r5, r5, #16
    pHeader->FilterMatchIndex = (CAN_RDT0R_FMI & hcan->Instance->sFIFOMailBox[RxFifo].RDTR) >> CAN_RDT0R_FMI_Pos;
 8000bae:	6197      	str	r7, [r2, #24]
    pHeader->Timestamp = (CAN_RDT0R_TIME & hcan->Instance->sFIFOMailBox[RxFifo].RDTR) >> CAN_RDT0R_TIME_Pos;
 8000bb0:	6155      	str	r5, [r2, #20]
    aData[0] = (uint8_t)((CAN_RDL0R_DATA0 & hcan->Instance->sFIFOMailBox[RxFifo].RDLR) >> CAN_RDL0R_DATA0_Pos);
 8000bb2:	f8d6 21b8 	ldr.w	r2, [r6, #440]	; 0x1b8
 8000bb6:	701a      	strb	r2, [r3, #0]
    aData[1] = (uint8_t)((CAN_RDL0R_DATA1 & hcan->Instance->sFIFOMailBox[RxFifo].RDLR) >> CAN_RDL0R_DATA1_Pos);
 8000bb8:	6802      	ldr	r2, [r0, #0]
 8000bba:	4422      	add	r2, r4
 8000bbc:	f8d2 21b8 	ldr.w	r2, [r2, #440]	; 0x1b8
 8000bc0:	0a12      	lsrs	r2, r2, #8
 8000bc2:	705a      	strb	r2, [r3, #1]
    aData[2] = (uint8_t)((CAN_RDL0R_DATA2 & hcan->Instance->sFIFOMailBox[RxFifo].RDLR) >> CAN_RDL0R_DATA2_Pos);
 8000bc4:	6802      	ldr	r2, [r0, #0]
 8000bc6:	4422      	add	r2, r4
 8000bc8:	f8d2 21b8 	ldr.w	r2, [r2, #440]	; 0x1b8
 8000bcc:	0c12      	lsrs	r2, r2, #16
 8000bce:	709a      	strb	r2, [r3, #2]
    aData[3] = (uint8_t)((CAN_RDL0R_DATA3 & hcan->Instance->sFIFOMailBox[RxFifo].RDLR) >> CAN_RDL0R_DATA3_Pos);
 8000bd0:	6802      	ldr	r2, [r0, #0]
 8000bd2:	4422      	add	r2, r4
 8000bd4:	f8d2 21b8 	ldr.w	r2, [r2, #440]	; 0x1b8
 8000bd8:	0e12      	lsrs	r2, r2, #24
 8000bda:	70da      	strb	r2, [r3, #3]
    aData[4] = (uint8_t)((CAN_RDH0R_DATA4 & hcan->Instance->sFIFOMailBox[RxFifo].RDHR) >> CAN_RDH0R_DATA4_Pos);
 8000bdc:	6802      	ldr	r2, [r0, #0]
 8000bde:	4422      	add	r2, r4
 8000be0:	f8d2 21bc 	ldr.w	r2, [r2, #444]	; 0x1bc
 8000be4:	711a      	strb	r2, [r3, #4]
    aData[5] = (uint8_t)((CAN_RDH0R_DATA5 & hcan->Instance->sFIFOMailBox[RxFifo].RDHR) >> CAN_RDH0R_DATA5_Pos);
 8000be6:	6802      	ldr	r2, [r0, #0]
 8000be8:	4422      	add	r2, r4
 8000bea:	f8d2 21bc 	ldr.w	r2, [r2, #444]	; 0x1bc
 8000bee:	0a12      	lsrs	r2, r2, #8
 8000bf0:	715a      	strb	r2, [r3, #5]
    aData[6] = (uint8_t)((CAN_RDH0R_DATA6 & hcan->Instance->sFIFOMailBox[RxFifo].RDHR) >> CAN_RDH0R_DATA6_Pos);
 8000bf2:	6802      	ldr	r2, [r0, #0]
 8000bf4:	4422      	add	r2, r4
 8000bf6:	f8d2 21bc 	ldr.w	r2, [r2, #444]	; 0x1bc
 8000bfa:	0c12      	lsrs	r2, r2, #16
 8000bfc:	719a      	strb	r2, [r3, #6]
    aData[7] = (uint8_t)((CAN_RDH0R_DATA7 & hcan->Instance->sFIFOMailBox[RxFifo].RDHR) >> CAN_RDH0R_DATA7_Pos);
 8000bfe:	6802      	ldr	r2, [r0, #0]
 8000c00:	4414      	add	r4, r2
 8000c02:	f8d4 21bc 	ldr.w	r2, [r4, #444]	; 0x1bc
 8000c06:	0e12      	lsrs	r2, r2, #24
 8000c08:	71da      	strb	r2, [r3, #7]
    if (RxFifo == CAN_RX_FIFO0) /* Rx element is assigned to Rx FIFO 0 */
 8000c0a:	6803      	ldr	r3, [r0, #0]
 8000c0c:	b951      	cbnz	r1, 8000c24 <HAL_CAN_GetRxMessage+0xdc>
      SET_BIT(hcan->Instance->RF0R, CAN_RF0R_RFOM0);
 8000c0e:	68da      	ldr	r2, [r3, #12]
 8000c10:	f042 0220 	orr.w	r2, r2, #32
 8000c14:	60da      	str	r2, [r3, #12]
    return HAL_OK;
 8000c16:	2000      	movs	r0, #0
  }
}
 8000c18:	bdf0      	pop	{r4, r5, r6, r7, pc}
      pHeader->ExtId = ((CAN_RI0R_EXID | CAN_RI0R_STID) & hcan->Instance->sFIFOMailBox[RxFifo].RIR) >> CAN_RI0R_EXID_Pos;
 8000c1a:	f8d5 71b0 	ldr.w	r7, [r5, #432]	; 0x1b0
 8000c1e:	08ff      	lsrs	r7, r7, #3
 8000c20:	6057      	str	r7, [r2, #4]
 8000c22:	e7b2      	b.n	8000b8a <HAL_CAN_GetRxMessage+0x42>
      SET_BIT(hcan->Instance->RF1R, CAN_RF1R_RFOM1);
 8000c24:	691a      	ldr	r2, [r3, #16]
 8000c26:	f042 0220 	orr.w	r2, r2, #32
 8000c2a:	611a      	str	r2, [r3, #16]
 8000c2c:	e7f3      	b.n	8000c16 <HAL_CAN_GetRxMessage+0xce>
    hcan->ErrorCode |= HAL_CAN_ERROR_NOT_INITIALIZED;
 8000c2e:	6a43      	ldr	r3, [r0, #36]	; 0x24
 8000c30:	f443 2380 	orr.w	r3, r3, #262144	; 0x40000
 8000c34:	e796      	b.n	8000b64 <HAL_CAN_GetRxMessage+0x1c>

08000c36 <HAL_CAN_ActivateNotification>:
  *         This parameter can be any combination of @arg CAN_Interrupts.
  * @retval HAL status
  */
HAL_StatusTypeDef HAL_CAN_ActivateNotification(CAN_HandleTypeDef *hcan, uint32_t ActiveITs)
{
  HAL_CAN_StateTypeDef state = hcan->State;
 8000c36:	f890 3020 	ldrb.w	r3, [r0, #32]

  /* Check function parameters */
  assert_param(IS_CAN_IT(ActiveITs));

  if ((state == HAL_CAN_STATE_READY) ||
 8000c3a:	3b01      	subs	r3, #1
 8000c3c:	2b01      	cmp	r3, #1
 8000c3e:	d805      	bhi.n	8000c4c <HAL_CAN_ActivateNotification+0x16>
      (state == HAL_CAN_STATE_LISTENING))
  {
    /* Enable the selected interrupts */
    __HAL_CAN_ENABLE_IT(hcan, ActiveITs);
 8000c40:	6802      	ldr	r2, [r0, #0]

    /* Return function status */
    return HAL_OK;
 8000c42:	2000      	movs	r0, #0
    __HAL_CAN_ENABLE_IT(hcan, ActiveITs);
 8000c44:	6953      	ldr	r3, [r2, #20]
 8000c46:	4319      	orrs	r1, r3
 8000c48:	6151      	str	r1, [r2, #20]
    return HAL_OK;
 8000c4a:	4770      	bx	lr
  }
  else
  {
    /* Update error code */
    hcan->ErrorCode |= HAL_CAN_ERROR_NOT_INITIALIZED;
 8000c4c:	6a43      	ldr	r3, [r0, #36]	; 0x24
 8000c4e:	f443 2380 	orr.w	r3, r3, #262144	; 0x40000
 8000c52:	6243      	str	r3, [r0, #36]	; 0x24

    return HAL_ERROR;
 8000c54:	2001      	movs	r0, #1
  }
}
 8000c56:	4770      	bx	lr

08000c58 <HAL_CAN_TxMailbox0AbortCallback>:
 8000c58:	4770      	bx	lr

08000c5a <HAL_CAN_TxMailbox1AbortCallback>:
 8000c5a:	4770      	bx	lr

08000c5c <HAL_CAN_TxMailbox2AbortCallback>:
 8000c5c:	4770      	bx	lr

08000c5e <HAL_CAN_SleepCallback>:
 8000c5e:	4770      	bx	lr

08000c60 <HAL_CAN_WakeUpFromRxMsgCallback>:
 8000c60:	4770      	bx	lr

08000c62 <HAL_CAN_IRQHandler>:
  * @param  hcan pointer to a CAN_HandleTypeDef structure that contains
  *         the configuration information for the specified CAN.
  * @retval None
  */
void HAL_CAN_IRQHandler(CAN_HandleTypeDef *hcan)
{
 8000c62:	e92d 4ff8 	stmdb	sp!, {r3, r4, r5, r6, r7, r8, r9, sl, fp, lr}
  uint32_t errorcode = HAL_CAN_ERROR_NONE;
  uint32_t interrupts = READ_REG(hcan->Instance->IER);
 8000c66:	6803      	ldr	r3, [r0, #0]
{
 8000c68:	4605      	mov	r5, r0
  uint32_t interrupts = READ_REG(hcan->Instance->IER);
 8000c6a:	695e      	ldr	r6, [r3, #20]
  uint32_t msrflags = READ_REG(hcan->Instance->MSR);
 8000c6c:	f8d3 9004 	ldr.w	r9, [r3, #4]
  uint32_t rf0rflags = READ_REG(hcan->Instance->RF0R);
  uint32_t rf1rflags = READ_REG(hcan->Instance->RF1R);
  uint32_t esrflags = READ_REG(hcan->Instance->ESR);

  /* Transmit Mailbox empty interrupt management *****************************/
  if ((interrupts & CAN_IT_TX_MAILBOX_EMPTY) != 0U)
 8000c70:	f016 0401 	ands.w	r4, r6, #1
  uint32_t tsrflags = READ_REG(hcan->Instance->TSR);
 8000c74:	689f      	ldr	r7, [r3, #8]
  uint32_t rf0rflags = READ_REG(hcan->Instance->RF0R);
 8000c76:	f8d3 b00c 	ldr.w	fp, [r3, #12]
  uint32_t rf1rflags = READ_REG(hcan->Instance->RF1R);
 8000c7a:	f8d3 a010 	ldr.w	sl, [r3, #16]
  uint32_t esrflags = READ_REG(hcan->Instance->ESR);
 8000c7e:	f8d3 8018 	ldr.w	r8, [r3, #24]
  if ((interrupts & CAN_IT_TX_MAILBOX_EMPTY) != 0U)
 8000c82:	d022      	beq.n	8000cca <HAL_CAN_IRQHandler+0x68>
  {
    /* Transmit Mailbox 0 management *****************************************/
    if ((tsrflags & CAN_TSR_RQCP0) != 0U)
 8000c84:	f017 0401 	ands.w	r4, r7, #1
 8000c88:	d007      	beq.n	8000c9a <HAL_CAN_IRQHandler+0x38>
    {
      /* Clear the Transmission Complete flag (and TXOK0,ALST0,TERR0 bits) */
      __HAL_CAN_CLEAR_FLAG(hcan, CAN_FLAG_RQCP0);
 8000c8a:	2201      	movs	r2, #1

      if ((tsrflags & CAN_TSR_TXOK0) != 0U)
 8000c8c:	07b9      	lsls	r1, r7, #30
      __HAL_CAN_CLEAR_FLAG(hcan, CAN_FLAG_RQCP0);
 8000c8e:	609a      	str	r2, [r3, #8]
      if ((tsrflags & CAN_TSR_TXOK0) != 0U)
 8000c90:	f140 80a5 	bpl.w	8000dde <HAL_CAN_IRQHandler+0x17c>
#if USE_HAL_CAN_REGISTER_CALLBACKS == 1
        /* Call registered callback*/
        hcan->TxMailbox0CompleteCallback(hcan);
#else
        /* Call weak (surcharged) callback */
        HAL_CAN_TxMailbox0CompleteCallback(hcan);
 8000c94:	f003 fca0 	bl	80045d8 <HAL_CAN_TxMailbox0CompleteCallback>
  uint32_t errorcode = HAL_CAN_ERROR_NONE;
 8000c98:	2400      	movs	r4, #0
        }
      }
    }

    /* Transmit Mailbox 1 management *****************************************/
    if ((tsrflags & CAN_TSR_RQCP1) != 0U)
 8000c9a:	05fb      	lsls	r3, r7, #23
 8000c9c:	d509      	bpl.n	8000cb2 <HAL_CAN_IRQHandler+0x50>
    {
      /* Clear the Transmission Complete flag (and TXOK1,ALST1,TERR1 bits) */
      __HAL_CAN_CLEAR_FLAG(hcan, CAN_FLAG_RQCP1);
 8000c9e:	f44f 7280 	mov.w	r2, #256	; 0x100
 8000ca2:	682b      	ldr	r3, [r5, #0]

      if ((tsrflags & CAN_TSR_TXOK1) != 0U)
 8000ca4:	05b8      	lsls	r0, r7, #22
      __HAL_CAN_CLEAR_FLAG(hcan, CAN_FLAG_RQCP1);
 8000ca6:	609a      	str	r2, [r3, #8]
      if ((tsrflags & CAN_TSR_TXOK1) != 0U)
 8000ca8:	f140 80a7 	bpl.w	8000dfa <HAL_CAN_IRQHandler+0x198>
#if USE_HAL_CAN_REGISTER_CALLBACKS == 1
        /* Call registered callback*/
        hcan->TxMailbox1CompleteCallback(hcan);
#else
        /* Call weak (surcharged) callback */
        HAL_CAN_TxMailbox1CompleteCallback(hcan);
 8000cac:	4628      	mov	r0, r5
 8000cae:	f003 fc94 	bl	80045da <HAL_CAN_TxMailbox1CompleteCallback>
        }
      }
    }

    /* Transmit Mailbox 2 management *****************************************/
    if ((tsrflags & CAN_TSR_RQCP2) != 0U)
 8000cb2:	03fb      	lsls	r3, r7, #15
 8000cb4:	d509      	bpl.n	8000cca <HAL_CAN_IRQHandler+0x68>
    {
      /* Clear the Transmission Complete flag (and TXOK2,ALST2,TERR2 bits) */
      __HAL_CAN_CLEAR_FLAG(hcan, CAN_FLAG_RQCP2);
 8000cb6:	f44f 3280 	mov.w	r2, #65536	; 0x10000
 8000cba:	682b      	ldr	r3, [r5, #0]

      if ((tsrflags & CAN_TSR_TXOK2) != 0U)
 8000cbc:	03b8      	lsls	r0, r7, #14
      __HAL_CAN_CLEAR_FLAG(hcan, CAN_FLAG_RQCP2);
 8000cbe:	609a      	str	r2, [r3, #8]
      if ((tsrflags & CAN_TSR_TXOK2) != 0U)
 8000cc0:	f140 80a9 	bpl.w	8000e16 <HAL_CAN_IRQHandler+0x1b4>
#if USE_HAL_CAN_REGISTER_CALLBACKS == 1
        /* Call registered callback*/
        hcan->TxMailbox2CompleteCallback(hcan);
#else
        /* Call weak (surcharged) callback */
        HAL_CAN_TxMailbox2CompleteCallback(hcan);
 8000cc4:	4628      	mov	r0, r5
 8000cc6:	f003 fc89 	bl	80045dc <HAL_CAN_TxMailbox2CompleteCallback>
      }
    }
  }

  /* Receive FIFO 0 overrun interrupt management *****************************/
  if ((interrupts & CAN_IT_RX_FIFO0_OVERRUN) != 0U)
 8000cca:	0733      	lsls	r3, r6, #28
 8000ccc:	d507      	bpl.n	8000cde <HAL_CAN_IRQHandler+0x7c>
  {
    if ((rf0rflags & CAN_RF0R_FOVR0) != 0U)
 8000cce:	f01b 0f10 	tst.w	fp, #16
    {
      /* Set CAN error code to Rx Fifo 0 overrun error */
      errorcode |= HAL_CAN_ERROR_RX_FOV0;

      /* Clear FIFO0 Overrun Flag */
      __HAL_CAN_CLEAR_FLAG(hcan, CAN_FLAG_FOV0);
 8000cd2:	bf1f      	itttt	ne
 8000cd4:	2210      	movne	r2, #16
 8000cd6:	682b      	ldrne	r3, [r5, #0]
      errorcode |= HAL_CAN_ERROR_RX_FOV0;
 8000cd8:	f444 7400 	orrne.w	r4, r4, #512	; 0x200
      __HAL_CAN_CLEAR_FLAG(hcan, CAN_FLAG_FOV0);
 8000cdc:	60da      	strne	r2, [r3, #12]
    }
  }

  /* Receive FIFO 0 full interrupt management ********************************/
  if ((interrupts & CAN_IT_RX_FIFO0_FULL) != 0U)
 8000cde:	0777      	lsls	r7, r6, #29
 8000ce0:	d508      	bpl.n	8000cf4 <HAL_CAN_IRQHandler+0x92>
  {
    if ((rf0rflags & CAN_RF0R_FULL0) != 0U)
 8000ce2:	f01b 0f08 	tst.w	fp, #8
 8000ce6:	d005      	beq.n	8000cf4 <HAL_CAN_IRQHandler+0x92>
    {
      /* Clear FIFO 0 full Flag */
      __HAL_CAN_CLEAR_FLAG(hcan, CAN_FLAG_FF0);
 8000ce8:	2208      	movs	r2, #8
 8000cea:	682b      	ldr	r3, [r5, #0]
#if USE_HAL_CAN_REGISTER_CALLBACKS == 1
      /* Call registered callback*/
      hcan->RxFifo0FullCallback(hcan);
#else
      /* Call weak (surcharged) callback */
      HAL_CAN_RxFifo0FullCallback(hcan);
 8000cec:	4628      	mov	r0, r5
      __HAL_CAN_CLEAR_FLAG(hcan, CAN_FLAG_FF0);
 8000cee:	60da      	str	r2, [r3, #12]
      HAL_CAN_RxFifo0FullCallback(hcan);
 8000cf0:	f005 ff70 	bl	8006bd4 <HAL_CAN_RxFifo0FullCallback>
#endif /* USE_HAL_CAN_REGISTER_CALLBACKS */
    }
  }

  /* Receive FIFO 0 message pending interrupt management *********************/
  if ((interrupts & CAN_IT_RX_FIFO0_MSG_PENDING) != 0U)
 8000cf4:	07b0      	lsls	r0, r6, #30
 8000cf6:	d506      	bpl.n	8000d06 <HAL_CAN_IRQHandler+0xa4>
  {
    /* Check if message is still pending */
    if ((hcan->Instance->RF0R & CAN_RF0R_FMP0) != 0U)
 8000cf8:	682b      	ldr	r3, [r5, #0]
 8000cfa:	68db      	ldr	r3, [r3, #12]
 8000cfc:	0799      	lsls	r1, r3, #30
 8000cfe:	d002      	beq.n	8000d06 <HAL_CAN_IRQHandler+0xa4>
#if USE_HAL_CAN_REGISTER_CALLBACKS == 1
      /* Call registered callback*/
      hcan->RxFifo0MsgPendingCallback(hcan);
#else
      /* Call weak (surcharged) callback */
      HAL_CAN_RxFifo0MsgPendingCallback(hcan);
 8000d00:	4628      	mov	r0, r5
 8000d02:	f005 ff23 	bl	8006b4c <HAL_CAN_RxFifo0MsgPendingCallback>
#endif /* USE_HAL_CAN_REGISTER_CALLBACKS */
    }
  }

  /* Receive FIFO 1 overrun interrupt management *****************************/
  if ((interrupts & CAN_IT_RX_FIFO1_OVERRUN) != 0U)
 8000d06:	0672      	lsls	r2, r6, #25
 8000d08:	d507      	bpl.n	8000d1a <HAL_CAN_IRQHandler+0xb8>
  {
    if ((rf1rflags & CAN_RF1R_FOVR1) != 0U)
 8000d0a:	f01a 0f10 	tst.w	sl, #16
    {
      /* Set CAN error code to Rx Fifo 1 overrun error */
      errorcode |= HAL_CAN_ERROR_RX_FOV1;

      /* Clear FIFO1 Overrun Flag */
      __HAL_CAN_CLEAR_FLAG(hcan, CAN_FLAG_FOV1);
 8000d0e:	bf1f      	itttt	ne
 8000d10:	2210      	movne	r2, #16
 8000d12:	682b      	ldrne	r3, [r5, #0]
      errorcode |= HAL_CAN_ERROR_RX_FOV1;
 8000d14:	f444 6480 	orrne.w	r4, r4, #1024	; 0x400
      __HAL_CAN_CLEAR_FLAG(hcan, CAN_FLAG_FOV1);
 8000d18:	611a      	strne	r2, [r3, #16]
    }
  }

  /* Receive FIFO 1 full interrupt management ********************************/
  if ((interrupts & CAN_IT_RX_FIFO1_FULL) != 0U)
 8000d1a:	06b3      	lsls	r3, r6, #26
 8000d1c:	d508      	bpl.n	8000d30 <HAL_CAN_IRQHandler+0xce>
  {
    if ((rf1rflags & CAN_RF1R_FULL1) != 0U)
 8000d1e:	f01a 0f08 	tst.w	sl, #8
 8000d22:	d005      	beq.n	8000d30 <HAL_CAN_IRQHandler+0xce>
    {
      /* Clear FIFO 1 full Flag */
      __HAL_CAN_CLEAR_FLAG(hcan, CAN_FLAG_FF1);
 8000d24:	2208      	movs	r2, #8
 8000d26:	682b      	ldr	r3, [r5, #0]
#if USE_HAL_CAN_REGISTER_CALLBACKS == 1
      /* Call registered callback*/
      hcan->RxFifo1FullCallback(hcan);
#else
      /* Call weak (surcharged) callback */
      HAL_CAN_RxFifo1FullCallback(hcan);
 8000d28:	4628      	mov	r0, r5
      __HAL_CAN_CLEAR_FLAG(hcan, CAN_FLAG_FF1);
 8000d2a:	611a      	str	r2, [r3, #16]
      HAL_CAN_RxFifo1FullCallback(hcan);
 8000d2c:	f005 ff54 	bl	8006bd8 <HAL_CAN_RxFifo1FullCallback>
#endif /* USE_HAL_CAN_REGISTER_CALLBACKS */
    }
  }

  /* Receive FIFO 1 message pending interrupt management *********************/
  if ((interrupts & CAN_IT_RX_FIFO1_MSG_PENDING) != 0U)
 8000d30:	06f7      	lsls	r7, r6, #27
 8000d32:	d506      	bpl.n	8000d42 <HAL_CAN_IRQHandler+0xe0>
  {
    /* Check if message is still pending */
    if ((hcan->Instance->RF1R & CAN_RF1R_FMP1) != 0U)
 8000d34:	682b      	ldr	r3, [r5, #0]
 8000d36:	691b      	ldr	r3, [r3, #16]
 8000d38:	0798      	lsls	r0, r3, #30
 8000d3a:	d002      	beq.n	8000d42 <HAL_CAN_IRQHandler+0xe0>
#if USE_HAL_CAN_REGISTER_CALLBACKS == 1
      /* Call registered callback*/
      hcan->RxFifo1MsgPendingCallback(hcan);
#else
      /* Call weak (surcharged) callback */
      HAL_CAN_RxFifo1MsgPendingCallback(hcan);
 8000d3c:	4628      	mov	r0, r5
 8000d3e:	f005 fec3 	bl	8006ac8 <HAL_CAN_RxFifo1MsgPendingCallback>
#endif /* USE_HAL_CAN_REGISTER_CALLBACKS */
    }
  }

  /* Sleep interrupt management *********************************************/
  if ((interrupts & CAN_IT_SLEEP_ACK) != 0U)
 8000d42:	03b1      	lsls	r1, r6, #14
 8000d44:	d508      	bpl.n	8000d58 <HAL_CAN_IRQHandler+0xf6>
  {
    if ((msrflags & CAN_MSR_SLAKI) != 0U)
 8000d46:	f019 0f10 	tst.w	r9, #16
 8000d4a:	d005      	beq.n	8000d58 <HAL_CAN_IRQHandler+0xf6>
    {
      /* Clear Sleep interrupt Flag */
      __HAL_CAN_CLEAR_FLAG(hcan, CAN_FLAG_SLAKI);
 8000d4c:	2210      	movs	r2, #16
 8000d4e:	682b      	ldr	r3, [r5, #0]
#if USE_HAL_CAN_REGISTER_CALLBACKS == 1
      /* Call registered callback*/
      hcan->SleepCallback(hcan);
#else
      /* Call weak (surcharged) callback */
      HAL_CAN_SleepCallback(hcan);
 8000d50:	4628      	mov	r0, r5
      __HAL_CAN_CLEAR_FLAG(hcan, CAN_FLAG_SLAKI);
 8000d52:	605a      	str	r2, [r3, #4]
      HAL_CAN_SleepCallback(hcan);
 8000d54:	f7ff ff83 	bl	8000c5e <HAL_CAN_SleepCallback>
#endif /* USE_HAL_CAN_REGISTER_CALLBACKS */
    }
  }

  /* WakeUp interrupt management *********************************************/
  if ((interrupts & CAN_IT_WAKEUP) != 0U)
 8000d58:	03f2      	lsls	r2, r6, #15
 8000d5a:	d508      	bpl.n	8000d6e <HAL_CAN_IRQHandler+0x10c>
  {
    if ((msrflags & CAN_MSR_WKUI) != 0U)
 8000d5c:	f019 0f08 	tst.w	r9, #8
 8000d60:	d005      	beq.n	8000d6e <HAL_CAN_IRQHandler+0x10c>
    {
      /* Clear WakeUp Flag */
      __HAL_CAN_CLEAR_FLAG(hcan, CAN_FLAG_WKU);
 8000d62:	2208      	movs	r2, #8
 8000d64:	682b      	ldr	r3, [r5, #0]
#if USE_HAL_CAN_REGISTER_CALLBACKS == 1
      /* Call registered callback*/
      hcan->WakeUpFromRxMsgCallback(hcan);
#else
      /* Call weak (surcharged) callback */
      HAL_CAN_WakeUpFromRxMsgCallback(hcan);
 8000d66:	4628      	mov	r0, r5
      __HAL_CAN_CLEAR_FLAG(hcan, CAN_FLAG_WKU);
 8000d68:	605a      	str	r2, [r3, #4]
      HAL_CAN_WakeUpFromRxMsgCallback(hcan);
 8000d6a:	f7ff ff79 	bl	8000c60 <HAL_CAN_WakeUpFromRxMsgCallback>
#endif /* USE_HAL_CAN_REGISTER_CALLBACKS */
    }
  }

  /* Error interrupts management *********************************************/
  if ((interrupts & CAN_IT_ERROR) != 0U)
 8000d6e:	0433      	lsls	r3, r6, #16
 8000d70:	d52c      	bpl.n	8000dcc <HAL_CAN_IRQHandler+0x16a>
  {
    if ((msrflags & CAN_MSR_ERRI) != 0U)
 8000d72:	f019 0f04 	tst.w	r9, #4
 8000d76:	682a      	ldr	r2, [r5, #0]
 8000d78:	d026      	beq.n	8000dc8 <HAL_CAN_IRQHandler+0x166>
    {
      /* Check Error Warning Flag */
      if (((interrupts & CAN_IT_ERROR_WARNING) != 0U) &&
 8000d7a:	05f7      	lsls	r7, r6, #23
 8000d7c:	d504      	bpl.n	8000d88 <HAL_CAN_IRQHandler+0x126>
 8000d7e:	f018 0f01 	tst.w	r8, #1
          ((esrflags & CAN_ESR_EWGF) != 0U))
      {
        /* Set CAN error code to Error Warning */
        errorcode |= HAL_CAN_ERROR_EWG;
 8000d82:	bf18      	it	ne
 8000d84:	f044 0401 	orrne.w	r4, r4, #1

        /* No need for clear of Error Warning Flag as read-only */
      }

      /* Check Error Passive Flag */
      if (((interrupts & CAN_IT_ERROR_PASSIVE) != 0U) &&
 8000d88:	05b0      	lsls	r0, r6, #22
 8000d8a:	d504      	bpl.n	8000d96 <HAL_CAN_IRQHandler+0x134>
 8000d8c:	f018 0f02 	tst.w	r8, #2
          ((esrflags & CAN_ESR_EPVF) != 0U))
      {
        /* Set CAN error code to Error Passive */
        errorcode |= HAL_CAN_ERROR_EPV;
 8000d90:	bf18      	it	ne
 8000d92:	f044 0402 	orrne.w	r4, r4, #2

        /* No need for clear of Error Passive Flag as read-only */
      }

      /* Check Bus-off Flag */
      if (((interrupts & CAN_IT_BUSOFF) != 0U) &&
 8000d96:	0571      	lsls	r1, r6, #21
 8000d98:	d504      	bpl.n	8000da4 <HAL_CAN_IRQHandler+0x142>
 8000d9a:	f018 0f04 	tst.w	r8, #4
          ((esrflags & CAN_ESR_BOFF) != 0U))
      {
        /* Set CAN error code to Bus-Off */
        errorcode |= HAL_CAN_ERROR_BOF;
 8000d9e:	bf18      	it	ne
 8000da0:	f044 0404 	orrne.w	r4, r4, #4

        /* No need for clear of Error Bus-Off as read-only */
      }

      /* Check Last Error Code Flag */
      if (((interrupts & CAN_IT_LAST_ERROR_CODE) != 0U) &&
 8000da4:	0533      	lsls	r3, r6, #20
 8000da6:	d50f      	bpl.n	8000dc8 <HAL_CAN_IRQHandler+0x166>
 8000da8:	f018 0370 	ands.w	r3, r8, #112	; 0x70
 8000dac:	d00c      	beq.n	8000dc8 <HAL_CAN_IRQHandler+0x166>
          ((esrflags & CAN_ESR_LEC) != 0U))
      {
        switch (esrflags & CAN_ESR_LEC)
 8000dae:	2b40      	cmp	r3, #64	; 0x40
 8000db0:	d04f      	beq.n	8000e52 <HAL_CAN_IRQHandler+0x1f0>
 8000db2:	d83e      	bhi.n	8000e32 <HAL_CAN_IRQHandler+0x1d0>
 8000db4:	2b20      	cmp	r3, #32
 8000db6:	d046      	beq.n	8000e46 <HAL_CAN_IRQHandler+0x1e4>
 8000db8:	2b30      	cmp	r3, #48	; 0x30
 8000dba:	d047      	beq.n	8000e4c <HAL_CAN_IRQHandler+0x1ea>
 8000dbc:	2b10      	cmp	r3, #16
 8000dbe:	d03f      	beq.n	8000e40 <HAL_CAN_IRQHandler+0x1de>
          default:
            break;
        }

        /* Clear Last error code Flag */
        CLEAR_BIT(hcan->Instance->ESR, CAN_ESR_LEC);
 8000dc0:	6993      	ldr	r3, [r2, #24]
 8000dc2:	f023 0370 	bic.w	r3, r3, #112	; 0x70
 8000dc6:	6193      	str	r3, [r2, #24]
      }
    }

    /* Clear ERRI Flag */
    __HAL_CAN_CLEAR_FLAG(hcan, CAN_FLAG_ERRI);
 8000dc8:	2304      	movs	r3, #4
 8000dca:	6053      	str	r3, [r2, #4]
  }

  /* Call the Error call Back in case of Errors */
  if (errorcode != HAL_CAN_ERROR_NONE)
 8000dcc:	b12c      	cbz	r4, 8000dda <HAL_CAN_IRQHandler+0x178>
  {
    /* Update error code in handle */
    hcan->ErrorCode |= errorcode;
 8000dce:	6a6b      	ldr	r3, [r5, #36]	; 0x24
#if USE_HAL_CAN_REGISTER_CALLBACKS == 1
    /* Call registered callback*/
    hcan->ErrorCallback(hcan);
#else
    /* Call weak (surcharged) callback */
    HAL_CAN_ErrorCallback(hcan);
 8000dd0:	4628      	mov	r0, r5
    hcan->ErrorCode |= errorcode;
 8000dd2:	431c      	orrs	r4, r3
 8000dd4:	626c      	str	r4, [r5, #36]	; 0x24
    HAL_CAN_ErrorCallback(hcan);
 8000dd6:	f005 ff01 	bl	8006bdc <HAL_CAN_ErrorCallback>
#endif /* USE_HAL_CAN_REGISTER_CALLBACKS */
  }
}
 8000dda:	e8bd 8ff8 	ldmia.w	sp!, {r3, r4, r5, r6, r7, r8, r9, sl, fp, pc}
        if ((tsrflags & CAN_TSR_ALST0) != 0U)
 8000dde:	077a      	lsls	r2, r7, #29
 8000de0:	d405      	bmi.n	8000dee <HAL_CAN_IRQHandler+0x18c>
        else if ((tsrflags & CAN_TSR_TERR0) != 0U)
 8000de2:	f017 0408 	ands.w	r4, r7, #8
 8000de6:	d105      	bne.n	8000df4 <HAL_CAN_IRQHandler+0x192>
          HAL_CAN_TxMailbox0AbortCallback(hcan);
 8000de8:	f7ff ff36 	bl	8000c58 <HAL_CAN_TxMailbox0AbortCallback>
 8000dec:	e755      	b.n	8000c9a <HAL_CAN_IRQHandler+0x38>
          errorcode |= HAL_CAN_ERROR_TX_ALST0;
 8000dee:	f44f 6400 	mov.w	r4, #2048	; 0x800
 8000df2:	e752      	b.n	8000c9a <HAL_CAN_IRQHandler+0x38>
          errorcode |= HAL_CAN_ERROR_TX_TERR0;
 8000df4:	f44f 5480 	mov.w	r4, #4096	; 0x1000
 8000df8:	e74f      	b.n	8000c9a <HAL_CAN_IRQHandler+0x38>
        if ((tsrflags & CAN_TSR_ALST1) != 0U)
 8000dfa:	0579      	lsls	r1, r7, #21
 8000dfc:	d502      	bpl.n	8000e04 <HAL_CAN_IRQHandler+0x1a2>
          errorcode |= HAL_CAN_ERROR_TX_ALST1;
 8000dfe:	f444 5400 	orr.w	r4, r4, #8192	; 0x2000
 8000e02:	e756      	b.n	8000cb2 <HAL_CAN_IRQHandler+0x50>
        else if ((tsrflags & CAN_TSR_TERR1) != 0U)
 8000e04:	053a      	lsls	r2, r7, #20
 8000e06:	d502      	bpl.n	8000e0e <HAL_CAN_IRQHandler+0x1ac>
          errorcode |= HAL_CAN_ERROR_TX_TERR1;
 8000e08:	f444 4480 	orr.w	r4, r4, #16384	; 0x4000
 8000e0c:	e751      	b.n	8000cb2 <HAL_CAN_IRQHandler+0x50>
          HAL_CAN_TxMailbox1AbortCallback(hcan);
 8000e0e:	4628      	mov	r0, r5
 8000e10:	f7ff ff23 	bl	8000c5a <HAL_CAN_TxMailbox1AbortCallback>
 8000e14:	e74d      	b.n	8000cb2 <HAL_CAN_IRQHandler+0x50>
        if ((tsrflags & CAN_TSR_ALST2) != 0U)
 8000e16:	0379      	lsls	r1, r7, #13
 8000e18:	d502      	bpl.n	8000e20 <HAL_CAN_IRQHandler+0x1be>
          errorcode |= HAL_CAN_ERROR_TX_ALST2;
 8000e1a:	f444 4400 	orr.w	r4, r4, #32768	; 0x8000
 8000e1e:	e754      	b.n	8000cca <HAL_CAN_IRQHandler+0x68>
        else if ((tsrflags & CAN_TSR_TERR2) != 0U)
 8000e20:	033a      	lsls	r2, r7, #12
 8000e22:	d502      	bpl.n	8000e2a <HAL_CAN_IRQHandler+0x1c8>
          errorcode |= HAL_CAN_ERROR_TX_TERR2;
 8000e24:	f444 3480 	orr.w	r4, r4, #65536	; 0x10000
 8000e28:	e74f      	b.n	8000cca <HAL_CAN_IRQHandler+0x68>
          HAL_CAN_TxMailbox2AbortCallback(hcan);
 8000e2a:	4628      	mov	r0, r5
 8000e2c:	f7ff ff16 	bl	8000c5c <HAL_CAN_TxMailbox2AbortCallback>
 8000e30:	e74b      	b.n	8000cca <HAL_CAN_IRQHandler+0x68>
        switch (esrflags & CAN_ESR_LEC)
 8000e32:	2b50      	cmp	r3, #80	; 0x50
 8000e34:	d010      	beq.n	8000e58 <HAL_CAN_IRQHandler+0x1f6>
 8000e36:	2b60      	cmp	r3, #96	; 0x60
 8000e38:	d1c2      	bne.n	8000dc0 <HAL_CAN_IRQHandler+0x15e>
            errorcode |= HAL_CAN_ERROR_CRC;
 8000e3a:	f444 7480 	orr.w	r4, r4, #256	; 0x100
            break;
 8000e3e:	e7bf      	b.n	8000dc0 <HAL_CAN_IRQHandler+0x15e>
            errorcode |= HAL_CAN_ERROR_STF;
 8000e40:	f044 0408 	orr.w	r4, r4, #8
            break;
 8000e44:	e7bc      	b.n	8000dc0 <HAL_CAN_IRQHandler+0x15e>
            errorcode |= HAL_CAN_ERROR_FOR;
 8000e46:	f044 0410 	orr.w	r4, r4, #16
            break;
 8000e4a:	e7b9      	b.n	8000dc0 <HAL_CAN_IRQHandler+0x15e>
            errorcode |= HAL_CAN_ERROR_ACK;
 8000e4c:	f044 0420 	orr.w	r4, r4, #32
            break;
 8000e50:	e7b6      	b.n	8000dc0 <HAL_CAN_IRQHandler+0x15e>
            errorcode |= HAL_CAN_ERROR_BR;
 8000e52:	f044 0440 	orr.w	r4, r4, #64	; 0x40
            break;
 8000e56:	e7b3      	b.n	8000dc0 <HAL_CAN_IRQHandler+0x15e>
            errorcode |= HAL_CAN_ERROR_BD;
 8000e58:	f044 0480 	orr.w	r4, r4, #128	; 0x80
            break;
 8000e5c:	e7b0      	b.n	8000dc0 <HAL_CAN_IRQHandler+0x15e>

08000e5e <HAL_CAN_GetState>:
  *         the configuration information for the specified CAN.
  * @retval HAL state
  */
HAL_CAN_StateTypeDef HAL_CAN_GetState(CAN_HandleTypeDef *hcan)
{
  HAL_CAN_StateTypeDef state = hcan->State;
 8000e5e:	f890 2020 	ldrb.w	r2, [r0, #32]
{
 8000e62:	4603      	mov	r3, r0
  HAL_CAN_StateTypeDef state = hcan->State;
 8000e64:	b2d0      	uxtb	r0, r2

  if ((state == HAL_CAN_STATE_READY) ||
 8000e66:	3a01      	subs	r2, #1
 8000e68:	2a01      	cmp	r2, #1
 8000e6a:	d80a      	bhi.n	8000e82 <HAL_CAN_GetState+0x24>
      (state == HAL_CAN_STATE_LISTENING))
  {
    /* Check sleep mode acknowledge flag */
    if ((hcan->Instance->MSR & CAN_MSR_SLAK) != 0U)
 8000e6c:	681b      	ldr	r3, [r3, #0]
 8000e6e:	685a      	ldr	r2, [r3, #4]
 8000e70:	0792      	lsls	r2, r2, #30
 8000e72:	d405      	bmi.n	8000e80 <HAL_CAN_GetState+0x22>
    {
      /* Sleep mode is active */
      state = HAL_CAN_STATE_SLEEP_ACTIVE;
    }
    /* Check sleep mode request flag */
    else if ((hcan->Instance->MCR & CAN_MCR_SLEEP) != 0U)
 8000e74:	681b      	ldr	r3, [r3, #0]
 8000e76:	f013 0f02 	tst.w	r3, #2
    {
      /* Sleep mode request is pending */
      state = HAL_CAN_STATE_SLEEP_PENDING;
 8000e7a:	bf18      	it	ne
 8000e7c:	2003      	movne	r0, #3
 8000e7e:	4770      	bx	lr
      state = HAL_CAN_STATE_SLEEP_ACTIVE;
 8000e80:	2004      	movs	r0, #4
    }
  }

  /* Return CAN state */
  return state;
}
 8000e82:	4770      	bx	lr

08000e84 <HAL_CAN_GetError>:
  * @retval CAN Error Code
  */
uint32_t HAL_CAN_GetError(CAN_HandleTypeDef *hcan)
{
  /* Return CAN error code */
  return hcan->ErrorCode;
 8000e84:	6a40      	ldr	r0, [r0, #36]	; 0x24
}
 8000e86:	4770      	bx	lr

08000e88 <HAL_CAN_ResetError>:
  * @retval HAL status
  */
HAL_StatusTypeDef HAL_CAN_ResetError(CAN_HandleTypeDef *hcan)
{
  HAL_StatusTypeDef status = HAL_OK;
  HAL_CAN_StateTypeDef state = hcan->State;
 8000e88:	f890 3020 	ldrb.w	r3, [r0, #32]

  if ((state == HAL_CAN_STATE_READY) ||
 8000e8c:	3b01      	subs	r3, #1
 8000e8e:	2b01      	cmp	r3, #1
      (state == HAL_CAN_STATE_LISTENING))
  {
    /* Reset CAN error code */
    hcan->ErrorCode = 0U;
 8000e90:	bf95      	itete	ls
 8000e92:	2300      	movls	r3, #0
  }
  else
  {
    /* Update error code */
    hcan->ErrorCode |= HAL_CAN_ERROR_NOT_INITIALIZED;
 8000e94:	6a43      	ldrhi	r3, [r0, #36]	; 0x24
    hcan->ErrorCode = 0U;
 8000e96:	6243      	strls	r3, [r0, #36]	; 0x24
    hcan->ErrorCode |= HAL_CAN_ERROR_NOT_INITIALIZED;
 8000e98:	f443 2380 	orrhi.w	r3, r3, #262144	; 0x40000
  HAL_StatusTypeDef status = HAL_OK;
 8000e9c:	bf92      	itee	ls
 8000e9e:	4618      	movls	r0, r3
    hcan->ErrorCode |= HAL_CAN_ERROR_NOT_INITIALIZED;
 8000ea0:	6243      	strhi	r3, [r0, #36]	; 0x24

    status = HAL_ERROR;
 8000ea2:	2001      	movhi	r0, #1
  }

  /* Return the status */
  return status;
}
 8000ea4:	4770      	bx	lr
	...

08000ea8 <HAL_NVIC_SetPriorityGrouping>:
__STATIC_INLINE void __NVIC_SetPriorityGrouping(uint32_t PriorityGroup)
{
  uint32_t reg_value;
  uint32_t PriorityGroupTmp = (PriorityGroup & (uint32_t)0x07UL);             /* only values 0..7 are used          */

  reg_value  =  SCB->AIRCR;                                                   /* read old register configuration    */
 8000ea8:	4907      	ldr	r1, [pc, #28]	; (8000ec8 <HAL_NVIC_SetPriorityGrouping+0x20>)
  reg_value &= ~((uint32_t)(SCB_AIRCR_VECTKEY_Msk | SCB_AIRCR_PRIGROUP_Msk)); /* clear bits to change               */
  reg_value  =  (reg_value                                   |
                ((uint32_t)0x5FAUL << SCB_AIRCR_VECTKEY_Pos) |
                (PriorityGroupTmp << SCB_AIRCR_PRIGROUP_Pos) );               /* Insert write key and priority group */
 8000eaa:	0203      	lsls	r3, r0, #8
  reg_value  =  SCB->AIRCR;                                                   /* read old register configuration    */
 8000eac:	68ca      	ldr	r2, [r1, #12]
                (PriorityGroupTmp << SCB_AIRCR_PRIGROUP_Pos) );               /* Insert write key and priority group */
 8000eae:	f403 63e0 	and.w	r3, r3, #1792	; 0x700
  reg_value &= ~((uint32_t)(SCB_AIRCR_VECTKEY_Msk | SCB_AIRCR_PRIGROUP_Msk)); /* clear bits to change               */
 8000eb2:	f422 62e0 	bic.w	r2, r2, #1792	; 0x700
 8000eb6:	0412      	lsls	r2, r2, #16
 8000eb8:	0c12      	lsrs	r2, r2, #16
                ((uint32_t)0x5FAUL << SCB_AIRCR_VECTKEY_Pos) |
 8000eba:	4313      	orrs	r3, r2
  reg_value  =  (reg_value                                   |
 8000ebc:	f043 63bf 	orr.w	r3, r3, #100139008	; 0x5f80000
 8000ec0:	f443 3300 	orr.w	r3, r3, #131072	; 0x20000
  SCB->AIRCR =  reg_value;
 8000ec4:	60cb      	str	r3, [r1, #12]
  /* Check the parameters */
  assert_param(IS_NVIC_PRIORITY_GROUP(PriorityGroup));
  
  /* Set the PRIGROUP[10:8] bits according to the PriorityGroup parameter value */
  NVIC_SetPriorityGrouping(PriorityGroup);
}
 8000ec6:	4770      	bx	lr
 8000ec8:	e000ed00 	.word	0xe000ed00

08000ecc <HAL_NVIC_SetPriority>:
  \details Reads the priority grouping field from the NVIC Interrupt Controller.
  \return                Priority grouping field (SCB->AIRCR [10:8] PRIGROUP field).
 */
__STATIC_INLINE uint32_t __NVIC_GetPriorityGrouping(void)
{
  return ((uint32_t)((SCB->AIRCR & SCB_AIRCR_PRIGROUP_Msk) >> SCB_AIRCR_PRIGROUP_Pos));
 8000ecc:	4b16      	ldr	r3, [pc, #88]	; (8000f28 <HAL_NVIC_SetPriority+0x5c>)
  *         This parameter can be a value between 0 and 15
  *         A lower priority value indicates a higher priority.          
  * @retval None
  */
void HAL_NVIC_SetPriority(IRQn_Type IRQn, uint32_t PreemptPriority, uint32_t SubPriority)
{ 
 8000ece:	b530      	push	{r4, r5, lr}
 8000ed0:	68dc      	ldr	r4, [r3, #12]
 8000ed2:	f3c4 2402 	ubfx	r4, r4, #8, #3
{
  uint32_t PriorityGroupTmp = (PriorityGroup & (uint32_t)0x07UL);   /* only values 0..7 are used          */
  uint32_t PreemptPriorityBits;
  uint32_t SubPriorityBits;

  PreemptPriorityBits = ((7UL - PriorityGroupTmp) > (uint32_t)(__NVIC_PRIO_BITS)) ? (uint32_t)(__NVIC_PRIO_BITS) : (uint32_t)(7UL - PriorityGroupTmp);
 8000ed6:	f1c4 0307 	rsb	r3, r4, #7
  SubPriorityBits     = ((PriorityGroupTmp + (uint32_t)(__NVIC_PRIO_BITS)) < (uint32_t)7UL) ? (uint32_t)0UL : (uint32_t)((PriorityGroupTmp - 7UL) + (uint32_t)(__NVIC_PRIO_BITS));
 8000eda:	1d25      	adds	r5, r4, #4
  PreemptPriorityBits = ((7UL - PriorityGroupTmp) > (uint32_t)(__NVIC_PRIO_BITS)) ? (uint32_t)(__NVIC_PRIO_BITS) : (uint32_t)(7UL - PriorityGroupTmp);
 8000edc:	2b04      	cmp	r3, #4
 8000ede:	bf28      	it	cs
 8000ee0:	2304      	movcs	r3, #4
  SubPriorityBits     = ((PriorityGroupTmp + (uint32_t)(__NVIC_PRIO_BITS)) < (uint32_t)7UL) ? (uint32_t)0UL : (uint32_t)((PriorityGroupTmp - 7UL) + (uint32_t)(__NVIC_PRIO_BITS));
 8000ee2:	2d06      	cmp	r5, #6

  return (
           ((PreemptPriority & (uint32_t)((1UL << (PreemptPriorityBits)) - 1UL)) << SubPriorityBits) |
 8000ee4:	f04f 35ff 	mov.w	r5, #4294967295
  SubPriorityBits     = ((PriorityGroupTmp + (uint32_t)(__NVIC_PRIO_BITS)) < (uint32_t)7UL) ? (uint32_t)0UL : (uint32_t)((PriorityGroupTmp - 7UL) + (uint32_t)(__NVIC_PRIO_BITS));
 8000ee8:	bf98      	it	ls
 8000eea:	2400      	movls	r4, #0
           ((PreemptPriority & (uint32_t)((1UL << (PreemptPriorityBits)) - 1UL)) << SubPriorityBits) |
 8000eec:	fa05 f303 	lsl.w	r3, r5, r3
  SubPriorityBits     = ((PriorityGroupTmp + (uint32_t)(__NVIC_PRIO_BITS)) < (uint32_t)7UL) ? (uint32_t)0UL : (uint32_t)((PriorityGroupTmp - 7UL) + (uint32_t)(__NVIC_PRIO_BITS));
 8000ef0:	bf88      	it	hi
 8000ef2:	3c03      	subhi	r4, #3
           ((PreemptPriority & (uint32_t)((1UL << (PreemptPriorityBits)) - 1UL)) << SubPriorityBits) |
 8000ef4:	ea21 0303 	bic.w	r3, r1, r3
 8000ef8:	40a3      	lsls	r3, r4
           ((SubPriority     & (uint32_t)((1UL << (SubPriorityBits    )) - 1UL)))
 8000efa:	fa05 f404 	lsl.w	r4, r5, r4
 8000efe:	ea22 0204 	bic.w	r2, r2, r4
  if ((int32_t)(IRQn) >= 0)
 8000f02:	2800      	cmp	r0, #0
           ((PreemptPriority & (uint32_t)((1UL << (PreemptPriorityBits)) - 1UL)) << SubPriorityBits) |
 8000f04:	ea43 0302 	orr.w	r3, r3, r2
    NVIC->IP[((uint32_t)IRQn)]               = (uint8_t)((priority << (8U - __NVIC_PRIO_BITS)) & (uint32_t)0xFFUL);
 8000f08:	bfac      	ite	ge
 8000f0a:	f100 4060 	addge.w	r0, r0, #3758096384	; 0xe0000000
    SCB->SHP[(((uint32_t)IRQn) & 0xFUL)-4UL] = (uint8_t)((priority << (8U - __NVIC_PRIO_BITS)) & (uint32_t)0xFFUL);
 8000f0e:	4a07      	ldrlt	r2, [pc, #28]	; (8000f2c <HAL_NVIC_SetPriority+0x60>)
 8000f10:	ea4f 1303 	mov.w	r3, r3, lsl #4
 8000f14:	b2db      	uxtb	r3, r3
    NVIC->IP[((uint32_t)IRQn)]               = (uint8_t)((priority << (8U - __NVIC_PRIO_BITS)) & (uint32_t)0xFFUL);
 8000f16:	bfab      	itete	ge
 8000f18:	f500 4061 	addge.w	r0, r0, #57600	; 0xe100
    SCB->SHP[(((uint32_t)IRQn) & 0xFUL)-4UL] = (uint8_t)((priority << (8U - __NVIC_PRIO_BITS)) & (uint32_t)0xFFUL);
 8000f1c:	f000 000f 	andlt.w	r0, r0, #15
    NVIC->IP[((uint32_t)IRQn)]               = (uint8_t)((priority << (8U - __NVIC_PRIO_BITS)) & (uint32_t)0xFFUL);
 8000f20:	f880 3300 	strbge.w	r3, [r0, #768]	; 0x300
    SCB->SHP[(((uint32_t)IRQn) & 0xFUL)-4UL] = (uint8_t)((priority << (8U - __NVIC_PRIO_BITS)) & (uint32_t)0xFFUL);
 8000f24:	5413      	strblt	r3, [r2, r0]
  assert_param(IS_NVIC_PREEMPTION_PRIORITY(PreemptPriority));
  
  prioritygroup = NVIC_GetPriorityGrouping();
  
  NVIC_SetPriority(IRQn, NVIC_EncodePriority(prioritygroup, PreemptPriority, SubPriority));
}
 8000f26:	bd30      	pop	{r4, r5, pc}
 8000f28:	e000ed00 	.word	0xe000ed00
 8000f2c:	e000ed14 	.word	0xe000ed14

08000f30 <HAL_NVIC_EnableIRQ>:
  if ((int32_t)(IRQn) >= 0)
 8000f30:	2800      	cmp	r0, #0
 8000f32:	db08      	blt.n	8000f46 <HAL_NVIC_EnableIRQ+0x16>
    NVIC->ISER[(((uint32_t)IRQn) >> 5UL)] = (uint32_t)(1UL << (((uint32_t)IRQn) & 0x1FUL));
 8000f34:	2301      	movs	r3, #1
 8000f36:	0942      	lsrs	r2, r0, #5
 8000f38:	f000 001f 	and.w	r0, r0, #31
 8000f3c:	fa03 f000 	lsl.w	r0, r3, r0
 8000f40:	4b01      	ldr	r3, [pc, #4]	; (8000f48 <HAL_NVIC_EnableIRQ+0x18>)
 8000f42:	f843 0022 	str.w	r0, [r3, r2, lsl #2]
  /* Check the parameters */
  assert_param(IS_NVIC_DEVICE_IRQ(IRQn));

  /* Enable interrupt */
  NVIC_EnableIRQ(IRQn);
}
 8000f46:	4770      	bx	lr
 8000f48:	e000e100 	.word	0xe000e100

08000f4c <HAL_NVIC_DisableIRQ>:
  if ((int32_t)(IRQn) >= 0)
 8000f4c:	2800      	cmp	r0, #0
 8000f4e:	db0d      	blt.n	8000f6c <HAL_NVIC_DisableIRQ+0x20>
    NVIC->ICER[(((uint32_t)IRQn) >> 5UL)] = (uint32_t)(1UL << (((uint32_t)IRQn) & 0x1FUL));
 8000f50:	2201      	movs	r2, #1
 8000f52:	0943      	lsrs	r3, r0, #5
 8000f54:	f000 001f 	and.w	r0, r0, #31
 8000f58:	fa02 f000 	lsl.w	r0, r2, r0
 8000f5c:	4a04      	ldr	r2, [pc, #16]	; (8000f70 <HAL_NVIC_DisableIRQ+0x24>)
 8000f5e:	3320      	adds	r3, #32
 8000f60:	f842 0023 	str.w	r0, [r2, r3, lsl #2]
  \details Acts as a special kind of Data Memory Barrier.
           It completes when all explicit memory accesses before this instruction complete.
 */
__STATIC_FORCEINLINE void __DSB(void)
{
  __ASM volatile ("dsb 0xF":::"memory");
 8000f64:	f3bf 8f4f 	dsb	sy
  __ASM volatile ("isb 0xF":::"memory");
 8000f68:	f3bf 8f6f 	isb	sy
  /* Check the parameters */
  assert_param(IS_NVIC_DEVICE_IRQ(IRQn));

  /* Disable interrupt */
  NVIC_DisableIRQ(IRQn);
}
 8000f6c:	4770      	bx	lr
 8000f6e:	bf00      	nop
 8000f70:	e000e100 	.word	0xe000e100

08000f74 <HAL_SYSTICK_Config>:
           function <b>SysTick_Config</b> is not included. In this case, the file <b><i>device</i>.h</b>
           must contain a vendor-specific implementation of this function.
 */
__STATIC_INLINE uint32_t SysTick_Config(uint32_t ticks)
{
  if ((ticks - 1UL) > SysTick_LOAD_RELOAD_Msk)
 8000f74:	3801      	subs	r0, #1
 8000f76:	f1b0 7f80 	cmp.w	r0, #16777216	; 0x1000000
 8000f7a:	d20a      	bcs.n	8000f92 <HAL_SYSTICK_Config+0x1e>
    SCB->SHP[(((uint32_t)IRQn) & 0xFUL)-4UL] = (uint8_t)((priority << (8U - __NVIC_PRIO_BITS)) & (uint32_t)0xFFUL);
 8000f7c:	21f0      	movs	r1, #240	; 0xf0
  {
    return (1UL);                                                   /* Reload value impossible */
  }

  SysTick->LOAD  = (uint32_t)(ticks - 1UL);                         /* set reload register */
 8000f7e:	4b06      	ldr	r3, [pc, #24]	; (8000f98 <HAL_SYSTICK_Config+0x24>)
    SCB->SHP[(((uint32_t)IRQn) & 0xFUL)-4UL] = (uint8_t)((priority << (8U - __NVIC_PRIO_BITS)) & (uint32_t)0xFFUL);
 8000f80:	4a06      	ldr	r2, [pc, #24]	; (8000f9c <HAL_SYSTICK_Config+0x28>)
  SysTick->LOAD  = (uint32_t)(ticks - 1UL);                         /* set reload register */
 8000f82:	6058      	str	r0, [r3, #4]
    SCB->SHP[(((uint32_t)IRQn) & 0xFUL)-4UL] = (uint8_t)((priority << (8U - __NVIC_PRIO_BITS)) & (uint32_t)0xFFUL);
 8000f84:	f882 1023 	strb.w	r1, [r2, #35]	; 0x23
  NVIC_SetPriority (SysTick_IRQn, (1UL << __NVIC_PRIO_BITS) - 1UL); /* set Priority for Systick Interrupt */
  SysTick->VAL   = 0UL;                                             /* Load the SysTick Counter Value */
 8000f88:	2000      	movs	r0, #0
  SysTick->CTRL  = SysTick_CTRL_CLKSOURCE_Msk |
 8000f8a:	2207      	movs	r2, #7
  SysTick->VAL   = 0UL;                                             /* Load the SysTick Counter Value */
 8000f8c:	6098      	str	r0, [r3, #8]
  SysTick->CTRL  = SysTick_CTRL_CLKSOURCE_Msk |
 8000f8e:	601a      	str	r2, [r3, #0]
                   SysTick_CTRL_TICKINT_Msk   |
                   SysTick_CTRL_ENABLE_Msk;                         /* Enable SysTick IRQ and SysTick Timer */
  return (0UL);                                                     /* Function successful */
 8000f90:	4770      	bx	lr
    return (1UL);                                                   /* Reload value impossible */
 8000f92:	2001      	movs	r0, #1
  *                  - 1  Function failed.
  */
uint32_t HAL_SYSTICK_Config(uint32_t TicksNumb)
{
   return SysTick_Config(TicksNumb);
}
 8000f94:	4770      	bx	lr
 8000f96:	bf00      	nop
 8000f98:	e000e010 	.word	0xe000e010
 8000f9c:	e000ed00 	.word	0xe000ed00

08000fa0 <HAL_DMA_Init>:
  * @param  hdma: Pointer to a DMA_HandleTypeDef structure that contains
  *               the configuration information for the specified DMA Channel.
  * @retval HAL status
  */
HAL_StatusTypeDef HAL_DMA_Init(DMA_HandleTypeDef *hdma)
{
 8000fa0:	b510      	push	{r4, lr}
  uint32_t tmp = 0U;

  /* Check the DMA handle allocation */
  if(hdma == NULL)
 8000fa2:	b320      	cbz	r0, 8000fee <HAL_DMA_Init+0x4e>
    hdma->ChannelIndex = (((uint32_t)hdma->Instance - (uint32_t)DMA2_Channel1) / ((uint32_t)DMA2_Channel2 - (uint32_t)DMA2_Channel1)) << 2;
    hdma->DmaBaseAddress = DMA2;
  }
#else
  /* DMA1 */
  hdma->ChannelIndex = (((uint32_t)hdma->Instance - (uint32_t)DMA1_Channel1) / ((uint32_t)DMA1_Channel2 - (uint32_t)DMA1_Channel1)) << 2;
 8000fa4:	2214      	movs	r2, #20
 8000fa6:	6801      	ldr	r1, [r0, #0]
 8000fa8:	4b12      	ldr	r3, [pc, #72]	; (8000ff4 <HAL_DMA_Init+0x54>)
 8000faa:	440b      	add	r3, r1
 8000fac:	fbb3 f3f2 	udiv	r3, r3, r2
 8000fb0:	009b      	lsls	r3, r3, #2
 8000fb2:	6403      	str	r3, [r0, #64]	; 0x40
  hdma->DmaBaseAddress = DMA1;
 8000fb4:	4b10      	ldr	r3, [pc, #64]	; (8000ff8 <HAL_DMA_Init+0x58>)

  /* Change DMA peripheral state */
  hdma->State = HAL_DMA_STATE_BUSY;

  /* Get the CR register value */
  tmp = hdma->Instance->CCR;
 8000fb6:	680a      	ldr	r2, [r1, #0]
  hdma->DmaBaseAddress = DMA1;
 8000fb8:	63c3      	str	r3, [r0, #60]	; 0x3c
  tmp &= ((uint32_t)~(DMA_CCR_PL    | DMA_CCR_MSIZE  | DMA_CCR_PSIZE  | \
                      DMA_CCR_MINC  | DMA_CCR_PINC   | DMA_CCR_CIRC   | \
                      DMA_CCR_DIR));

  /* Prepare the DMA Channel configuration */
  tmp |=  hdma->Init.Direction        |
 8000fba:	e9d0 3401 	ldrd	r3, r4, [r0, #4]
 8000fbe:	4323      	orrs	r3, r4
          hdma->Init.PeriphInc           | hdma->Init.MemInc           |
 8000fc0:	68c4      	ldr	r4, [r0, #12]
  tmp &= ((uint32_t)~(DMA_CCR_PL    | DMA_CCR_MSIZE  | DMA_CCR_PSIZE  | \
 8000fc2:	f422 527f 	bic.w	r2, r2, #16320	; 0x3fc0
          hdma->Init.PeriphInc           | hdma->Init.MemInc           |
 8000fc6:	4323      	orrs	r3, r4
 8000fc8:	6904      	ldr	r4, [r0, #16]
  tmp &= ((uint32_t)~(DMA_CCR_PL    | DMA_CCR_MSIZE  | DMA_CCR_PSIZE  | \
 8000fca:	f022 0230 	bic.w	r2, r2, #48	; 0x30
          hdma->Init.PeriphInc           | hdma->Init.MemInc           |
 8000fce:	4323      	orrs	r3, r4
          hdma->Init.PeriphDataAlignment | hdma->Init.MemDataAlignment |
 8000fd0:	6944      	ldr	r4, [r0, #20]
 8000fd2:	4323      	orrs	r3, r4
 8000fd4:	6984      	ldr	r4, [r0, #24]
 8000fd6:	4323      	orrs	r3, r4
          hdma->Init.Mode                | hdma->Init.Priority;
 8000fd8:	69c4      	ldr	r4, [r0, #28]
 8000fda:	4323      	orrs	r3, r4
  tmp |=  hdma->Init.Direction        |
 8000fdc:	4313      	orrs	r3, r2

  /* Write to DMA Channel CR register */
  hdma->Instance->CCR = tmp;
 8000fde:	600b      	str	r3, [r1, #0]
  hdma->ErrorCode = HAL_DMA_ERROR_NONE;

  /* Initialize the DMA state*/
  hdma->State = HAL_DMA_STATE_READY;
  /* Allocate lock resource and initialize it */
  hdma->Lock = HAL_UNLOCKED;
 8000fe0:	f44f 7280 	mov.w	r2, #256	; 0x100
  hdma->ErrorCode = HAL_DMA_ERROR_NONE;
 8000fe4:	2300      	movs	r3, #0
  hdma->Lock = HAL_UNLOCKED;
 8000fe6:	8402      	strh	r2, [r0, #32]
  hdma->ErrorCode = HAL_DMA_ERROR_NONE;
 8000fe8:	6383      	str	r3, [r0, #56]	; 0x38

  return HAL_OK;
 8000fea:	4618      	mov	r0, r3
}
 8000fec:	bd10      	pop	{r4, pc}
    return HAL_ERROR;
 8000fee:	2001      	movs	r0, #1
 8000ff0:	e7fc      	b.n	8000fec <HAL_DMA_Init+0x4c>
 8000ff2:	bf00      	nop
 8000ff4:	bffdfff8 	.word	0xbffdfff8
 8000ff8:	40020000 	.word	0x40020000

08000ffc <HAL_DMA_DeInit>:
  * @retval HAL status
  */
HAL_StatusTypeDef HAL_DMA_DeInit(DMA_HandleTypeDef *hdma)
{
  /* Check the DMA handle allocation */
  if(hdma == NULL)
 8000ffc:	4603      	mov	r3, r0
{
 8000ffe:	b510      	push	{r4, lr}
  if(hdma == NULL)
 8001000:	b1e8      	cbz	r0, 800103e <HAL_DMA_DeInit+0x42>

  /* Check the parameters */
  assert_param(IS_DMA_ALL_INSTANCE(hdma->Instance));

  /* Disable the selected DMA Channelx */
  __HAL_DMA_DISABLE(hdma);
 8001002:	6801      	ldr	r1, [r0, #0]

  /* Reset DMA Channel control register */
  hdma->Instance->CCR  = 0U;
 8001004:	2000      	movs	r0, #0
  __HAL_DMA_DISABLE(hdma);
 8001006:	680a      	ldr	r2, [r1, #0]
    hdma->DmaBaseAddress = DMA2;
  }
#else
  /* DMA1 */
  hdma->ChannelIndex = (((uint32_t)hdma->Instance - (uint32_t)DMA1_Channel1) / ((uint32_t)DMA1_Channel2 - (uint32_t)DMA1_Channel1)) << 2;
  hdma->DmaBaseAddress = DMA1;
 8001008:	4c0e      	ldr	r4, [pc, #56]	; (8001044 <HAL_DMA_DeInit+0x48>)
  __HAL_DMA_DISABLE(hdma);
 800100a:	f022 0201 	bic.w	r2, r2, #1
 800100e:	600a      	str	r2, [r1, #0]
  hdma->ChannelIndex = (((uint32_t)hdma->Instance - (uint32_t)DMA1_Channel1) / ((uint32_t)DMA1_Channel2 - (uint32_t)DMA1_Channel1)) << 2;
 8001010:	4a0d      	ldr	r2, [pc, #52]	; (8001048 <HAL_DMA_DeInit+0x4c>)
  hdma->Instance->CCR  = 0U;
 8001012:	6008      	str	r0, [r1, #0]
  hdma->ChannelIndex = (((uint32_t)hdma->Instance - (uint32_t)DMA1_Channel1) / ((uint32_t)DMA1_Channel2 - (uint32_t)DMA1_Channel1)) << 2;
 8001014:	440a      	add	r2, r1
  hdma->Instance->CNDTR = 0U;
 8001016:	6048      	str	r0, [r1, #4]
  hdma->Instance->CPAR  = 0U;
 8001018:	6088      	str	r0, [r1, #8]
  hdma->Instance->CMAR = 0U;
 800101a:	60c8      	str	r0, [r1, #12]
  hdma->ChannelIndex = (((uint32_t)hdma->Instance - (uint32_t)DMA1_Channel1) / ((uint32_t)DMA1_Channel2 - (uint32_t)DMA1_Channel1)) << 2;
 800101c:	2114      	movs	r1, #20
 800101e:	fbb2 f2f1 	udiv	r2, r2, r1
#endif /* DMA2 */

  /* Clear all flags */
  hdma->DmaBaseAddress->IFCR = (DMA_ISR_GIF1 << (hdma->ChannelIndex));
 8001022:	2101      	movs	r1, #1
  hdma->ChannelIndex = (((uint32_t)hdma->Instance - (uint32_t)DMA1_Channel1) / ((uint32_t)DMA1_Channel2 - (uint32_t)DMA1_Channel1)) << 2;
 8001024:	0092      	lsls	r2, r2, #2
 8001026:	641a      	str	r2, [r3, #64]	; 0x40
  hdma->DmaBaseAddress->IFCR = (DMA_ISR_GIF1 << (hdma->ChannelIndex));
 8001028:	fa01 f202 	lsl.w	r2, r1, r2
  hdma->DmaBaseAddress = DMA1;
 800102c:	63dc      	str	r4, [r3, #60]	; 0x3c
  hdma->DmaBaseAddress->IFCR = (DMA_ISR_GIF1 << (hdma->ChannelIndex));
 800102e:	6062      	str	r2, [r4, #4]

  /* Clean all callbacks */
  hdma->XferCpltCallback = NULL;
  hdma->XferHalfCpltCallback = NULL;
 8001030:	e9c3 000a 	strd	r0, r0, [r3, #40]	; 0x28
  hdma->XferErrorCallback = NULL;
  hdma->XferAbortCallback = NULL;
 8001034:	e9c3 000c 	strd	r0, r0, [r3, #48]	; 0x30

  /* Reset the error code */
  hdma->ErrorCode = HAL_DMA_ERROR_NONE;
 8001038:	6398      	str	r0, [r3, #56]	; 0x38

  /* Reset the DMA state */
  hdma->State = HAL_DMA_STATE_RESET;

  /* Release Lock */
  __HAL_UNLOCK(hdma);
 800103a:	8418      	strh	r0, [r3, #32]

  return HAL_OK;
}
 800103c:	bd10      	pop	{r4, pc}
    return HAL_ERROR;
 800103e:	2001      	movs	r0, #1
 8001040:	e7fc      	b.n	800103c <HAL_DMA_DeInit+0x40>
 8001042:	bf00      	nop
 8001044:	40020000 	.word	0x40020000
 8001048:	bffdfff8 	.word	0xbffdfff8

0800104c <HAL_DMA_Start_IT>:
  * @param  DstAddress: The destination memory Buffer address
  * @param  DataLength: The length of data to be transferred from source to destination
  * @retval HAL status
  */
HAL_StatusTypeDef HAL_DMA_Start_IT(DMA_HandleTypeDef *hdma, uint32_t SrcAddress, uint32_t DstAddress, uint32_t DataLength)
{
 800104c:	b5f0      	push	{r4, r5, r6, r7, lr}

  /* Check the parameters */
  assert_param(IS_DMA_BUFFER_SIZE(DataLength));

  /* Process locked */
  __HAL_LOCK(hdma);
 800104e:	f890 4020 	ldrb.w	r4, [r0, #32]
 8001052:	2c01      	cmp	r4, #1
 8001054:	d034      	beq.n	80010c0 <HAL_DMA_Start_IT+0x74>
 8001056:	2401      	movs	r4, #1
  
  if(HAL_DMA_STATE_READY == hdma->State)
 8001058:	f890 5021 	ldrb.w	r5, [r0, #33]	; 0x21
  __HAL_LOCK(hdma);
 800105c:	f880 4020 	strb.w	r4, [r0, #32]
  if(HAL_DMA_STATE_READY == hdma->State)
 8001060:	42a5      	cmp	r5, r4
 8001062:	f04f 0600 	mov.w	r6, #0
 8001066:	f04f 0402 	mov.w	r4, #2
 800106a:	d127      	bne.n	80010bc <HAL_DMA_Start_IT+0x70>
  {
    /* Change DMA peripheral state */
    hdma->State = HAL_DMA_STATE_BUSY;
 800106c:	f880 4021 	strb.w	r4, [r0, #33]	; 0x21
    hdma->ErrorCode = HAL_DMA_ERROR_NONE;
    
    /* Disable the peripheral */
    __HAL_DMA_DISABLE(hdma);
 8001070:	6804      	ldr	r4, [r0, #0]
    hdma->ErrorCode = HAL_DMA_ERROR_NONE;
 8001072:	6386      	str	r6, [r0, #56]	; 0x38
    __HAL_DMA_DISABLE(hdma);
 8001074:	6826      	ldr	r6, [r4, #0]
 8001076:	f026 0601 	bic.w	r6, r6, #1
 800107a:	6026      	str	r6, [r4, #0]
  * @retval HAL status
  */
static void DMA_SetConfig(DMA_HandleTypeDef *hdma, uint32_t SrcAddress, uint32_t DstAddress, uint32_t DataLength)
{
  /* Clear all flags */
  hdma->DmaBaseAddress->IFCR = (DMA_ISR_GIF1 << hdma->ChannelIndex);
 800107c:	e9d0 670f 	ldrd	r6, r7, [r0, #60]	; 0x3c
 8001080:	40bd      	lsls	r5, r7
 8001082:	6075      	str	r5, [r6, #4]

  /* Configure DMA Channel data length */
  hdma->Instance->CNDTR = DataLength;
 8001084:	6063      	str	r3, [r4, #4]

  /* Memory to Peripheral */
  if((hdma->Init.Direction) == DMA_MEMORY_TO_PERIPH)
 8001086:	6843      	ldr	r3, [r0, #4]
 8001088:	2b10      	cmp	r3, #16
    if(NULL != hdma->XferHalfCpltCallback)
 800108a:	6ac3      	ldr	r3, [r0, #44]	; 0x2c
  {
    /* Configure DMA Channel destination address */
    hdma->Instance->CPAR = DstAddress;
 800108c:	bf0b      	itete	eq
 800108e:	60a2      	streq	r2, [r4, #8]
  }
  /* Peripheral to Memory */
  else
  {
    /* Configure DMA Channel source address */
    hdma->Instance->CPAR = SrcAddress;
 8001090:	60a1      	strne	r1, [r4, #8]
    hdma->Instance->CMAR = SrcAddress;
 8001092:	60e1      	streq	r1, [r4, #12]

    /* Configure DMA Channel destination address */
    hdma->Instance->CMAR = DstAddress;
 8001094:	60e2      	strne	r2, [r4, #12]
    if(NULL != hdma->XferHalfCpltCallback)
 8001096:	b14b      	cbz	r3, 80010ac <HAL_DMA_Start_IT+0x60>
      __HAL_DMA_ENABLE_IT(hdma, (DMA_IT_TC | DMA_IT_HT | DMA_IT_TE));
 8001098:	6823      	ldr	r3, [r4, #0]
 800109a:	f043 030e 	orr.w	r3, r3, #14
  HAL_StatusTypeDef status = HAL_OK;
 800109e:	2000      	movs	r0, #0
      __HAL_DMA_ENABLE_IT(hdma, (DMA_IT_TC | DMA_IT_TE));
 80010a0:	6023      	str	r3, [r4, #0]
    __HAL_DMA_ENABLE(hdma);
 80010a2:	6823      	ldr	r3, [r4, #0]
 80010a4:	f043 0301 	orr.w	r3, r3, #1
 80010a8:	6023      	str	r3, [r4, #0]
}
 80010aa:	bdf0      	pop	{r4, r5, r6, r7, pc}
      __HAL_DMA_DISABLE_IT(hdma, DMA_IT_HT);
 80010ac:	6823      	ldr	r3, [r4, #0]
 80010ae:	f023 0304 	bic.w	r3, r3, #4
 80010b2:	6023      	str	r3, [r4, #0]
      __HAL_DMA_ENABLE_IT(hdma, (DMA_IT_TC | DMA_IT_TE));
 80010b4:	6823      	ldr	r3, [r4, #0]
 80010b6:	f043 030a 	orr.w	r3, r3, #10
 80010ba:	e7f0      	b.n	800109e <HAL_DMA_Start_IT+0x52>
    __HAL_UNLOCK(hdma); 
 80010bc:	f880 6020 	strb.w	r6, [r0, #32]
  __HAL_LOCK(hdma);
 80010c0:	2002      	movs	r0, #2
 80010c2:	e7f2      	b.n	80010aa <HAL_DMA_Start_IT+0x5e>

080010c4 <HAL_DMA_Abort_IT>:
{  
 80010c4:	b508      	push	{r3, lr}
  if(HAL_DMA_STATE_BUSY != hdma->State)
 80010c6:	f890 3021 	ldrb.w	r3, [r0, #33]	; 0x21
 80010ca:	2b02      	cmp	r3, #2
 80010cc:	d003      	beq.n	80010d6 <HAL_DMA_Abort_IT+0x12>
    hdma->ErrorCode = HAL_DMA_ERROR_NO_XFER;
 80010ce:	2304      	movs	r3, #4
 80010d0:	6383      	str	r3, [r0, #56]	; 0x38
    status = HAL_ERROR;
 80010d2:	2001      	movs	r0, #1
}
 80010d4:	bd08      	pop	{r3, pc}
    __HAL_DMA_DISABLE_IT(hdma, (DMA_IT_TC | DMA_IT_HT | DMA_IT_TE));
 80010d6:	6803      	ldr	r3, [r0, #0]
 80010d8:	681a      	ldr	r2, [r3, #0]
 80010da:	f022 020e 	bic.w	r2, r2, #14
 80010de:	601a      	str	r2, [r3, #0]
    __HAL_DMA_DISABLE(hdma);
 80010e0:	681a      	ldr	r2, [r3, #0]
 80010e2:	f022 0201 	bic.w	r2, r2, #1
 80010e6:	601a      	str	r2, [r3, #0]
    __HAL_DMA_CLEAR_FLAG(hdma, __HAL_DMA_GET_GI_FLAG_INDEX(hdma));
 80010e8:	4a17      	ldr	r2, [pc, #92]	; (8001148 <HAL_DMA_Abort_IT+0x84>)
 80010ea:	4293      	cmp	r3, r2
 80010ec:	d01c      	beq.n	8001128 <HAL_DMA_Abort_IT+0x64>
 80010ee:	3214      	adds	r2, #20
 80010f0:	4293      	cmp	r3, r2
 80010f2:	d01b      	beq.n	800112c <HAL_DMA_Abort_IT+0x68>
 80010f4:	3214      	adds	r2, #20
 80010f6:	4293      	cmp	r3, r2
 80010f8:	d01a      	beq.n	8001130 <HAL_DMA_Abort_IT+0x6c>
 80010fa:	3214      	adds	r2, #20
 80010fc:	4293      	cmp	r3, r2
 80010fe:	d01a      	beq.n	8001136 <HAL_DMA_Abort_IT+0x72>
 8001100:	3214      	adds	r2, #20
 8001102:	4293      	cmp	r3, r2
 8001104:	d01a      	beq.n	800113c <HAL_DMA_Abort_IT+0x78>
 8001106:	3214      	adds	r2, #20
 8001108:	4293      	cmp	r3, r2
 800110a:	bf0c      	ite	eq
 800110c:	f44f 1380 	moveq.w	r3, #1048576	; 0x100000
 8001110:	f04f 7380 	movne.w	r3, #16777216	; 0x1000000
 8001114:	4a0d      	ldr	r2, [pc, #52]	; (800114c <HAL_DMA_Abort_IT+0x88>)
 8001116:	6053      	str	r3, [r2, #4]
    __HAL_UNLOCK(hdma);
 8001118:	f44f 7380 	mov.w	r3, #256	; 0x100
 800111c:	8403      	strh	r3, [r0, #32]
    if(hdma->XferAbortCallback != NULL)
 800111e:	6b43      	ldr	r3, [r0, #52]	; 0x34
 8001120:	b17b      	cbz	r3, 8001142 <HAL_DMA_Abort_IT+0x7e>
      hdma->XferAbortCallback(hdma);
 8001122:	4798      	blx	r3
  HAL_StatusTypeDef status = HAL_OK;
 8001124:	2000      	movs	r0, #0
 8001126:	e7d5      	b.n	80010d4 <HAL_DMA_Abort_IT+0x10>
    __HAL_DMA_CLEAR_FLAG(hdma, __HAL_DMA_GET_GI_FLAG_INDEX(hdma));
 8001128:	2301      	movs	r3, #1
 800112a:	e7f3      	b.n	8001114 <HAL_DMA_Abort_IT+0x50>
 800112c:	2310      	movs	r3, #16
 800112e:	e7f1      	b.n	8001114 <HAL_DMA_Abort_IT+0x50>
 8001130:	f44f 7380 	mov.w	r3, #256	; 0x100
 8001134:	e7ee      	b.n	8001114 <HAL_DMA_Abort_IT+0x50>
 8001136:	f44f 5380 	mov.w	r3, #4096	; 0x1000
 800113a:	e7eb      	b.n	8001114 <HAL_DMA_Abort_IT+0x50>
 800113c:	f44f 3380 	mov.w	r3, #65536	; 0x10000
 8001140:	e7e8      	b.n	8001114 <HAL_DMA_Abort_IT+0x50>
  HAL_StatusTypeDef status = HAL_OK;
 8001142:	4618      	mov	r0, r3
 8001144:	e7c6      	b.n	80010d4 <HAL_DMA_Abort_IT+0x10>
 8001146:	bf00      	nop
 8001148:	40020008 	.word	0x40020008
 800114c:	40020000 	.word	0x40020000

08001150 <HAL_DMA_IRQHandler>:
{
 8001150:	b470      	push	{r4, r5, r6}
  if (((flag_it & (DMA_FLAG_HT1 << hdma->ChannelIndex)) != RESET) && ((source_it & DMA_IT_HT) != RESET))
 8001152:	2504      	movs	r5, #4
  uint32_t flag_it = hdma->DmaBaseAddress->ISR;
 8001154:	6bc6      	ldr	r6, [r0, #60]	; 0x3c
  if (((flag_it & (DMA_FLAG_HT1 << hdma->ChannelIndex)) != RESET) && ((source_it & DMA_IT_HT) != RESET))
 8001156:	6c02      	ldr	r2, [r0, #64]	; 0x40
  uint32_t flag_it = hdma->DmaBaseAddress->ISR;
 8001158:	6834      	ldr	r4, [r6, #0]
  uint32_t source_it = hdma->Instance->CCR;
 800115a:	6803      	ldr	r3, [r0, #0]
  if (((flag_it & (DMA_FLAG_HT1 << hdma->ChannelIndex)) != RESET) && ((source_it & DMA_IT_HT) != RESET))
 800115c:	4095      	lsls	r5, r2
 800115e:	4225      	tst	r5, r4
  uint32_t source_it = hdma->Instance->CCR;
 8001160:	6819      	ldr	r1, [r3, #0]
  if (((flag_it & (DMA_FLAG_HT1 << hdma->ChannelIndex)) != RESET) && ((source_it & DMA_IT_HT) != RESET))
 8001162:	d032      	beq.n	80011ca <HAL_DMA_IRQHandler+0x7a>
 8001164:	074d      	lsls	r5, r1, #29
 8001166:	d530      	bpl.n	80011ca <HAL_DMA_IRQHandler+0x7a>
    if((hdma->Instance->CCR & DMA_CCR_CIRC) == 0U)
 8001168:	681a      	ldr	r2, [r3, #0]
 800116a:	0696      	lsls	r6, r2, #26
      __HAL_DMA_DISABLE_IT(hdma, DMA_IT_HT);
 800116c:	bf5e      	ittt	pl
 800116e:	681a      	ldrpl	r2, [r3, #0]
 8001170:	f022 0204 	bicpl.w	r2, r2, #4
 8001174:	601a      	strpl	r2, [r3, #0]
    __HAL_DMA_CLEAR_FLAG(hdma, __HAL_DMA_GET_HT_FLAG_INDEX(hdma));
 8001176:	4a3d      	ldr	r2, [pc, #244]	; (800126c <HAL_DMA_IRQHandler+0x11c>)
 8001178:	4293      	cmp	r3, r2
 800117a:	d019      	beq.n	80011b0 <HAL_DMA_IRQHandler+0x60>
 800117c:	3214      	adds	r2, #20
 800117e:	4293      	cmp	r3, r2
 8001180:	d018      	beq.n	80011b4 <HAL_DMA_IRQHandler+0x64>
 8001182:	3214      	adds	r2, #20
 8001184:	4293      	cmp	r3, r2
 8001186:	d017      	beq.n	80011b8 <HAL_DMA_IRQHandler+0x68>
 8001188:	3214      	adds	r2, #20
 800118a:	4293      	cmp	r3, r2
 800118c:	d017      	beq.n	80011be <HAL_DMA_IRQHandler+0x6e>
 800118e:	3214      	adds	r2, #20
 8001190:	4293      	cmp	r3, r2
 8001192:	d017      	beq.n	80011c4 <HAL_DMA_IRQHandler+0x74>
 8001194:	3214      	adds	r2, #20
 8001196:	4293      	cmp	r3, r2
 8001198:	bf0c      	ite	eq
 800119a:	f44f 0380 	moveq.w	r3, #4194304	; 0x400000
 800119e:	f04f 6380 	movne.w	r3, #67108864	; 0x4000000
 80011a2:	4a33      	ldr	r2, [pc, #204]	; (8001270 <HAL_DMA_IRQHandler+0x120>)
 80011a4:	6053      	str	r3, [r2, #4]
    if(hdma->XferHalfCpltCallback != NULL)
 80011a6:	6ac3      	ldr	r3, [r0, #44]	; 0x2c
    if (hdma->XferErrorCallback != NULL)
 80011a8:	2b00      	cmp	r3, #0
 80011aa:	d05c      	beq.n	8001266 <HAL_DMA_IRQHandler+0x116>
}
 80011ac:	bc70      	pop	{r4, r5, r6}
      hdma->XferErrorCallback(hdma);
 80011ae:	4718      	bx	r3
    __HAL_DMA_CLEAR_FLAG(hdma, __HAL_DMA_GET_HT_FLAG_INDEX(hdma));
 80011b0:	2304      	movs	r3, #4
 80011b2:	e7f6      	b.n	80011a2 <HAL_DMA_IRQHandler+0x52>
 80011b4:	2340      	movs	r3, #64	; 0x40
 80011b6:	e7f4      	b.n	80011a2 <HAL_DMA_IRQHandler+0x52>
 80011b8:	f44f 6380 	mov.w	r3, #1024	; 0x400
 80011bc:	e7f1      	b.n	80011a2 <HAL_DMA_IRQHandler+0x52>
 80011be:	f44f 4380 	mov.w	r3, #16384	; 0x4000
 80011c2:	e7ee      	b.n	80011a2 <HAL_DMA_IRQHandler+0x52>
 80011c4:	f44f 2380 	mov.w	r3, #262144	; 0x40000
 80011c8:	e7eb      	b.n	80011a2 <HAL_DMA_IRQHandler+0x52>
  else if (((flag_it & (DMA_FLAG_TC1 << hdma->ChannelIndex)) != RESET) && ((source_it & DMA_IT_TC) != RESET))
 80011ca:	2502      	movs	r5, #2
 80011cc:	4095      	lsls	r5, r2
 80011ce:	4225      	tst	r5, r4
 80011d0:	d035      	beq.n	800123e <HAL_DMA_IRQHandler+0xee>
 80011d2:	078d      	lsls	r5, r1, #30
 80011d4:	d533      	bpl.n	800123e <HAL_DMA_IRQHandler+0xee>
    if((hdma->Instance->CCR & DMA_CCR_CIRC) == 0U)
 80011d6:	681a      	ldr	r2, [r3, #0]
 80011d8:	0694      	lsls	r4, r2, #26
 80011da:	d406      	bmi.n	80011ea <HAL_DMA_IRQHandler+0x9a>
      __HAL_DMA_DISABLE_IT(hdma, DMA_IT_TE | DMA_IT_TC);  
 80011dc:	681a      	ldr	r2, [r3, #0]
 80011de:	f022 020a 	bic.w	r2, r2, #10
 80011e2:	601a      	str	r2, [r3, #0]
      hdma->State = HAL_DMA_STATE_READY;
 80011e4:	2201      	movs	r2, #1
 80011e6:	f880 2021 	strb.w	r2, [r0, #33]	; 0x21
      __HAL_DMA_CLEAR_FLAG(hdma, __HAL_DMA_GET_TC_FLAG_INDEX(hdma));
 80011ea:	4a20      	ldr	r2, [pc, #128]	; (800126c <HAL_DMA_IRQHandler+0x11c>)
 80011ec:	4293      	cmp	r3, r2
 80011ee:	d019      	beq.n	8001224 <HAL_DMA_IRQHandler+0xd4>
 80011f0:	3214      	adds	r2, #20
 80011f2:	4293      	cmp	r3, r2
 80011f4:	d018      	beq.n	8001228 <HAL_DMA_IRQHandler+0xd8>
 80011f6:	3214      	adds	r2, #20
 80011f8:	4293      	cmp	r3, r2
 80011fa:	d017      	beq.n	800122c <HAL_DMA_IRQHandler+0xdc>
 80011fc:	3214      	adds	r2, #20
 80011fe:	4293      	cmp	r3, r2
 8001200:	d017      	beq.n	8001232 <HAL_DMA_IRQHandler+0xe2>
 8001202:	3214      	adds	r2, #20
 8001204:	4293      	cmp	r3, r2
 8001206:	d017      	beq.n	8001238 <HAL_DMA_IRQHandler+0xe8>
 8001208:	3214      	adds	r2, #20
 800120a:	4293      	cmp	r3, r2
 800120c:	bf0c      	ite	eq
 800120e:	f44f 1300 	moveq.w	r3, #2097152	; 0x200000
 8001212:	f04f 7300 	movne.w	r3, #33554432	; 0x2000000
 8001216:	4a16      	ldr	r2, [pc, #88]	; (8001270 <HAL_DMA_IRQHandler+0x120>)
 8001218:	6053      	str	r3, [r2, #4]
    __HAL_UNLOCK(hdma);
 800121a:	2300      	movs	r3, #0
 800121c:	f880 3020 	strb.w	r3, [r0, #32]
    if(hdma->XferCpltCallback != NULL)
 8001220:	6a83      	ldr	r3, [r0, #40]	; 0x28
 8001222:	e7c1      	b.n	80011a8 <HAL_DMA_IRQHandler+0x58>
      __HAL_DMA_CLEAR_FLAG(hdma, __HAL_DMA_GET_TC_FLAG_INDEX(hdma));
 8001224:	2302      	movs	r3, #2
 8001226:	e7f6      	b.n	8001216 <HAL_DMA_IRQHandler+0xc6>
 8001228:	2320      	movs	r3, #32
 800122a:	e7f4      	b.n	8001216 <HAL_DMA_IRQHandler+0xc6>
 800122c:	f44f 7300 	mov.w	r3, #512	; 0x200
 8001230:	e7f1      	b.n	8001216 <HAL_DMA_IRQHandler+0xc6>
 8001232:	f44f 5300 	mov.w	r3, #8192	; 0x2000
 8001236:	e7ee      	b.n	8001216 <HAL_DMA_IRQHandler+0xc6>
 8001238:	f44f 3300 	mov.w	r3, #131072	; 0x20000
 800123c:	e7eb      	b.n	8001216 <HAL_DMA_IRQHandler+0xc6>
  else if (( RESET != (flag_it & (DMA_FLAG_TE1 << hdma->ChannelIndex))) && (RESET != (source_it & DMA_IT_TE)))
 800123e:	2508      	movs	r5, #8
 8001240:	4095      	lsls	r5, r2
 8001242:	4225      	tst	r5, r4
 8001244:	d00f      	beq.n	8001266 <HAL_DMA_IRQHandler+0x116>
 8001246:	0709      	lsls	r1, r1, #28
 8001248:	d50d      	bpl.n	8001266 <HAL_DMA_IRQHandler+0x116>
    __HAL_DMA_DISABLE_IT(hdma, (DMA_IT_TC | DMA_IT_HT | DMA_IT_TE));
 800124a:	6819      	ldr	r1, [r3, #0]
 800124c:	f021 010e 	bic.w	r1, r1, #14
 8001250:	6019      	str	r1, [r3, #0]
    hdma->DmaBaseAddress->IFCR = (DMA_ISR_GIF1 << hdma->ChannelIndex);
 8001252:	2301      	movs	r3, #1
 8001254:	fa03 f202 	lsl.w	r2, r3, r2
 8001258:	6072      	str	r2, [r6, #4]
    hdma->ErrorCode = HAL_DMA_ERROR_TE;
 800125a:	6383      	str	r3, [r0, #56]	; 0x38
    __HAL_UNLOCK(hdma);
 800125c:	f44f 7380 	mov.w	r3, #256	; 0x100
 8001260:	8403      	strh	r3, [r0, #32]
    if (hdma->XferErrorCallback != NULL)
 8001262:	6b03      	ldr	r3, [r0, #48]	; 0x30
 8001264:	e7a0      	b.n	80011a8 <HAL_DMA_IRQHandler+0x58>
}
 8001266:	bc70      	pop	{r4, r5, r6}
 8001268:	4770      	bx	lr
 800126a:	bf00      	nop
 800126c:	40020008 	.word	0x40020008
 8001270:	40020000 	.word	0x40020000

08001274 <HAL_GPIO_Init>:
  * @param  GPIO_Init: pointer to a GPIO_InitTypeDef structure that contains
  *         the configuration information for the specified GPIO peripheral.
  * @retval None
  */
void HAL_GPIO_Init(GPIO_TypeDef  *GPIOx, GPIO_InitTypeDef *GPIO_Init)
{
 8001274:	e92d 4ff7 	stmdb	sp!, {r0, r1, r2, r4, r5, r6, r7, r8, r9, sl, fp, lr}
  uint32_t position = 0x00u;
  uint32_t ioposition;
  uint32_t iocurrent;
  uint32_t temp;
  uint32_t config = 0x00u;
 8001278:	2200      	movs	r2, #0
  uint32_t position = 0x00u;
 800127a:	4616      	mov	r6, r2
 800127c:	4b64      	ldr	r3, [pc, #400]	; (8001410 <HAL_GPIO_Init+0x19c>)
    {
      /* Check the Alternate function parameters */
      assert_param(IS_GPIO_AF_INSTANCE(GPIOx));

      /* Based on the required mode, filling config variable with MODEy[1:0] and CNFy[3:2] corresponding bits */
      switch (GPIO_Init->Mode)
 800127e:	f8df c1a0 	ldr.w	ip, [pc, #416]	; 8001420 <HAL_GPIO_Init+0x1ac>
 8001282:	f8df e1a0 	ldr.w	lr, [pc, #416]	; 8001424 <HAL_GPIO_Init+0x1b0>
  while (((GPIO_Init->Pin) >> position) != 0x00u)
 8001286:	680d      	ldr	r5, [r1, #0]
 8001288:	fa35 f406 	lsrs.w	r4, r5, r6
 800128c:	d102      	bne.n	8001294 <HAL_GPIO_Init+0x20>
      }
    }

	position++;
  }
}
 800128e:	b003      	add	sp, #12
 8001290:	e8bd 8ff0 	ldmia.w	sp!, {r4, r5, r6, r7, r8, r9, sl, fp, pc}
    ioposition = (0x01uL << position);
 8001294:	f04f 0801 	mov.w	r8, #1
 8001298:	fa08 f806 	lsl.w	r8, r8, r6
    iocurrent = (uint32_t)(GPIO_Init->Pin) & ioposition;
 800129c:	ea05 0408 	and.w	r4, r5, r8
    if (iocurrent == ioposition)
 80012a0:	ea38 0505 	bics.w	r5, r8, r5
 80012a4:	d17c      	bne.n	80013a0 <HAL_GPIO_Init+0x12c>
      switch (GPIO_Init->Mode)
 80012a6:	684d      	ldr	r5, [r1, #4]
 80012a8:	2d03      	cmp	r5, #3
 80012aa:	d807      	bhi.n	80012bc <HAL_GPIO_Init+0x48>
 80012ac:	3d01      	subs	r5, #1
 80012ae:	2d02      	cmp	r5, #2
 80012b0:	f200 8088 	bhi.w	80013c4 <HAL_GPIO_Init+0x150>
 80012b4:	e8df f005 	tbb	[pc, r5]
 80012b8:	9b96      	.short	0x9b96
 80012ba:	a1          	.byte	0xa1
 80012bb:	00          	.byte	0x00
 80012bc:	2d12      	cmp	r5, #18
 80012be:	f000 8099 	beq.w	80013f4 <HAL_GPIO_Init+0x180>
 80012c2:	d86f      	bhi.n	80013a4 <HAL_GPIO_Init+0x130>
 80012c4:	2d11      	cmp	r5, #17
 80012c6:	f000 808f 	beq.w	80013e8 <HAL_GPIO_Init+0x174>
      configregister = (iocurrent < GPIO_PIN_8) ? &GPIOx->CRL     : &GPIOx->CRH;
 80012ca:	2cff      	cmp	r4, #255	; 0xff
 80012cc:	bf98      	it	ls
 80012ce:	4682      	movls	sl, r0
      MODIFY_REG((*configregister), ((GPIO_CRL_MODE0 | GPIO_CRL_CNF0) << registeroffset), (config << registeroffset));
 80012d0:	f04f 090f 	mov.w	r9, #15
      configregister = (iocurrent < GPIO_PIN_8) ? &GPIOx->CRL     : &GPIOx->CRH;
 80012d4:	bf88      	it	hi
 80012d6:	f100 0a04 	addhi.w	sl, r0, #4
 80012da:	ea4f 0586 	mov.w	r5, r6, lsl #2
      MODIFY_REG((*configregister), ((GPIO_CRL_MODE0 | GPIO_CRL_CNF0) << registeroffset), (config << registeroffset));
 80012de:	f8da 8000 	ldr.w	r8, [sl]
      registeroffset = (iocurrent < GPIO_PIN_8) ? (position << 2u) : ((position - 8u) << 2u);
 80012e2:	bf88      	it	hi
 80012e4:	3d20      	subhi	r5, #32
      MODIFY_REG((*configregister), ((GPIO_CRL_MODE0 | GPIO_CRL_CNF0) << registeroffset), (config << registeroffset));
 80012e6:	fa09 fb05 	lsl.w	fp, r9, r5
 80012ea:	ea28 080b 	bic.w	r8, r8, fp
 80012ee:	fa02 f505 	lsl.w	r5, r2, r5
 80012f2:	ea48 0505 	orr.w	r5, r8, r5
 80012f6:	f8ca 5000 	str.w	r5, [sl]
      if ((GPIO_Init->Mode & EXTI_MODE) == EXTI_MODE)
 80012fa:	f8d1 a004 	ldr.w	sl, [r1, #4]
 80012fe:	f01a 5f80 	tst.w	sl, #268435456	; 0x10000000
 8001302:	d04d      	beq.n	80013a0 <HAL_GPIO_Init+0x12c>
        __HAL_RCC_AFIO_CLK_ENABLE();
 8001304:	4f43      	ldr	r7, [pc, #268]	; (8001414 <HAL_GPIO_Init+0x1a0>)
 8001306:	f026 0803 	bic.w	r8, r6, #3
 800130a:	69bd      	ldr	r5, [r7, #24]
 800130c:	f108 4880 	add.w	r8, r8, #1073741824	; 0x40000000
 8001310:	f045 0501 	orr.w	r5, r5, #1
 8001314:	61bd      	str	r5, [r7, #24]
 8001316:	69bd      	ldr	r5, [r7, #24]
 8001318:	f508 3880 	add.w	r8, r8, #65536	; 0x10000
 800131c:	f005 0501 	and.w	r5, r5, #1
 8001320:	9501      	str	r5, [sp, #4]
        CLEAR_BIT(temp, (0x0Fu) << (4u * (position & 0x03u)));
 8001322:	f006 0b03 	and.w	fp, r6, #3
        __HAL_RCC_AFIO_CLK_ENABLE();
 8001326:	9d01      	ldr	r5, [sp, #4]
        CLEAR_BIT(temp, (0x0Fu) << (4u * (position & 0x03u)));
 8001328:	ea4f 0b8b 	mov.w	fp, fp, lsl #2
        temp = AFIO->EXTICR[position >> 2u];
 800132c:	f8d8 5008 	ldr.w	r5, [r8, #8]
        CLEAR_BIT(temp, (0x0Fu) << (4u * (position & 0x03u)));
 8001330:	fa09 f90b 	lsl.w	r9, r9, fp
 8001334:	ea25 0909 	bic.w	r9, r5, r9
        SET_BIT(temp, (GPIO_GET_INDEX(GPIOx)) << (4u * (position & 0x03u)));
 8001338:	4d37      	ldr	r5, [pc, #220]	; (8001418 <HAL_GPIO_Init+0x1a4>)
 800133a:	42a8      	cmp	r0, r5
 800133c:	d061      	beq.n	8001402 <HAL_GPIO_Init+0x18e>
 800133e:	f505 6580 	add.w	r5, r5, #1024	; 0x400
 8001342:	42a8      	cmp	r0, r5
 8001344:	d05f      	beq.n	8001406 <HAL_GPIO_Init+0x192>
 8001346:	f505 6580 	add.w	r5, r5, #1024	; 0x400
 800134a:	42a8      	cmp	r0, r5
 800134c:	d05d      	beq.n	800140a <HAL_GPIO_Init+0x196>
 800134e:	f505 6580 	add.w	r5, r5, #1024	; 0x400
 8001352:	42a8      	cmp	r0, r5
 8001354:	bf0c      	ite	eq
 8001356:	2503      	moveq	r5, #3
 8001358:	2504      	movne	r5, #4
 800135a:	fa05 f50b 	lsl.w	r5, r5, fp
 800135e:	ea45 0509 	orr.w	r5, r5, r9
        AFIO->EXTICR[position >> 2u] = temp;
 8001362:	f8c8 5008 	str.w	r5, [r8, #8]
          SET_BIT(EXTI->IMR, iocurrent);
 8001366:	681d      	ldr	r5, [r3, #0]
        if ((GPIO_Init->Mode & GPIO_MODE_IT) == GPIO_MODE_IT)
 8001368:	f41a 3f80 	tst.w	sl, #65536	; 0x10000
          SET_BIT(EXTI->IMR, iocurrent);
 800136c:	bf14      	ite	ne
 800136e:	4325      	orrne	r5, r4
          CLEAR_BIT(EXTI->IMR, iocurrent);
 8001370:	43a5      	biceq	r5, r4
 8001372:	601d      	str	r5, [r3, #0]
          SET_BIT(EXTI->EMR, iocurrent);
 8001374:	685d      	ldr	r5, [r3, #4]
        if ((GPIO_Init->Mode & GPIO_MODE_EVT) == GPIO_MODE_EVT)
 8001376:	f41a 3f00 	tst.w	sl, #131072	; 0x20000
          SET_BIT(EXTI->EMR, iocurrent);
 800137a:	bf14      	ite	ne
 800137c:	4325      	orrne	r5, r4
          CLEAR_BIT(EXTI->EMR, iocurrent);
 800137e:	43a5      	biceq	r5, r4
 8001380:	605d      	str	r5, [r3, #4]
          SET_BIT(EXTI->RTSR, iocurrent);
 8001382:	689d      	ldr	r5, [r3, #8]
        if ((GPIO_Init->Mode & RISING_EDGE) == RISING_EDGE)
 8001384:	f41a 1f80 	tst.w	sl, #1048576	; 0x100000
          SET_BIT(EXTI->RTSR, iocurrent);
 8001388:	bf14      	ite	ne
 800138a:	4325      	orrne	r5, r4
          CLEAR_BIT(EXTI->RTSR, iocurrent);
 800138c:	43a5      	biceq	r5, r4
 800138e:	609d      	str	r5, [r3, #8]
          SET_BIT(EXTI->FTSR, iocurrent);
 8001390:	68dd      	ldr	r5, [r3, #12]
        if ((GPIO_Init->Mode & FALLING_EDGE) == FALLING_EDGE)
 8001392:	f41a 1f00 	tst.w	sl, #2097152	; 0x200000
          SET_BIT(EXTI->FTSR, iocurrent);
 8001396:	bf14      	ite	ne
 8001398:	432c      	orrne	r4, r5
          CLEAR_BIT(EXTI->FTSR, iocurrent);
 800139a:	ea25 0404 	biceq.w	r4, r5, r4
 800139e:	60dc      	str	r4, [r3, #12]
	position++;
 80013a0:	3601      	adds	r6, #1
 80013a2:	e770      	b.n	8001286 <HAL_GPIO_Init+0x12>
      switch (GPIO_Init->Mode)
 80013a4:	4f1d      	ldr	r7, [pc, #116]	; (800141c <HAL_GPIO_Init+0x1a8>)
 80013a6:	42bd      	cmp	r5, r7
 80013a8:	d00c      	beq.n	80013c4 <HAL_GPIO_Init+0x150>
 80013aa:	d817      	bhi.n	80013dc <HAL_GPIO_Init+0x168>
 80013ac:	f8df 9078 	ldr.w	r9, [pc, #120]	; 8001428 <HAL_GPIO_Init+0x1b4>
 80013b0:	454d      	cmp	r5, r9
 80013b2:	d007      	beq.n	80013c4 <HAL_GPIO_Init+0x150>
 80013b4:	f509 2970 	add.w	r9, r9, #983040	; 0xf0000
 80013b8:	454d      	cmp	r5, r9
 80013ba:	d003      	beq.n	80013c4 <HAL_GPIO_Init+0x150>
 80013bc:	f5a9 1980 	sub.w	r9, r9, #1048576	; 0x100000
 80013c0:	454d      	cmp	r5, r9
 80013c2:	d182      	bne.n	80012ca <HAL_GPIO_Init+0x56>
          if (GPIO_Init->Pull == GPIO_NOPULL)
 80013c4:	688a      	ldr	r2, [r1, #8]
 80013c6:	b1d2      	cbz	r2, 80013fe <HAL_GPIO_Init+0x18a>
          else if (GPIO_Init->Pull == GPIO_PULLUP)
 80013c8:	2a01      	cmp	r2, #1
            GPIOx->BSRR = ioposition;
 80013ca:	bf08      	it	eq
 80013cc:	f8c0 8010 	streq.w	r8, [r0, #16]
            config = GPIO_CR_MODE_INPUT + GPIO_CR_CNF_INPUT_PU_PD;
 80013d0:	f04f 0208 	mov.w	r2, #8
            GPIOx->BRR = ioposition;
 80013d4:	bf18      	it	ne
 80013d6:	f8c0 8014 	strne.w	r8, [r0, #20]
 80013da:	e776      	b.n	80012ca <HAL_GPIO_Init+0x56>
      switch (GPIO_Init->Mode)
 80013dc:	4565      	cmp	r5, ip
 80013de:	d0f1      	beq.n	80013c4 <HAL_GPIO_Init+0x150>
 80013e0:	4575      	cmp	r5, lr
 80013e2:	e7ee      	b.n	80013c2 <HAL_GPIO_Init+0x14e>
          config = GPIO_Init->Speed + GPIO_CR_CNF_GP_OUTPUT_PP;
 80013e4:	68ca      	ldr	r2, [r1, #12]
          break;
 80013e6:	e770      	b.n	80012ca <HAL_GPIO_Init+0x56>
          config = GPIO_Init->Speed + GPIO_CR_CNF_GP_OUTPUT_OD;
 80013e8:	68ca      	ldr	r2, [r1, #12]
 80013ea:	3204      	adds	r2, #4
          break;
 80013ec:	e76d      	b.n	80012ca <HAL_GPIO_Init+0x56>
          config = GPIO_Init->Speed + GPIO_CR_CNF_AF_OUTPUT_PP;
 80013ee:	68ca      	ldr	r2, [r1, #12]
 80013f0:	3208      	adds	r2, #8
          break;
 80013f2:	e76a      	b.n	80012ca <HAL_GPIO_Init+0x56>
          config = GPIO_Init->Speed + GPIO_CR_CNF_AF_OUTPUT_OD;
 80013f4:	68ca      	ldr	r2, [r1, #12]
 80013f6:	320c      	adds	r2, #12
          break;
 80013f8:	e767      	b.n	80012ca <HAL_GPIO_Init+0x56>
      switch (GPIO_Init->Mode)
 80013fa:	2200      	movs	r2, #0
 80013fc:	e765      	b.n	80012ca <HAL_GPIO_Init+0x56>
            config = GPIO_CR_MODE_INPUT + GPIO_CR_CNF_INPUT_FLOATING;
 80013fe:	2204      	movs	r2, #4
 8001400:	e763      	b.n	80012ca <HAL_GPIO_Init+0x56>
        SET_BIT(temp, (GPIO_GET_INDEX(GPIOx)) << (4u * (position & 0x03u)));
 8001402:	2500      	movs	r5, #0
 8001404:	e7a9      	b.n	800135a <HAL_GPIO_Init+0xe6>
 8001406:	2501      	movs	r5, #1
 8001408:	e7a7      	b.n	800135a <HAL_GPIO_Init+0xe6>
 800140a:	2502      	movs	r5, #2
 800140c:	e7a5      	b.n	800135a <HAL_GPIO_Init+0xe6>
 800140e:	bf00      	nop
 8001410:	40010400 	.word	0x40010400
 8001414:	40021000 	.word	0x40021000
 8001418:	40010800 	.word	0x40010800
 800141c:	10220000 	.word	0x10220000
 8001420:	10310000 	.word	0x10310000
 8001424:	10320000 	.word	0x10320000
 8001428:	10120000 	.word	0x10120000

0800142c <HAL_GPIO_DeInit>:
  * @param  GPIO_Pin: specifies the port bit to be written.
  *         This parameter can be one of GPIO_PIN_x where x can be (0..15).
  * @retval None
  */
void HAL_GPIO_DeInit(GPIO_TypeDef  *GPIOx, uint32_t GPIO_Pin)
{
 800142c:	e92d 4ff7 	stmdb	sp!, {r0, r1, r2, r4, r5, r6, r7, r8, r9, sl, fp, lr}
       in order to address CRH or CRL register */
      configregister = (iocurrent < GPIO_PIN_8) ? &GPIOx->CRL     : &GPIOx->CRH;
      registeroffset = (iocurrent < GPIO_PIN_8) ? (position << 2u) : ((position - 8u) << 2u);

      /* CRL/CRH default value is floating input(0x04) shifted to correct position */
      MODIFY_REG(*configregister, ((GPIO_CRL_MODE0 | GPIO_CRL_CNF0) << registeroffset), GPIO_CRL_CNF0_0 << registeroffset);
 8001430:	f04f 0b04 	mov.w	fp, #4
  uint32_t position = 0x00u;
 8001434:	2200      	movs	r2, #0
    iocurrent = (GPIO_Pin) & (1uL << position);
 8001436:	f04f 0a01 	mov.w	sl, #1
      tmp &= 0x0FuL << (4u * (position & 0x03u));
 800143a:	f04f 080f 	mov.w	r8, #15
      configregister = (iocurrent < GPIO_PIN_8) ? &GPIOx->CRL     : &GPIOx->CRH;
 800143e:	eb00 030b 	add.w	r3, r0, fp
 8001442:	9301      	str	r3, [sp, #4]
        CLEAR_BIT(EXTI->IMR, (uint32_t)iocurrent);
 8001444:	4b2e      	ldr	r3, [pc, #184]	; (8001500 <HAL_GPIO_DeInit+0xd4>)
  while ((GPIO_Pin >> position) != 0u)
 8001446:	fa31 f402 	lsrs.w	r4, r1, r2
 800144a:	d102      	bne.n	8001452 <HAL_GPIO_DeInit+0x26>
      CLEAR_BIT(GPIOx->ODR, iocurrent);
    }

    position++;
  }
}
 800144c:	b003      	add	sp, #12
 800144e:	e8bd 8ff0 	ldmia.w	sp!, {r4, r5, r6, r7, r8, r9, sl, fp, pc}
    iocurrent = (GPIO_Pin) & (1uL << position);
 8001452:	fa0a f702 	lsl.w	r7, sl, r2
    if (iocurrent)
 8001456:	400f      	ands	r7, r1
 8001458:	d049      	beq.n	80014ee <HAL_GPIO_DeInit+0xc2>
      tmp = AFIO->EXTICR[position >> 2u];
 800145a:	f022 0403 	bic.w	r4, r2, #3
 800145e:	f104 4480 	add.w	r4, r4, #1073741824	; 0x40000000
      if (tmp == (GPIO_GET_INDEX(GPIOx) << (4u * (position & 0x03u))))
 8001462:	4d28      	ldr	r5, [pc, #160]	; (8001504 <HAL_GPIO_DeInit+0xd8>)
 8001464:	f504 3480 	add.w	r4, r4, #65536	; 0x10000
      tmp &= 0x0FuL << (4u * (position & 0x03u));
 8001468:	f002 0c03 	and.w	ip, r2, #3
      tmp = AFIO->EXTICR[position >> 2u];
 800146c:	68a6      	ldr	r6, [r4, #8]
      tmp &= 0x0FuL << (4u * (position & 0x03u));
 800146e:	ea4f 0c8c 	mov.w	ip, ip, lsl #2
 8001472:	fa08 f90c 	lsl.w	r9, r8, ip
      if (tmp == (GPIO_GET_INDEX(GPIOx) << (4u * (position & 0x03u))))
 8001476:	42a8      	cmp	r0, r5
      tmp &= 0x0FuL << (4u * (position & 0x03u));
 8001478:	ea09 0e06 	and.w	lr, r9, r6
      if (tmp == (GPIO_GET_INDEX(GPIOx) << (4u * (position & 0x03u))))
 800147c:	d039      	beq.n	80014f2 <HAL_GPIO_DeInit+0xc6>
 800147e:	f505 6580 	add.w	r5, r5, #1024	; 0x400
 8001482:	42a8      	cmp	r0, r5
 8001484:	d037      	beq.n	80014f6 <HAL_GPIO_DeInit+0xca>
 8001486:	f505 6580 	add.w	r5, r5, #1024	; 0x400
 800148a:	42a8      	cmp	r0, r5
 800148c:	d035      	beq.n	80014fa <HAL_GPIO_DeInit+0xce>
 800148e:	f505 6580 	add.w	r5, r5, #1024	; 0x400
 8001492:	42a8      	cmp	r0, r5
 8001494:	bf0c      	ite	eq
 8001496:	2503      	moveq	r5, #3
 8001498:	2504      	movne	r5, #4
 800149a:	fa05 f50c 	lsl.w	r5, r5, ip
 800149e:	4575      	cmp	r5, lr
 80014a0:	ea6f 0607 	mvn.w	r6, r7
 80014a4:	d10f      	bne.n	80014c6 <HAL_GPIO_DeInit+0x9a>
        CLEAR_BIT(AFIO->EXTICR[position >> 2u], tmp);
 80014a6:	68a5      	ldr	r5, [r4, #8]
 80014a8:	ea25 0509 	bic.w	r5, r5, r9
 80014ac:	60a5      	str	r5, [r4, #8]
        CLEAR_BIT(EXTI->IMR, (uint32_t)iocurrent);
 80014ae:	681c      	ldr	r4, [r3, #0]
 80014b0:	4034      	ands	r4, r6
 80014b2:	601c      	str	r4, [r3, #0]
        CLEAR_BIT(EXTI->EMR, (uint32_t)iocurrent);
 80014b4:	685c      	ldr	r4, [r3, #4]
 80014b6:	4034      	ands	r4, r6
 80014b8:	605c      	str	r4, [r3, #4]
        CLEAR_BIT(EXTI->RTSR, (uint32_t)iocurrent);
 80014ba:	689c      	ldr	r4, [r3, #8]
 80014bc:	4034      	ands	r4, r6
 80014be:	609c      	str	r4, [r3, #8]
        CLEAR_BIT(EXTI->FTSR, (uint32_t)iocurrent);
 80014c0:	68dc      	ldr	r4, [r3, #12]
 80014c2:	4034      	ands	r4, r6
 80014c4:	60dc      	str	r4, [r3, #12]
      configregister = (iocurrent < GPIO_PIN_8) ? &GPIOx->CRL     : &GPIOx->CRH;
 80014c6:	2fff      	cmp	r7, #255	; 0xff
 80014c8:	bf94      	ite	ls
 80014ca:	4607      	movls	r7, r0
 80014cc:	9f01      	ldrhi	r7, [sp, #4]
 80014ce:	ea4f 0482 	mov.w	r4, r2, lsl #2
      MODIFY_REG(*configregister, ((GPIO_CRL_MODE0 | GPIO_CRL_CNF0) << registeroffset), GPIO_CRL_CNF0_0 << registeroffset);
 80014d2:	683d      	ldr	r5, [r7, #0]
      registeroffset = (iocurrent < GPIO_PIN_8) ? (position << 2u) : ((position - 8u) << 2u);
 80014d4:	bf88      	it	hi
 80014d6:	3c20      	subhi	r4, #32
      MODIFY_REG(*configregister, ((GPIO_CRL_MODE0 | GPIO_CRL_CNF0) << registeroffset), GPIO_CRL_CNF0_0 << registeroffset);
 80014d8:	fa08 fc04 	lsl.w	ip, r8, r4
 80014dc:	ea25 050c 	bic.w	r5, r5, ip
 80014e0:	fa0b f404 	lsl.w	r4, fp, r4
 80014e4:	4325      	orrs	r5, r4
 80014e6:	603d      	str	r5, [r7, #0]
      CLEAR_BIT(GPIOx->ODR, iocurrent);
 80014e8:	68c4      	ldr	r4, [r0, #12]
 80014ea:	4026      	ands	r6, r4
 80014ec:	60c6      	str	r6, [r0, #12]
    position++;
 80014ee:	3201      	adds	r2, #1
 80014f0:	e7a9      	b.n	8001446 <HAL_GPIO_DeInit+0x1a>
      if (tmp == (GPIO_GET_INDEX(GPIOx) << (4u * (position & 0x03u))))
 80014f2:	2500      	movs	r5, #0
 80014f4:	e7d1      	b.n	800149a <HAL_GPIO_DeInit+0x6e>
 80014f6:	2501      	movs	r5, #1
 80014f8:	e7cf      	b.n	800149a <HAL_GPIO_DeInit+0x6e>
 80014fa:	2502      	movs	r5, #2
 80014fc:	e7cd      	b.n	800149a <HAL_GPIO_DeInit+0x6e>
 80014fe:	bf00      	nop
 8001500:	40010400 	.word	0x40010400
 8001504:	40010800 	.word	0x40010800

08001508 <HAL_GPIO_ReadPin>:
  GPIO_PinState bitstatus;

  /* Check the parameters */
  assert_param(IS_GPIO_PIN(GPIO_Pin));

  if ((GPIOx->IDR & GPIO_Pin) != (uint32_t)GPIO_PIN_RESET)
 8001508:	6883      	ldr	r3, [r0, #8]
 800150a:	4219      	tst	r1, r3
  else
  {
    bitstatus = GPIO_PIN_RESET;
  }
  return bitstatus;
}
 800150c:	bf14      	ite	ne
 800150e:	2001      	movne	r0, #1
 8001510:	2000      	moveq	r0, #0
 8001512:	4770      	bx	lr

08001514 <HAL_GPIO_WritePin>:
{
  /* Check the parameters */
  assert_param(IS_GPIO_PIN(GPIO_Pin));
  assert_param(IS_GPIO_PIN_ACTION(PinState));

  if (PinState != GPIO_PIN_RESET)
 8001514:	b10a      	cbz	r2, 800151a <HAL_GPIO_WritePin+0x6>
  {
    GPIOx->BSRR = GPIO_Pin;
  }
  else
  {
    GPIOx->BSRR = (uint32_t)GPIO_Pin << 16u;
 8001516:	6101      	str	r1, [r0, #16]
  }
}
 8001518:	4770      	bx	lr
    GPIOx->BSRR = (uint32_t)GPIO_Pin << 16u;
 800151a:	0409      	lsls	r1, r1, #16
 800151c:	e7fb      	b.n	8001516 <HAL_GPIO_WritePin+0x2>

0800151e <HAL_GPIO_TogglePin>:
void HAL_GPIO_TogglePin(GPIO_TypeDef *GPIOx, uint16_t GPIO_Pin)
{
  /* Check the parameters */
  assert_param(IS_GPIO_PIN(GPIO_Pin));

  if ((GPIOx->ODR & GPIO_Pin) != 0x00u)
 800151e:	68c3      	ldr	r3, [r0, #12]
 8001520:	420b      	tst	r3, r1
  {
    GPIOx->BRR = (uint32_t)GPIO_Pin;
 8001522:	bf14      	ite	ne
 8001524:	6141      	strne	r1, [r0, #20]
  }
  else
  {
    GPIOx->BSRR = (uint32_t)GPIO_Pin;
 8001526:	6101      	streq	r1, [r0, #16]
  }
}
 8001528:	4770      	bx	lr
	...

0800152c <HAL_PWR_EnableBkUpAccess>:
  * @retval None
  */
void HAL_PWR_EnableBkUpAccess(void)
{
  /* Enable access to RTC and backup registers */
  *(__IO uint32_t *) CR_DBP_BB = (uint32_t)ENABLE;
 800152c:	2201      	movs	r2, #1
 800152e:	4b01      	ldr	r3, [pc, #4]	; (8001534 <HAL_PWR_EnableBkUpAccess+0x8>)
 8001530:	601a      	str	r2, [r3, #0]
}
 8001532:	4770      	bx	lr
 8001534:	420e0020 	.word	0x420e0020

08001538 <HAL_RCC_OscConfig>:
  *         supported by this macro. User should request a transition to HSE Off
  *         first and then HSE On or HSE Bypass.
  * @retval HAL status
  */
HAL_StatusTypeDef HAL_RCC_OscConfig(RCC_OscInitTypeDef  *RCC_OscInitStruct)
{
 8001538:	e92d 41f3 	stmdb	sp!, {r0, r1, r4, r5, r6, r7, r8, lr}
  uint32_t tickstart;
  uint32_t pll_config;

  /* Check Null pointer */
  if (RCC_OscInitStruct == NULL)
 800153c:	4605      	mov	r5, r0
 800153e:	b338      	cbz	r0, 8001590 <HAL_RCC_OscConfig+0x58>

  /* Check the parameters */
  assert_param(IS_RCC_OSCILLATORTYPE(RCC_OscInitStruct->OscillatorType));

  /*------------------------------- HSE Configuration ------------------------*/
  if (((RCC_OscInitStruct->OscillatorType) & RCC_OSCILLATORTYPE_HSE) == RCC_OSCILLATORTYPE_HSE)
 8001540:	6803      	ldr	r3, [r0, #0]
 8001542:	07db      	lsls	r3, r3, #31
 8001544:	d410      	bmi.n	8001568 <HAL_RCC_OscConfig+0x30>
        }
      }
    }
  }
  /*----------------------------- HSI Configuration --------------------------*/
  if (((RCC_OscInitStruct->OscillatorType) & RCC_OSCILLATORTYPE_HSI) == RCC_OSCILLATORTYPE_HSI)
 8001546:	682b      	ldr	r3, [r5, #0]
 8001548:	079f      	lsls	r7, r3, #30
 800154a:	d45e      	bmi.n	800160a <HAL_RCC_OscConfig+0xd2>
        }
      }
    }
  }
  /*------------------------------ LSI Configuration -------------------------*/
  if (((RCC_OscInitStruct->OscillatorType) & RCC_OSCILLATORTYPE_LSI) == RCC_OSCILLATORTYPE_LSI)
 800154c:	682b      	ldr	r3, [r5, #0]
 800154e:	0719      	lsls	r1, r3, #28
 8001550:	f100 8095 	bmi.w	800167e <HAL_RCC_OscConfig+0x146>
        }
      }
    }
  }
  /*------------------------------ LSE Configuration -------------------------*/
  if (((RCC_OscInitStruct->OscillatorType) & RCC_OSCILLATORTYPE_LSE) == RCC_OSCILLATORTYPE_LSE)
 8001554:	682b      	ldr	r3, [r5, #0]
 8001556:	075a      	lsls	r2, r3, #29
 8001558:	f100 80bf 	bmi.w	80016da <HAL_RCC_OscConfig+0x1a2>

#endif /* RCC_CR_PLL2ON */
  /*-------------------------------- PLL Configuration -----------------------*/
  /* Check the parameters */
  assert_param(IS_RCC_PLL(RCC_OscInitStruct->PLL.PLLState));
  if ((RCC_OscInitStruct->PLL.PLLState) != RCC_PLL_NONE)
 800155c:	69e8      	ldr	r0, [r5, #28]
 800155e:	2800      	cmp	r0, #0
 8001560:	f040 812c 	bne.w	80017bc <HAL_RCC_OscConfig+0x284>
        }
      }
    }
  }

  return HAL_OK;
 8001564:	2000      	movs	r0, #0
 8001566:	e029      	b.n	80015bc <HAL_RCC_OscConfig+0x84>
    if ((__HAL_RCC_GET_SYSCLK_SOURCE() == RCC_SYSCLKSOURCE_STATUS_HSE)
 8001568:	4c8f      	ldr	r4, [pc, #572]	; (80017a8 <HAL_RCC_OscConfig+0x270>)
 800156a:	6863      	ldr	r3, [r4, #4]
 800156c:	f003 030c 	and.w	r3, r3, #12
 8001570:	2b04      	cmp	r3, #4
 8001572:	d007      	beq.n	8001584 <HAL_RCC_OscConfig+0x4c>
        || ((__HAL_RCC_GET_SYSCLK_SOURCE() == RCC_SYSCLKSOURCE_STATUS_PLLCLK) && (__HAL_RCC_GET_PLL_OSCSOURCE() == RCC_PLLSOURCE_HSE)))
 8001574:	6863      	ldr	r3, [r4, #4]
 8001576:	f003 030c 	and.w	r3, r3, #12
 800157a:	2b08      	cmp	r3, #8
 800157c:	d10a      	bne.n	8001594 <HAL_RCC_OscConfig+0x5c>
 800157e:	6863      	ldr	r3, [r4, #4]
 8001580:	03de      	lsls	r6, r3, #15
 8001582:	d507      	bpl.n	8001594 <HAL_RCC_OscConfig+0x5c>
      if ((__HAL_RCC_GET_FLAG(RCC_FLAG_HSERDY) != RESET) && (RCC_OscInitStruct->HSEState == RCC_HSE_OFF))
 8001584:	6823      	ldr	r3, [r4, #0]
 8001586:	039c      	lsls	r4, r3, #14
 8001588:	d5dd      	bpl.n	8001546 <HAL_RCC_OscConfig+0xe>
 800158a:	686b      	ldr	r3, [r5, #4]
 800158c:	2b00      	cmp	r3, #0
 800158e:	d1da      	bne.n	8001546 <HAL_RCC_OscConfig+0xe>
          return HAL_ERROR;
 8001590:	2001      	movs	r0, #1
 8001592:	e013      	b.n	80015bc <HAL_RCC_OscConfig+0x84>
      __HAL_RCC_HSE_CONFIG(RCC_OscInitStruct->HSEState);
 8001594:	686b      	ldr	r3, [r5, #4]
 8001596:	f5b3 3f80 	cmp.w	r3, #65536	; 0x10000
 800159a:	d112      	bne.n	80015c2 <HAL_RCC_OscConfig+0x8a>
 800159c:	6823      	ldr	r3, [r4, #0]
 800159e:	f443 3380 	orr.w	r3, r3, #65536	; 0x10000
 80015a2:	6023      	str	r3, [r4, #0]
        tickstart = HAL_GetTick();
 80015a4:	f7ff f910 	bl	80007c8 <HAL_GetTick>
 80015a8:	4606      	mov	r6, r0
        while (__HAL_RCC_GET_FLAG(RCC_FLAG_HSERDY) == RESET)
 80015aa:	6823      	ldr	r3, [r4, #0]
 80015ac:	0398      	lsls	r0, r3, #14
 80015ae:	d4ca      	bmi.n	8001546 <HAL_RCC_OscConfig+0xe>
          if ((HAL_GetTick() - tickstart) > HSE_TIMEOUT_VALUE)
 80015b0:	f7ff f90a 	bl	80007c8 <HAL_GetTick>
 80015b4:	1b80      	subs	r0, r0, r6
 80015b6:	2864      	cmp	r0, #100	; 0x64
 80015b8:	d9f7      	bls.n	80015aa <HAL_RCC_OscConfig+0x72>
            return HAL_TIMEOUT;
 80015ba:	2003      	movs	r0, #3
}
 80015bc:	b002      	add	sp, #8
 80015be:	e8bd 81f0 	ldmia.w	sp!, {r4, r5, r6, r7, r8, pc}
      __HAL_RCC_HSE_CONFIG(RCC_OscInitStruct->HSEState);
 80015c2:	b99b      	cbnz	r3, 80015ec <HAL_RCC_OscConfig+0xb4>
 80015c4:	6823      	ldr	r3, [r4, #0]
 80015c6:	f423 3380 	bic.w	r3, r3, #65536	; 0x10000
 80015ca:	6023      	str	r3, [r4, #0]
 80015cc:	6823      	ldr	r3, [r4, #0]
 80015ce:	f423 2380 	bic.w	r3, r3, #262144	; 0x40000
 80015d2:	6023      	str	r3, [r4, #0]
        tickstart = HAL_GetTick();
 80015d4:	f7ff f8f8 	bl	80007c8 <HAL_GetTick>
 80015d8:	4606      	mov	r6, r0
        while (__HAL_RCC_GET_FLAG(RCC_FLAG_HSERDY) != RESET)
 80015da:	6823      	ldr	r3, [r4, #0]
 80015dc:	0399      	lsls	r1, r3, #14
 80015de:	d5b2      	bpl.n	8001546 <HAL_RCC_OscConfig+0xe>
          if ((HAL_GetTick() - tickstart) > HSE_TIMEOUT_VALUE)
 80015e0:	f7ff f8f2 	bl	80007c8 <HAL_GetTick>
 80015e4:	1b80      	subs	r0, r0, r6
 80015e6:	2864      	cmp	r0, #100	; 0x64
 80015e8:	d9f7      	bls.n	80015da <HAL_RCC_OscConfig+0xa2>
 80015ea:	e7e6      	b.n	80015ba <HAL_RCC_OscConfig+0x82>
      __HAL_RCC_HSE_CONFIG(RCC_OscInitStruct->HSEState);
 80015ec:	f5b3 2fa0 	cmp.w	r3, #327680	; 0x50000
 80015f0:	6823      	ldr	r3, [r4, #0]
 80015f2:	d103      	bne.n	80015fc <HAL_RCC_OscConfig+0xc4>
 80015f4:	f443 2380 	orr.w	r3, r3, #262144	; 0x40000
 80015f8:	6023      	str	r3, [r4, #0]
 80015fa:	e7cf      	b.n	800159c <HAL_RCC_OscConfig+0x64>
 80015fc:	f423 3380 	bic.w	r3, r3, #65536	; 0x10000
 8001600:	6023      	str	r3, [r4, #0]
 8001602:	6823      	ldr	r3, [r4, #0]
 8001604:	f423 2380 	bic.w	r3, r3, #262144	; 0x40000
 8001608:	e7cb      	b.n	80015a2 <HAL_RCC_OscConfig+0x6a>
    if ((__HAL_RCC_GET_SYSCLK_SOURCE() == RCC_SYSCLKSOURCE_STATUS_HSI)
 800160a:	4c67      	ldr	r4, [pc, #412]	; (80017a8 <HAL_RCC_OscConfig+0x270>)
 800160c:	6863      	ldr	r3, [r4, #4]
 800160e:	f013 0f0c 	tst.w	r3, #12
 8001612:	d007      	beq.n	8001624 <HAL_RCC_OscConfig+0xec>
        || ((__HAL_RCC_GET_SYSCLK_SOURCE() == RCC_SYSCLKSOURCE_STATUS_PLLCLK) && (__HAL_RCC_GET_PLL_OSCSOURCE() == RCC_PLLSOURCE_HSI_DIV2)))
 8001614:	6863      	ldr	r3, [r4, #4]
 8001616:	f003 030c 	and.w	r3, r3, #12
 800161a:	2b08      	cmp	r3, #8
 800161c:	d110      	bne.n	8001640 <HAL_RCC_OscConfig+0x108>
 800161e:	6863      	ldr	r3, [r4, #4]
 8001620:	03da      	lsls	r2, r3, #15
 8001622:	d40d      	bmi.n	8001640 <HAL_RCC_OscConfig+0x108>
      if ((__HAL_RCC_GET_FLAG(RCC_FLAG_HSIRDY) != RESET) && (RCC_OscInitStruct->HSIState != RCC_HSI_ON))
 8001624:	6823      	ldr	r3, [r4, #0]
 8001626:	079b      	lsls	r3, r3, #30
 8001628:	d502      	bpl.n	8001630 <HAL_RCC_OscConfig+0xf8>
 800162a:	692b      	ldr	r3, [r5, #16]
 800162c:	2b01      	cmp	r3, #1
 800162e:	d1af      	bne.n	8001590 <HAL_RCC_OscConfig+0x58>
        __HAL_RCC_HSI_CALIBRATIONVALUE_ADJUST(RCC_OscInitStruct->HSICalibrationValue);
 8001630:	6823      	ldr	r3, [r4, #0]
 8001632:	696a      	ldr	r2, [r5, #20]
 8001634:	f023 03f8 	bic.w	r3, r3, #248	; 0xf8
 8001638:	ea43 03c2 	orr.w	r3, r3, r2, lsl #3
 800163c:	6023      	str	r3, [r4, #0]
 800163e:	e785      	b.n	800154c <HAL_RCC_OscConfig+0x14>
      if (RCC_OscInitStruct->HSIState != RCC_HSI_OFF)
 8001640:	692a      	ldr	r2, [r5, #16]
 8001642:	4b5a      	ldr	r3, [pc, #360]	; (80017ac <HAL_RCC_OscConfig+0x274>)
 8001644:	b16a      	cbz	r2, 8001662 <HAL_RCC_OscConfig+0x12a>
        __HAL_RCC_HSI_ENABLE();
 8001646:	2201      	movs	r2, #1
 8001648:	601a      	str	r2, [r3, #0]
        tickstart = HAL_GetTick();
 800164a:	f7ff f8bd 	bl	80007c8 <HAL_GetTick>
 800164e:	4606      	mov	r6, r0
        while (__HAL_RCC_GET_FLAG(RCC_FLAG_HSIRDY) == RESET)
 8001650:	6823      	ldr	r3, [r4, #0]
 8001652:	079f      	lsls	r7, r3, #30
 8001654:	d4ec      	bmi.n	8001630 <HAL_RCC_OscConfig+0xf8>
          if ((HAL_GetTick() - tickstart) > HSI_TIMEOUT_VALUE)
 8001656:	f7ff f8b7 	bl	80007c8 <HAL_GetTick>
 800165a:	1b80      	subs	r0, r0, r6
 800165c:	2802      	cmp	r0, #2
 800165e:	d9f7      	bls.n	8001650 <HAL_RCC_OscConfig+0x118>
 8001660:	e7ab      	b.n	80015ba <HAL_RCC_OscConfig+0x82>
        __HAL_RCC_HSI_DISABLE();
 8001662:	601a      	str	r2, [r3, #0]
        tickstart = HAL_GetTick();
 8001664:	f7ff f8b0 	bl	80007c8 <HAL_GetTick>
 8001668:	4606      	mov	r6, r0
        while (__HAL_RCC_GET_FLAG(RCC_FLAG_HSIRDY) != RESET)
 800166a:	6823      	ldr	r3, [r4, #0]
 800166c:	0798      	lsls	r0, r3, #30
 800166e:	f57f af6d 	bpl.w	800154c <HAL_RCC_OscConfig+0x14>
          if ((HAL_GetTick() - tickstart) > HSI_TIMEOUT_VALUE)
 8001672:	f7ff f8a9 	bl	80007c8 <HAL_GetTick>
 8001676:	1b80      	subs	r0, r0, r6
 8001678:	2802      	cmp	r0, #2
 800167a:	d9f6      	bls.n	800166a <HAL_RCC_OscConfig+0x132>
 800167c:	e79d      	b.n	80015ba <HAL_RCC_OscConfig+0x82>
    if (RCC_OscInitStruct->LSIState != RCC_LSI_OFF)
 800167e:	69aa      	ldr	r2, [r5, #24]
 8001680:	4e49      	ldr	r6, [pc, #292]	; (80017a8 <HAL_RCC_OscConfig+0x270>)
 8001682:	4b4b      	ldr	r3, [pc, #300]	; (80017b0 <HAL_RCC_OscConfig+0x278>)
 8001684:	b1da      	cbz	r2, 80016be <HAL_RCC_OscConfig+0x186>
      __HAL_RCC_LSI_ENABLE();
 8001686:	2201      	movs	r2, #1
 8001688:	601a      	str	r2, [r3, #0]
      tickstart = HAL_GetTick();
 800168a:	f7ff f89d 	bl	80007c8 <HAL_GetTick>
 800168e:	4604      	mov	r4, r0
      while (__HAL_RCC_GET_FLAG(RCC_FLAG_LSIRDY) == RESET)
 8001690:	6a73      	ldr	r3, [r6, #36]	; 0x24
 8001692:	079b      	lsls	r3, r3, #30
 8001694:	d50d      	bpl.n	80016b2 <HAL_RCC_OscConfig+0x17a>
  * @param  mdelay: specifies the delay time length, in milliseconds.
  * @retval None
  */
static void RCC_Delay(uint32_t mdelay)
{
  __IO uint32_t Delay = mdelay * (SystemCoreClock / 8U / 1000U);
 8001696:	f44f 52fa 	mov.w	r2, #8000	; 0x1f40
 800169a:	4b46      	ldr	r3, [pc, #280]	; (80017b4 <HAL_RCC_OscConfig+0x27c>)
 800169c:	681b      	ldr	r3, [r3, #0]
 800169e:	fbb3 f3f2 	udiv	r3, r3, r2
 80016a2:	9301      	str	r3, [sp, #4]
  do
  {
    __NOP();
 80016a4:	bf00      	nop
  }
  while (Delay --);
 80016a6:	9b01      	ldr	r3, [sp, #4]
 80016a8:	1e5a      	subs	r2, r3, #1
 80016aa:	9201      	str	r2, [sp, #4]
 80016ac:	2b00      	cmp	r3, #0
 80016ae:	d1f9      	bne.n	80016a4 <HAL_RCC_OscConfig+0x16c>
 80016b0:	e750      	b.n	8001554 <HAL_RCC_OscConfig+0x1c>
        if ((HAL_GetTick() - tickstart) > LSI_TIMEOUT_VALUE)
 80016b2:	f7ff f889 	bl	80007c8 <HAL_GetTick>
 80016b6:	1b00      	subs	r0, r0, r4
 80016b8:	2802      	cmp	r0, #2
 80016ba:	d9e9      	bls.n	8001690 <HAL_RCC_OscConfig+0x158>
 80016bc:	e77d      	b.n	80015ba <HAL_RCC_OscConfig+0x82>
      __HAL_RCC_LSI_DISABLE();
 80016be:	601a      	str	r2, [r3, #0]
      tickstart = HAL_GetTick();
 80016c0:	f7ff f882 	bl	80007c8 <HAL_GetTick>
 80016c4:	4604      	mov	r4, r0
      while (__HAL_RCC_GET_FLAG(RCC_FLAG_LSIRDY) != RESET)
 80016c6:	6a73      	ldr	r3, [r6, #36]	; 0x24
 80016c8:	079f      	lsls	r7, r3, #30
 80016ca:	f57f af43 	bpl.w	8001554 <HAL_RCC_OscConfig+0x1c>
        if ((HAL_GetTick() - tickstart) > LSI_TIMEOUT_VALUE)
 80016ce:	f7ff f87b 	bl	80007c8 <HAL_GetTick>
 80016d2:	1b00      	subs	r0, r0, r4
 80016d4:	2802      	cmp	r0, #2
 80016d6:	d9f6      	bls.n	80016c6 <HAL_RCC_OscConfig+0x18e>
 80016d8:	e76f      	b.n	80015ba <HAL_RCC_OscConfig+0x82>
    if (__HAL_RCC_PWR_IS_CLK_DISABLED())
 80016da:	4c33      	ldr	r4, [pc, #204]	; (80017a8 <HAL_RCC_OscConfig+0x270>)
 80016dc:	69e3      	ldr	r3, [r4, #28]
 80016de:	00d8      	lsls	r0, r3, #3
 80016e0:	d424      	bmi.n	800172c <HAL_RCC_OscConfig+0x1f4>
      pwrclkchanged = SET;
 80016e2:	2701      	movs	r7, #1
      __HAL_RCC_PWR_CLK_ENABLE();
 80016e4:	69e3      	ldr	r3, [r4, #28]
 80016e6:	f043 5380 	orr.w	r3, r3, #268435456	; 0x10000000
 80016ea:	61e3      	str	r3, [r4, #28]
 80016ec:	69e3      	ldr	r3, [r4, #28]
 80016ee:	f003 5380 	and.w	r3, r3, #268435456	; 0x10000000
 80016f2:	9300      	str	r3, [sp, #0]
 80016f4:	9b00      	ldr	r3, [sp, #0]
    if (HAL_IS_BIT_CLR(PWR->CR, PWR_CR_DBP))
 80016f6:	4e30      	ldr	r6, [pc, #192]	; (80017b8 <HAL_RCC_OscConfig+0x280>)
 80016f8:	6833      	ldr	r3, [r6, #0]
 80016fa:	05d9      	lsls	r1, r3, #23
 80016fc:	d518      	bpl.n	8001730 <HAL_RCC_OscConfig+0x1f8>
    __HAL_RCC_LSE_CONFIG(RCC_OscInitStruct->LSEState);
 80016fe:	68eb      	ldr	r3, [r5, #12]
 8001700:	2b01      	cmp	r3, #1
 8001702:	d126      	bne.n	8001752 <HAL_RCC_OscConfig+0x21a>
 8001704:	6a23      	ldr	r3, [r4, #32]
 8001706:	f043 0301 	orr.w	r3, r3, #1
 800170a:	6223      	str	r3, [r4, #32]
      tickstart = HAL_GetTick();
 800170c:	f7ff f85c 	bl	80007c8 <HAL_GetTick>
        if ((HAL_GetTick() - tickstart) > RCC_LSE_TIMEOUT_VALUE)
 8001710:	f241 3888 	movw	r8, #5000	; 0x1388
      tickstart = HAL_GetTick();
 8001714:	4606      	mov	r6, r0
      while (__HAL_RCC_GET_FLAG(RCC_FLAG_LSERDY) == RESET)
 8001716:	6a23      	ldr	r3, [r4, #32]
 8001718:	079b      	lsls	r3, r3, #30
 800171a:	d53f      	bpl.n	800179c <HAL_RCC_OscConfig+0x264>
    if (pwrclkchanged == SET)
 800171c:	2f00      	cmp	r7, #0
 800171e:	f43f af1d 	beq.w	800155c <HAL_RCC_OscConfig+0x24>
      __HAL_RCC_PWR_CLK_DISABLE();
 8001722:	69e3      	ldr	r3, [r4, #28]
 8001724:	f023 5380 	bic.w	r3, r3, #268435456	; 0x10000000
 8001728:	61e3      	str	r3, [r4, #28]
 800172a:	e717      	b.n	800155c <HAL_RCC_OscConfig+0x24>
    FlagStatus       pwrclkchanged = RESET;
 800172c:	2700      	movs	r7, #0
 800172e:	e7e2      	b.n	80016f6 <HAL_RCC_OscConfig+0x1be>
      SET_BIT(PWR->CR, PWR_CR_DBP);
 8001730:	6833      	ldr	r3, [r6, #0]
 8001732:	f443 7380 	orr.w	r3, r3, #256	; 0x100
 8001736:	6033      	str	r3, [r6, #0]
      tickstart = HAL_GetTick();
 8001738:	f7ff f846 	bl	80007c8 <HAL_GetTick>
 800173c:	4680      	mov	r8, r0
      while (HAL_IS_BIT_CLR(PWR->CR, PWR_CR_DBP))
 800173e:	6833      	ldr	r3, [r6, #0]
 8001740:	05da      	lsls	r2, r3, #23
 8001742:	d4dc      	bmi.n	80016fe <HAL_RCC_OscConfig+0x1c6>
        if ((HAL_GetTick() - tickstart) > RCC_DBP_TIMEOUT_VALUE)
 8001744:	f7ff f840 	bl	80007c8 <HAL_GetTick>
 8001748:	eba0 0008 	sub.w	r0, r0, r8
 800174c:	2864      	cmp	r0, #100	; 0x64
 800174e:	d9f6      	bls.n	800173e <HAL_RCC_OscConfig+0x206>
 8001750:	e733      	b.n	80015ba <HAL_RCC_OscConfig+0x82>
    __HAL_RCC_LSE_CONFIG(RCC_OscInitStruct->LSEState);
 8001752:	b9ab      	cbnz	r3, 8001780 <HAL_RCC_OscConfig+0x248>
 8001754:	6a23      	ldr	r3, [r4, #32]
        if ((HAL_GetTick() - tickstart) > RCC_LSE_TIMEOUT_VALUE)
 8001756:	f241 3888 	movw	r8, #5000	; 0x1388
    __HAL_RCC_LSE_CONFIG(RCC_OscInitStruct->LSEState);
 800175a:	f023 0301 	bic.w	r3, r3, #1
 800175e:	6223      	str	r3, [r4, #32]
 8001760:	6a23      	ldr	r3, [r4, #32]
 8001762:	f023 0304 	bic.w	r3, r3, #4
 8001766:	6223      	str	r3, [r4, #32]
      tickstart = HAL_GetTick();
 8001768:	f7ff f82e 	bl	80007c8 <HAL_GetTick>
 800176c:	4606      	mov	r6, r0
      while (__HAL_RCC_GET_FLAG(RCC_FLAG_LSERDY) != RESET)
 800176e:	6a23      	ldr	r3, [r4, #32]
 8001770:	0798      	lsls	r0, r3, #30
 8001772:	d5d3      	bpl.n	800171c <HAL_RCC_OscConfig+0x1e4>
        if ((HAL_GetTick() - tickstart) > RCC_LSE_TIMEOUT_VALUE)
 8001774:	f7ff f828 	bl	80007c8 <HAL_GetTick>
 8001778:	1b80      	subs	r0, r0, r6
 800177a:	4540      	cmp	r0, r8
 800177c:	d9f7      	bls.n	800176e <HAL_RCC_OscConfig+0x236>
 800177e:	e71c      	b.n	80015ba <HAL_RCC_OscConfig+0x82>
    __HAL_RCC_LSE_CONFIG(RCC_OscInitStruct->LSEState);
 8001780:	2b05      	cmp	r3, #5
 8001782:	6a23      	ldr	r3, [r4, #32]
 8001784:	d103      	bne.n	800178e <HAL_RCC_OscConfig+0x256>
 8001786:	f043 0304 	orr.w	r3, r3, #4
 800178a:	6223      	str	r3, [r4, #32]
 800178c:	e7ba      	b.n	8001704 <HAL_RCC_OscConfig+0x1cc>
 800178e:	f023 0301 	bic.w	r3, r3, #1
 8001792:	6223      	str	r3, [r4, #32]
 8001794:	6a23      	ldr	r3, [r4, #32]
 8001796:	f023 0304 	bic.w	r3, r3, #4
 800179a:	e7b6      	b.n	800170a <HAL_RCC_OscConfig+0x1d2>
        if ((HAL_GetTick() - tickstart) > RCC_LSE_TIMEOUT_VALUE)
 800179c:	f7ff f814 	bl	80007c8 <HAL_GetTick>
 80017a0:	1b80      	subs	r0, r0, r6
 80017a2:	4540      	cmp	r0, r8
 80017a4:	d9b7      	bls.n	8001716 <HAL_RCC_OscConfig+0x1de>
 80017a6:	e708      	b.n	80015ba <HAL_RCC_OscConfig+0x82>
 80017a8:	40021000 	.word	0x40021000
 80017ac:	42420000 	.word	0x42420000
 80017b0:	42420480 	.word	0x42420480
 80017b4:	2000002c 	.word	0x2000002c
 80017b8:	40007000 	.word	0x40007000
    if (__HAL_RCC_GET_SYSCLK_SOURCE() != RCC_SYSCLKSOURCE_STATUS_PLLCLK)
 80017bc:	4b2a      	ldr	r3, [pc, #168]	; (8001868 <HAL_RCC_OscConfig+0x330>)
 80017be:	685a      	ldr	r2, [r3, #4]
 80017c0:	461c      	mov	r4, r3
 80017c2:	f002 020c 	and.w	r2, r2, #12
 80017c6:	2a08      	cmp	r2, #8
 80017c8:	d03d      	beq.n	8001846 <HAL_RCC_OscConfig+0x30e>
      if ((RCC_OscInitStruct->PLL.PLLState) == RCC_PLL_ON)
 80017ca:	2300      	movs	r3, #0
 80017cc:	4e27      	ldr	r6, [pc, #156]	; (800186c <HAL_RCC_OscConfig+0x334>)
 80017ce:	2802      	cmp	r0, #2
        __HAL_RCC_PLL_DISABLE();
 80017d0:	6033      	str	r3, [r6, #0]
      if ((RCC_OscInitStruct->PLL.PLLState) == RCC_PLL_ON)
 80017d2:	d12b      	bne.n	800182c <HAL_RCC_OscConfig+0x2f4>
        tickstart = HAL_GetTick();
 80017d4:	f7fe fff8 	bl	80007c8 <HAL_GetTick>
 80017d8:	4607      	mov	r7, r0
        while (__HAL_RCC_GET_FLAG(RCC_FLAG_PLLRDY)  != RESET)
 80017da:	6823      	ldr	r3, [r4, #0]
 80017dc:	0199      	lsls	r1, r3, #6
 80017de:	d41f      	bmi.n	8001820 <HAL_RCC_OscConfig+0x2e8>
        if (RCC_OscInitStruct->PLL.PLLSource == RCC_PLLSOURCE_HSE)
 80017e0:	6a2b      	ldr	r3, [r5, #32]
 80017e2:	f5b3 3f80 	cmp.w	r3, #65536	; 0x10000
 80017e6:	d105      	bne.n	80017f4 <HAL_RCC_OscConfig+0x2bc>
          __HAL_RCC_HSE_PREDIV_CONFIG(RCC_OscInitStruct->HSEPredivValue);
 80017e8:	6862      	ldr	r2, [r4, #4]
 80017ea:	68a9      	ldr	r1, [r5, #8]
 80017ec:	f422 3200 	bic.w	r2, r2, #131072	; 0x20000
 80017f0:	430a      	orrs	r2, r1
 80017f2:	6062      	str	r2, [r4, #4]
        __HAL_RCC_PLL_CONFIG(RCC_OscInitStruct->PLL.PLLSource,
 80017f4:	6a69      	ldr	r1, [r5, #36]	; 0x24
 80017f6:	6862      	ldr	r2, [r4, #4]
 80017f8:	430b      	orrs	r3, r1
 80017fa:	f422 1274 	bic.w	r2, r2, #3997696	; 0x3d0000
 80017fe:	4313      	orrs	r3, r2
 8001800:	6063      	str	r3, [r4, #4]
        __HAL_RCC_PLL_ENABLE();
 8001802:	2301      	movs	r3, #1
 8001804:	6033      	str	r3, [r6, #0]
        tickstart = HAL_GetTick();
 8001806:	f7fe ffdf 	bl	80007c8 <HAL_GetTick>
 800180a:	4605      	mov	r5, r0
        while (__HAL_RCC_GET_FLAG(RCC_FLAG_PLLRDY)  == RESET)
 800180c:	6823      	ldr	r3, [r4, #0]
 800180e:	019a      	lsls	r2, r3, #6
 8001810:	f53f aea8 	bmi.w	8001564 <HAL_RCC_OscConfig+0x2c>
          if ((HAL_GetTick() - tickstart) > PLL_TIMEOUT_VALUE)
 8001814:	f7fe ffd8 	bl	80007c8 <HAL_GetTick>
 8001818:	1b40      	subs	r0, r0, r5
 800181a:	2802      	cmp	r0, #2
 800181c:	d9f6      	bls.n	800180c <HAL_RCC_OscConfig+0x2d4>
 800181e:	e6cc      	b.n	80015ba <HAL_RCC_OscConfig+0x82>
          if ((HAL_GetTick() - tickstart) > PLL_TIMEOUT_VALUE)
 8001820:	f7fe ffd2 	bl	80007c8 <HAL_GetTick>
 8001824:	1bc0      	subs	r0, r0, r7
 8001826:	2802      	cmp	r0, #2
 8001828:	d9d7      	bls.n	80017da <HAL_RCC_OscConfig+0x2a2>
 800182a:	e6c6      	b.n	80015ba <HAL_RCC_OscConfig+0x82>
        tickstart = HAL_GetTick();
 800182c:	f7fe ffcc 	bl	80007c8 <HAL_GetTick>
 8001830:	4605      	mov	r5, r0
        while (__HAL_RCC_GET_FLAG(RCC_FLAG_PLLRDY)  != RESET)
 8001832:	6823      	ldr	r3, [r4, #0]
 8001834:	019b      	lsls	r3, r3, #6
 8001836:	f57f ae95 	bpl.w	8001564 <HAL_RCC_OscConfig+0x2c>
          if ((HAL_GetTick() - tickstart) > PLL_TIMEOUT_VALUE)
 800183a:	f7fe ffc5 	bl	80007c8 <HAL_GetTick>
 800183e:	1b40      	subs	r0, r0, r5
 8001840:	2802      	cmp	r0, #2
 8001842:	d9f6      	bls.n	8001832 <HAL_RCC_OscConfig+0x2fa>
 8001844:	e6b9      	b.n	80015ba <HAL_RCC_OscConfig+0x82>
      if ((RCC_OscInitStruct->PLL.PLLState) == RCC_PLL_OFF)
 8001846:	2801      	cmp	r0, #1
 8001848:	f43f aeb8 	beq.w	80015bc <HAL_RCC_OscConfig+0x84>
        pll_config = RCC->CFGR;
 800184c:	685b      	ldr	r3, [r3, #4]
        if ((READ_BIT(pll_config, RCC_CFGR_PLLSRC) != RCC_OscInitStruct->PLL.PLLSource) ||
 800184e:	6a2a      	ldr	r2, [r5, #32]
 8001850:	f403 3180 	and.w	r1, r3, #65536	; 0x10000
 8001854:	4291      	cmp	r1, r2
 8001856:	f47f ae9b 	bne.w	8001590 <HAL_RCC_OscConfig+0x58>
 800185a:	6a6a      	ldr	r2, [r5, #36]	; 0x24
            (READ_BIT(pll_config, RCC_CFGR_PLLMULL) != RCC_OscInitStruct->PLL.PLLMUL))
 800185c:	f403 1370 	and.w	r3, r3, #3932160	; 0x3c0000
        if ((READ_BIT(pll_config, RCC_CFGR_PLLSRC) != RCC_OscInitStruct->PLL.PLLSource) ||
 8001860:	4293      	cmp	r3, r2
 8001862:	f43f ae7f 	beq.w	8001564 <HAL_RCC_OscConfig+0x2c>
 8001866:	e693      	b.n	8001590 <HAL_RCC_OscConfig+0x58>
 8001868:	40021000 	.word	0x40021000
 800186c:	42420060 	.word	0x42420060

08001870 <HAL_RCC_GetSysClockFreq>:
{
 8001870:	b530      	push	{r4, r5, lr}
  const uint8_t aPLLMULFactorTable[16] = {2, 3, 4, 5, 6, 7, 8, 9, 10, 11, 12, 13, 14, 15, 16, 16};
 8001872:	4b18      	ldr	r3, [pc, #96]	; (80018d4 <HAL_RCC_GetSysClockFreq+0x64>)
{
 8001874:	b087      	sub	sp, #28
  const uint8_t aPLLMULFactorTable[16] = {2, 3, 4, 5, 6, 7, 8, 9, 10, 11, 12, 13, 14, 15, 16, 16};
 8001876:	ac02      	add	r4, sp, #8
 8001878:	f103 0510 	add.w	r5, r3, #16
 800187c:	4622      	mov	r2, r4
 800187e:	6818      	ldr	r0, [r3, #0]
 8001880:	6859      	ldr	r1, [r3, #4]
 8001882:	3308      	adds	r3, #8
 8001884:	c203      	stmia	r2!, {r0, r1}
 8001886:	42ab      	cmp	r3, r5
 8001888:	4614      	mov	r4, r2
 800188a:	d1f7      	bne.n	800187c <HAL_RCC_GetSysClockFreq+0xc>
  const uint8_t aPredivFactorTable[2] = {1, 2};
 800188c:	f240 2301 	movw	r3, #513	; 0x201
  tmpreg = RCC->CFGR;
 8001890:	4911      	ldr	r1, [pc, #68]	; (80018d8 <HAL_RCC_GetSysClockFreq+0x68>)
  const uint8_t aPredivFactorTable[2] = {1, 2};
 8001892:	f8ad 3004 	strh.w	r3, [sp, #4]
  tmpreg = RCC->CFGR;
 8001896:	684b      	ldr	r3, [r1, #4]
  switch (tmpreg & RCC_CFGR_SWS)
 8001898:	f003 020c 	and.w	r2, r3, #12
 800189c:	2a08      	cmp	r2, #8
 800189e:	d117      	bne.n	80018d0 <HAL_RCC_GetSysClockFreq+0x60>
      pllmul = aPLLMULFactorTable[(uint32_t)(tmpreg & RCC_CFGR_PLLMULL) >> RCC_CFGR_PLLMULL_Pos];
 80018a0:	f3c3 4283 	ubfx	r2, r3, #18, #4
 80018a4:	a806      	add	r0, sp, #24
 80018a6:	4402      	add	r2, r0
      if ((tmpreg & RCC_CFGR_PLLSRC) != RCC_PLLSOURCE_HSI_DIV2)
 80018a8:	03db      	lsls	r3, r3, #15
      pllmul = aPLLMULFactorTable[(uint32_t)(tmpreg & RCC_CFGR_PLLMULL) >> RCC_CFGR_PLLMULL_Pos];
 80018aa:	f812 2c10 	ldrb.w	r2, [r2, #-16]
      if ((tmpreg & RCC_CFGR_PLLSRC) != RCC_PLLSOURCE_HSI_DIV2)
 80018ae:	d50c      	bpl.n	80018ca <HAL_RCC_GetSysClockFreq+0x5a>
        prediv = aPredivFactorTable[(uint32_t)(RCC->CFGR & RCC_CFGR_PLLXTPRE) >> RCC_CFGR_PLLXTPRE_Pos];
 80018b0:	684b      	ldr	r3, [r1, #4]
        pllclk = (uint32_t)((HSE_VALUE  * pllmul) / prediv);
 80018b2:	480a      	ldr	r0, [pc, #40]	; (80018dc <HAL_RCC_GetSysClockFreq+0x6c>)
        prediv = aPredivFactorTable[(uint32_t)(RCC->CFGR & RCC_CFGR_PLLXTPRE) >> RCC_CFGR_PLLXTPRE_Pos];
 80018b4:	f3c3 4340 	ubfx	r3, r3, #17, #1
        pllclk = (uint32_t)((HSE_VALUE  * pllmul) / prediv);
 80018b8:	4350      	muls	r0, r2
        prediv = aPredivFactorTable[(uint32_t)(RCC->CFGR & RCC_CFGR_PLLXTPRE) >> RCC_CFGR_PLLXTPRE_Pos];
 80018ba:	aa06      	add	r2, sp, #24
 80018bc:	4413      	add	r3, r2
 80018be:	f813 3c14 	ldrb.w	r3, [r3, #-20]
        pllclk = (uint32_t)((HSE_VALUE  * pllmul) / prediv);
 80018c2:	fbb0 f0f3 	udiv	r0, r0, r3
}
 80018c6:	b007      	add	sp, #28
 80018c8:	bd30      	pop	{r4, r5, pc}
        pllclk = (uint32_t)((HSI_VALUE >> 1) * pllmul);
 80018ca:	4805      	ldr	r0, [pc, #20]	; (80018e0 <HAL_RCC_GetSysClockFreq+0x70>)
 80018cc:	4350      	muls	r0, r2
 80018ce:	e7fa      	b.n	80018c6 <HAL_RCC_GetSysClockFreq+0x56>
      sysclockfreq = HSE_VALUE;
 80018d0:	4802      	ldr	r0, [pc, #8]	; (80018dc <HAL_RCC_GetSysClockFreq+0x6c>)
  return sysclockfreq;
 80018d2:	e7f8      	b.n	80018c6 <HAL_RCC_GetSysClockFreq+0x56>
 80018d4:	0800841c 	.word	0x0800841c
 80018d8:	40021000 	.word	0x40021000
 80018dc:	007a1200 	.word	0x007a1200
 80018e0:	003d0900 	.word	0x003d0900

080018e4 <HAL_RCC_ClockConfig>:
{
 80018e4:	e92d 41f0 	stmdb	sp!, {r4, r5, r6, r7, r8, lr}
 80018e8:	460d      	mov	r5, r1
  if (RCC_ClkInitStruct == NULL)
 80018ea:	4604      	mov	r4, r0
 80018ec:	b910      	cbnz	r0, 80018f4 <HAL_RCC_ClockConfig+0x10>
    return HAL_ERROR;
 80018ee:	2001      	movs	r0, #1
}
 80018f0:	e8bd 81f0 	ldmia.w	sp!, {r4, r5, r6, r7, r8, pc}
  if (FLatency > __HAL_FLASH_GET_LATENCY())
 80018f4:	4a44      	ldr	r2, [pc, #272]	; (8001a08 <HAL_RCC_ClockConfig+0x124>)
 80018f6:	6813      	ldr	r3, [r2, #0]
 80018f8:	f003 0307 	and.w	r3, r3, #7
 80018fc:	428b      	cmp	r3, r1
 80018fe:	d328      	bcc.n	8001952 <HAL_RCC_ClockConfig+0x6e>
if (((RCC_ClkInitStruct->ClockType) & RCC_CLOCKTYPE_HCLK) == RCC_CLOCKTYPE_HCLK)
 8001900:	6821      	ldr	r1, [r4, #0]
 8001902:	078e      	lsls	r6, r1, #30
 8001904:	d430      	bmi.n	8001968 <HAL_RCC_ClockConfig+0x84>
  if (((RCC_ClkInitStruct->ClockType) & RCC_CLOCKTYPE_SYSCLK) == RCC_CLOCKTYPE_SYSCLK)
 8001906:	07ca      	lsls	r2, r1, #31
 8001908:	d443      	bmi.n	8001992 <HAL_RCC_ClockConfig+0xae>
  if (FLatency < __HAL_FLASH_GET_LATENCY())
 800190a:	4a3f      	ldr	r2, [pc, #252]	; (8001a08 <HAL_RCC_ClockConfig+0x124>)
 800190c:	6813      	ldr	r3, [r2, #0]
 800190e:	f003 0307 	and.w	r3, r3, #7
 8001912:	42ab      	cmp	r3, r5
 8001914:	d865      	bhi.n	80019e2 <HAL_RCC_ClockConfig+0xfe>
if (((RCC_ClkInitStruct->ClockType) & RCC_CLOCKTYPE_PCLK1) == RCC_CLOCKTYPE_PCLK1)
 8001916:	6822      	ldr	r2, [r4, #0]
 8001918:	4d3c      	ldr	r5, [pc, #240]	; (8001a0c <HAL_RCC_ClockConfig+0x128>)
 800191a:	f012 0f04 	tst.w	r2, #4
 800191e:	d16c      	bne.n	80019fa <HAL_RCC_ClockConfig+0x116>
  if (((RCC_ClkInitStruct->ClockType) & RCC_CLOCKTYPE_PCLK2) == RCC_CLOCKTYPE_PCLK2)
 8001920:	0713      	lsls	r3, r2, #28
 8001922:	d506      	bpl.n	8001932 <HAL_RCC_ClockConfig+0x4e>
    MODIFY_REG(RCC->CFGR, RCC_CFGR_PPRE2, ((RCC_ClkInitStruct->APB2CLKDivider) << 3));
 8001924:	686b      	ldr	r3, [r5, #4]
 8001926:	6922      	ldr	r2, [r4, #16]
 8001928:	f423 5360 	bic.w	r3, r3, #14336	; 0x3800
 800192c:	ea43 03c2 	orr.w	r3, r3, r2, lsl #3
 8001930:	606b      	str	r3, [r5, #4]
  SystemCoreClock = HAL_RCC_GetSysClockFreq() >> AHBPrescTable[(RCC->CFGR & RCC_CFGR_HPRE) >> RCC_CFGR_HPRE_Pos];
 8001932:	f7ff ff9d 	bl	8001870 <HAL_RCC_GetSysClockFreq>
 8001936:	686b      	ldr	r3, [r5, #4]
 8001938:	4a35      	ldr	r2, [pc, #212]	; (8001a10 <HAL_RCC_ClockConfig+0x12c>)
 800193a:	f3c3 1303 	ubfx	r3, r3, #4, #4
 800193e:	5cd3      	ldrb	r3, [r2, r3]
 8001940:	40d8      	lsrs	r0, r3
 8001942:	4b34      	ldr	r3, [pc, #208]	; (8001a14 <HAL_RCC_ClockConfig+0x130>)
 8001944:	6018      	str	r0, [r3, #0]
  HAL_InitTick(uwTickPrio);
 8001946:	4b34      	ldr	r3, [pc, #208]	; (8001a18 <HAL_RCC_ClockConfig+0x134>)
 8001948:	6818      	ldr	r0, [r3, #0]
 800194a:	f7fe fefb 	bl	8000744 <HAL_InitTick>
  return HAL_OK;
 800194e:	2000      	movs	r0, #0
 8001950:	e7ce      	b.n	80018f0 <HAL_RCC_ClockConfig+0xc>
    __HAL_FLASH_SET_LATENCY(FLatency);
 8001952:	6813      	ldr	r3, [r2, #0]
 8001954:	f023 0307 	bic.w	r3, r3, #7
 8001958:	430b      	orrs	r3, r1
 800195a:	6013      	str	r3, [r2, #0]
    if (__HAL_FLASH_GET_LATENCY() != FLatency)
 800195c:	6813      	ldr	r3, [r2, #0]
 800195e:	f003 0307 	and.w	r3, r3, #7
 8001962:	428b      	cmp	r3, r1
 8001964:	d1c3      	bne.n	80018ee <HAL_RCC_ClockConfig+0xa>
 8001966:	e7cb      	b.n	8001900 <HAL_RCC_ClockConfig+0x1c>
    if (((RCC_ClkInitStruct->ClockType) & RCC_CLOCKTYPE_PCLK1) == RCC_CLOCKTYPE_PCLK1)
 8001968:	4b28      	ldr	r3, [pc, #160]	; (8001a0c <HAL_RCC_ClockConfig+0x128>)
 800196a:	f011 0f04 	tst.w	r1, #4
      MODIFY_REG(RCC->CFGR, RCC_CFGR_PPRE1, RCC_HCLK_DIV16);
 800196e:	bf1e      	ittt	ne
 8001970:	685a      	ldrne	r2, [r3, #4]
 8001972:	f442 62e0 	orrne.w	r2, r2, #1792	; 0x700
 8001976:	605a      	strne	r2, [r3, #4]
    if (((RCC_ClkInitStruct->ClockType) & RCC_CLOCKTYPE_PCLK2) == RCC_CLOCKTYPE_PCLK2)
 8001978:	0708      	lsls	r0, r1, #28
      MODIFY_REG(RCC->CFGR, RCC_CFGR_PPRE2, (RCC_HCLK_DIV16 << 3));
 800197a:	bf42      	ittt	mi
 800197c:	685a      	ldrmi	r2, [r3, #4]
 800197e:	f442 5260 	orrmi.w	r2, r2, #14336	; 0x3800
 8001982:	605a      	strmi	r2, [r3, #4]
    MODIFY_REG(RCC->CFGR, RCC_CFGR_HPRE, RCC_ClkInitStruct->AHBCLKDivider);
 8001984:	685a      	ldr	r2, [r3, #4]
 8001986:	68a0      	ldr	r0, [r4, #8]
 8001988:	f022 02f0 	bic.w	r2, r2, #240	; 0xf0
 800198c:	4302      	orrs	r2, r0
 800198e:	605a      	str	r2, [r3, #4]
 8001990:	e7b9      	b.n	8001906 <HAL_RCC_ClockConfig+0x22>
    if (RCC_ClkInitStruct->SYSCLKSource == RCC_SYSCLKSOURCE_HSE)
 8001992:	6862      	ldr	r2, [r4, #4]
 8001994:	4e1d      	ldr	r6, [pc, #116]	; (8001a0c <HAL_RCC_ClockConfig+0x128>)
 8001996:	2a01      	cmp	r2, #1
      if (__HAL_RCC_GET_FLAG(RCC_FLAG_HSERDY) == RESET)
 8001998:	6833      	ldr	r3, [r6, #0]
    if (RCC_ClkInitStruct->SYSCLKSource == RCC_SYSCLKSOURCE_HSE)
 800199a:	d11a      	bne.n	80019d2 <HAL_RCC_ClockConfig+0xee>
      if (__HAL_RCC_GET_FLAG(RCC_FLAG_HSERDY) == RESET)
 800199c:	f413 3f00 	tst.w	r3, #131072	; 0x20000
      if (__HAL_RCC_GET_FLAG(RCC_FLAG_HSIRDY) == RESET)
 80019a0:	d0a5      	beq.n	80018ee <HAL_RCC_ClockConfig+0xa>
    __HAL_RCC_SYSCLK_CONFIG(RCC_ClkInitStruct->SYSCLKSource);
 80019a2:	6873      	ldr	r3, [r6, #4]
      if ((HAL_GetTick() - tickstart) > CLOCKSWITCH_TIMEOUT_VALUE)
 80019a4:	f241 3888 	movw	r8, #5000	; 0x1388
    __HAL_RCC_SYSCLK_CONFIG(RCC_ClkInitStruct->SYSCLKSource);
 80019a8:	f023 0303 	bic.w	r3, r3, #3
 80019ac:	4313      	orrs	r3, r2
 80019ae:	6073      	str	r3, [r6, #4]
    tickstart = HAL_GetTick();
 80019b0:	f7fe ff0a 	bl	80007c8 <HAL_GetTick>
 80019b4:	4607      	mov	r7, r0
    while (__HAL_RCC_GET_SYSCLK_SOURCE() != (RCC_ClkInitStruct->SYSCLKSource << RCC_CFGR_SWS_Pos))
 80019b6:	6873      	ldr	r3, [r6, #4]
 80019b8:	6862      	ldr	r2, [r4, #4]
 80019ba:	f003 030c 	and.w	r3, r3, #12
 80019be:	ebb3 0f82 	cmp.w	r3, r2, lsl #2
 80019c2:	d0a2      	beq.n	800190a <HAL_RCC_ClockConfig+0x26>
      if ((HAL_GetTick() - tickstart) > CLOCKSWITCH_TIMEOUT_VALUE)
 80019c4:	f7fe ff00 	bl	80007c8 <HAL_GetTick>
 80019c8:	1bc0      	subs	r0, r0, r7
 80019ca:	4540      	cmp	r0, r8
 80019cc:	d9f3      	bls.n	80019b6 <HAL_RCC_ClockConfig+0xd2>
        return HAL_TIMEOUT;
 80019ce:	2003      	movs	r0, #3
 80019d0:	e78e      	b.n	80018f0 <HAL_RCC_ClockConfig+0xc>
    else if (RCC_ClkInitStruct->SYSCLKSource == RCC_SYSCLKSOURCE_PLLCLK)
 80019d2:	2a02      	cmp	r2, #2
 80019d4:	d102      	bne.n	80019dc <HAL_RCC_ClockConfig+0xf8>
      if (__HAL_RCC_GET_FLAG(RCC_FLAG_PLLRDY) == RESET)
 80019d6:	f013 7f00 	tst.w	r3, #33554432	; 0x2000000
 80019da:	e7e1      	b.n	80019a0 <HAL_RCC_ClockConfig+0xbc>
      if (__HAL_RCC_GET_FLAG(RCC_FLAG_HSIRDY) == RESET)
 80019dc:	f013 0f02 	tst.w	r3, #2
 80019e0:	e7de      	b.n	80019a0 <HAL_RCC_ClockConfig+0xbc>
    __HAL_FLASH_SET_LATENCY(FLatency);
 80019e2:	6813      	ldr	r3, [r2, #0]
 80019e4:	f023 0307 	bic.w	r3, r3, #7
 80019e8:	432b      	orrs	r3, r5
 80019ea:	6013      	str	r3, [r2, #0]
    if (__HAL_FLASH_GET_LATENCY() != FLatency)
 80019ec:	6813      	ldr	r3, [r2, #0]
 80019ee:	f003 0307 	and.w	r3, r3, #7
 80019f2:	42ab      	cmp	r3, r5
 80019f4:	f47f af7b 	bne.w	80018ee <HAL_RCC_ClockConfig+0xa>
 80019f8:	e78d      	b.n	8001916 <HAL_RCC_ClockConfig+0x32>
    MODIFY_REG(RCC->CFGR, RCC_CFGR_PPRE1, RCC_ClkInitStruct->APB1CLKDivider);
 80019fa:	686b      	ldr	r3, [r5, #4]
 80019fc:	68e1      	ldr	r1, [r4, #12]
 80019fe:	f423 63e0 	bic.w	r3, r3, #1792	; 0x700
 8001a02:	430b      	orrs	r3, r1
 8001a04:	606b      	str	r3, [r5, #4]
 8001a06:	e78b      	b.n	8001920 <HAL_RCC_ClockConfig+0x3c>
 8001a08:	40022000 	.word	0x40022000
 8001a0c:	40021000 	.word	0x40021000
 8001a10:	080089de 	.word	0x080089de
 8001a14:	2000002c 	.word	0x2000002c
 8001a18:	20000004 	.word	0x20000004

08001a1c <HAL_RCC_GetPCLK1Freq>:
  return (HAL_RCC_GetHCLKFreq() >> APBPrescTable[(RCC->CFGR & RCC_CFGR_PPRE1) >> RCC_CFGR_PPRE1_Pos]);
 8001a1c:	4b04      	ldr	r3, [pc, #16]	; (8001a30 <HAL_RCC_GetPCLK1Freq+0x14>)
 8001a1e:	4a05      	ldr	r2, [pc, #20]	; (8001a34 <HAL_RCC_GetPCLK1Freq+0x18>)
 8001a20:	685b      	ldr	r3, [r3, #4]
 8001a22:	f3c3 2302 	ubfx	r3, r3, #8, #3
 8001a26:	5cd3      	ldrb	r3, [r2, r3]
 8001a28:	4a03      	ldr	r2, [pc, #12]	; (8001a38 <HAL_RCC_GetPCLK1Freq+0x1c>)
 8001a2a:	6810      	ldr	r0, [r2, #0]
}
 8001a2c:	40d8      	lsrs	r0, r3
 8001a2e:	4770      	bx	lr
 8001a30:	40021000 	.word	0x40021000
 8001a34:	080089ee 	.word	0x080089ee
 8001a38:	2000002c 	.word	0x2000002c

08001a3c <HAL_RCC_GetPCLK2Freq>:
  return (HAL_RCC_GetHCLKFreq() >> APBPrescTable[(RCC->CFGR & RCC_CFGR_PPRE2) >> RCC_CFGR_PPRE2_Pos]);
 8001a3c:	4b04      	ldr	r3, [pc, #16]	; (8001a50 <HAL_RCC_GetPCLK2Freq+0x14>)
 8001a3e:	4a05      	ldr	r2, [pc, #20]	; (8001a54 <HAL_RCC_GetPCLK2Freq+0x18>)
 8001a40:	685b      	ldr	r3, [r3, #4]
 8001a42:	f3c3 23c2 	ubfx	r3, r3, #11, #3
 8001a46:	5cd3      	ldrb	r3, [r2, r3]
 8001a48:	4a03      	ldr	r2, [pc, #12]	; (8001a58 <HAL_RCC_GetPCLK2Freq+0x1c>)
 8001a4a:	6810      	ldr	r0, [r2, #0]
}
 8001a4c:	40d8      	lsrs	r0, r3
 8001a4e:	4770      	bx	lr
 8001a50:	40021000 	.word	0x40021000
 8001a54:	080089ee 	.word	0x080089ee
 8001a58:	2000002c 	.word	0x2000002c

08001a5c <HAL_RCCEx_PeriphCLKConfig>:

  /* Check the parameters */
  assert_param(IS_RCC_PERIPHCLOCK(PeriphClkInit->PeriphClockSelection));

  /*------------------------------- RTC/LCD Configuration ------------------------*/
  if ((((PeriphClkInit->PeriphClockSelection) & RCC_PERIPHCLK_RTC) == RCC_PERIPHCLK_RTC))
 8001a5c:	6803      	ldr	r3, [r0, #0]
{
 8001a5e:	e92d 41f3 	stmdb	sp!, {r0, r1, r4, r5, r6, r7, r8, lr}
  if ((((PeriphClkInit->PeriphClockSelection) & RCC_PERIPHCLK_RTC) == RCC_PERIPHCLK_RTC))
 8001a62:	07d9      	lsls	r1, r3, #31
{
 8001a64:	4605      	mov	r5, r0
  if ((((PeriphClkInit->PeriphClockSelection) & RCC_PERIPHCLK_RTC) == RCC_PERIPHCLK_RTC))
 8001a66:	d520      	bpl.n	8001aaa <HAL_RCCEx_PeriphCLKConfig+0x4e>
    FlagStatus       pwrclkchanged = RESET;

    /* As soon as function is called to change RTC clock source, activation of the
       power domain is done. */
    /* Requires to enable write access to Backup Domain of necessary */
    if (__HAL_RCC_PWR_IS_CLK_DISABLED())
 8001a68:	4c35      	ldr	r4, [pc, #212]	; (8001b40 <HAL_RCCEx_PeriphCLKConfig+0xe4>)
 8001a6a:	69e3      	ldr	r3, [r4, #28]
 8001a6c:	00da      	lsls	r2, r3, #3
 8001a6e:	d432      	bmi.n	8001ad6 <HAL_RCCEx_PeriphCLKConfig+0x7a>
    {
      __HAL_RCC_PWR_CLK_ENABLE();
      pwrclkchanged = SET;
 8001a70:	2701      	movs	r7, #1
      __HAL_RCC_PWR_CLK_ENABLE();
 8001a72:	69e3      	ldr	r3, [r4, #28]
 8001a74:	f043 5380 	orr.w	r3, r3, #268435456	; 0x10000000
 8001a78:	61e3      	str	r3, [r4, #28]
 8001a7a:	69e3      	ldr	r3, [r4, #28]
 8001a7c:	f003 5380 	and.w	r3, r3, #268435456	; 0x10000000
 8001a80:	9301      	str	r3, [sp, #4]
 8001a82:	9b01      	ldr	r3, [sp, #4]
    }

    if (HAL_IS_BIT_CLR(PWR->CR, PWR_CR_DBP))
 8001a84:	4e2f      	ldr	r6, [pc, #188]	; (8001b44 <HAL_RCCEx_PeriphCLKConfig+0xe8>)
 8001a86:	6833      	ldr	r3, [r6, #0]
 8001a88:	05db      	lsls	r3, r3, #23
 8001a8a:	d526      	bpl.n	8001ada <HAL_RCCEx_PeriphCLKConfig+0x7e>
        }
      }
    }

    /* Reset the Backup domain only if the RTC Clock source selection is modified from reset value */
    temp_reg = (RCC->BDCR & RCC_BDCR_RTCSEL);
 8001a8c:	6a23      	ldr	r3, [r4, #32]
    if ((temp_reg != 0x00000000U) && (temp_reg != (PeriphClkInit->RTCClockSelection & RCC_BDCR_RTCSEL)))
 8001a8e:	f413 7340 	ands.w	r3, r3, #768	; 0x300
 8001a92:	d136      	bne.n	8001b02 <HAL_RCCEx_PeriphCLKConfig+0xa6>
            return HAL_TIMEOUT;
          }
        }
      }
    }
    __HAL_RCC_RTC_CONFIG(PeriphClkInit->RTCClockSelection);
 8001a94:	6a23      	ldr	r3, [r4, #32]
 8001a96:	686a      	ldr	r2, [r5, #4]
 8001a98:	f423 7340 	bic.w	r3, r3, #768	; 0x300
 8001a9c:	4313      	orrs	r3, r2
 8001a9e:	6223      	str	r3, [r4, #32]

    /* Require to disable power clock if necessary */
    if (pwrclkchanged == SET)
 8001aa0:	b11f      	cbz	r7, 8001aaa <HAL_RCCEx_PeriphCLKConfig+0x4e>
    {
      __HAL_RCC_PWR_CLK_DISABLE();
 8001aa2:	69e3      	ldr	r3, [r4, #28]
 8001aa4:	f023 5380 	bic.w	r3, r3, #268435456	; 0x10000000
 8001aa8:	61e3      	str	r3, [r4, #28]
    }
  }

  /*------------------------------ ADC clock Configuration ------------------*/
  if (((PeriphClkInit->PeriphClockSelection) & RCC_PERIPHCLK_ADC) == RCC_PERIPHCLK_ADC)
 8001aaa:	6828      	ldr	r0, [r5, #0]
 8001aac:	0783      	lsls	r3, r0, #30
 8001aae:	d506      	bpl.n	8001abe <HAL_RCCEx_PeriphCLKConfig+0x62>
  {
    /* Check the parameters */
    assert_param(IS_RCC_ADCPLLCLK_DIV(PeriphClkInit->AdcClockSelection));

    /* Configure the ADC clock source */
    __HAL_RCC_ADC_CONFIG(PeriphClkInit->AdcClockSelection);
 8001ab0:	4923      	ldr	r1, [pc, #140]	; (8001b40 <HAL_RCCEx_PeriphCLKConfig+0xe4>)
 8001ab2:	68ab      	ldr	r3, [r5, #8]
 8001ab4:	684a      	ldr	r2, [r1, #4]
 8001ab6:	f422 4240 	bic.w	r2, r2, #49152	; 0xc000
 8001aba:	431a      	orrs	r2, r3
 8001abc:	604a      	str	r2, [r1, #4]

#if defined(STM32F102x6) || defined(STM32F102xB) || defined(STM32F103x6)\
 || defined(STM32F103xB) || defined(STM32F103xE) || defined(STM32F103xG)\
 || defined(STM32F105xC) || defined(STM32F107xC)
  /*------------------------------ USB clock Configuration ------------------*/
  if (((PeriphClkInit->PeriphClockSelection) & RCC_PERIPHCLK_USB) == RCC_PERIPHCLK_USB)
 8001abe:	f010 0010 	ands.w	r0, r0, #16
 8001ac2:	d01b      	beq.n	8001afc <HAL_RCCEx_PeriphCLKConfig+0xa0>
  {
    /* Check the parameters */
    assert_param(IS_RCC_USBPLLCLK_DIV(PeriphClkInit->UsbClockSelection));

    /* Configure the USB clock source */
    __HAL_RCC_USB_CONFIG(PeriphClkInit->UsbClockSelection);
 8001ac4:	4a1e      	ldr	r2, [pc, #120]	; (8001b40 <HAL_RCCEx_PeriphCLKConfig+0xe4>)
 8001ac6:	68e9      	ldr	r1, [r5, #12]
 8001ac8:	6853      	ldr	r3, [r2, #4]
  }
#endif /* STM32F102x6 || STM32F102xB || STM32F103x6 || STM32F103xB || STM32F103xE || STM32F103xG || STM32F105xC || STM32F107xC */

  return HAL_OK;
 8001aca:	2000      	movs	r0, #0
    __HAL_RCC_USB_CONFIG(PeriphClkInit->UsbClockSelection);
 8001acc:	f423 0380 	bic.w	r3, r3, #4194304	; 0x400000
 8001ad0:	430b      	orrs	r3, r1
 8001ad2:	6053      	str	r3, [r2, #4]
 8001ad4:	e012      	b.n	8001afc <HAL_RCCEx_PeriphCLKConfig+0xa0>
    FlagStatus       pwrclkchanged = RESET;
 8001ad6:	2700      	movs	r7, #0
 8001ad8:	e7d4      	b.n	8001a84 <HAL_RCCEx_PeriphCLKConfig+0x28>
      SET_BIT(PWR->CR, PWR_CR_DBP);
 8001ada:	6833      	ldr	r3, [r6, #0]
 8001adc:	f443 7380 	orr.w	r3, r3, #256	; 0x100
 8001ae0:	6033      	str	r3, [r6, #0]
      tickstart = HAL_GetTick();
 8001ae2:	f7fe fe71 	bl	80007c8 <HAL_GetTick>
 8001ae6:	4680      	mov	r8, r0
      while (HAL_IS_BIT_CLR(PWR->CR, PWR_CR_DBP))
 8001ae8:	6833      	ldr	r3, [r6, #0]
 8001aea:	05d8      	lsls	r0, r3, #23
 8001aec:	d4ce      	bmi.n	8001a8c <HAL_RCCEx_PeriphCLKConfig+0x30>
        if ((HAL_GetTick() - tickstart) > RCC_DBP_TIMEOUT_VALUE)
 8001aee:	f7fe fe6b 	bl	80007c8 <HAL_GetTick>
 8001af2:	eba0 0008 	sub.w	r0, r0, r8
 8001af6:	2864      	cmp	r0, #100	; 0x64
 8001af8:	d9f6      	bls.n	8001ae8 <HAL_RCCEx_PeriphCLKConfig+0x8c>
          return HAL_TIMEOUT;
 8001afa:	2003      	movs	r0, #3
}
 8001afc:	b002      	add	sp, #8
 8001afe:	e8bd 81f0 	ldmia.w	sp!, {r4, r5, r6, r7, r8, pc}
    if ((temp_reg != 0x00000000U) && (temp_reg != (PeriphClkInit->RTCClockSelection & RCC_BDCR_RTCSEL)))
 8001b02:	686a      	ldr	r2, [r5, #4]
 8001b04:	f402 7240 	and.w	r2, r2, #768	; 0x300
 8001b08:	429a      	cmp	r2, r3
 8001b0a:	d0c3      	beq.n	8001a94 <HAL_RCCEx_PeriphCLKConfig+0x38>
      __HAL_RCC_BACKUPRESET_FORCE();
 8001b0c:	2001      	movs	r0, #1
 8001b0e:	4a0e      	ldr	r2, [pc, #56]	; (8001b48 <HAL_RCCEx_PeriphCLKConfig+0xec>)
      temp_reg = (RCC->BDCR & ~(RCC_BDCR_RTCSEL));
 8001b10:	6a23      	ldr	r3, [r4, #32]
      __HAL_RCC_BACKUPRESET_FORCE();
 8001b12:	6010      	str	r0, [r2, #0]
      __HAL_RCC_BACKUPRESET_RELEASE();
 8001b14:	2000      	movs	r0, #0
      temp_reg = (RCC->BDCR & ~(RCC_BDCR_RTCSEL));
 8001b16:	f423 7140 	bic.w	r1, r3, #768	; 0x300
      __HAL_RCC_BACKUPRESET_RELEASE();
 8001b1a:	6010      	str	r0, [r2, #0]
      RCC->BDCR = temp_reg;
 8001b1c:	6221      	str	r1, [r4, #32]
      if (HAL_IS_BIT_SET(temp_reg, RCC_BDCR_LSEON))
 8001b1e:	07d9      	lsls	r1, r3, #31
 8001b20:	d5b8      	bpl.n	8001a94 <HAL_RCCEx_PeriphCLKConfig+0x38>
        tickstart = HAL_GetTick();
 8001b22:	f7fe fe51 	bl	80007c8 <HAL_GetTick>
          if ((HAL_GetTick() - tickstart) > RCC_LSE_TIMEOUT_VALUE)
 8001b26:	f241 3888 	movw	r8, #5000	; 0x1388
        tickstart = HAL_GetTick();
 8001b2a:	4606      	mov	r6, r0
        while (__HAL_RCC_GET_FLAG(RCC_FLAG_LSERDY) == RESET)
 8001b2c:	6a23      	ldr	r3, [r4, #32]
 8001b2e:	079a      	lsls	r2, r3, #30
 8001b30:	d4b0      	bmi.n	8001a94 <HAL_RCCEx_PeriphCLKConfig+0x38>
          if ((HAL_GetTick() - tickstart) > RCC_LSE_TIMEOUT_VALUE)
 8001b32:	f7fe fe49 	bl	80007c8 <HAL_GetTick>
 8001b36:	1b80      	subs	r0, r0, r6
 8001b38:	4540      	cmp	r0, r8
 8001b3a:	d9f7      	bls.n	8001b2c <HAL_RCCEx_PeriphCLKConfig+0xd0>
 8001b3c:	e7dd      	b.n	8001afa <HAL_RCCEx_PeriphCLKConfig+0x9e>
 8001b3e:	bf00      	nop
 8001b40:	40021000 	.word	0x40021000
 8001b44:	40007000 	.word	0x40007000
 8001b48:	42420440 	.word	0x42420440

08001b4c <HAL_RCCEx_GetPeriphCLKFreq>:
  *            @arg @ref RCC_PERIPHCLK_USB  USB peripheral clock
  @endif
  * @retval Frequency in Hz (0: means that no available frequency for the peripheral)
  */
uint32_t HAL_RCCEx_GetPeriphCLKFreq(uint32_t PeriphClk)
{
 8001b4c:	4602      	mov	r2, r0
 8001b4e:	b570      	push	{r4, r5, r6, lr}
  uint32_t prediv1 = 0U, pllclk = 0U, pllmul = 0U;
  uint32_t pll2mul = 0U, pll3mul = 0U, prediv2 = 0U;
#endif /* STM32F105xC || STM32F107xC */
#if defined(STM32F102x6) || defined(STM32F102xB) || defined(STM32F103x6) || \
    defined(STM32F103xB) || defined(STM32F103xE) || defined(STM32F103xG)
  const uint8_t aPLLMULFactorTable[16] = {2, 3, 4, 5, 6, 7, 8, 9, 10, 11, 12, 13, 14, 15, 16, 16};
 8001b50:	4b34      	ldr	r3, [pc, #208]	; (8001c24 <HAL_RCCEx_GetPeriphCLKFreq+0xd8>)
{
 8001b52:	b086      	sub	sp, #24
  const uint8_t aPLLMULFactorTable[16] = {2, 3, 4, 5, 6, 7, 8, 9, 10, 11, 12, 13, 14, 15, 16, 16};
 8001b54:	ad02      	add	r5, sp, #8
 8001b56:	f103 0610 	add.w	r6, r3, #16
 8001b5a:	462c      	mov	r4, r5
 8001b5c:	6818      	ldr	r0, [r3, #0]
 8001b5e:	6859      	ldr	r1, [r3, #4]
 8001b60:	3308      	adds	r3, #8
 8001b62:	c403      	stmia	r4!, {r0, r1}
 8001b64:	42b3      	cmp	r3, r6
 8001b66:	4625      	mov	r5, r4
 8001b68:	d1f7      	bne.n	8001b5a <HAL_RCCEx_GetPeriphCLKFreq+0xe>
  const uint8_t aPredivFactorTable[2] = {1, 2};
 8001b6a:	f240 2301 	movw	r3, #513	; 0x201
  uint32_t temp_reg = 0U, frequency = 0U;

  /* Check the parameters */
  assert_param(IS_RCC_PERIPHCLOCK(PeriphClk));

  switch (PeriphClk)
 8001b6e:	2a02      	cmp	r2, #2
  const uint8_t aPredivFactorTable[2] = {1, 2};
 8001b70:	f8ad 3004 	strh.w	r3, [sp, #4]
  switch (PeriphClk)
 8001b74:	d049      	beq.n	8001c0a <HAL_RCCEx_GetPeriphCLKFreq+0xbe>
 8001b76:	2a10      	cmp	r2, #16
 8001b78:	d003      	beq.n	8001b82 <HAL_RCCEx_GetPeriphCLKFreq+0x36>
 8001b7a:	2a01      	cmp	r2, #1
 8001b7c:	d026      	beq.n	8001bcc <HAL_RCCEx_GetPeriphCLKFreq+0x80>
  uint32_t temp_reg = 0U, frequency = 0U;
 8001b7e:	2000      	movs	r0, #0
    default:
    {
      break;
    }
  }
  return (frequency);
 8001b80:	e038      	b.n	8001bf4 <HAL_RCCEx_GetPeriphCLKFreq+0xa8>
      temp_reg = RCC->CFGR;
 8001b82:	4b29      	ldr	r3, [pc, #164]	; (8001c28 <HAL_RCCEx_GetPeriphCLKFreq+0xdc>)
 8001b84:	6859      	ldr	r1, [r3, #4]
      if (HAL_IS_BIT_SET(RCC->CR, RCC_CR_PLLON))
 8001b86:	6818      	ldr	r0, [r3, #0]
 8001b88:	f010 7080 	ands.w	r0, r0, #16777216	; 0x1000000
 8001b8c:	d032      	beq.n	8001bf4 <HAL_RCCEx_GetPeriphCLKFreq+0xa8>
        pllmul = aPLLMULFactorTable[(uint32_t)(temp_reg & RCC_CFGR_PLLMULL) >> RCC_CFGR_PLLMULL_Pos];
 8001b8e:	f3c1 4283 	ubfx	r2, r1, #18, #4
 8001b92:	a806      	add	r0, sp, #24
 8001b94:	4402      	add	r2, r0
 8001b96:	f812 0c10 	ldrb.w	r0, [r2, #-16]
        if ((temp_reg & RCC_CFGR_PLLSRC) != RCC_PLLSOURCE_HSI_DIV2)
 8001b9a:	03ca      	lsls	r2, r1, #15
          prediv1 = aPredivFactorTable[(uint32_t)(RCC->CFGR & RCC_CFGR_PLLXTPRE) >> RCC_CFGR_PLLXTPRE_Pos];
 8001b9c:	bf41      	itttt	mi
 8001b9e:	685a      	ldrmi	r2, [r3, #4]
 8001ba0:	a906      	addmi	r1, sp, #24
 8001ba2:	f3c2 4240 	ubfxmi	r2, r2, #17, #1
 8001ba6:	1852      	addmi	r2, r2, r1
 8001ba8:	bf44      	itt	mi
 8001baa:	f812 1c14 	ldrbmi.w	r1, [r2, #-20]
            pllclk = (uint32_t)((HSE_VALUE / prediv1) * pllmul);
 8001bae:	4a1f      	ldrmi	r2, [pc, #124]	; (8001c2c <HAL_RCCEx_GetPeriphCLKFreq+0xe0>)
        if (__HAL_RCC_GET_USB_SOURCE() == RCC_USBCLKSOURCE_PLL)
 8001bb0:	685b      	ldr	r3, [r3, #4]
            pllclk = (uint32_t)((HSE_VALUE / prediv1) * pllmul);
 8001bb2:	bf4c      	ite	mi
 8001bb4:	fbb2 f2f1 	udivmi	r2, r2, r1
          pllclk = (uint32_t)((HSI_VALUE >> 1) * pllmul);
 8001bb8:	4a1d      	ldrpl	r2, [pc, #116]	; (8001c30 <HAL_RCCEx_GetPeriphCLKFreq+0xe4>)
        if (__HAL_RCC_GET_USB_SOURCE() == RCC_USBCLKSOURCE_PLL)
 8001bba:	025b      	lsls	r3, r3, #9
          pllclk = (uint32_t)((HSI_VALUE >> 1) * pllmul);
 8001bbc:	fb02 f000 	mul.w	r0, r2, r0
        if (__HAL_RCC_GET_USB_SOURCE() == RCC_USBCLKSOURCE_PLL)
 8001bc0:	d418      	bmi.n	8001bf4 <HAL_RCCEx_GetPeriphCLKFreq+0xa8>
          frequency = (pllclk * 2) / 3;
 8001bc2:	2303      	movs	r3, #3
 8001bc4:	0040      	lsls	r0, r0, #1
      frequency = HAL_RCC_GetPCLK2Freq() / (((__HAL_RCC_GET_ADC_SOURCE() >> RCC_CFGR_ADCPRE_Pos) + 1) * 2);
 8001bc6:	fbb0 f0f3 	udiv	r0, r0, r3
      break;
 8001bca:	e013      	b.n	8001bf4 <HAL_RCCEx_GetPeriphCLKFreq+0xa8>
      if (((temp_reg & RCC_BDCR_RTCSEL) == RCC_RTCCLKSOURCE_LSE) && (HAL_IS_BIT_SET(temp_reg, RCC_BDCR_LSERDY)))
 8001bcc:	f240 3102 	movw	r1, #770	; 0x302
      temp_reg = RCC->BDCR;
 8001bd0:	4a15      	ldr	r2, [pc, #84]	; (8001c28 <HAL_RCCEx_GetPeriphCLKFreq+0xdc>)
 8001bd2:	6a13      	ldr	r3, [r2, #32]
      if (((temp_reg & RCC_BDCR_RTCSEL) == RCC_RTCCLKSOURCE_LSE) && (HAL_IS_BIT_SET(temp_reg, RCC_BDCR_LSERDY)))
 8001bd4:	4019      	ands	r1, r3
 8001bd6:	f5b1 7f81 	cmp.w	r1, #258	; 0x102
 8001bda:	d01f      	beq.n	8001c1c <HAL_RCCEx_GetPeriphCLKFreq+0xd0>
      else if (((temp_reg & RCC_BDCR_RTCSEL) == RCC_RTCCLKSOURCE_LSI) && (HAL_IS_BIT_SET(RCC->CSR, RCC_CSR_LSIRDY)))
 8001bdc:	f403 7340 	and.w	r3, r3, #768	; 0x300
 8001be0:	f5b3 7f00 	cmp.w	r3, #512	; 0x200
 8001be4:	d108      	bne.n	8001bf8 <HAL_RCCEx_GetPeriphCLKFreq+0xac>
        frequency = LSI_VALUE;
 8001be6:	f649 4340 	movw	r3, #40000	; 0x9c40
      else if (((temp_reg & RCC_BDCR_RTCSEL) == RCC_RTCCLKSOURCE_LSI) && (HAL_IS_BIT_SET(RCC->CSR, RCC_CSR_LSIRDY)))
 8001bea:	6a50      	ldr	r0, [r2, #36]	; 0x24
        frequency = LSI_VALUE;
 8001bec:	f010 0002 	ands.w	r0, r0, #2
        frequency = HSE_VALUE / 128U;
 8001bf0:	bf18      	it	ne
 8001bf2:	4618      	movne	r0, r3
}
 8001bf4:	b006      	add	sp, #24
 8001bf6:	bd70      	pop	{r4, r5, r6, pc}
      else if (((temp_reg & RCC_BDCR_RTCSEL) == RCC_RTCCLKSOURCE_HSE_DIV128) && (HAL_IS_BIT_SET(RCC->CR, RCC_CR_HSERDY)))
 8001bf8:	f5b3 7f40 	cmp.w	r3, #768	; 0x300
 8001bfc:	d1bf      	bne.n	8001b7e <HAL_RCCEx_GetPeriphCLKFreq+0x32>
 8001bfe:	6810      	ldr	r0, [r2, #0]
        frequency = HSE_VALUE / 128U;
 8001c00:	f24f 4324 	movw	r3, #62500	; 0xf424
 8001c04:	f410 3000 	ands.w	r0, r0, #131072	; 0x20000
 8001c08:	e7f2      	b.n	8001bf0 <HAL_RCCEx_GetPeriphCLKFreq+0xa4>
      frequency = HAL_RCC_GetPCLK2Freq() / (((__HAL_RCC_GET_ADC_SOURCE() >> RCC_CFGR_ADCPRE_Pos) + 1) * 2);
 8001c0a:	f7ff ff17 	bl	8001a3c <HAL_RCC_GetPCLK2Freq>
 8001c0e:	4b06      	ldr	r3, [pc, #24]	; (8001c28 <HAL_RCCEx_GetPeriphCLKFreq+0xdc>)
 8001c10:	685b      	ldr	r3, [r3, #4]
 8001c12:	f3c3 3381 	ubfx	r3, r3, #14, #2
 8001c16:	3301      	adds	r3, #1
 8001c18:	005b      	lsls	r3, r3, #1
 8001c1a:	e7d4      	b.n	8001bc6 <HAL_RCCEx_GetPeriphCLKFreq+0x7a>
        frequency = LSE_VALUE;
 8001c1c:	f44f 4000 	mov.w	r0, #32768	; 0x8000
 8001c20:	e7e8      	b.n	8001bf4 <HAL_RCCEx_GetPeriphCLKFreq+0xa8>
 8001c22:	bf00      	nop
 8001c24:	0800841c 	.word	0x0800841c
 8001c28:	40021000 	.word	0x40021000
 8001c2c:	007a1200 	.word	0x007a1200
 8001c30:	003d0900 	.word	0x003d0900

08001c34 <RTC_EnterInitMode>:
  * @param  hrtc   pointer to a RTC_HandleTypeDef structure that contains
  *                the configuration information for RTC.
  * @retval HAL status
  */
static HAL_StatusTypeDef RTC_EnterInitMode(RTC_HandleTypeDef *hrtc)
{
 8001c34:	b538      	push	{r3, r4, r5, lr}
 8001c36:	4604      	mov	r4, r0
  uint32_t tickstart = 0U;

  tickstart = HAL_GetTick();
 8001c38:	f7fe fdc6 	bl	80007c8 <HAL_GetTick>
 8001c3c:	4605      	mov	r5, r0
  /* Wait till RTC is in INIT state and if Time out is reached exit */
  while ((hrtc->Instance->CRL & RTC_CRL_RTOFF) == (uint32_t)RESET)
 8001c3e:	6823      	ldr	r3, [r4, #0]
 8001c40:	685a      	ldr	r2, [r3, #4]
 8001c42:	0692      	lsls	r2, r2, #26
 8001c44:	d505      	bpl.n	8001c52 <RTC_EnterInitMode+0x1e>

  /* Disable the write protection for RTC registers */
  __HAL_RTC_WRITEPROTECTION_DISABLE(hrtc);


  return HAL_OK;
 8001c46:	2000      	movs	r0, #0
  __HAL_RTC_WRITEPROTECTION_DISABLE(hrtc);
 8001c48:	685a      	ldr	r2, [r3, #4]
 8001c4a:	f042 0210 	orr.w	r2, r2, #16
 8001c4e:	605a      	str	r2, [r3, #4]
}
 8001c50:	bd38      	pop	{r3, r4, r5, pc}
    if ((HAL_GetTick() - tickstart) >  RTC_TIMEOUT_VALUE)
 8001c52:	f7fe fdb9 	bl	80007c8 <HAL_GetTick>
 8001c56:	1b40      	subs	r0, r0, r5
 8001c58:	f5b0 7f7a 	cmp.w	r0, #1000	; 0x3e8
 8001c5c:	d9ef      	bls.n	8001c3e <RTC_EnterInitMode+0xa>
      return HAL_TIMEOUT;
 8001c5e:	2003      	movs	r0, #3
 8001c60:	e7f6      	b.n	8001c50 <RTC_EnterInitMode+0x1c>

08001c62 <RTC_ExitInitMode>:
static HAL_StatusTypeDef RTC_ExitInitMode(RTC_HandleTypeDef *hrtc)
{
  uint32_t tickstart = 0U;

  /* Disable the write protection for RTC registers */
  __HAL_RTC_WRITEPROTECTION_ENABLE(hrtc);
 8001c62:	6802      	ldr	r2, [r0, #0]
{
 8001c64:	b538      	push	{r3, r4, r5, lr}
  __HAL_RTC_WRITEPROTECTION_ENABLE(hrtc);
 8001c66:	6853      	ldr	r3, [r2, #4]
{
 8001c68:	4604      	mov	r4, r0
  __HAL_RTC_WRITEPROTECTION_ENABLE(hrtc);
 8001c6a:	f023 0310 	bic.w	r3, r3, #16
 8001c6e:	6053      	str	r3, [r2, #4]

  tickstart = HAL_GetTick();
 8001c70:	f7fe fdaa 	bl	80007c8 <HAL_GetTick>
 8001c74:	4605      	mov	r5, r0
  /* Wait till RTC is in INIT state and if Time out is reached exit */
  while ((hrtc->Instance->CRL & RTC_CRL_RTOFF) == (uint32_t)RESET)
 8001c76:	6823      	ldr	r3, [r4, #0]
 8001c78:	685b      	ldr	r3, [r3, #4]
 8001c7a:	069b      	lsls	r3, r3, #26
 8001c7c:	d501      	bpl.n	8001c82 <RTC_ExitInitMode+0x20>
    {
      return HAL_TIMEOUT;
    }
  }

  return HAL_OK;
 8001c7e:	2000      	movs	r0, #0
}
 8001c80:	bd38      	pop	{r3, r4, r5, pc}
    if ((HAL_GetTick() - tickstart) >  RTC_TIMEOUT_VALUE)
 8001c82:	f7fe fda1 	bl	80007c8 <HAL_GetTick>
 8001c86:	1b40      	subs	r0, r0, r5
 8001c88:	f5b0 7f7a 	cmp.w	r0, #1000	; 0x3e8
 8001c8c:	d9f3      	bls.n	8001c76 <RTC_ExitInitMode+0x14>
      return HAL_TIMEOUT;
 8001c8e:	2003      	movs	r0, #3
 8001c90:	e7f6      	b.n	8001c80 <RTC_ExitInitMode+0x1e>

08001c92 <HAL_RTC_WaitForSynchro>:
{
 8001c92:	b538      	push	{r3, r4, r5, lr}
  if (hrtc == NULL)
 8001c94:	4604      	mov	r4, r0
 8001c96:	b1a8      	cbz	r0, 8001cc4 <HAL_RTC_WaitForSynchro+0x32>
  CLEAR_BIT(hrtc->Instance->CRL, RTC_FLAG_RSF);
 8001c98:	6802      	ldr	r2, [r0, #0]
 8001c9a:	6853      	ldr	r3, [r2, #4]
 8001c9c:	f023 0308 	bic.w	r3, r3, #8
 8001ca0:	6053      	str	r3, [r2, #4]
  tickstart = HAL_GetTick();
 8001ca2:	f7fe fd91 	bl	80007c8 <HAL_GetTick>
 8001ca6:	4605      	mov	r5, r0
  while ((hrtc->Instance->CRL & RTC_FLAG_RSF) == (uint32_t)RESET)
 8001ca8:	6823      	ldr	r3, [r4, #0]
 8001caa:	685b      	ldr	r3, [r3, #4]
 8001cac:	071b      	lsls	r3, r3, #28
 8001cae:	d501      	bpl.n	8001cb4 <HAL_RTC_WaitForSynchro+0x22>
  return HAL_OK;
 8001cb0:	2000      	movs	r0, #0
}
 8001cb2:	bd38      	pop	{r3, r4, r5, pc}
    if ((HAL_GetTick() - tickstart) >  RTC_TIMEOUT_VALUE)
 8001cb4:	f7fe fd88 	bl	80007c8 <HAL_GetTick>
 8001cb8:	1b40      	subs	r0, r0, r5
 8001cba:	f5b0 7f7a 	cmp.w	r0, #1000	; 0x3e8
 8001cbe:	d9f3      	bls.n	8001ca8 <HAL_RTC_WaitForSynchro+0x16>
      return HAL_TIMEOUT;
 8001cc0:	2003      	movs	r0, #3
 8001cc2:	e7f6      	b.n	8001cb2 <HAL_RTC_WaitForSynchro+0x20>
    return HAL_ERROR;
 8001cc4:	2001      	movs	r0, #1
 8001cc6:	e7f4      	b.n	8001cb2 <HAL_RTC_WaitForSynchro+0x20>

08001cc8 <HAL_RTC_Init>:
{
 8001cc8:	b510      	push	{r4, lr}
  if (hrtc == NULL)
 8001cca:	4604      	mov	r4, r0
 8001ccc:	b170      	cbz	r0, 8001cec <HAL_RTC_Init+0x24>
  if (hrtc->State == HAL_RTC_STATE_RESET)
 8001cce:	7c43      	ldrb	r3, [r0, #17]
 8001cd0:	f003 02ff 	and.w	r2, r3, #255	; 0xff
 8001cd4:	b913      	cbnz	r3, 8001cdc <HAL_RTC_Init+0x14>
    hrtc->Lock = HAL_UNLOCKED;
 8001cd6:	7402      	strb	r2, [r0, #16]
    HAL_RTC_MspInit(hrtc);
 8001cd8:	f005 fb72 	bl	80073c0 <HAL_RTC_MspInit>
  hrtc->State = HAL_RTC_STATE_BUSY;
 8001cdc:	2302      	movs	r3, #2
  if (HAL_RTC_WaitForSynchro(hrtc) != HAL_OK)
 8001cde:	4620      	mov	r0, r4
  hrtc->State = HAL_RTC_STATE_BUSY;
 8001ce0:	7463      	strb	r3, [r4, #17]
  if (HAL_RTC_WaitForSynchro(hrtc) != HAL_OK)
 8001ce2:	f7ff ffd6 	bl	8001c92 <HAL_RTC_WaitForSynchro>
 8001ce6:	b118      	cbz	r0, 8001cf0 <HAL_RTC_Init+0x28>
        hrtc->State = HAL_RTC_STATE_ERROR;
 8001ce8:	2304      	movs	r3, #4
 8001cea:	7463      	strb	r3, [r4, #17]
    return HAL_ERROR;
 8001cec:	2001      	movs	r0, #1
 8001cee:	e036      	b.n	8001d5e <HAL_RTC_Init+0x96>
  if (RTC_EnterInitMode(hrtc) != HAL_OK)
 8001cf0:	4620      	mov	r0, r4
 8001cf2:	f7ff ff9f 	bl	8001c34 <RTC_EnterInitMode>
 8001cf6:	2800      	cmp	r0, #0
 8001cf8:	d1f6      	bne.n	8001ce8 <HAL_RTC_Init+0x20>
    CLEAR_BIT(hrtc->Instance->CRL, (RTC_FLAG_OW | RTC_FLAG_ALRAF | RTC_FLAG_SEC));
 8001cfa:	6822      	ldr	r2, [r4, #0]
    if (hrtc->Init.OutPut != RTC_OUTPUTSOURCE_NONE)
 8001cfc:	68a0      	ldr	r0, [r4, #8]
    CLEAR_BIT(hrtc->Instance->CRL, (RTC_FLAG_OW | RTC_FLAG_ALRAF | RTC_FLAG_SEC));
 8001cfe:	6853      	ldr	r3, [r2, #4]
 8001d00:	f023 0307 	bic.w	r3, r3, #7
 8001d04:	6053      	str	r3, [r2, #4]
    if (hrtc->Init.OutPut != RTC_OUTPUTSOURCE_NONE)
 8001d06:	4a16      	ldr	r2, [pc, #88]	; (8001d60 <HAL_RTC_Init+0x98>)
 8001d08:	b118      	cbz	r0, 8001d12 <HAL_RTC_Init+0x4a>
      CLEAR_BIT(BKP->CR, BKP_CR_TPE);
 8001d0a:	6b11      	ldr	r1, [r2, #48]	; 0x30
 8001d0c:	f021 0101 	bic.w	r1, r1, #1
 8001d10:	6311      	str	r1, [r2, #48]	; 0x30
    MODIFY_REG(BKP->RTCCR, (BKP_RTCCR_CCO | BKP_RTCCR_ASOE | BKP_RTCCR_ASOS), hrtc->Init.OutPut);
 8001d12:	6ad3      	ldr	r3, [r2, #44]	; 0x2c
 8001d14:	f423 7360 	bic.w	r3, r3, #896	; 0x380
 8001d18:	4303      	orrs	r3, r0
 8001d1a:	62d3      	str	r3, [r2, #44]	; 0x2c
    if (hrtc->Init.AsynchPrediv != RTC_AUTO_1_SECOND)
 8001d1c:	6860      	ldr	r0, [r4, #4]
 8001d1e:	1c43      	adds	r3, r0, #1
 8001d20:	d105      	bne.n	8001d2e <HAL_RTC_Init+0x66>
      prescaler = HAL_RCCEx_GetPeriphCLKFreq(RCC_PERIPHCLK_RTC);
 8001d22:	2001      	movs	r0, #1
 8001d24:	f7ff ff12 	bl	8001b4c <HAL_RCCEx_GetPeriphCLKFreq>
      if (prescaler == 0U)
 8001d28:	2800      	cmp	r0, #0
 8001d2a:	d0dd      	beq.n	8001ce8 <HAL_RTC_Init+0x20>
        prescaler = prescaler - 1U;
 8001d2c:	3801      	subs	r0, #1
    MODIFY_REG(hrtc->Instance->PRLH, RTC_PRLH_PRL, (prescaler >> 16U));
 8001d2e:	6822      	ldr	r2, [r4, #0]
 8001d30:	6893      	ldr	r3, [r2, #8]
 8001d32:	f023 030f 	bic.w	r3, r3, #15
 8001d36:	ea43 4310 	orr.w	r3, r3, r0, lsr #16
 8001d3a:	6093      	str	r3, [r2, #8]
    MODIFY_REG(hrtc->Instance->PRLL, RTC_PRLL_PRL, (prescaler & RTC_PRLL_PRL));
 8001d3c:	68d3      	ldr	r3, [r2, #12]
 8001d3e:	b280      	uxth	r0, r0
 8001d40:	0c1b      	lsrs	r3, r3, #16
 8001d42:	041b      	lsls	r3, r3, #16
 8001d44:	4318      	orrs	r0, r3
 8001d46:	60d0      	str	r0, [r2, #12]
    if (RTC_ExitInitMode(hrtc) != HAL_OK)
 8001d48:	4620      	mov	r0, r4
 8001d4a:	f7ff ff8a 	bl	8001c62 <RTC_ExitInitMode>
 8001d4e:	2301      	movs	r3, #1
 8001d50:	b110      	cbz	r0, 8001d58 <HAL_RTC_Init+0x90>
      hrtc->State = HAL_RTC_STATE_ERROR;
 8001d52:	2204      	movs	r2, #4
 8001d54:	7462      	strb	r2, [r4, #17]
      return HAL_ERROR;
 8001d56:	e7c9      	b.n	8001cec <HAL_RTC_Init+0x24>
    hrtc->DateToUpdate.Month = RTC_MONTH_JANUARY;
 8001d58:	7363      	strb	r3, [r4, #13]
    hrtc->DateToUpdate.Date = 0x01U;
 8001d5a:	81e3      	strh	r3, [r4, #14]
    hrtc->State = HAL_RTC_STATE_READY;
 8001d5c:	7463      	strb	r3, [r4, #17]
}
 8001d5e:	bd10      	pop	{r4, pc}
 8001d60:	40006c00 	.word	0x40006c00

08001d64 <SPI_WaitFlagStateUntilTimeout.constprop.0>:
  * @param  State flag state to check
  * @param  Timeout Timeout duration
  * @param  Tickstart tick start value
  * @retval HAL status
  */
static HAL_StatusTypeDef SPI_WaitFlagStateUntilTimeout(SPI_HandleTypeDef *hspi, uint32_t Flag, FlagStatus State,
 8001d64:	b5f8      	push	{r3, r4, r5, r6, r7, lr}
 8001d66:	4604      	mov	r4, r0
 8001d68:	460e      	mov	r6, r1
 8001d6a:	4615      	mov	r5, r2
 8001d6c:	461f      	mov	r7, r3
                                                       uint32_t Timeout, uint32_t Tickstart)
{
  while ((__HAL_SPI_GET_FLAG(hspi, Flag) ? SET : RESET) != State)
 8001d6e:	6822      	ldr	r2, [r4, #0]
 8001d70:	6893      	ldr	r3, [r2, #8]
 8001d72:	ea36 0303 	bics.w	r3, r6, r3
 8001d76:	d001      	beq.n	8001d7c <SPI_WaitFlagStateUntilTimeout.constprop.0+0x18>
        return HAL_TIMEOUT;
      }
    }
  }

  return HAL_OK;
 8001d78:	2000      	movs	r0, #0
 8001d7a:	e02d      	b.n	8001dd8 <SPI_WaitFlagStateUntilTimeout.constprop.0+0x74>
    if (Timeout != HAL_MAX_DELAY)
 8001d7c:	1c6b      	adds	r3, r5, #1
 8001d7e:	d0f7      	beq.n	8001d70 <SPI_WaitFlagStateUntilTimeout.constprop.0+0xc>
      if (((HAL_GetTick() - Tickstart) >= Timeout) || (Timeout == 0U))
 8001d80:	f7fe fd22 	bl	80007c8 <HAL_GetTick>
 8001d84:	1bc0      	subs	r0, r0, r7
 8001d86:	4285      	cmp	r5, r0
 8001d88:	d8f1      	bhi.n	8001d6e <SPI_WaitFlagStateUntilTimeout.constprop.0+0xa>
        __HAL_SPI_DISABLE_IT(hspi, (SPI_IT_TXE | SPI_IT_RXNE | SPI_IT_ERR));
 8001d8a:	6823      	ldr	r3, [r4, #0]
 8001d8c:	685a      	ldr	r2, [r3, #4]
 8001d8e:	f022 02e0 	bic.w	r2, r2, #224	; 0xe0
 8001d92:	605a      	str	r2, [r3, #4]
        if ((hspi->Init.Mode == SPI_MODE_MASTER) && ((hspi->Init.Direction == SPI_DIRECTION_1LINE)
 8001d94:	6862      	ldr	r2, [r4, #4]
 8001d96:	f5b2 7f82 	cmp.w	r2, #260	; 0x104
 8001d9a:	d10a      	bne.n	8001db2 <SPI_WaitFlagStateUntilTimeout.constprop.0+0x4e>
 8001d9c:	68a2      	ldr	r2, [r4, #8]
 8001d9e:	f5b2 4f00 	cmp.w	r2, #32768	; 0x8000
 8001da2:	d002      	beq.n	8001daa <SPI_WaitFlagStateUntilTimeout.constprop.0+0x46>
                                                     || (hspi->Init.Direction == SPI_DIRECTION_2LINES_RXONLY)))
 8001da4:	f5b2 6f80 	cmp.w	r2, #1024	; 0x400
 8001da8:	d103      	bne.n	8001db2 <SPI_WaitFlagStateUntilTimeout.constprop.0+0x4e>
          __HAL_SPI_DISABLE(hspi);
 8001daa:	681a      	ldr	r2, [r3, #0]
 8001dac:	f022 0240 	bic.w	r2, r2, #64	; 0x40
 8001db0:	601a      	str	r2, [r3, #0]
        if (hspi->Init.CRCCalculation == SPI_CRCCALCULATION_ENABLE)
 8001db2:	6aa2      	ldr	r2, [r4, #40]	; 0x28
 8001db4:	f5b2 5f00 	cmp.w	r2, #8192	; 0x2000
 8001db8:	d107      	bne.n	8001dca <SPI_WaitFlagStateUntilTimeout.constprop.0+0x66>
          SPI_RESET_CRC(hspi);
 8001dba:	681a      	ldr	r2, [r3, #0]
 8001dbc:	f422 5200 	bic.w	r2, r2, #8192	; 0x2000
 8001dc0:	601a      	str	r2, [r3, #0]
 8001dc2:	681a      	ldr	r2, [r3, #0]
 8001dc4:	f442 5200 	orr.w	r2, r2, #8192	; 0x2000
 8001dc8:	601a      	str	r2, [r3, #0]
        hspi->State = HAL_SPI_STATE_READY;
 8001dca:	2301      	movs	r3, #1
 8001dcc:	f884 3051 	strb.w	r3, [r4, #81]	; 0x51
        __HAL_UNLOCK(hspi);
 8001dd0:	2300      	movs	r3, #0
 8001dd2:	2003      	movs	r0, #3
 8001dd4:	f884 3050 	strb.w	r3, [r4, #80]	; 0x50
}
 8001dd8:	bdf8      	pop	{r3, r4, r5, r6, r7, pc}

08001dda <SPI_EndRxTransaction>:
  * @param  Timeout Timeout duration
  * @param  Tickstart tick start value
  * @retval HAL status
  */
static HAL_StatusTypeDef SPI_EndRxTransaction(SPI_HandleTypeDef *hspi,  uint32_t Timeout, uint32_t Tickstart)
{
 8001dda:	b538      	push	{r3, r4, r5, lr}
 8001ddc:	4613      	mov	r3, r2
  if ((hspi->Init.Mode == SPI_MODE_MASTER) && ((hspi->Init.Direction == SPI_DIRECTION_1LINE)
 8001dde:	6842      	ldr	r2, [r0, #4]
{
 8001de0:	4604      	mov	r4, r0
  if ((hspi->Init.Mode == SPI_MODE_MASTER) && ((hspi->Init.Direction == SPI_DIRECTION_1LINE)
 8001de2:	f5b2 7f82 	cmp.w	r2, #260	; 0x104
 8001de6:	d116      	bne.n	8001e16 <SPI_EndRxTransaction+0x3c>
 8001de8:	6882      	ldr	r2, [r0, #8]
 8001dea:	f5b2 4f00 	cmp.w	r2, #32768	; 0x8000
 8001dee:	d002      	beq.n	8001df6 <SPI_EndRxTransaction+0x1c>
                                               || (hspi->Init.Direction == SPI_DIRECTION_2LINES_RXONLY)))
 8001df0:	f5b2 6f80 	cmp.w	r2, #1024	; 0x400
 8001df4:	d10f      	bne.n	8001e16 <SPI_EndRxTransaction+0x3c>
  {
    /* Disable SPI peripheral */
    __HAL_SPI_DISABLE(hspi);
 8001df6:	6825      	ldr	r5, [r4, #0]
  }

  if ((hspi->Init.Mode == SPI_MODE_MASTER) && (hspi->Init.Direction == SPI_DIRECTION_2LINES_RXONLY))
 8001df8:	f5b2 6f80 	cmp.w	r2, #1024	; 0x400
    __HAL_SPI_DISABLE(hspi);
 8001dfc:	6828      	ldr	r0, [r5, #0]
 8001dfe:	f020 0040 	bic.w	r0, r0, #64	; 0x40
 8001e02:	6028      	str	r0, [r5, #0]
  if ((hspi->Init.Mode == SPI_MODE_MASTER) && (hspi->Init.Direction == SPI_DIRECTION_2LINES_RXONLY))
 8001e04:	d107      	bne.n	8001e16 <SPI_EndRxTransaction+0x3c>
  {
    /* Wait the RXNE reset */
    if (SPI_WaitFlagStateUntilTimeout(hspi, SPI_FLAG_RXNE, RESET, Timeout, Tickstart) != HAL_OK)
 8001e06:	460a      	mov	r2, r1
 8001e08:	2101      	movs	r1, #1
 8001e0a:	4620      	mov	r0, r4
 8001e0c:	f7ff ffaa 	bl	8001d64 <SPI_WaitFlagStateUntilTimeout.constprop.0>
 8001e10:	b920      	cbnz	r0, 8001e1c <SPI_EndRxTransaction+0x42>
    {
      SET_BIT(hspi->ErrorCode, HAL_SPI_ERROR_FLAG);
      return HAL_TIMEOUT;
    }
  }
  return HAL_OK;
 8001e12:	2000      	movs	r0, #0
}
 8001e14:	bd38      	pop	{r3, r4, r5, pc}
    if (SPI_WaitFlagStateUntilTimeout(hspi, SPI_FLAG_BSY, RESET, Timeout, Tickstart) != HAL_OK)
 8001e16:	460a      	mov	r2, r1
 8001e18:	2180      	movs	r1, #128	; 0x80
 8001e1a:	e7f6      	b.n	8001e0a <SPI_EndRxTransaction+0x30>
      SET_BIT(hspi->ErrorCode, HAL_SPI_ERROR_FLAG);
 8001e1c:	6d63      	ldr	r3, [r4, #84]	; 0x54
      return HAL_TIMEOUT;
 8001e1e:	2003      	movs	r0, #3
      SET_BIT(hspi->ErrorCode, HAL_SPI_ERROR_FLAG);
 8001e20:	f043 0320 	orr.w	r3, r3, #32
 8001e24:	6563      	str	r3, [r4, #84]	; 0x54
      return HAL_TIMEOUT;
 8001e26:	e7f5      	b.n	8001e14 <SPI_EndRxTransaction+0x3a>

08001e28 <SPI_EndRxTxTransaction>:
  * @param  Timeout Timeout duration
  * @param  Tickstart tick start value
  * @retval HAL status
  */
static HAL_StatusTypeDef SPI_EndRxTxTransaction(SPI_HandleTypeDef *hspi, uint32_t Timeout, uint32_t Tickstart)
{
 8001e28:	b510      	push	{r4, lr}
 8001e2a:	4613      	mov	r3, r2
  /* Control the BSY flag */
  if (SPI_WaitFlagStateUntilTimeout(hspi, SPI_FLAG_BSY, RESET, Timeout, Tickstart) != HAL_OK)
 8001e2c:	460a      	mov	r2, r1
 8001e2e:	2180      	movs	r1, #128	; 0x80
{
 8001e30:	4604      	mov	r4, r0
  if (SPI_WaitFlagStateUntilTimeout(hspi, SPI_FLAG_BSY, RESET, Timeout, Tickstart) != HAL_OK)
 8001e32:	f7ff ff97 	bl	8001d64 <SPI_WaitFlagStateUntilTimeout.constprop.0>
 8001e36:	b120      	cbz	r0, 8001e42 <SPI_EndRxTxTransaction+0x1a>
  {
    SET_BIT(hspi->ErrorCode, HAL_SPI_ERROR_FLAG);
    return HAL_TIMEOUT;
 8001e38:	2003      	movs	r0, #3
    SET_BIT(hspi->ErrorCode, HAL_SPI_ERROR_FLAG);
 8001e3a:	6d63      	ldr	r3, [r4, #84]	; 0x54
 8001e3c:	f043 0320 	orr.w	r3, r3, #32
 8001e40:	6563      	str	r3, [r4, #84]	; 0x54
  }
  return HAL_OK;
}
 8001e42:	bd10      	pop	{r4, pc}

08001e44 <HAL_SPI_Init>:
{
 8001e44:	b510      	push	{r4, lr}
  if (hspi == NULL)
 8001e46:	4604      	mov	r4, r0
 8001e48:	2800      	cmp	r0, #0
 8001e4a:	d034      	beq.n	8001eb6 <HAL_SPI_Init+0x72>
  hspi->Init.CRCCalculation = SPI_CRCCALCULATION_DISABLE;
 8001e4c:	2300      	movs	r3, #0
 8001e4e:	6283      	str	r3, [r0, #40]	; 0x28
  if (hspi->State == HAL_SPI_STATE_RESET)
 8001e50:	f890 3051 	ldrb.w	r3, [r0, #81]	; 0x51
 8001e54:	f003 02ff 	and.w	r2, r3, #255	; 0xff
 8001e58:	b91b      	cbnz	r3, 8001e62 <HAL_SPI_Init+0x1e>
    hspi->Lock = HAL_UNLOCKED;
 8001e5a:	f880 2050 	strb.w	r2, [r0, #80]	; 0x50
    HAL_SPI_MspInit(hspi);
 8001e5e:	f005 fb11 	bl	8007484 <HAL_SPI_MspInit>
  hspi->State = HAL_SPI_STATE_BUSY;
 8001e62:	2302      	movs	r3, #2
  __HAL_SPI_DISABLE(hspi);
 8001e64:	6822      	ldr	r2, [r4, #0]
  hspi->State = HAL_SPI_STATE_BUSY;
 8001e66:	f884 3051 	strb.w	r3, [r4, #81]	; 0x51
  __HAL_SPI_DISABLE(hspi);
 8001e6a:	6813      	ldr	r3, [r2, #0]
  WRITE_REG(hspi->Instance->CR1, (hspi->Init.Mode | hspi->Init.Direction | hspi->Init.DataSize |
 8001e6c:	69a1      	ldr	r1, [r4, #24]
  __HAL_SPI_DISABLE(hspi);
 8001e6e:	f023 0340 	bic.w	r3, r3, #64	; 0x40
 8001e72:	6013      	str	r3, [r2, #0]
  WRITE_REG(hspi->Instance->CR1, (hspi->Init.Mode | hspi->Init.Direction | hspi->Init.DataSize |
 8001e74:	e9d4 3001 	ldrd	r3, r0, [r4, #4]
 8001e78:	4303      	orrs	r3, r0
 8001e7a:	68e0      	ldr	r0, [r4, #12]
 8001e7c:	4303      	orrs	r3, r0
 8001e7e:	6920      	ldr	r0, [r4, #16]
 8001e80:	4303      	orrs	r3, r0
 8001e82:	6960      	ldr	r0, [r4, #20]
 8001e84:	4303      	orrs	r3, r0
 8001e86:	69e0      	ldr	r0, [r4, #28]
 8001e88:	4303      	orrs	r3, r0
 8001e8a:	6a20      	ldr	r0, [r4, #32]
 8001e8c:	4303      	orrs	r3, r0
 8001e8e:	6aa0      	ldr	r0, [r4, #40]	; 0x28
 8001e90:	4303      	orrs	r3, r0
 8001e92:	f401 7000 	and.w	r0, r1, #512	; 0x200
  WRITE_REG(hspi->Instance->CR2, ((hspi->Init.NSS >> 16U) & SPI_CR2_SSOE));
 8001e96:	0c09      	lsrs	r1, r1, #16
  WRITE_REG(hspi->Instance->CR1, (hspi->Init.Mode | hspi->Init.Direction | hspi->Init.DataSize |
 8001e98:	4303      	orrs	r3, r0
  WRITE_REG(hspi->Instance->CR2, ((hspi->Init.NSS >> 16U) & SPI_CR2_SSOE));
 8001e9a:	f001 0104 	and.w	r1, r1, #4
  WRITE_REG(hspi->Instance->CR1, (hspi->Init.Mode | hspi->Init.Direction | hspi->Init.DataSize |
 8001e9e:	6013      	str	r3, [r2, #0]
  WRITE_REG(hspi->Instance->CR2, ((hspi->Init.NSS >> 16U) & SPI_CR2_SSOE));
 8001ea0:	6051      	str	r1, [r2, #4]
  CLEAR_BIT(hspi->Instance->I2SCFGR, SPI_I2SCFGR_I2SMOD);
 8001ea2:	69d3      	ldr	r3, [r2, #28]
  hspi->ErrorCode = HAL_SPI_ERROR_NONE;
 8001ea4:	2000      	movs	r0, #0
  CLEAR_BIT(hspi->Instance->I2SCFGR, SPI_I2SCFGR_I2SMOD);
 8001ea6:	f423 6300 	bic.w	r3, r3, #2048	; 0x800
 8001eaa:	61d3      	str	r3, [r2, #28]
  hspi->State     = HAL_SPI_STATE_READY;
 8001eac:	2301      	movs	r3, #1
  hspi->ErrorCode = HAL_SPI_ERROR_NONE;
 8001eae:	6560      	str	r0, [r4, #84]	; 0x54
  hspi->State     = HAL_SPI_STATE_READY;
 8001eb0:	f884 3051 	strb.w	r3, [r4, #81]	; 0x51
}
 8001eb4:	bd10      	pop	{r4, pc}
    return HAL_ERROR;
 8001eb6:	2001      	movs	r0, #1
 8001eb8:	e7fc      	b.n	8001eb4 <HAL_SPI_Init+0x70>

08001eba <HAL_SPI_Transmit>:
{
 8001eba:	e92d 41f3 	stmdb	sp!, {r0, r1, r4, r5, r6, r7, r8, lr}
 8001ebe:	461e      	mov	r6, r3
  __HAL_LOCK(hspi);
 8001ec0:	f890 3050 	ldrb.w	r3, [r0, #80]	; 0x50
{
 8001ec4:	4604      	mov	r4, r0
  __HAL_LOCK(hspi);
 8001ec6:	2b01      	cmp	r3, #1
{
 8001ec8:	460d      	mov	r5, r1
 8001eca:	4617      	mov	r7, r2
  __HAL_LOCK(hspi);
 8001ecc:	f000 8098 	beq.w	8002000 <HAL_SPI_Transmit+0x146>
 8001ed0:	2301      	movs	r3, #1
 8001ed2:	f880 3050 	strb.w	r3, [r0, #80]	; 0x50
  tickstart = HAL_GetTick();
 8001ed6:	f7fe fc77 	bl	80007c8 <HAL_GetTick>
  if (hspi->State != HAL_SPI_STATE_READY)
 8001eda:	f894 3051 	ldrb.w	r3, [r4, #81]	; 0x51
  tickstart = HAL_GetTick();
 8001ede:	4680      	mov	r8, r0
  if (hspi->State != HAL_SPI_STATE_READY)
 8001ee0:	2b01      	cmp	r3, #1
 8001ee2:	b2d8      	uxtb	r0, r3
 8001ee4:	f040 808a 	bne.w	8001ffc <HAL_SPI_Transmit+0x142>
  if ((pData == NULL) || (Size == 0U))
 8001ee8:	2d00      	cmp	r5, #0
 8001eea:	d05b      	beq.n	8001fa4 <HAL_SPI_Transmit+0xea>
 8001eec:	2f00      	cmp	r7, #0
 8001eee:	d059      	beq.n	8001fa4 <HAL_SPI_Transmit+0xea>
  hspi->State       = HAL_SPI_STATE_BUSY_TX;
 8001ef0:	2303      	movs	r3, #3
 8001ef2:	f884 3051 	strb.w	r3, [r4, #81]	; 0x51
  hspi->ErrorCode   = HAL_SPI_ERROR_NONE;
 8001ef6:	2300      	movs	r3, #0
  if (hspi->Init.Direction == SPI_DIRECTION_1LINE)
 8001ef8:	68a2      	ldr	r2, [r4, #8]
  hspi->ErrorCode   = HAL_SPI_ERROR_NONE;
 8001efa:	6563      	str	r3, [r4, #84]	; 0x54
  hspi->RxISR       = NULL;
 8001efc:	e9c4 3310 	strd	r3, r3, [r4, #64]	; 0x40
  hspi->TxXferCount = Size;
 8001f00:	86e7      	strh	r7, [r4, #54]	; 0x36
  hspi->pRxBuffPtr  = (uint8_t *)NULL;
 8001f02:	63a3      	str	r3, [r4, #56]	; 0x38
  hspi->RxXferCount = 0U;
 8001f04:	87e3      	strh	r3, [r4, #62]	; 0x3e
  hspi->RxXferSize  = 0U;
 8001f06:	87a3      	strh	r3, [r4, #60]	; 0x3c
 8001f08:	6823      	ldr	r3, [r4, #0]
  if (hspi->Init.Direction == SPI_DIRECTION_1LINE)
 8001f0a:	f5b2 4f00 	cmp.w	r2, #32768	; 0x8000
    SPI_1LINE_TX(hspi);
 8001f0e:	bf08      	it	eq
 8001f10:	681a      	ldreq	r2, [r3, #0]
  hspi->pTxBuffPtr  = (uint8_t *)pData;
 8001f12:	6325      	str	r5, [r4, #48]	; 0x30
    SPI_1LINE_TX(hspi);
 8001f14:	bf08      	it	eq
 8001f16:	f442 4280 	orreq.w	r2, r2, #16384	; 0x4000
  hspi->TxXferSize  = Size;
 8001f1a:	86a7      	strh	r7, [r4, #52]	; 0x34
    SPI_1LINE_TX(hspi);
 8001f1c:	bf08      	it	eq
 8001f1e:	601a      	streq	r2, [r3, #0]
  if ((hspi->Instance->CR1 & SPI_CR1_SPE) != SPI_CR1_SPE)
 8001f20:	681a      	ldr	r2, [r3, #0]
  if (hspi->Init.DataSize == SPI_DATASIZE_16BIT)
 8001f22:	68e1      	ldr	r1, [r4, #12]
  if ((hspi->Instance->CR1 & SPI_CR1_SPE) != SPI_CR1_SPE)
 8001f24:	0652      	lsls	r2, r2, #25
    __HAL_SPI_ENABLE(hspi);
 8001f26:	bf5e      	ittt	pl
 8001f28:	681a      	ldrpl	r2, [r3, #0]
 8001f2a:	f042 0240 	orrpl.w	r2, r2, #64	; 0x40
 8001f2e:	601a      	strpl	r2, [r3, #0]
  if (hspi->Init.DataSize == SPI_DATASIZE_16BIT)
 8001f30:	f5b1 6f00 	cmp.w	r1, #2048	; 0x800
 8001f34:	6862      	ldr	r2, [r4, #4]
 8001f36:	d13e      	bne.n	8001fb6 <HAL_SPI_Transmit+0xfc>
    if ((hspi->Init.Mode == SPI_MODE_SLAVE) || (initial_TxXferCount == 0x01U))
 8001f38:	b10a      	cbz	r2, 8001f3e <HAL_SPI_Transmit+0x84>
 8001f3a:	2f01      	cmp	r7, #1
 8001f3c:	d107      	bne.n	8001f4e <HAL_SPI_Transmit+0x94>
      hspi->Instance->DR = *((uint16_t *)hspi->pTxBuffPtr);
 8001f3e:	f835 2b02 	ldrh.w	r2, [r5], #2
 8001f42:	60da      	str	r2, [r3, #12]
      hspi->pTxBuffPtr += sizeof(uint16_t);
 8001f44:	6325      	str	r5, [r4, #48]	; 0x30
        hspi->TxXferCount--;
 8001f46:	8ee3      	ldrh	r3, [r4, #54]	; 0x36
 8001f48:	3b01      	subs	r3, #1
 8001f4a:	b29b      	uxth	r3, r3
 8001f4c:	86e3      	strh	r3, [r4, #54]	; 0x36
    while (hspi->TxXferCount > 0U)
 8001f4e:	8ee3      	ldrh	r3, [r4, #54]	; 0x36
 8001f50:	b29b      	uxth	r3, r3
 8001f52:	b9a3      	cbnz	r3, 8001f7e <HAL_SPI_Transmit+0xc4>
  if (SPI_EndRxTxTransaction(hspi, Timeout, tickstart) != HAL_OK)
 8001f54:	4642      	mov	r2, r8
 8001f56:	4631      	mov	r1, r6
 8001f58:	4620      	mov	r0, r4
 8001f5a:	f7ff ff65 	bl	8001e28 <SPI_EndRxTxTransaction>
 8001f5e:	2800      	cmp	r0, #0
 8001f60:	d149      	bne.n	8001ff6 <HAL_SPI_Transmit+0x13c>
  if (hspi->Init.Direction == SPI_DIRECTION_2LINES)
 8001f62:	68a3      	ldr	r3, [r4, #8]
 8001f64:	b933      	cbnz	r3, 8001f74 <HAL_SPI_Transmit+0xba>
    __HAL_SPI_CLEAR_OVRFLAG(hspi);
 8001f66:	9301      	str	r3, [sp, #4]
 8001f68:	6823      	ldr	r3, [r4, #0]
 8001f6a:	68da      	ldr	r2, [r3, #12]
 8001f6c:	9201      	str	r2, [sp, #4]
 8001f6e:	689b      	ldr	r3, [r3, #8]
 8001f70:	9301      	str	r3, [sp, #4]
 8001f72:	9b01      	ldr	r3, [sp, #4]
  if (hspi->ErrorCode != HAL_SPI_ERROR_NONE)
 8001f74:	6d60      	ldr	r0, [r4, #84]	; 0x54
    errorcode = HAL_BUSY;
 8001f76:	3800      	subs	r0, #0
 8001f78:	bf18      	it	ne
 8001f7a:	2001      	movne	r0, #1
error:
 8001f7c:	e012      	b.n	8001fa4 <HAL_SPI_Transmit+0xea>
      if (__HAL_SPI_GET_FLAG(hspi, SPI_FLAG_TXE))
 8001f7e:	6822      	ldr	r2, [r4, #0]
 8001f80:	6893      	ldr	r3, [r2, #8]
 8001f82:	0798      	lsls	r0, r3, #30
 8001f84:	d505      	bpl.n	8001f92 <HAL_SPI_Transmit+0xd8>
        hspi->Instance->DR = *((uint16_t *)hspi->pTxBuffPtr);
 8001f86:	6b23      	ldr	r3, [r4, #48]	; 0x30
 8001f88:	f833 1b02 	ldrh.w	r1, [r3], #2
 8001f8c:	60d1      	str	r1, [r2, #12]
        hspi->pTxBuffPtr += sizeof(uint16_t);
 8001f8e:	6323      	str	r3, [r4, #48]	; 0x30
 8001f90:	e7d9      	b.n	8001f46 <HAL_SPI_Transmit+0x8c>
        if ((((HAL_GetTick() - tickstart) >=  Timeout) && (Timeout != HAL_MAX_DELAY)) || (Timeout == 0U))
 8001f92:	f7fe fc19 	bl	80007c8 <HAL_GetTick>
 8001f96:	eba0 0008 	sub.w	r0, r0, r8
 8001f9a:	42b0      	cmp	r0, r6
 8001f9c:	d3d7      	bcc.n	8001f4e <HAL_SPI_Transmit+0x94>
 8001f9e:	1c71      	adds	r1, r6, #1
 8001fa0:	d0d5      	beq.n	8001f4e <HAL_SPI_Transmit+0x94>
          errorcode = HAL_TIMEOUT;
 8001fa2:	2003      	movs	r0, #3
  hspi->State = HAL_SPI_STATE_READY;
 8001fa4:	2301      	movs	r3, #1
 8001fa6:	f884 3051 	strb.w	r3, [r4, #81]	; 0x51
  __HAL_UNLOCK(hspi);
 8001faa:	2300      	movs	r3, #0
 8001fac:	f884 3050 	strb.w	r3, [r4, #80]	; 0x50
}
 8001fb0:	b002      	add	sp, #8
 8001fb2:	e8bd 81f0 	ldmia.w	sp!, {r4, r5, r6, r7, r8, pc}
    if ((hspi->Init.Mode == SPI_MODE_SLAVE) || (initial_TxXferCount == 0x01U))
 8001fb6:	b10a      	cbz	r2, 8001fbc <HAL_SPI_Transmit+0x102>
 8001fb8:	2f01      	cmp	r7, #1
 8001fba:	d108      	bne.n	8001fce <HAL_SPI_Transmit+0x114>
      *((__IO uint8_t *)&hspi->Instance->DR) = (*hspi->pTxBuffPtr);
 8001fbc:	782a      	ldrb	r2, [r5, #0]
        *((__IO uint8_t *)&hspi->Instance->DR) = (*hspi->pTxBuffPtr);
 8001fbe:	731a      	strb	r2, [r3, #12]
        hspi->pTxBuffPtr += sizeof(uint8_t);
 8001fc0:	6b23      	ldr	r3, [r4, #48]	; 0x30
 8001fc2:	3301      	adds	r3, #1
 8001fc4:	6323      	str	r3, [r4, #48]	; 0x30
        hspi->TxXferCount--;
 8001fc6:	8ee3      	ldrh	r3, [r4, #54]	; 0x36
 8001fc8:	3b01      	subs	r3, #1
 8001fca:	b29b      	uxth	r3, r3
 8001fcc:	86e3      	strh	r3, [r4, #54]	; 0x36
    while (hspi->TxXferCount > 0U)
 8001fce:	8ee3      	ldrh	r3, [r4, #54]	; 0x36
 8001fd0:	b29b      	uxth	r3, r3
 8001fd2:	2b00      	cmp	r3, #0
 8001fd4:	d0be      	beq.n	8001f54 <HAL_SPI_Transmit+0x9a>
      if (__HAL_SPI_GET_FLAG(hspi, SPI_FLAG_TXE))
 8001fd6:	6823      	ldr	r3, [r4, #0]
 8001fd8:	689a      	ldr	r2, [r3, #8]
 8001fda:	0792      	lsls	r2, r2, #30
 8001fdc:	d502      	bpl.n	8001fe4 <HAL_SPI_Transmit+0x12a>
        *((__IO uint8_t *)&hspi->Instance->DR) = (*hspi->pTxBuffPtr);
 8001fde:	6b22      	ldr	r2, [r4, #48]	; 0x30
 8001fe0:	7812      	ldrb	r2, [r2, #0]
 8001fe2:	e7ec      	b.n	8001fbe <HAL_SPI_Transmit+0x104>
        if ((((HAL_GetTick() - tickstart) >=  Timeout) && (Timeout != HAL_MAX_DELAY)) || (Timeout == 0U))
 8001fe4:	f7fe fbf0 	bl	80007c8 <HAL_GetTick>
 8001fe8:	eba0 0008 	sub.w	r0, r0, r8
 8001fec:	42b0      	cmp	r0, r6
 8001fee:	d3ee      	bcc.n	8001fce <HAL_SPI_Transmit+0x114>
 8001ff0:	1c73      	adds	r3, r6, #1
 8001ff2:	d0ec      	beq.n	8001fce <HAL_SPI_Transmit+0x114>
 8001ff4:	e7d5      	b.n	8001fa2 <HAL_SPI_Transmit+0xe8>
    hspi->ErrorCode = HAL_SPI_ERROR_FLAG;
 8001ff6:	2320      	movs	r3, #32
 8001ff8:	6563      	str	r3, [r4, #84]	; 0x54
 8001ffa:	e7b2      	b.n	8001f62 <HAL_SPI_Transmit+0xa8>
    errorcode = HAL_BUSY;
 8001ffc:	2002      	movs	r0, #2
 8001ffe:	e7d1      	b.n	8001fa4 <HAL_SPI_Transmit+0xea>
  __HAL_LOCK(hspi);
 8002000:	2002      	movs	r0, #2
 8002002:	e7d5      	b.n	8001fb0 <HAL_SPI_Transmit+0xf6>

08002004 <HAL_SPI_TransmitReceive>:
{
 8002004:	e92d 43f7 	stmdb	sp!, {r0, r1, r2, r4, r5, r6, r7, r8, r9, lr}
 8002008:	461e      	mov	r6, r3
  __HAL_LOCK(hspi);
 800200a:	f890 3050 	ldrb.w	r3, [r0, #80]	; 0x50
{
 800200e:	4604      	mov	r4, r0
  __HAL_LOCK(hspi);
 8002010:	2b01      	cmp	r3, #1
{
 8002012:	460d      	mov	r5, r1
 8002014:	4691      	mov	r9, r2
 8002016:	f8dd 8028 	ldr.w	r8, [sp, #40]	; 0x28
  __HAL_LOCK(hspi);
 800201a:	f000 80e0 	beq.w	80021de <HAL_SPI_TransmitReceive+0x1da>
 800201e:	2301      	movs	r3, #1
 8002020:	f880 3050 	strb.w	r3, [r0, #80]	; 0x50
  tickstart = HAL_GetTick();
 8002024:	f7fe fbd0 	bl	80007c8 <HAL_GetTick>
  tmp_state           = hspi->State;
 8002028:	f894 3051 	ldrb.w	r3, [r4, #81]	; 0x51
  tickstart = HAL_GetTick();
 800202c:	4607      	mov	r7, r0
  if (!((tmp_state == HAL_SPI_STATE_READY) || \
 800202e:	2b01      	cmp	r3, #1
  tmp_mode            = hspi->Init.Mode;
 8002030:	6862      	ldr	r2, [r4, #4]
  tmp_state           = hspi->State;
 8002032:	b2d9      	uxtb	r1, r3
  if (!((tmp_state == HAL_SPI_STATE_READY) || \
 8002034:	d00a      	beq.n	800204c <HAL_SPI_TransmitReceive+0x48>
 8002036:	f5b2 7f82 	cmp.w	r2, #260	; 0x104
 800203a:	f040 80ce 	bne.w	80021da <HAL_SPI_TransmitReceive+0x1d6>
        ((tmp_mode == SPI_MODE_MASTER) && (hspi->Init.Direction == SPI_DIRECTION_2LINES) && (tmp_state == HAL_SPI_STATE_BUSY_RX))))
 800203e:	68a3      	ldr	r3, [r4, #8]
 8002040:	2b00      	cmp	r3, #0
 8002042:	f040 80ca 	bne.w	80021da <HAL_SPI_TransmitReceive+0x1d6>
 8002046:	2904      	cmp	r1, #4
 8002048:	f040 80c7 	bne.w	80021da <HAL_SPI_TransmitReceive+0x1d6>
  if ((pTxData == NULL) || (pRxData == NULL) || (Size == 0U))
 800204c:	2d00      	cmp	r5, #0
 800204e:	d03f      	beq.n	80020d0 <HAL_SPI_TransmitReceive+0xcc>
 8002050:	f1b9 0f00 	cmp.w	r9, #0
 8002054:	d03c      	beq.n	80020d0 <HAL_SPI_TransmitReceive+0xcc>
 8002056:	2e00      	cmp	r6, #0
 8002058:	d03a      	beq.n	80020d0 <HAL_SPI_TransmitReceive+0xcc>
  if (hspi->State != HAL_SPI_STATE_BUSY_RX)
 800205a:	f894 3051 	ldrb.w	r3, [r4, #81]	; 0x51
  hspi->pRxBuffPtr  = (uint8_t *)pRxData;
 800205e:	f8c4 9038 	str.w	r9, [r4, #56]	; 0x38
  if (hspi->State != HAL_SPI_STATE_BUSY_RX)
 8002062:	2b04      	cmp	r3, #4
    hspi->State = HAL_SPI_STATE_BUSY_TX_RX;
 8002064:	bf1c      	itt	ne
 8002066:	2305      	movne	r3, #5
 8002068:	f884 3051 	strbne.w	r3, [r4, #81]	; 0x51
  hspi->ErrorCode   = HAL_SPI_ERROR_NONE;
 800206c:	2300      	movs	r3, #0
 800206e:	6563      	str	r3, [r4, #84]	; 0x54
  hspi->TxISR       = NULL;
 8002070:	e9c4 3310 	strd	r3, r3, [r4, #64]	; 0x40
  if ((hspi->Instance->CR1 & SPI_CR1_SPE) != SPI_CR1_SPE)
 8002074:	6823      	ldr	r3, [r4, #0]
  hspi->RxXferCount = Size;
 8002076:	87e6      	strh	r6, [r4, #62]	; 0x3e
  hspi->TxXferCount = Size;
 8002078:	86e6      	strh	r6, [r4, #54]	; 0x36
  if ((hspi->Instance->CR1 & SPI_CR1_SPE) != SPI_CR1_SPE)
 800207a:	6819      	ldr	r1, [r3, #0]
  hspi->RxXferSize  = Size;
 800207c:	87a6      	strh	r6, [r4, #60]	; 0x3c
  if ((hspi->Instance->CR1 & SPI_CR1_SPE) != SPI_CR1_SPE)
 800207e:	0649      	lsls	r1, r1, #25
    __HAL_SPI_ENABLE(hspi);
 8002080:	bf58      	it	pl
 8002082:	6819      	ldrpl	r1, [r3, #0]
  hspi->pTxBuffPtr  = (uint8_t *)pTxData;
 8002084:	6325      	str	r5, [r4, #48]	; 0x30
    __HAL_SPI_ENABLE(hspi);
 8002086:	bf58      	it	pl
 8002088:	f041 0140 	orrpl.w	r1, r1, #64	; 0x40
  hspi->TxXferSize  = Size;
 800208c:	86a6      	strh	r6, [r4, #52]	; 0x34
    __HAL_SPI_ENABLE(hspi);
 800208e:	bf58      	it	pl
 8002090:	6019      	strpl	r1, [r3, #0]
  if (hspi->Init.DataSize == SPI_DATASIZE_16BIT)
 8002092:	68e1      	ldr	r1, [r4, #12]
 8002094:	f5b1 6f00 	cmp.w	r1, #2048	; 0x800
 8002098:	d151      	bne.n	800213e <HAL_SPI_TransmitReceive+0x13a>
    if ((hspi->Init.Mode == SPI_MODE_SLAVE) || (initial_TxXferCount == 0x01U))
 800209a:	b10a      	cbz	r2, 80020a0 <HAL_SPI_TransmitReceive+0x9c>
 800209c:	2e01      	cmp	r6, #1
 800209e:	d107      	bne.n	80020b0 <HAL_SPI_TransmitReceive+0xac>
      hspi->Instance->DR = *((uint16_t *)hspi->pTxBuffPtr);
 80020a0:	f835 2b02 	ldrh.w	r2, [r5], #2
 80020a4:	60da      	str	r2, [r3, #12]
      hspi->TxXferCount--;
 80020a6:	8ee3      	ldrh	r3, [r4, #54]	; 0x36
      hspi->pTxBuffPtr += sizeof(uint16_t);
 80020a8:	6325      	str	r5, [r4, #48]	; 0x30
      hspi->TxXferCount--;
 80020aa:	3b01      	subs	r3, #1
 80020ac:	b29b      	uxth	r3, r3
 80020ae:	86e3      	strh	r3, [r4, #54]	; 0x36
        txallowed = 1U;
 80020b0:	2501      	movs	r5, #1
    while ((hspi->TxXferCount > 0U) || (hspi->RxXferCount > 0U))
 80020b2:	8ee3      	ldrh	r3, [r4, #54]	; 0x36
 80020b4:	b29b      	uxth	r3, r3
 80020b6:	b96b      	cbnz	r3, 80020d4 <HAL_SPI_TransmitReceive+0xd0>
 80020b8:	8fe3      	ldrh	r3, [r4, #62]	; 0x3e
 80020ba:	b29b      	uxth	r3, r3
 80020bc:	b953      	cbnz	r3, 80020d4 <HAL_SPI_TransmitReceive+0xd0>
  if (SPI_EndRxTxTransaction(hspi, Timeout, tickstart) != HAL_OK)
 80020be:	463a      	mov	r2, r7
 80020c0:	4641      	mov	r1, r8
 80020c2:	4620      	mov	r0, r4
 80020c4:	f7ff feb0 	bl	8001e28 <SPI_EndRxTxTransaction>
 80020c8:	2800      	cmp	r0, #0
 80020ca:	d07b      	beq.n	80021c4 <HAL_SPI_TransmitReceive+0x1c0>
    hspi->ErrorCode = HAL_SPI_ERROR_FLAG;
 80020cc:	2320      	movs	r3, #32
 80020ce:	6563      	str	r3, [r4, #84]	; 0x54
    errorcode = HAL_ERROR;
 80020d0:	2001      	movs	r0, #1
 80020d2:	e02b      	b.n	800212c <HAL_SPI_TransmitReceive+0x128>
      if ((__HAL_SPI_GET_FLAG(hspi, SPI_FLAG_TXE)) && (hspi->TxXferCount > 0U) && (txallowed == 1U))
 80020d4:	6821      	ldr	r1, [r4, #0]
 80020d6:	688b      	ldr	r3, [r1, #8]
 80020d8:	079a      	lsls	r2, r3, #30
 80020da:	d50d      	bpl.n	80020f8 <HAL_SPI_TransmitReceive+0xf4>
 80020dc:	8ee3      	ldrh	r3, [r4, #54]	; 0x36
 80020de:	b29b      	uxth	r3, r3
 80020e0:	b153      	cbz	r3, 80020f8 <HAL_SPI_TransmitReceive+0xf4>
 80020e2:	b14d      	cbz	r5, 80020f8 <HAL_SPI_TransmitReceive+0xf4>
        txallowed = 0U;
 80020e4:	2500      	movs	r5, #0
        hspi->Instance->DR = *((uint16_t *)hspi->pTxBuffPtr);
 80020e6:	6b23      	ldr	r3, [r4, #48]	; 0x30
 80020e8:	f833 2b02 	ldrh.w	r2, [r3], #2
 80020ec:	60ca      	str	r2, [r1, #12]
        hspi->pTxBuffPtr += sizeof(uint16_t);
 80020ee:	6323      	str	r3, [r4, #48]	; 0x30
        hspi->TxXferCount--;
 80020f0:	8ee3      	ldrh	r3, [r4, #54]	; 0x36
 80020f2:	3b01      	subs	r3, #1
 80020f4:	b29b      	uxth	r3, r3
 80020f6:	86e3      	strh	r3, [r4, #54]	; 0x36
      if ((__HAL_SPI_GET_FLAG(hspi, SPI_FLAG_RXNE)) && (hspi->RxXferCount > 0U))
 80020f8:	688a      	ldr	r2, [r1, #8]
 80020fa:	f012 0201 	ands.w	r2, r2, #1
 80020fe:	d00c      	beq.n	800211a <HAL_SPI_TransmitReceive+0x116>
 8002100:	8fe3      	ldrh	r3, [r4, #62]	; 0x3e
 8002102:	b29b      	uxth	r3, r3
 8002104:	b14b      	cbz	r3, 800211a <HAL_SPI_TransmitReceive+0x116>
        txallowed = 1U;
 8002106:	4615      	mov	r5, r2
        *((uint16_t *)hspi->pRxBuffPtr) = (uint16_t)hspi->Instance->DR;
 8002108:	68c9      	ldr	r1, [r1, #12]
 800210a:	6ba3      	ldr	r3, [r4, #56]	; 0x38
 800210c:	f823 1b02 	strh.w	r1, [r3], #2
        hspi->pRxBuffPtr += sizeof(uint16_t);
 8002110:	63a3      	str	r3, [r4, #56]	; 0x38
        hspi->RxXferCount--;
 8002112:	8fe3      	ldrh	r3, [r4, #62]	; 0x3e
 8002114:	3b01      	subs	r3, #1
 8002116:	b29b      	uxth	r3, r3
 8002118:	87e3      	strh	r3, [r4, #62]	; 0x3e
      if (((HAL_GetTick() - tickstart) >=  Timeout) && (Timeout != HAL_MAX_DELAY))
 800211a:	f7fe fb55 	bl	80007c8 <HAL_GetTick>
 800211e:	1bc0      	subs	r0, r0, r7
 8002120:	4540      	cmp	r0, r8
 8002122:	d3c6      	bcc.n	80020b2 <HAL_SPI_TransmitReceive+0xae>
 8002124:	f1b8 3fff 	cmp.w	r8, #4294967295
 8002128:	d0c3      	beq.n	80020b2 <HAL_SPI_TransmitReceive+0xae>
        errorcode = HAL_TIMEOUT;
 800212a:	2003      	movs	r0, #3
  hspi->State = HAL_SPI_STATE_READY;
 800212c:	2301      	movs	r3, #1
 800212e:	f884 3051 	strb.w	r3, [r4, #81]	; 0x51
  __HAL_UNLOCK(hspi);
 8002132:	2300      	movs	r3, #0
 8002134:	f884 3050 	strb.w	r3, [r4, #80]	; 0x50
}
 8002138:	b003      	add	sp, #12
 800213a:	e8bd 83f0 	ldmia.w	sp!, {r4, r5, r6, r7, r8, r9, pc}
    if ((hspi->Init.Mode == SPI_MODE_SLAVE) || (initial_TxXferCount == 0x01U))
 800213e:	b10a      	cbz	r2, 8002144 <HAL_SPI_TransmitReceive+0x140>
 8002140:	2e01      	cmp	r6, #1
 8002142:	d108      	bne.n	8002156 <HAL_SPI_TransmitReceive+0x152>
      *((__IO uint8_t *)&hspi->Instance->DR) = (*hspi->pTxBuffPtr);
 8002144:	782a      	ldrb	r2, [r5, #0]
 8002146:	731a      	strb	r2, [r3, #12]
      hspi->pTxBuffPtr += sizeof(uint8_t);
 8002148:	6b23      	ldr	r3, [r4, #48]	; 0x30
 800214a:	3301      	adds	r3, #1
 800214c:	6323      	str	r3, [r4, #48]	; 0x30
      hspi->TxXferCount--;
 800214e:	8ee3      	ldrh	r3, [r4, #54]	; 0x36
 8002150:	3b01      	subs	r3, #1
 8002152:	b29b      	uxth	r3, r3
 8002154:	86e3      	strh	r3, [r4, #54]	; 0x36
        txallowed = 1U;
 8002156:	2501      	movs	r5, #1
    while ((hspi->TxXferCount > 0U) || (hspi->RxXferCount > 0U))
 8002158:	8ee3      	ldrh	r3, [r4, #54]	; 0x36
 800215a:	b29b      	uxth	r3, r3
 800215c:	b91b      	cbnz	r3, 8002166 <HAL_SPI_TransmitReceive+0x162>
 800215e:	8fe3      	ldrh	r3, [r4, #62]	; 0x3e
 8002160:	b29b      	uxth	r3, r3
 8002162:	2b00      	cmp	r3, #0
 8002164:	d0ab      	beq.n	80020be <HAL_SPI_TransmitReceive+0xba>
      if ((__HAL_SPI_GET_FLAG(hspi, SPI_FLAG_TXE)) && (hspi->TxXferCount > 0U) && (txallowed == 1U))
 8002166:	6822      	ldr	r2, [r4, #0]
 8002168:	6893      	ldr	r3, [r2, #8]
 800216a:	079b      	lsls	r3, r3, #30
 800216c:	d50e      	bpl.n	800218c <HAL_SPI_TransmitReceive+0x188>
 800216e:	8ee3      	ldrh	r3, [r4, #54]	; 0x36
 8002170:	b29b      	uxth	r3, r3
 8002172:	b15b      	cbz	r3, 800218c <HAL_SPI_TransmitReceive+0x188>
 8002174:	b155      	cbz	r5, 800218c <HAL_SPI_TransmitReceive+0x188>
        txallowed = 0U;
 8002176:	2500      	movs	r5, #0
        *(__IO uint8_t *)&hspi->Instance->DR = (*hspi->pTxBuffPtr);
 8002178:	6b23      	ldr	r3, [r4, #48]	; 0x30
 800217a:	781b      	ldrb	r3, [r3, #0]
 800217c:	7313      	strb	r3, [r2, #12]
        hspi->pTxBuffPtr++;
 800217e:	6b23      	ldr	r3, [r4, #48]	; 0x30
 8002180:	3301      	adds	r3, #1
 8002182:	6323      	str	r3, [r4, #48]	; 0x30
        hspi->TxXferCount--;
 8002184:	8ee3      	ldrh	r3, [r4, #54]	; 0x36
 8002186:	3b01      	subs	r3, #1
 8002188:	b29b      	uxth	r3, r3
 800218a:	86e3      	strh	r3, [r4, #54]	; 0x36
      if ((__HAL_SPI_GET_FLAG(hspi, SPI_FLAG_RXNE)) && (hspi->RxXferCount > 0U))
 800218c:	6822      	ldr	r2, [r4, #0]
 800218e:	6891      	ldr	r1, [r2, #8]
 8002190:	f011 0101 	ands.w	r1, r1, #1
 8002194:	d00d      	beq.n	80021b2 <HAL_SPI_TransmitReceive+0x1ae>
 8002196:	8fe3      	ldrh	r3, [r4, #62]	; 0x3e
 8002198:	b29b      	uxth	r3, r3
 800219a:	b153      	cbz	r3, 80021b2 <HAL_SPI_TransmitReceive+0x1ae>
        txallowed = 1U;
 800219c:	460d      	mov	r5, r1
        (*(uint8_t *)hspi->pRxBuffPtr) = hspi->Instance->DR;
 800219e:	68d2      	ldr	r2, [r2, #12]
 80021a0:	6ba3      	ldr	r3, [r4, #56]	; 0x38
 80021a2:	701a      	strb	r2, [r3, #0]
        hspi->pRxBuffPtr++;
 80021a4:	6ba3      	ldr	r3, [r4, #56]	; 0x38
 80021a6:	3301      	adds	r3, #1
 80021a8:	63a3      	str	r3, [r4, #56]	; 0x38
        hspi->RxXferCount--;
 80021aa:	8fe3      	ldrh	r3, [r4, #62]	; 0x3e
 80021ac:	3b01      	subs	r3, #1
 80021ae:	b29b      	uxth	r3, r3
 80021b0:	87e3      	strh	r3, [r4, #62]	; 0x3e
      if ((((HAL_GetTick() - tickstart) >=  Timeout) && ((Timeout != HAL_MAX_DELAY))) || (Timeout == 0U))
 80021b2:	f7fe fb09 	bl	80007c8 <HAL_GetTick>
 80021b6:	1bc0      	subs	r0, r0, r7
 80021b8:	4540      	cmp	r0, r8
 80021ba:	d3cd      	bcc.n	8002158 <HAL_SPI_TransmitReceive+0x154>
 80021bc:	f1b8 3fff 	cmp.w	r8, #4294967295
 80021c0:	d0ca      	beq.n	8002158 <HAL_SPI_TransmitReceive+0x154>
 80021c2:	e7b2      	b.n	800212a <HAL_SPI_TransmitReceive+0x126>
  if (hspi->Init.Direction == SPI_DIRECTION_2LINES)
 80021c4:	68a3      	ldr	r3, [r4, #8]
 80021c6:	2b00      	cmp	r3, #0
 80021c8:	d1b0      	bne.n	800212c <HAL_SPI_TransmitReceive+0x128>
    __HAL_SPI_CLEAR_OVRFLAG(hspi);
 80021ca:	6823      	ldr	r3, [r4, #0]
 80021cc:	9001      	str	r0, [sp, #4]
 80021ce:	68da      	ldr	r2, [r3, #12]
 80021d0:	9201      	str	r2, [sp, #4]
 80021d2:	689b      	ldr	r3, [r3, #8]
 80021d4:	9301      	str	r3, [sp, #4]
 80021d6:	9b01      	ldr	r3, [sp, #4]
 80021d8:	e7a8      	b.n	800212c <HAL_SPI_TransmitReceive+0x128>
    errorcode = HAL_BUSY;
 80021da:	2002      	movs	r0, #2
 80021dc:	e7a6      	b.n	800212c <HAL_SPI_TransmitReceive+0x128>
  __HAL_LOCK(hspi);
 80021de:	2002      	movs	r0, #2
 80021e0:	e7aa      	b.n	8002138 <HAL_SPI_TransmitReceive+0x134>

080021e2 <HAL_SPI_Receive>:
{
 80021e2:	e92d 41f3 	stmdb	sp!, {r0, r1, r4, r5, r6, r7, r8, lr}
 80021e6:	461d      	mov	r5, r3
  if ((hspi->Init.Mode == SPI_MODE_MASTER) && (hspi->Init.Direction == SPI_DIRECTION_2LINES))
 80021e8:	6843      	ldr	r3, [r0, #4]
{
 80021ea:	4604      	mov	r4, r0
  if ((hspi->Init.Mode == SPI_MODE_MASTER) && (hspi->Init.Direction == SPI_DIRECTION_2LINES))
 80021ec:	f5b3 7f82 	cmp.w	r3, #260	; 0x104
{
 80021f0:	4688      	mov	r8, r1
 80021f2:	4616      	mov	r6, r2
  if ((hspi->Init.Mode == SPI_MODE_MASTER) && (hspi->Init.Direction == SPI_DIRECTION_2LINES))
 80021f4:	d10c      	bne.n	8002210 <HAL_SPI_Receive+0x2e>
 80021f6:	6883      	ldr	r3, [r0, #8]
 80021f8:	b953      	cbnz	r3, 8002210 <HAL_SPI_Receive+0x2e>
    hspi->State = HAL_SPI_STATE_BUSY_RX;
 80021fa:	2304      	movs	r3, #4
 80021fc:	f880 3051 	strb.w	r3, [r0, #81]	; 0x51
    return HAL_SPI_TransmitReceive(hspi, pData, pData, Size, Timeout);
 8002200:	4613      	mov	r3, r2
 8002202:	9500      	str	r5, [sp, #0]
 8002204:	460a      	mov	r2, r1
 8002206:	f7ff fefd 	bl	8002004 <HAL_SPI_TransmitReceive>
}
 800220a:	b002      	add	sp, #8
 800220c:	e8bd 81f0 	ldmia.w	sp!, {r4, r5, r6, r7, r8, pc}
  __HAL_LOCK(hspi);
 8002210:	f894 3050 	ldrb.w	r3, [r4, #80]	; 0x50
 8002214:	2b01      	cmp	r3, #1
 8002216:	d07b      	beq.n	8002310 <HAL_SPI_Receive+0x12e>
 8002218:	2301      	movs	r3, #1
 800221a:	f884 3050 	strb.w	r3, [r4, #80]	; 0x50
  tickstart = HAL_GetTick();
 800221e:	f7fe fad3 	bl	80007c8 <HAL_GetTick>
  if (hspi->State != HAL_SPI_STATE_READY)
 8002222:	f894 3051 	ldrb.w	r3, [r4, #81]	; 0x51
  tickstart = HAL_GetTick();
 8002226:	4607      	mov	r7, r0
  if (hspi->State != HAL_SPI_STATE_READY)
 8002228:	2b01      	cmp	r3, #1
 800222a:	b2d8      	uxtb	r0, r3
 800222c:	d16e      	bne.n	800230c <HAL_SPI_Receive+0x12a>
  if ((pData == NULL) || (Size == 0U))
 800222e:	f1b8 0f00 	cmp.w	r8, #0
 8002232:	d059      	beq.n	80022e8 <HAL_SPI_Receive+0x106>
 8002234:	2e00      	cmp	r6, #0
 8002236:	d057      	beq.n	80022e8 <HAL_SPI_Receive+0x106>
  hspi->State       = HAL_SPI_STATE_BUSY_RX;
 8002238:	2304      	movs	r3, #4
 800223a:	f884 3051 	strb.w	r3, [r4, #81]	; 0x51
  hspi->ErrorCode   = HAL_SPI_ERROR_NONE;
 800223e:	2300      	movs	r3, #0
  if (hspi->Init.Direction == SPI_DIRECTION_1LINE)
 8002240:	68a2      	ldr	r2, [r4, #8]
  hspi->ErrorCode   = HAL_SPI_ERROR_NONE;
 8002242:	6563      	str	r3, [r4, #84]	; 0x54
  hspi->TxISR       = NULL;
 8002244:	e9c4 3310 	strd	r3, r3, [r4, #64]	; 0x40
  hspi->RxXferCount = Size;
 8002248:	87e6      	strh	r6, [r4, #62]	; 0x3e
  hspi->pTxBuffPtr  = (uint8_t *)NULL;
 800224a:	6323      	str	r3, [r4, #48]	; 0x30
  hspi->TxXferCount = 0U;
 800224c:	86e3      	strh	r3, [r4, #54]	; 0x36
  hspi->TxXferSize  = 0U;
 800224e:	86a3      	strh	r3, [r4, #52]	; 0x34
 8002250:	6823      	ldr	r3, [r4, #0]
  if (hspi->Init.Direction == SPI_DIRECTION_1LINE)
 8002252:	f5b2 4f00 	cmp.w	r2, #32768	; 0x8000
    SPI_1LINE_RX(hspi);
 8002256:	bf08      	it	eq
 8002258:	681a      	ldreq	r2, [r3, #0]
  hspi->RxXferSize  = Size;
 800225a:	87a6      	strh	r6, [r4, #60]	; 0x3c
    SPI_1LINE_RX(hspi);
 800225c:	bf08      	it	eq
 800225e:	f422 4280 	biceq.w	r2, r2, #16384	; 0x4000
  hspi->pRxBuffPtr  = (uint8_t *)pData;
 8002262:	f8c4 8038 	str.w	r8, [r4, #56]	; 0x38
    SPI_1LINE_RX(hspi);
 8002266:	bf08      	it	eq
 8002268:	601a      	streq	r2, [r3, #0]
  if ((hspi->Instance->CR1 & SPI_CR1_SPE) != SPI_CR1_SPE)
 800226a:	681a      	ldr	r2, [r3, #0]
 800226c:	0656      	lsls	r6, r2, #25
    __HAL_SPI_ENABLE(hspi);
 800226e:	bf5e      	ittt	pl
 8002270:	681a      	ldrpl	r2, [r3, #0]
 8002272:	f042 0240 	orrpl.w	r2, r2, #64	; 0x40
 8002276:	601a      	strpl	r2, [r3, #0]
  if (hspi->Init.DataSize == SPI_DATASIZE_8BIT)
 8002278:	68e3      	ldr	r3, [r4, #12]
 800227a:	b1f3      	cbz	r3, 80022ba <HAL_SPI_Receive+0xd8>
    while (hspi->RxXferCount > 0U)
 800227c:	8fe3      	ldrh	r3, [r4, #62]	; 0x3e
 800227e:	b29b      	uxth	r3, r3
 8002280:	b1fb      	cbz	r3, 80022c2 <HAL_SPI_Receive+0xe0>
      if (__HAL_SPI_GET_FLAG(hspi, SPI_FLAG_RXNE))
 8002282:	6823      	ldr	r3, [r4, #0]
 8002284:	689a      	ldr	r2, [r3, #8]
 8002286:	07d2      	lsls	r2, r2, #31
 8002288:	d535      	bpl.n	80022f6 <HAL_SPI_Receive+0x114>
        *((uint16_t *)hspi->pRxBuffPtr) = (uint16_t)hspi->Instance->DR;
 800228a:	68da      	ldr	r2, [r3, #12]
 800228c:	6ba3      	ldr	r3, [r4, #56]	; 0x38
 800228e:	f823 2b02 	strh.w	r2, [r3], #2
        hspi->pRxBuffPtr += sizeof(uint16_t);
 8002292:	63a3      	str	r3, [r4, #56]	; 0x38
        hspi->RxXferCount--;
 8002294:	8fe3      	ldrh	r3, [r4, #62]	; 0x3e
 8002296:	3b01      	subs	r3, #1
 8002298:	b29b      	uxth	r3, r3
 800229a:	87e3      	strh	r3, [r4, #62]	; 0x3e
 800229c:	e7ee      	b.n	800227c <HAL_SPI_Receive+0x9a>
      if (__HAL_SPI_GET_FLAG(hspi, SPI_FLAG_RXNE))
 800229e:	6823      	ldr	r3, [r4, #0]
 80022a0:	689a      	ldr	r2, [r3, #8]
 80022a2:	07d0      	lsls	r0, r2, #31
 80022a4:	d518      	bpl.n	80022d8 <HAL_SPI_Receive+0xf6>
        (* (uint8_t *)hspi->pRxBuffPtr) = *(__IO uint8_t *)&hspi->Instance->DR;
 80022a6:	7b1b      	ldrb	r3, [r3, #12]
 80022a8:	6ba2      	ldr	r2, [r4, #56]	; 0x38
 80022aa:	7013      	strb	r3, [r2, #0]
        hspi->pRxBuffPtr += sizeof(uint8_t);
 80022ac:	6ba3      	ldr	r3, [r4, #56]	; 0x38
 80022ae:	3301      	adds	r3, #1
 80022b0:	63a3      	str	r3, [r4, #56]	; 0x38
        hspi->RxXferCount--;
 80022b2:	8fe3      	ldrh	r3, [r4, #62]	; 0x3e
 80022b4:	3b01      	subs	r3, #1
 80022b6:	b29b      	uxth	r3, r3
 80022b8:	87e3      	strh	r3, [r4, #62]	; 0x3e
    while (hspi->RxXferCount > 0U)
 80022ba:	8fe3      	ldrh	r3, [r4, #62]	; 0x3e
 80022bc:	b29b      	uxth	r3, r3
 80022be:	2b00      	cmp	r3, #0
 80022c0:	d1ed      	bne.n	800229e <HAL_SPI_Receive+0xbc>
  if (SPI_EndRxTransaction(hspi, Timeout, tickstart) != HAL_OK)
 80022c2:	463a      	mov	r2, r7
 80022c4:	4629      	mov	r1, r5
 80022c6:	4620      	mov	r0, r4
 80022c8:	f7ff fd87 	bl	8001dda <SPI_EndRxTransaction>
 80022cc:	b9d8      	cbnz	r0, 8002306 <HAL_SPI_Receive+0x124>
  if (hspi->ErrorCode != HAL_SPI_ERROR_NONE)
 80022ce:	6d60      	ldr	r0, [r4, #84]	; 0x54
    errorcode = HAL_BUSY;
 80022d0:	3800      	subs	r0, #0
 80022d2:	bf18      	it	ne
 80022d4:	2001      	movne	r0, #1
error :
 80022d6:	e007      	b.n	80022e8 <HAL_SPI_Receive+0x106>
        if ((((HAL_GetTick() - tickstart) >=  Timeout) && (Timeout != HAL_MAX_DELAY)) || (Timeout == 0U))
 80022d8:	f7fe fa76 	bl	80007c8 <HAL_GetTick>
 80022dc:	1bc0      	subs	r0, r0, r7
 80022de:	42a8      	cmp	r0, r5
 80022e0:	d3eb      	bcc.n	80022ba <HAL_SPI_Receive+0xd8>
 80022e2:	1c69      	adds	r1, r5, #1
 80022e4:	d0e9      	beq.n	80022ba <HAL_SPI_Receive+0xd8>
          errorcode = HAL_TIMEOUT;
 80022e6:	2003      	movs	r0, #3
  hspi->State = HAL_SPI_STATE_READY;
 80022e8:	2301      	movs	r3, #1
 80022ea:	f884 3051 	strb.w	r3, [r4, #81]	; 0x51
  __HAL_UNLOCK(hspi);
 80022ee:	2300      	movs	r3, #0
 80022f0:	f884 3050 	strb.w	r3, [r4, #80]	; 0x50
  return errorcode;
 80022f4:	e789      	b.n	800220a <HAL_SPI_Receive+0x28>
        if ((((HAL_GetTick() - tickstart) >=  Timeout) && (Timeout != HAL_MAX_DELAY)) || (Timeout == 0U))
 80022f6:	f7fe fa67 	bl	80007c8 <HAL_GetTick>
 80022fa:	1bc0      	subs	r0, r0, r7
 80022fc:	42a8      	cmp	r0, r5
 80022fe:	d3bd      	bcc.n	800227c <HAL_SPI_Receive+0x9a>
 8002300:	1c6b      	adds	r3, r5, #1
 8002302:	d0bb      	beq.n	800227c <HAL_SPI_Receive+0x9a>
 8002304:	e7ef      	b.n	80022e6 <HAL_SPI_Receive+0x104>
    hspi->ErrorCode = HAL_SPI_ERROR_FLAG;
 8002306:	2320      	movs	r3, #32
 8002308:	6563      	str	r3, [r4, #84]	; 0x54
 800230a:	e7e0      	b.n	80022ce <HAL_SPI_Receive+0xec>
    errorcode = HAL_BUSY;
 800230c:	2002      	movs	r0, #2
 800230e:	e7eb      	b.n	80022e8 <HAL_SPI_Receive+0x106>
  __HAL_LOCK(hspi);
 8002310:	2002      	movs	r0, #2
 8002312:	e77a      	b.n	800220a <HAL_SPI_Receive+0x28>

08002314 <UART_EndRxTransfer>:
  * @retval None
  */
static void UART_EndRxTransfer(UART_HandleTypeDef *huart)
{
  /* Disable RXNE, PE and ERR (Frame error, noise error, overrun error) interrupts */
  CLEAR_BIT(huart->Instance->CR1, (USART_CR1_RXNEIE | USART_CR1_PEIE));
 8002314:	6803      	ldr	r3, [r0, #0]
 8002316:	68da      	ldr	r2, [r3, #12]
 8002318:	f422 7290 	bic.w	r2, r2, #288	; 0x120
 800231c:	60da      	str	r2, [r3, #12]
  CLEAR_BIT(huart->Instance->CR3, USART_CR3_EIE);
 800231e:	695a      	ldr	r2, [r3, #20]
 8002320:	f022 0201 	bic.w	r2, r2, #1
 8002324:	615a      	str	r2, [r3, #20]

  /* At end of Rx process, restore huart->RxState to Ready */
  huart->RxState = HAL_UART_STATE_READY;
 8002326:	2320      	movs	r3, #32
 8002328:	f880 303a 	strb.w	r3, [r0, #58]	; 0x3a
}
 800232c:	4770      	bx	lr
	...

08002330 <UART_SetConfig>:
  * @param  huart  Pointer to a UART_HandleTypeDef structure that contains
  *                the configuration information for the specified UART module.
  * @retval None
  */
static void UART_SetConfig(UART_HandleTypeDef *huart)
{
 8002330:	b538      	push	{r3, r4, r5, lr}
 8002332:	4605      	mov	r5, r0
  assert_param(IS_UART_MODE(huart->Init.Mode));

  /*-------------------------- USART CR2 Configuration -----------------------*/
  /* Configure the UART Stop Bits: Set STOP[13:12] bits
     according to huart->Init.StopBits value */
  MODIFY_REG(huart->Instance->CR2, USART_CR2_STOP, huart->Init.StopBits);
 8002334:	6803      	ldr	r3, [r0, #0]
 8002336:	68c1      	ldr	r1, [r0, #12]
 8002338:	691a      	ldr	r2, [r3, #16]
 800233a:	2419      	movs	r4, #25
 800233c:	f422 5240 	bic.w	r2, r2, #12288	; 0x3000
 8002340:	430a      	orrs	r2, r1
 8002342:	611a      	str	r2, [r3, #16]
  tmpreg = (uint32_t)huart->Init.WordLength | huart->Init.Parity | huart->Init.Mode | huart->Init.OverSampling;
  MODIFY_REG(huart->Instance->CR1,
             (uint32_t)(USART_CR1_M | USART_CR1_PCE | USART_CR1_PS | USART_CR1_TE | USART_CR1_RE | USART_CR1_OVER8),
             tmpreg);
#else
  tmpreg = (uint32_t)huart->Init.WordLength | huart->Init.Parity | huart->Init.Mode;
 8002344:	6882      	ldr	r2, [r0, #8]
 8002346:	6900      	ldr	r0, [r0, #16]
  MODIFY_REG(huart->Instance->CR1,
 8002348:	68d9      	ldr	r1, [r3, #12]
  tmpreg = (uint32_t)huart->Init.WordLength | huart->Init.Parity | huart->Init.Mode;
 800234a:	4302      	orrs	r2, r0
 800234c:	6968      	ldr	r0, [r5, #20]
  MODIFY_REG(huart->Instance->CR1,
 800234e:	f421 51b0 	bic.w	r1, r1, #5632	; 0x1600
 8002352:	f021 010c 	bic.w	r1, r1, #12
  tmpreg = (uint32_t)huart->Init.WordLength | huart->Init.Parity | huart->Init.Mode;
 8002356:	4302      	orrs	r2, r0
  MODIFY_REG(huart->Instance->CR1,
 8002358:	430a      	orrs	r2, r1
 800235a:	60da      	str	r2, [r3, #12]
             tmpreg);
#endif /* USART_CR1_OVER8 */

  /*-------------------------- USART CR3 Configuration -----------------------*/
  /* Configure the UART HFC: Set CTSE and RTSE bits according to huart->Init.HwFlowCtl value */
  MODIFY_REG(huart->Instance->CR3, (USART_CR3_RTSE | USART_CR3_CTSE), huart->Init.HwFlowCtl);
 800235c:	695a      	ldr	r2, [r3, #20]
 800235e:	69a9      	ldr	r1, [r5, #24]
 8002360:	f422 7240 	bic.w	r2, r2, #768	; 0x300
 8002364:	430a      	orrs	r2, r1
 8002366:	615a      	str	r2, [r3, #20]
      huart->Instance->BRR = UART_BRR_SAMPLING16(pclk, huart->Init.BaudRate);
    }
  }
#else
  /*-------------------------- USART BRR Configuration ---------------------*/
  if(huart->Instance == USART1)
 8002368:	4a0d      	ldr	r2, [pc, #52]	; (80023a0 <UART_SetConfig+0x70>)
 800236a:	4293      	cmp	r3, r2
 800236c:	d114      	bne.n	8002398 <UART_SetConfig+0x68>
  {
    pclk = HAL_RCC_GetPCLK2Freq();
 800236e:	f7ff fb65 	bl	8001a3c <HAL_RCC_GetPCLK2Freq>
    huart->Instance->BRR = UART_BRR_SAMPLING16(pclk, huart->Init.BaudRate);
  }
  else
  {
    pclk = HAL_RCC_GetPCLK1Freq();
    huart->Instance->BRR = UART_BRR_SAMPLING16(pclk, huart->Init.BaudRate);
 8002372:	4344      	muls	r4, r0
 8002374:	686b      	ldr	r3, [r5, #4]
 8002376:	2264      	movs	r2, #100	; 0x64
 8002378:	009b      	lsls	r3, r3, #2
 800237a:	fbb4 f4f3 	udiv	r4, r4, r3
 800237e:	fbb4 f1f2 	udiv	r1, r4, r2
 8002382:	fb02 4311 	mls	r3, r2, r1, r4
 8002386:	011b      	lsls	r3, r3, #4
 8002388:	3332      	adds	r3, #50	; 0x32
 800238a:	fbb3 f3f2 	udiv	r3, r3, r2
 800238e:	6828      	ldr	r0, [r5, #0]
 8002390:	eb03 1301 	add.w	r3, r3, r1, lsl #4
 8002394:	6083      	str	r3, [r0, #8]
  }
#endif /* USART_CR1_OVER8 */
}
 8002396:	bd38      	pop	{r3, r4, r5, pc}
    pclk = HAL_RCC_GetPCLK1Freq();
 8002398:	f7ff fb40 	bl	8001a1c <HAL_RCC_GetPCLK1Freq>
 800239c:	e7e9      	b.n	8002372 <UART_SetConfig+0x42>
 800239e:	bf00      	nop
 80023a0:	40013800 	.word	0x40013800

080023a4 <HAL_UART_Init>:
{
 80023a4:	b510      	push	{r4, lr}
  if (huart == NULL)
 80023a6:	4604      	mov	r4, r0
 80023a8:	b340      	cbz	r0, 80023fc <HAL_UART_Init+0x58>
  if (huart->gState == HAL_UART_STATE_RESET)
 80023aa:	f890 3039 	ldrb.w	r3, [r0, #57]	; 0x39
 80023ae:	f003 02ff 	and.w	r2, r3, #255	; 0xff
 80023b2:	b91b      	cbnz	r3, 80023bc <HAL_UART_Init+0x18>
    huart->Lock = HAL_UNLOCKED;
 80023b4:	f880 2038 	strb.w	r2, [r0, #56]	; 0x38
    HAL_UART_MspInit(huart);
 80023b8:	f005 fa24 	bl	8007804 <HAL_UART_MspInit>
  huart->gState = HAL_UART_STATE_BUSY;
 80023bc:	2324      	movs	r3, #36	; 0x24
  __HAL_UART_DISABLE(huart);
 80023be:	6822      	ldr	r2, [r4, #0]
  huart->gState = HAL_UART_STATE_BUSY;
 80023c0:	f884 3039 	strb.w	r3, [r4, #57]	; 0x39
  __HAL_UART_DISABLE(huart);
 80023c4:	68d3      	ldr	r3, [r2, #12]
  UART_SetConfig(huart);
 80023c6:	4620      	mov	r0, r4
  __HAL_UART_DISABLE(huart);
 80023c8:	f423 5300 	bic.w	r3, r3, #8192	; 0x2000
 80023cc:	60d3      	str	r3, [r2, #12]
  UART_SetConfig(huart);
 80023ce:	f7ff ffaf 	bl	8002330 <UART_SetConfig>
  CLEAR_BIT(huart->Instance->CR2, (USART_CR2_LINEN | USART_CR2_CLKEN));
 80023d2:	6823      	ldr	r3, [r4, #0]
  huart->ErrorCode = HAL_UART_ERROR_NONE;
 80023d4:	2000      	movs	r0, #0
  CLEAR_BIT(huart->Instance->CR2, (USART_CR2_LINEN | USART_CR2_CLKEN));
 80023d6:	691a      	ldr	r2, [r3, #16]
 80023d8:	f422 4290 	bic.w	r2, r2, #18432	; 0x4800
 80023dc:	611a      	str	r2, [r3, #16]
  CLEAR_BIT(huart->Instance->CR3, (USART_CR3_SCEN | USART_CR3_HDSEL | USART_CR3_IREN));
 80023de:	695a      	ldr	r2, [r3, #20]
 80023e0:	f022 022a 	bic.w	r2, r2, #42	; 0x2a
 80023e4:	615a      	str	r2, [r3, #20]
  __HAL_UART_ENABLE(huart);
 80023e6:	68da      	ldr	r2, [r3, #12]
 80023e8:	f442 5200 	orr.w	r2, r2, #8192	; 0x2000
 80023ec:	60da      	str	r2, [r3, #12]
  huart->gState = HAL_UART_STATE_READY;
 80023ee:	2320      	movs	r3, #32
  huart->ErrorCode = HAL_UART_ERROR_NONE;
 80023f0:	63e0      	str	r0, [r4, #60]	; 0x3c
  huart->gState = HAL_UART_STATE_READY;
 80023f2:	f884 3039 	strb.w	r3, [r4, #57]	; 0x39
  huart->RxState = HAL_UART_STATE_READY;
 80023f6:	f884 303a 	strb.w	r3, [r4, #58]	; 0x3a
}
 80023fa:	bd10      	pop	{r4, pc}
    return HAL_ERROR;
 80023fc:	2001      	movs	r0, #1
 80023fe:	e7fc      	b.n	80023fa <HAL_UART_Init+0x56>

08002400 <HAL_LIN_Init>:
{
 8002400:	b538      	push	{r3, r4, r5, lr}
 8002402:	460d      	mov	r5, r1
  if (huart == NULL)
 8002404:	4604      	mov	r4, r0
 8002406:	2800      	cmp	r0, #0
 8002408:	d033      	beq.n	8002472 <HAL_LIN_Init+0x72>
  if (huart->gState == HAL_UART_STATE_RESET)
 800240a:	f890 3039 	ldrb.w	r3, [r0, #57]	; 0x39
 800240e:	f003 02ff 	and.w	r2, r3, #255	; 0xff
 8002412:	b91b      	cbnz	r3, 800241c <HAL_LIN_Init+0x1c>
    huart->Lock = HAL_UNLOCKED;
 8002414:	f880 2038 	strb.w	r2, [r0, #56]	; 0x38
    HAL_UART_MspInit(huart);
 8002418:	f005 f9f4 	bl	8007804 <HAL_UART_MspInit>
  huart->gState = HAL_UART_STATE_BUSY;
 800241c:	2324      	movs	r3, #36	; 0x24
  __HAL_UART_DISABLE(huart);
 800241e:	6822      	ldr	r2, [r4, #0]
  huart->gState = HAL_UART_STATE_BUSY;
 8002420:	f884 3039 	strb.w	r3, [r4, #57]	; 0x39
  __HAL_UART_DISABLE(huart);
 8002424:	68d3      	ldr	r3, [r2, #12]
  UART_SetConfig(huart);
 8002426:	4620      	mov	r0, r4
  __HAL_UART_DISABLE(huart);
 8002428:	f423 5300 	bic.w	r3, r3, #8192	; 0x2000
 800242c:	60d3      	str	r3, [r2, #12]
  UART_SetConfig(huart);
 800242e:	f7ff ff7f 	bl	8002330 <UART_SetConfig>
  CLEAR_BIT(huart->Instance->CR2, (USART_CR2_CLKEN));
 8002432:	6823      	ldr	r3, [r4, #0]
  huart->ErrorCode = HAL_UART_ERROR_NONE;
 8002434:	2000      	movs	r0, #0
  CLEAR_BIT(huart->Instance->CR2, (USART_CR2_CLKEN));
 8002436:	691a      	ldr	r2, [r3, #16]
 8002438:	f422 6200 	bic.w	r2, r2, #2048	; 0x800
 800243c:	611a      	str	r2, [r3, #16]
  CLEAR_BIT(huart->Instance->CR3, (USART_CR3_HDSEL | USART_CR3_IREN | USART_CR3_SCEN));
 800243e:	695a      	ldr	r2, [r3, #20]
 8002440:	f022 022a 	bic.w	r2, r2, #42	; 0x2a
 8002444:	615a      	str	r2, [r3, #20]
  SET_BIT(huart->Instance->CR2, USART_CR2_LINEN);
 8002446:	691a      	ldr	r2, [r3, #16]
 8002448:	f442 4280 	orr.w	r2, r2, #16384	; 0x4000
 800244c:	611a      	str	r2, [r3, #16]
  CLEAR_BIT(huart->Instance->CR2, USART_CR2_LBDL);
 800244e:	691a      	ldr	r2, [r3, #16]
 8002450:	f022 0220 	bic.w	r2, r2, #32
 8002454:	611a      	str	r2, [r3, #16]
  SET_BIT(huart->Instance->CR2, BreakDetectLength);
 8002456:	691a      	ldr	r2, [r3, #16]
 8002458:	432a      	orrs	r2, r5
 800245a:	611a      	str	r2, [r3, #16]
  __HAL_UART_ENABLE(huart);
 800245c:	68da      	ldr	r2, [r3, #12]
 800245e:	f442 5200 	orr.w	r2, r2, #8192	; 0x2000
 8002462:	60da      	str	r2, [r3, #12]
  huart->gState = HAL_UART_STATE_READY;
 8002464:	2320      	movs	r3, #32
  huart->ErrorCode = HAL_UART_ERROR_NONE;
 8002466:	63e0      	str	r0, [r4, #60]	; 0x3c
  huart->gState = HAL_UART_STATE_READY;
 8002468:	f884 3039 	strb.w	r3, [r4, #57]	; 0x39
  huart->RxState = HAL_UART_STATE_READY;
 800246c:	f884 303a 	strb.w	r3, [r4, #58]	; 0x3a
}
 8002470:	bd38      	pop	{r3, r4, r5, pc}
    return HAL_ERROR;
 8002472:	2001      	movs	r0, #1
 8002474:	e7fc      	b.n	8002470 <HAL_LIN_Init+0x70>

08002476 <HAL_UART_DeInit>:
{
 8002476:	b510      	push	{r4, lr}
  if (huart == NULL)
 8002478:	4604      	mov	r4, r0
 800247a:	b190      	cbz	r0, 80024a2 <HAL_UART_DeInit+0x2c>
  huart->gState = HAL_UART_STATE_BUSY;
 800247c:	2324      	movs	r3, #36	; 0x24
  __HAL_UART_DISABLE(huart);
 800247e:	6802      	ldr	r2, [r0, #0]
  huart->gState = HAL_UART_STATE_BUSY;
 8002480:	f880 3039 	strb.w	r3, [r0, #57]	; 0x39
  __HAL_UART_DISABLE(huart);
 8002484:	68d3      	ldr	r3, [r2, #12]
 8002486:	f423 5300 	bic.w	r3, r3, #8192	; 0x2000
 800248a:	60d3      	str	r3, [r2, #12]
  HAL_UART_MspDeInit(huart);
 800248c:	f005 faae 	bl	80079ec <HAL_UART_MspDeInit>
  huart->ErrorCode = HAL_UART_ERROR_NONE;
 8002490:	2000      	movs	r0, #0
 8002492:	63e0      	str	r0, [r4, #60]	; 0x3c
  __HAL_UNLOCK(huart);
 8002494:	f884 0038 	strb.w	r0, [r4, #56]	; 0x38
  huart->gState = HAL_UART_STATE_RESET;
 8002498:	f884 0039 	strb.w	r0, [r4, #57]	; 0x39
  huart->RxState = HAL_UART_STATE_RESET;
 800249c:	f884 003a 	strb.w	r0, [r4, #58]	; 0x3a
}
 80024a0:	bd10      	pop	{r4, pc}
    return HAL_ERROR;
 80024a2:	2001      	movs	r0, #1
 80024a4:	e7fc      	b.n	80024a0 <HAL_UART_DeInit+0x2a>
	...

080024a8 <HAL_UART_Transmit_DMA>:
{
 80024a8:	b538      	push	{r3, r4, r5, lr}
 80024aa:	4604      	mov	r4, r0
 80024ac:	4613      	mov	r3, r2
  if (huart->gState == HAL_UART_STATE_READY)
 80024ae:	f894 2039 	ldrb.w	r2, [r4, #57]	; 0x39
 80024b2:	2a20      	cmp	r2, #32
 80024b4:	d12a      	bne.n	800250c <HAL_UART_Transmit_DMA+0x64>
    if ((pData == NULL) || (Size == 0U))
 80024b6:	b339      	cbz	r1, 8002508 <HAL_UART_Transmit_DMA+0x60>
 80024b8:	b333      	cbz	r3, 8002508 <HAL_UART_Transmit_DMA+0x60>
    __HAL_LOCK(huart);
 80024ba:	f894 2038 	ldrb.w	r2, [r4, #56]	; 0x38
 80024be:	2a01      	cmp	r2, #1
 80024c0:	d024      	beq.n	800250c <HAL_UART_Transmit_DMA+0x64>
 80024c2:	2201      	movs	r2, #1
    huart->ErrorCode = HAL_UART_ERROR_NONE;
 80024c4:	2500      	movs	r5, #0
    __HAL_LOCK(huart);
 80024c6:	f884 2038 	strb.w	r2, [r4, #56]	; 0x38
    huart->gState = HAL_UART_STATE_BUSY_TX;
 80024ca:	2221      	movs	r2, #33	; 0x21
    huart->TxXferCount = Size;
 80024cc:	84e3      	strh	r3, [r4, #38]	; 0x26
    huart->hdmatx->XferCpltCallback = UART_DMATransmitCplt;
 80024ce:	6b20      	ldr	r0, [r4, #48]	; 0x30
    huart->ErrorCode = HAL_UART_ERROR_NONE;
 80024d0:	63e5      	str	r5, [r4, #60]	; 0x3c
    huart->gState = HAL_UART_STATE_BUSY_TX;
 80024d2:	f884 2039 	strb.w	r2, [r4, #57]	; 0x39
    huart->hdmatx->XferCpltCallback = UART_DMATransmitCplt;
 80024d6:	4a0e      	ldr	r2, [pc, #56]	; (8002510 <HAL_UART_Transmit_DMA+0x68>)
    huart->TxXferSize = Size;
 80024d8:	84a3      	strh	r3, [r4, #36]	; 0x24
    huart->pTxBuffPtr = pData;
 80024da:	6221      	str	r1, [r4, #32]
    huart->hdmatx->XferCpltCallback = UART_DMATransmitCplt;
 80024dc:	6282      	str	r2, [r0, #40]	; 0x28
    huart->hdmatx->XferHalfCpltCallback = UART_DMATxHalfCplt;
 80024de:	4a0d      	ldr	r2, [pc, #52]	; (8002514 <HAL_UART_Transmit_DMA+0x6c>)
 80024e0:	62c2      	str	r2, [r0, #44]	; 0x2c
    huart->hdmatx->XferErrorCallback = UART_DMAError;
 80024e2:	4a0d      	ldr	r2, [pc, #52]	; (8002518 <HAL_UART_Transmit_DMA+0x70>)
    huart->hdmatx->XferAbortCallback = NULL;
 80024e4:	e9c0 250c 	strd	r2, r5, [r0, #48]	; 0x30
    HAL_DMA_Start_IT(huart->hdmatx, *(uint32_t *)tmp, (uint32_t)&huart->Instance->DR, Size);
 80024e8:	6822      	ldr	r2, [r4, #0]
 80024ea:	3204      	adds	r2, #4
 80024ec:	f7fe fdae 	bl	800104c <HAL_DMA_Start_IT>
    __HAL_UART_CLEAR_FLAG(huart, UART_FLAG_TC);
 80024f0:	f06f 0240 	mvn.w	r2, #64	; 0x40
    return HAL_OK;
 80024f4:	4628      	mov	r0, r5
    __HAL_UART_CLEAR_FLAG(huart, UART_FLAG_TC);
 80024f6:	6823      	ldr	r3, [r4, #0]
 80024f8:	601a      	str	r2, [r3, #0]
    __HAL_UNLOCK(huart);
 80024fa:	f884 5038 	strb.w	r5, [r4, #56]	; 0x38
    SET_BIT(huart->Instance->CR3, USART_CR3_DMAT);
 80024fe:	695a      	ldr	r2, [r3, #20]
 8002500:	f042 0280 	orr.w	r2, r2, #128	; 0x80
 8002504:	615a      	str	r2, [r3, #20]
}
 8002506:	bd38      	pop	{r3, r4, r5, pc}
      return HAL_ERROR;
 8002508:	2001      	movs	r0, #1
 800250a:	e7fc      	b.n	8002506 <HAL_UART_Transmit_DMA+0x5e>
    return HAL_BUSY;
 800250c:	2002      	movs	r0, #2
 800250e:	e7fa      	b.n	8002506 <HAL_UART_Transmit_DMA+0x5e>
 8002510:	0800251d 	.word	0x0800251d
 8002514:	0800254b 	.word	0x0800254b
 8002518:	080025cf 	.word	0x080025cf

0800251c <UART_DMATransmitCplt>:
{
 800251c:	b508      	push	{r3, lr}
 800251e:	4603      	mov	r3, r0
  if ((hdma->Instance->CCR & DMA_CCR_CIRC) == 0U)
 8002520:	681b      	ldr	r3, [r3, #0]
  UART_HandleTypeDef *huart = (UART_HandleTypeDef *)((DMA_HandleTypeDef *)hdma)->Parent;
 8002522:	6a40      	ldr	r0, [r0, #36]	; 0x24
  if ((hdma->Instance->CCR & DMA_CCR_CIRC) == 0U)
 8002524:	681b      	ldr	r3, [r3, #0]
 8002526:	f013 0320 	ands.w	r3, r3, #32
 800252a:	d10a      	bne.n	8002542 <UART_DMATransmitCplt+0x26>
    huart->TxXferCount = 0x00U;
 800252c:	84c3      	strh	r3, [r0, #38]	; 0x26
    CLEAR_BIT(huart->Instance->CR3, USART_CR3_DMAT);
 800252e:	6803      	ldr	r3, [r0, #0]
 8002530:	695a      	ldr	r2, [r3, #20]
 8002532:	f022 0280 	bic.w	r2, r2, #128	; 0x80
 8002536:	615a      	str	r2, [r3, #20]
    SET_BIT(huart->Instance->CR1, USART_CR1_TCIE);
 8002538:	68da      	ldr	r2, [r3, #12]
 800253a:	f042 0240 	orr.w	r2, r2, #64	; 0x40
 800253e:	60da      	str	r2, [r3, #12]
}
 8002540:	bd08      	pop	{r3, pc}
    HAL_UART_TxCpltCallback(huart);
 8002542:	f004 fab9 	bl	8006ab8 <HAL_UART_TxCpltCallback>
}
 8002546:	e7fb      	b.n	8002540 <UART_DMATransmitCplt+0x24>

08002548 <HAL_UART_TxHalfCpltCallback>:
 8002548:	4770      	bx	lr

0800254a <UART_DMATxHalfCplt>:
{
 800254a:	b508      	push	{r3, lr}
  HAL_UART_TxHalfCpltCallback(huart);
 800254c:	6a40      	ldr	r0, [r0, #36]	; 0x24
 800254e:	f7ff fffb 	bl	8002548 <HAL_UART_TxHalfCpltCallback>
}
 8002552:	bd08      	pop	{r3, pc}

08002554 <HAL_UART_RxCpltCallback>:
 8002554:	4770      	bx	lr

08002556 <UART_Receive_IT>:
{
 8002556:	b510      	push	{r4, lr}
  if (huart->RxState == HAL_UART_STATE_BUSY_RX)
 8002558:	f890 303a 	ldrb.w	r3, [r0, #58]	; 0x3a
 800255c:	2b22      	cmp	r3, #34	; 0x22
 800255e:	d133      	bne.n	80025c8 <UART_Receive_IT+0x72>
    if (huart->Init.WordLength == UART_WORDLENGTH_9B)
 8002560:	6881      	ldr	r1, [r0, #8]
 8002562:	6904      	ldr	r4, [r0, #16]
 8002564:	f5b1 5f80 	cmp.w	r1, #4096	; 0x1000
 8002568:	6a83      	ldr	r3, [r0, #40]	; 0x28
 800256a:	6802      	ldr	r2, [r0, #0]
 800256c:	d123      	bne.n	80025b6 <UART_Receive_IT+0x60>
        *tmp = (uint16_t)(huart->Instance->DR & (uint16_t)0x01FF);
 800256e:	6852      	ldr	r2, [r2, #4]
      if (huart->Init.Parity == UART_PARITY_NONE)
 8002570:	b9ec      	cbnz	r4, 80025ae <UART_Receive_IT+0x58>
        *tmp = (uint16_t)(huart->Instance->DR & (uint16_t)0x01FF);
 8002572:	f3c2 0208 	ubfx	r2, r2, #0, #9
 8002576:	f823 2b02 	strh.w	r2, [r3], #2
        huart->pRxBuffPtr += 1U;
 800257a:	6283      	str	r3, [r0, #40]	; 0x28
    if (--huart->RxXferCount == 0U)
 800257c:	8dc4      	ldrh	r4, [r0, #46]	; 0x2e
 800257e:	3c01      	subs	r4, #1
 8002580:	b2a4      	uxth	r4, r4
 8002582:	85c4      	strh	r4, [r0, #46]	; 0x2e
 8002584:	b98c      	cbnz	r4, 80025aa <UART_Receive_IT+0x54>
      __HAL_UART_DISABLE_IT(huart, UART_IT_RXNE);
 8002586:	6803      	ldr	r3, [r0, #0]
 8002588:	68da      	ldr	r2, [r3, #12]
 800258a:	f022 0220 	bic.w	r2, r2, #32
 800258e:	60da      	str	r2, [r3, #12]
      __HAL_UART_DISABLE_IT(huart, UART_IT_PE);
 8002590:	68da      	ldr	r2, [r3, #12]
 8002592:	f422 7280 	bic.w	r2, r2, #256	; 0x100
 8002596:	60da      	str	r2, [r3, #12]
      __HAL_UART_DISABLE_IT(huart, UART_IT_ERR);
 8002598:	695a      	ldr	r2, [r3, #20]
 800259a:	f022 0201 	bic.w	r2, r2, #1
 800259e:	615a      	str	r2, [r3, #20]
      huart->RxState = HAL_UART_STATE_READY;
 80025a0:	2320      	movs	r3, #32
 80025a2:	f880 303a 	strb.w	r3, [r0, #58]	; 0x3a
      HAL_UART_RxCpltCallback(huart);
 80025a6:	f7ff ffd5 	bl	8002554 <HAL_UART_RxCpltCallback>
      return HAL_OK;
 80025aa:	2000      	movs	r0, #0
 80025ac:	e00d      	b.n	80025ca <UART_Receive_IT+0x74>
        *tmp = (uint16_t)(huart->Instance->DR & (uint16_t)0x00FF);
 80025ae:	b2d2      	uxtb	r2, r2
 80025b0:	f823 2b01 	strh.w	r2, [r3], #1
 80025b4:	e7e1      	b.n	800257a <UART_Receive_IT+0x24>
      if (huart->Init.Parity == UART_PARITY_NONE)
 80025b6:	1c59      	adds	r1, r3, #1
        *huart->pRxBuffPtr++ = (uint8_t)(huart->Instance->DR & (uint8_t)0x00FF);
 80025b8:	6852      	ldr	r2, [r2, #4]
 80025ba:	6281      	str	r1, [r0, #40]	; 0x28
      if (huart->Init.Parity == UART_PARITY_NONE)
 80025bc:	b90c      	cbnz	r4, 80025c2 <UART_Receive_IT+0x6c>
        *huart->pRxBuffPtr++ = (uint8_t)(huart->Instance->DR & (uint8_t)0x007F);
 80025be:	701a      	strb	r2, [r3, #0]
 80025c0:	e7dc      	b.n	800257c <UART_Receive_IT+0x26>
 80025c2:	f002 027f 	and.w	r2, r2, #127	; 0x7f
 80025c6:	e7fa      	b.n	80025be <UART_Receive_IT+0x68>
    return HAL_BUSY;
 80025c8:	2002      	movs	r0, #2
}
 80025ca:	bd10      	pop	{r4, pc}

080025cc <HAL_UART_ErrorCallback>:
 80025cc:	4770      	bx	lr

080025ce <UART_DMAError>:
{
 80025ce:	b508      	push	{r3, lr}
  UART_HandleTypeDef *huart = (UART_HandleTypeDef *)((DMA_HandleTypeDef *)hdma)->Parent;
 80025d0:	6a40      	ldr	r0, [r0, #36]	; 0x24
  dmarequest = HAL_IS_BIT_SET(huart->Instance->CR3, USART_CR3_DMAT);
 80025d2:	6803      	ldr	r3, [r0, #0]
 80025d4:	695a      	ldr	r2, [r3, #20]
  if ((huart->gState == HAL_UART_STATE_BUSY_TX) && dmarequest)
 80025d6:	f890 1039 	ldrb.w	r1, [r0, #57]	; 0x39
 80025da:	2921      	cmp	r1, #33	; 0x21
 80025dc:	d10a      	bne.n	80025f4 <UART_DMAError+0x26>
 80025de:	0612      	lsls	r2, r2, #24
 80025e0:	d508      	bpl.n	80025f4 <UART_DMAError+0x26>
    huart->TxXferCount = 0x00U;
 80025e2:	2200      	movs	r2, #0
 80025e4:	84c2      	strh	r2, [r0, #38]	; 0x26
  CLEAR_BIT(huart->Instance->CR1, (USART_CR1_TXEIE | USART_CR1_TCIE));
 80025e6:	68da      	ldr	r2, [r3, #12]
 80025e8:	f022 02c0 	bic.w	r2, r2, #192	; 0xc0
 80025ec:	60da      	str	r2, [r3, #12]
  huart->gState = HAL_UART_STATE_READY;
 80025ee:	2220      	movs	r2, #32
 80025f0:	f880 2039 	strb.w	r2, [r0, #57]	; 0x39
  dmarequest = HAL_IS_BIT_SET(huart->Instance->CR3, USART_CR3_DMAR);
 80025f4:	695b      	ldr	r3, [r3, #20]
  if ((huart->RxState == HAL_UART_STATE_BUSY_RX) && dmarequest)
 80025f6:	f890 203a 	ldrb.w	r2, [r0, #58]	; 0x3a
 80025fa:	2a22      	cmp	r2, #34	; 0x22
 80025fc:	d105      	bne.n	800260a <UART_DMAError+0x3c>
 80025fe:	065b      	lsls	r3, r3, #25
 8002600:	d503      	bpl.n	800260a <UART_DMAError+0x3c>
    huart->RxXferCount = 0x00U;
 8002602:	2300      	movs	r3, #0
 8002604:	85c3      	strh	r3, [r0, #46]	; 0x2e
    UART_EndRxTransfer(huart);
 8002606:	f7ff fe85 	bl	8002314 <UART_EndRxTransfer>
  huart->ErrorCode |= HAL_UART_ERROR_DMA;
 800260a:	6bc3      	ldr	r3, [r0, #60]	; 0x3c
 800260c:	f043 0310 	orr.w	r3, r3, #16
 8002610:	63c3      	str	r3, [r0, #60]	; 0x3c
  HAL_UART_ErrorCallback(huart);
 8002612:	f7ff ffdb 	bl	80025cc <HAL_UART_ErrorCallback>
}
 8002616:	bd08      	pop	{r3, pc}

08002618 <HAL_UART_IRQHandler>:
  uint32_t isrflags   = READ_REG(huart->Instance->SR);
 8002618:	6803      	ldr	r3, [r0, #0]
{
 800261a:	b570      	push	{r4, r5, r6, lr}
  uint32_t isrflags   = READ_REG(huart->Instance->SR);
 800261c:	681a      	ldr	r2, [r3, #0]
{
 800261e:	4604      	mov	r4, r0
  if (errorflags == RESET)
 8002620:	0716      	lsls	r6, r2, #28
  uint32_t cr1its     = READ_REG(huart->Instance->CR1);
 8002622:	68d9      	ldr	r1, [r3, #12]
  uint32_t cr3its     = READ_REG(huart->Instance->CR3);
 8002624:	695d      	ldr	r5, [r3, #20]
  if (errorflags == RESET)
 8002626:	d107      	bne.n	8002638 <HAL_UART_IRQHandler+0x20>
    if (((isrflags & USART_SR_RXNE) != RESET) && ((cr1its & USART_CR1_RXNEIE) != RESET))
 8002628:	0696      	lsls	r6, r2, #26
 800262a:	d559      	bpl.n	80026e0 <HAL_UART_IRQHandler+0xc8>
 800262c:	068d      	lsls	r5, r1, #26
 800262e:	d557      	bpl.n	80026e0 <HAL_UART_IRQHandler+0xc8>
}
 8002630:	e8bd 4070 	ldmia.w	sp!, {r4, r5, r6, lr}
      UART_Receive_IT(huart);
 8002634:	f7ff bf8f 	b.w	8002556 <UART_Receive_IT>
  if ((errorflags != RESET) && (((cr3its & USART_CR3_EIE) != RESET) || ((cr1its & (USART_CR1_RXNEIE | USART_CR1_PEIE)) != RESET)))
 8002638:	f005 0001 	and.w	r0, r5, #1
 800263c:	f401 7590 	and.w	r5, r1, #288	; 0x120
 8002640:	4305      	orrs	r5, r0
 8002642:	d04d      	beq.n	80026e0 <HAL_UART_IRQHandler+0xc8>
    if (((isrflags & USART_SR_PE) != RESET) && ((cr1its & USART_CR1_PEIE) != RESET))
 8002644:	07d6      	lsls	r6, r2, #31
 8002646:	d505      	bpl.n	8002654 <HAL_UART_IRQHandler+0x3c>
 8002648:	05cd      	lsls	r5, r1, #23
      huart->ErrorCode |= HAL_UART_ERROR_PE;
 800264a:	bf42      	ittt	mi
 800264c:	6be3      	ldrmi	r3, [r4, #60]	; 0x3c
 800264e:	f043 0301 	orrmi.w	r3, r3, #1
 8002652:	63e3      	strmi	r3, [r4, #60]	; 0x3c
    if (((isrflags & USART_SR_NE) != RESET) && ((cr3its & USART_CR3_EIE) != RESET))
 8002654:	0753      	lsls	r3, r2, #29
 8002656:	d504      	bpl.n	8002662 <HAL_UART_IRQHandler+0x4a>
 8002658:	b118      	cbz	r0, 8002662 <HAL_UART_IRQHandler+0x4a>
      huart->ErrorCode |= HAL_UART_ERROR_NE;
 800265a:	6be3      	ldr	r3, [r4, #60]	; 0x3c
 800265c:	f043 0302 	orr.w	r3, r3, #2
 8002660:	63e3      	str	r3, [r4, #60]	; 0x3c
    if (((isrflags & USART_SR_FE) != RESET) && ((cr3its & USART_CR3_EIE) != RESET))
 8002662:	0796      	lsls	r6, r2, #30
 8002664:	d504      	bpl.n	8002670 <HAL_UART_IRQHandler+0x58>
 8002666:	b118      	cbz	r0, 8002670 <HAL_UART_IRQHandler+0x58>
      huart->ErrorCode |= HAL_UART_ERROR_FE;
 8002668:	6be3      	ldr	r3, [r4, #60]	; 0x3c
 800266a:	f043 0304 	orr.w	r3, r3, #4
 800266e:	63e3      	str	r3, [r4, #60]	; 0x3c
    if (((isrflags & USART_SR_ORE) != RESET) && ((cr3its & USART_CR3_EIE) != RESET))
 8002670:	0715      	lsls	r5, r2, #28
 8002672:	d504      	bpl.n	800267e <HAL_UART_IRQHandler+0x66>
 8002674:	b118      	cbz	r0, 800267e <HAL_UART_IRQHandler+0x66>
      huart->ErrorCode |= HAL_UART_ERROR_ORE;
 8002676:	6be3      	ldr	r3, [r4, #60]	; 0x3c
 8002678:	f043 0308 	orr.w	r3, r3, #8
 800267c:	63e3      	str	r3, [r4, #60]	; 0x3c
    if (huart->ErrorCode != HAL_UART_ERROR_NONE)
 800267e:	6be3      	ldr	r3, [r4, #60]	; 0x3c
 8002680:	b34b      	cbz	r3, 80026d6 <HAL_UART_IRQHandler+0xbe>
      if (((isrflags & USART_SR_RXNE) != RESET) && ((cr1its & USART_CR1_RXNEIE) != RESET))
 8002682:	0690      	lsls	r0, r2, #26
 8002684:	d504      	bpl.n	8002690 <HAL_UART_IRQHandler+0x78>
 8002686:	0689      	lsls	r1, r1, #26
 8002688:	d502      	bpl.n	8002690 <HAL_UART_IRQHandler+0x78>
        UART_Receive_IT(huart);
 800268a:	4620      	mov	r0, r4
 800268c:	f7ff ff63 	bl	8002556 <UART_Receive_IT>
      dmarequest = HAL_IS_BIT_SET(huart->Instance->CR3, USART_CR3_DMAR);
 8002690:	6823      	ldr	r3, [r4, #0]
        UART_EndRxTransfer(huart);
 8002692:	4620      	mov	r0, r4
      dmarequest = HAL_IS_BIT_SET(huart->Instance->CR3, USART_CR3_DMAR);
 8002694:	695b      	ldr	r3, [r3, #20]
      if (((huart->ErrorCode & HAL_UART_ERROR_ORE) != RESET) || dmarequest)
 8002696:	6be5      	ldr	r5, [r4, #60]	; 0x3c
      dmarequest = HAL_IS_BIT_SET(huart->Instance->CR3, USART_CR3_DMAR);
 8002698:	f003 0340 	and.w	r3, r3, #64	; 0x40
      if (((huart->ErrorCode & HAL_UART_ERROR_ORE) != RESET) || dmarequest)
 800269c:	f005 0508 	and.w	r5, r5, #8
 80026a0:	431d      	orrs	r5, r3
 80026a2:	d019      	beq.n	80026d8 <HAL_UART_IRQHandler+0xc0>
        UART_EndRxTransfer(huart);
 80026a4:	f7ff fe36 	bl	8002314 <UART_EndRxTransfer>
        if (HAL_IS_BIT_SET(huart->Instance->CR3, USART_CR3_DMAR))
 80026a8:	6823      	ldr	r3, [r4, #0]
 80026aa:	695a      	ldr	r2, [r3, #20]
 80026ac:	0652      	lsls	r2, r2, #25
 80026ae:	d50f      	bpl.n	80026d0 <HAL_UART_IRQHandler+0xb8>
          CLEAR_BIT(huart->Instance->CR3, USART_CR3_DMAR);
 80026b0:	695a      	ldr	r2, [r3, #20]
          if (huart->hdmarx != NULL)
 80026b2:	6b60      	ldr	r0, [r4, #52]	; 0x34
          CLEAR_BIT(huart->Instance->CR3, USART_CR3_DMAR);
 80026b4:	f022 0240 	bic.w	r2, r2, #64	; 0x40
 80026b8:	615a      	str	r2, [r3, #20]
          if (huart->hdmarx != NULL)
 80026ba:	b148      	cbz	r0, 80026d0 <HAL_UART_IRQHandler+0xb8>
            huart->hdmarx->XferAbortCallback = UART_DMAAbortOnError;
 80026bc:	4b25      	ldr	r3, [pc, #148]	; (8002754 <HAL_UART_IRQHandler+0x13c>)
 80026be:	6343      	str	r3, [r0, #52]	; 0x34
            if (HAL_DMA_Abort_IT(huart->hdmarx) != HAL_OK)
 80026c0:	f7fe fd00 	bl	80010c4 <HAL_DMA_Abort_IT>
 80026c4:	b138      	cbz	r0, 80026d6 <HAL_UART_IRQHandler+0xbe>
              huart->hdmarx->XferAbortCallback(huart->hdmarx);
 80026c6:	6b60      	ldr	r0, [r4, #52]	; 0x34
}
 80026c8:	e8bd 4070 	ldmia.w	sp!, {r4, r5, r6, lr}
              huart->hdmarx->XferAbortCallback(huart->hdmarx);
 80026cc:	6b43      	ldr	r3, [r0, #52]	; 0x34
 80026ce:	4718      	bx	r3
            HAL_UART_ErrorCallback(huart);
 80026d0:	4620      	mov	r0, r4
 80026d2:	f7ff ff7b 	bl	80025cc <HAL_UART_ErrorCallback>
}
 80026d6:	bd70      	pop	{r4, r5, r6, pc}
        HAL_UART_ErrorCallback(huart);
 80026d8:	f7ff ff78 	bl	80025cc <HAL_UART_ErrorCallback>
        huart->ErrorCode = HAL_UART_ERROR_NONE;
 80026dc:	63e5      	str	r5, [r4, #60]	; 0x3c
 80026de:	e7fa      	b.n	80026d6 <HAL_UART_IRQHandler+0xbe>
  if (((isrflags & USART_SR_TXE) != RESET) && ((cr1its & USART_CR1_TXEIE) != RESET))
 80026e0:	0616      	lsls	r6, r2, #24
 80026e2:	d528      	bpl.n	8002736 <HAL_UART_IRQHandler+0x11e>
 80026e4:	060d      	lsls	r5, r1, #24
 80026e6:	d526      	bpl.n	8002736 <HAL_UART_IRQHandler+0x11e>
  if (huart->gState == HAL_UART_STATE_BUSY_TX)
 80026e8:	f894 2039 	ldrb.w	r2, [r4, #57]	; 0x39
 80026ec:	2a21      	cmp	r2, #33	; 0x21
 80026ee:	d1f2      	bne.n	80026d6 <HAL_UART_IRQHandler+0xbe>
    if (huart->Init.WordLength == UART_WORDLENGTH_9B)
 80026f0:	68a1      	ldr	r1, [r4, #8]
 80026f2:	6a22      	ldr	r2, [r4, #32]
 80026f4:	f5b1 5f80 	cmp.w	r1, #4096	; 0x1000
 80026f8:	d118      	bne.n	800272c <HAL_UART_IRQHandler+0x114>
      huart->Instance->DR = (uint16_t)(*tmp & (uint16_t)0x01FF);
 80026fa:	8811      	ldrh	r1, [r2, #0]
 80026fc:	f3c1 0108 	ubfx	r1, r1, #0, #9
 8002700:	6059      	str	r1, [r3, #4]
      if (huart->Init.Parity == UART_PARITY_NONE)
 8002702:	6921      	ldr	r1, [r4, #16]
 8002704:	b981      	cbnz	r1, 8002728 <HAL_UART_IRQHandler+0x110>
        huart->pTxBuffPtr += 2U;
 8002706:	3202      	adds	r2, #2
        huart->pTxBuffPtr += 1U;
 8002708:	6222      	str	r2, [r4, #32]
    if (--huart->TxXferCount == 0U)
 800270a:	8ce2      	ldrh	r2, [r4, #38]	; 0x26
 800270c:	3a01      	subs	r2, #1
 800270e:	b292      	uxth	r2, r2
 8002710:	84e2      	strh	r2, [r4, #38]	; 0x26
 8002712:	2a00      	cmp	r2, #0
 8002714:	d1df      	bne.n	80026d6 <HAL_UART_IRQHandler+0xbe>
      __HAL_UART_DISABLE_IT(huart, UART_IT_TXE);
 8002716:	68da      	ldr	r2, [r3, #12]
 8002718:	f022 0280 	bic.w	r2, r2, #128	; 0x80
 800271c:	60da      	str	r2, [r3, #12]
      __HAL_UART_ENABLE_IT(huart, UART_IT_TC);
 800271e:	68da      	ldr	r2, [r3, #12]
 8002720:	f042 0240 	orr.w	r2, r2, #64	; 0x40
 8002724:	60da      	str	r2, [r3, #12]
 8002726:	e7d6      	b.n	80026d6 <HAL_UART_IRQHandler+0xbe>
        huart->pTxBuffPtr += 1U;
 8002728:	3201      	adds	r2, #1
 800272a:	e7ed      	b.n	8002708 <HAL_UART_IRQHandler+0xf0>
      huart->Instance->DR = (uint8_t)(*huart->pTxBuffPtr++ & (uint8_t)0x00FF);
 800272c:	1c51      	adds	r1, r2, #1
 800272e:	6221      	str	r1, [r4, #32]
 8002730:	7812      	ldrb	r2, [r2, #0]
 8002732:	605a      	str	r2, [r3, #4]
 8002734:	e7e9      	b.n	800270a <HAL_UART_IRQHandler+0xf2>
  if (((isrflags & USART_SR_TC) != RESET) && ((cr1its & USART_CR1_TCIE) != RESET))
 8002736:	0650      	lsls	r0, r2, #25
 8002738:	d5cd      	bpl.n	80026d6 <HAL_UART_IRQHandler+0xbe>
 800273a:	064a      	lsls	r2, r1, #25
 800273c:	d5cb      	bpl.n	80026d6 <HAL_UART_IRQHandler+0xbe>
  __HAL_UART_DISABLE_IT(huart, UART_IT_TC);
 800273e:	68da      	ldr	r2, [r3, #12]
  HAL_UART_TxCpltCallback(huart);
 8002740:	4620      	mov	r0, r4
  __HAL_UART_DISABLE_IT(huart, UART_IT_TC);
 8002742:	f022 0240 	bic.w	r2, r2, #64	; 0x40
 8002746:	60da      	str	r2, [r3, #12]
  huart->gState = HAL_UART_STATE_READY;
 8002748:	2320      	movs	r3, #32
 800274a:	f884 3039 	strb.w	r3, [r4, #57]	; 0x39
  HAL_UART_TxCpltCallback(huart);
 800274e:	f004 f9b3 	bl	8006ab8 <HAL_UART_TxCpltCallback>
  return HAL_OK;
 8002752:	e7c0      	b.n	80026d6 <HAL_UART_IRQHandler+0xbe>
 8002754:	08002759 	.word	0x08002759

08002758 <UART_DMAAbortOnError>:
{
 8002758:	b508      	push	{r3, lr}
  huart->RxXferCount = 0x00U;
 800275a:	2300      	movs	r3, #0
  UART_HandleTypeDef *huart = (UART_HandleTypeDef *)((DMA_HandleTypeDef *)hdma)->Parent;
 800275c:	6a40      	ldr	r0, [r0, #36]	; 0x24
  huart->RxXferCount = 0x00U;
 800275e:	85c3      	strh	r3, [r0, #46]	; 0x2e
  huart->TxXferCount = 0x00U;
 8002760:	84c3      	strh	r3, [r0, #38]	; 0x26
  HAL_UART_ErrorCallback(huart);
 8002762:	f7ff ff33 	bl	80025cc <HAL_UART_ErrorCallback>
}
 8002766:	bd08      	pop	{r3, pc}

08002768 <disk_status>:
	BYTE pdrv		/* Physical drive nmuber to identify the drive */
)
{
  DSTATUS stat;
  
  stat = disk.drv[pdrv]->disk_status(disk.lun[pdrv]);
 8002768:	4b03      	ldr	r3, [pc, #12]	; (8002778 <disk_status+0x10>)
 800276a:	181a      	adds	r2, r3, r0
 800276c:	eb03 0380 	add.w	r3, r3, r0, lsl #2
 8002770:	685b      	ldr	r3, [r3, #4]
 8002772:	7a10      	ldrb	r0, [r2, #8]
 8002774:	685b      	ldr	r3, [r3, #4]
 8002776:	4718      	bx	r3
 8002778:	200000e4 	.word	0x200000e4

0800277c <disk_initialize>:
	BYTE pdrv				/* Physical drive nmuber to identify the drive */
)
{
  DSTATUS stat = RES_OK;
  
  if(disk.is_initialized[pdrv] == 0)
 800277c:	4b06      	ldr	r3, [pc, #24]	; (8002798 <disk_initialize+0x1c>)
 800277e:	5c1a      	ldrb	r2, [r3, r0]
 8002780:	b942      	cbnz	r2, 8002794 <disk_initialize+0x18>
  { 
    disk.is_initialized[pdrv] = 1;
 8002782:	2201      	movs	r2, #1
 8002784:	541a      	strb	r2, [r3, r0]
    stat = disk.drv[pdrv]->disk_initialize(disk.lun[pdrv]);
 8002786:	181a      	adds	r2, r3, r0
 8002788:	eb03 0380 	add.w	r3, r3, r0, lsl #2
 800278c:	685b      	ldr	r3, [r3, #4]
 800278e:	7a10      	ldrb	r0, [r2, #8]
 8002790:	681b      	ldr	r3, [r3, #0]
 8002792:	4718      	bx	r3
  }
  return stat;
}
 8002794:	2000      	movs	r0, #0
 8002796:	4770      	bx	lr
 8002798:	200000e4 	.word	0x200000e4

0800279c <disk_read>:
	BYTE pdrv,		/* Physical drive nmuber to identify the drive */
	BYTE *buff,		/* Data buffer to store read data */
	DWORD sector,	        /* Sector address in LBA */
	UINT count		/* Number of sectors to read */
)
{
 800279c:	b430      	push	{r4, r5}
  DRESULT res;
 
  res = disk.drv[pdrv]->disk_read(disk.lun[pdrv], buff, sector, count);
 800279e:	4c05      	ldr	r4, [pc, #20]	; (80027b4 <disk_read+0x18>)
 80027a0:	1825      	adds	r5, r4, r0
 80027a2:	eb04 0480 	add.w	r4, r4, r0, lsl #2
 80027a6:	6860      	ldr	r0, [r4, #4]
 80027a8:	6884      	ldr	r4, [r0, #8]
 80027aa:	7a28      	ldrb	r0, [r5, #8]
 80027ac:	46a4      	mov	ip, r4
  return res;
}
 80027ae:	bc30      	pop	{r4, r5}
  res = disk.drv[pdrv]->disk_read(disk.lun[pdrv], buff, sector, count);
 80027b0:	4760      	bx	ip
 80027b2:	bf00      	nop
 80027b4:	200000e4 	.word	0x200000e4

080027b8 <disk_write>:
	BYTE pdrv,		/* Physical drive nmuber to identify the drive */
	const BYTE *buff,	/* Data to be written */
	DWORD sector,		/* Sector address in LBA */
	UINT count        	/* Number of sectors to write */
)
{
 80027b8:	b430      	push	{r4, r5}
  DRESULT res;
  
  res = disk.drv[pdrv]->disk_write(disk.lun[pdrv], buff, sector, count);
 80027ba:	4c05      	ldr	r4, [pc, #20]	; (80027d0 <disk_write+0x18>)
 80027bc:	1825      	adds	r5, r4, r0
 80027be:	eb04 0480 	add.w	r4, r4, r0, lsl #2
 80027c2:	6860      	ldr	r0, [r4, #4]
 80027c4:	68c4      	ldr	r4, [r0, #12]
 80027c6:	7a28      	ldrb	r0, [r5, #8]
 80027c8:	46a4      	mov	ip, r4
  return res;
}
 80027ca:	bc30      	pop	{r4, r5}
  res = disk.drv[pdrv]->disk_write(disk.lun[pdrv], buff, sector, count);
 80027cc:	4760      	bx	ip
 80027ce:	bf00      	nop
 80027d0:	200000e4 	.word	0x200000e4

080027d4 <disk_ioctl>:
DRESULT disk_ioctl (
	BYTE pdrv,		/* Physical drive nmuber (0..) */
	BYTE cmd,		/* Control code */
	void *buff		/* Buffer to send/receive control data */
)
{
 80027d4:	b410      	push	{r4}
  DRESULT res;

  res = disk.drv[pdrv]->disk_ioctl(disk.lun[pdrv], cmd, buff);
 80027d6:	4b04      	ldr	r3, [pc, #16]	; (80027e8 <disk_ioctl+0x14>)
 80027d8:	181c      	adds	r4, r3, r0
 80027da:	eb03 0380 	add.w	r3, r3, r0, lsl #2
 80027de:	685b      	ldr	r3, [r3, #4]
 80027e0:	7a20      	ldrb	r0, [r4, #8]
 80027e2:	691b      	ldr	r3, [r3, #16]
  return res;
}
 80027e4:	bc10      	pop	{r4}
  res = disk.drv[pdrv]->disk_ioctl(disk.lun[pdrv], cmd, buff);
 80027e6:	4718      	bx	r3
 80027e8:	200000e4 	.word	0x200000e4

080027ec <mem_cpy>:
		*(int*)d = *(int*)s;
		d += sizeof (int); s += sizeof (int);
		cnt -= sizeof (int);
	}
#endif
	while (cnt--)
 80027ec:	3801      	subs	r0, #1
 80027ee:	440a      	add	r2, r1
 80027f0:	4291      	cmp	r1, r2
 80027f2:	d100      	bne.n	80027f6 <mem_cpy+0xa>
		*d++ = *s++;
}
 80027f4:	4770      	bx	lr
		*d++ = *s++;
 80027f6:	f811 3b01 	ldrb.w	r3, [r1], #1
 80027fa:	f800 3f01 	strb.w	r3, [r0, #1]!
 80027fe:	e7f7      	b.n	80027f0 <mem_cpy+0x4>

08002800 <mem_set>:
/* Fill memory */
static
void mem_set (void* dst, int val, UINT cnt) {
	BYTE *d = (BYTE*)dst;

	while (cnt--)
 8002800:	4402      	add	r2, r0
 8002802:	4290      	cmp	r0, r2
 8002804:	d100      	bne.n	8002808 <mem_set+0x8>
		*d++ = (BYTE)val;
}
 8002806:	4770      	bx	lr
		*d++ = (BYTE)val;
 8002808:	f800 1b01 	strb.w	r1, [r0], #1
 800280c:	e7f9      	b.n	8002802 <mem_set+0x2>
	...

08002810 <chk_lock>:
{
	UINT i, be;

	/* Search file semaphore table */
	for (i = be = 0; i < _FS_LOCK; i++) {
		if (Files[i].fs) {	/* Existing entry */
 8002810:	4b1f      	ldr	r3, [pc, #124]	; (8002890 <chk_lock+0x80>)
{
 8002812:	4602      	mov	r2, r0
		if (Files[i].fs) {	/* Existing entry */
 8002814:	6818      	ldr	r0, [r3, #0]
{
 8002816:	b530      	push	{r4, r5, lr}
		if (Files[i].fs) {	/* Existing entry */
 8002818:	b178      	cbz	r0, 800283a <chk_lock+0x2a>
			if (Files[i].fs == dp->fs &&	 	/* Check if the object matched with an open object */
 800281a:	f8d2 4200 	ldr.w	r4, [r2, #512]	; 0x200
 800281e:	4284      	cmp	r4, r0
 8002820:	d109      	bne.n	8002836 <chk_lock+0x26>
 8002822:	685c      	ldr	r4, [r3, #4]
 8002824:	f8d2 0208 	ldr.w	r0, [r2, #520]	; 0x208
 8002828:	4284      	cmp	r4, r0
 800282a:	d104      	bne.n	8002836 <chk_lock+0x26>
				Files[i].clu == dp->sclust &&
 800282c:	891c      	ldrh	r4, [r3, #8]
 800282e:	f8b2 0206 	ldrh.w	r0, [r2, #518]	; 0x206
 8002832:	4284      	cmp	r4, r0
 8002834:	d024      	beq.n	8002880 <chk_lock+0x70>
	for (i = be = 0; i < _FS_LOCK; i++) {
 8002836:	2400      	movs	r4, #0
 8002838:	e000      	b.n	800283c <chk_lock+0x2c>
				Files[i].idx == dp->index) break;
		} else {			/* Blank entry */
			be = 1;
 800283a:	2401      	movs	r4, #1
		if (Files[i].fs) {	/* Existing entry */
 800283c:	68d8      	ldr	r0, [r3, #12]
 800283e:	b190      	cbz	r0, 8002866 <chk_lock+0x56>
			if (Files[i].fs == dp->fs &&	 	/* Check if the object matched with an open object */
 8002840:	f8d2 5200 	ldr.w	r5, [r2, #512]	; 0x200
 8002844:	42a8      	cmp	r0, r5
 8002846:	d109      	bne.n	800285c <chk_lock+0x4c>
 8002848:	691d      	ldr	r5, [r3, #16]
 800284a:	f8d2 0208 	ldr.w	r0, [r2, #520]	; 0x208
 800284e:	4285      	cmp	r5, r0
 8002850:	d104      	bne.n	800285c <chk_lock+0x4c>
				Files[i].clu == dp->sclust &&
 8002852:	8a98      	ldrh	r0, [r3, #20]
 8002854:	f8b2 2206 	ldrh.w	r2, [r2, #518]	; 0x206
 8002858:	4290      	cmp	r0, r2
 800285a:	d016      	beq.n	800288a <chk_lock+0x7a>
		}
	}
	if (i == _FS_LOCK)	/* The object is not opened */
		return (be || acc == 2) ? FR_OK : FR_TOO_MANY_OPEN_FILES;	/* Is there a blank entry for new object? */
 800285c:	b974      	cbnz	r4, 800287c <chk_lock+0x6c>
 800285e:	2902      	cmp	r1, #2
 8002860:	bf0c      	ite	eq
 8002862:	2000      	moveq	r0, #0
 8002864:	2012      	movne	r0, #18

	/* The object has been opened. Reject any open against writing file and all write mode open */
	return (acc || Files[i].ctr == 0x100) ? FR_LOCKED : FR_OK;
}
 8002866:	bd30      	pop	{r4, r5, pc}
	return (acc || Files[i].ctr == 0x100) ? FR_LOCKED : FR_OK;
 8002868:	210c      	movs	r1, #12
 800286a:	fb01 3302 	mla	r3, r1, r2, r3
 800286e:	895b      	ldrh	r3, [r3, #10]
 8002870:	f5b3 7f80 	cmp.w	r3, #256	; 0x100
 8002874:	bf14      	ite	ne
 8002876:	2000      	movne	r0, #0
 8002878:	2010      	moveq	r0, #16
 800287a:	e7f4      	b.n	8002866 <chk_lock+0x56>
 800287c:	2000      	movs	r0, #0
 800287e:	e7f2      	b.n	8002866 <chk_lock+0x56>
	for (i = be = 0; i < _FS_LOCK; i++) {
 8002880:	2200      	movs	r2, #0
	return (acc || Files[i].ctr == 0x100) ? FR_LOCKED : FR_OK;
 8002882:	2900      	cmp	r1, #0
 8002884:	d0f0      	beq.n	8002868 <chk_lock+0x58>
 8002886:	2010      	movs	r0, #16
 8002888:	e7ed      	b.n	8002866 <chk_lock+0x56>
	for (i = be = 0; i < _FS_LOCK; i++) {
 800288a:	2201      	movs	r2, #1
 800288c:	e7f9      	b.n	8002882 <chk_lock+0x72>
 800288e:	bf00      	nop
 8002890:	200000c8 	.word	0x200000c8

08002894 <inc_lock>:
{
	UINT i;


	for (i = 0; i < _FS_LOCK; i++) {	/* Find the object */
		if (Files[i].fs == dp->fs &&
 8002894:	4a24      	ldr	r2, [pc, #144]	; (8002928 <inc_lock+0x94>)
{
 8002896:	b5f0      	push	{r4, r5, r6, r7, lr}
		if (Files[i].fs == dp->fs &&
 8002898:	6813      	ldr	r3, [r2, #0]
 800289a:	f8d0 6200 	ldr.w	r6, [r0, #512]	; 0x200
 800289e:	429e      	cmp	r6, r3
 80028a0:	d109      	bne.n	80028b6 <inc_lock+0x22>
 80028a2:	6855      	ldr	r5, [r2, #4]
 80028a4:	f8d0 4208 	ldr.w	r4, [r0, #520]	; 0x208
 80028a8:	42a5      	cmp	r5, r4
 80028aa:	d104      	bne.n	80028b6 <inc_lock+0x22>
			Files[i].clu == dp->sclust &&
 80028ac:	f8b0 5206 	ldrh.w	r5, [r0, #518]	; 0x206
 80028b0:	8914      	ldrh	r4, [r2, #8]
 80028b2:	42a5      	cmp	r5, r4
 80028b4:	d01f      	beq.n	80028f6 <inc_lock+0x62>
		if (Files[i].fs == dp->fs &&
 80028b6:	68d4      	ldr	r4, [r2, #12]
 80028b8:	42b4      	cmp	r4, r6
 80028ba:	d109      	bne.n	80028d0 <inc_lock+0x3c>
 80028bc:	6917      	ldr	r7, [r2, #16]
 80028be:	f8d0 5208 	ldr.w	r5, [r0, #520]	; 0x208
 80028c2:	42af      	cmp	r7, r5
 80028c4:	d104      	bne.n	80028d0 <inc_lock+0x3c>
			Files[i].clu == dp->sclust &&
 80028c6:	8a97      	ldrh	r7, [r2, #20]
 80028c8:	f8b0 5206 	ldrh.w	r5, [r0, #518]	; 0x206
 80028cc:	42af      	cmp	r7, r5
 80028ce:	d01c      	beq.n	800290a <inc_lock+0x76>
			Files[i].idx == dp->index) break;
	}

	if (i == _FS_LOCK) {				/* Not opened. Register it as new. */
		for (i = 0; i < _FS_LOCK && Files[i].fs; i++) ;
 80028d0:	b10b      	cbz	r3, 80028d6 <inc_lock+0x42>
 80028d2:	b9c4      	cbnz	r4, 8002906 <inc_lock+0x72>
 80028d4:	2301      	movs	r3, #1
		if (i == _FS_LOCK) return 0;	/* No free entry to register (int err) */
		Files[i].fs = dp->fs;
 80028d6:	240c      	movs	r4, #12
 80028d8:	435c      	muls	r4, r3
 80028da:	1915      	adds	r5, r2, r4
 80028dc:	5116      	str	r6, [r2, r4]
		Files[i].clu = dp->sclust;
 80028de:	f8d0 4208 	ldr.w	r4, [r0, #520]	; 0x208
		Files[i].idx = dp->index;
 80028e2:	f8b0 0206 	ldrh.w	r0, [r0, #518]	; 0x206
		Files[i].clu = dp->sclust;
 80028e6:	606c      	str	r4, [r5, #4]
		Files[i].idx = dp->index;
 80028e8:	8128      	strh	r0, [r5, #8]
		Files[i].ctr = 0;
 80028ea:	2000      	movs	r0, #0
 80028ec:	8168      	strh	r0, [r5, #10]
	}

	if (acc && Files[i].ctr) return 0;	/* Access violation (int err) */
 80028ee:	b171      	cbz	r1, 800290e <inc_lock+0x7a>

	Files[i].ctr = acc ? 0x100 : Files[i].ctr + 1;	/* Set semaphore value */
 80028f0:	f44f 7180 	mov.w	r1, #256	; 0x100
 80028f4:	e011      	b.n	800291a <inc_lock+0x86>
	for (i = 0; i < _FS_LOCK; i++) {	/* Find the object */
 80028f6:	2300      	movs	r3, #0
	if (acc && Files[i].ctr) return 0;	/* Access violation (int err) */
 80028f8:	b149      	cbz	r1, 800290e <inc_lock+0x7a>
 80028fa:	210c      	movs	r1, #12
 80028fc:	fb01 2103 	mla	r1, r1, r3, r2
 8002900:	8949      	ldrh	r1, [r1, #10]
 8002902:	2900      	cmp	r1, #0
 8002904:	d0f4      	beq.n	80028f0 <inc_lock+0x5c>
		if (i == _FS_LOCK) return 0;	/* No free entry to register (int err) */
 8002906:	2000      	movs	r0, #0
 8002908:	e00c      	b.n	8002924 <inc_lock+0x90>
	for (i = 0; i < _FS_LOCK; i++) {	/* Find the object */
 800290a:	2301      	movs	r3, #1
 800290c:	e7f4      	b.n	80028f8 <inc_lock+0x64>
	Files[i].ctr = acc ? 0x100 : Files[i].ctr + 1;	/* Set semaphore value */
 800290e:	210c      	movs	r1, #12
 8002910:	fb01 2103 	mla	r1, r1, r3, r2
 8002914:	8949      	ldrh	r1, [r1, #10]
 8002916:	3101      	adds	r1, #1
 8002918:	b289      	uxth	r1, r1
 800291a:	200c      	movs	r0, #12
 800291c:	fb00 2203 	mla	r2, r0, r3, r2

	return i + 1;
 8002920:	1c58      	adds	r0, r3, #1
	Files[i].ctr = acc ? 0x100 : Files[i].ctr + 1;	/* Set semaphore value */
 8002922:	8151      	strh	r1, [r2, #10]
}
 8002924:	bdf0      	pop	{r4, r5, r6, r7, pc}
 8002926:	bf00      	nop
 8002928:	200000c8 	.word	0x200000c8

0800292c <dec_lock>:
{
	WORD n;
	FRESULT res;


	if (--i < _FS_LOCK) {	/* Shift index number origin from 0 */
 800292c:	3801      	subs	r0, #1
 800292e:	2801      	cmp	r0, #1
 8002930:	d817      	bhi.n	8002962 <dec_lock+0x36>
		n = Files[i].ctr;
 8002932:	220c      	movs	r2, #12
 8002934:	490c      	ldr	r1, [pc, #48]	; (8002968 <dec_lock+0x3c>)
 8002936:	fb02 1200 	mla	r2, r2, r0, r1
 800293a:	8953      	ldrh	r3, [r2, #10]
		if (n == 0x100) n = 0;		/* If write mode open, delete the entry */
 800293c:	f5b3 7f80 	cmp.w	r3, #256	; 0x100
 8002940:	d106      	bne.n	8002950 <dec_lock+0x24>
		if (n) n--;					/* Decrement read mode open count */
		Files[i].ctr = n;
 8002942:	2300      	movs	r3, #0
 8002944:	8153      	strh	r3, [r2, #10]
		if (!n) Files[i].fs = 0;	/* Delete the entry if open count gets zero */
 8002946:	230c      	movs	r3, #12
 8002948:	4343      	muls	r3, r0
 800294a:	2000      	movs	r0, #0
 800294c:	50c8      	str	r0, [r1, r3]
 800294e:	4770      	bx	lr
		if (n) n--;					/* Decrement read mode open count */
 8002950:	2b00      	cmp	r3, #0
 8002952:	d0f8      	beq.n	8002946 <dec_lock+0x1a>
 8002954:	3b01      	subs	r3, #1
 8002956:	b29b      	uxth	r3, r3
		Files[i].ctr = n;
 8002958:	8153      	strh	r3, [r2, #10]
		if (!n) Files[i].fs = 0;	/* Delete the entry if open count gets zero */
 800295a:	2b00      	cmp	r3, #0
 800295c:	d0f3      	beq.n	8002946 <dec_lock+0x1a>
		res = FR_OK;
 800295e:	2000      	movs	r0, #0
 8002960:	4770      	bx	lr
	} else {
		res = FR_INT_ERR;			/* Invalid index nunber */
 8002962:	2002      	movs	r0, #2
	}
	return res;
}
 8002964:	4770      	bx	lr
 8002966:	bf00      	nop
 8002968:	200000c8 	.word	0x200000c8

0800296c <clmt_clust>:
{
	DWORD cl, ncl, *tbl;


	tbl = fp->cltbl + 1;	/* Top of CLMT */
	cl = ofs / SS(fp->fs) / fp->fs->csize;	/* Cluster order from top of the file */
 800296c:	f8d0 2200 	ldr.w	r2, [r0, #512]	; 0x200
 8002970:	0a49      	lsrs	r1, r1, #9
 8002972:	f892 2202 	ldrb.w	r2, [r2, #514]	; 0x202
	tbl = fp->cltbl + 1;	/* Top of CLMT */
 8002976:	f8d0 3224 	ldr.w	r3, [r0, #548]	; 0x224
	cl = ofs / SS(fp->fs) / fp->fs->csize;	/* Cluster order from top of the file */
 800297a:	fbb1 f1f2 	udiv	r1, r1, r2
	tbl = fp->cltbl + 1;	/* Top of CLMT */
 800297e:	3304      	adds	r3, #4
	for (;;) {
		ncl = *tbl++;			/* Number of cluters in the fragment */
 8002980:	6818      	ldr	r0, [r3, #0]
		if (!ncl) return 0;		/* End of table? (error) */
 8002982:	b130      	cbz	r0, 8002992 <clmt_clust+0x26>
		if (cl < ncl) break;	/* In this fragment? */
 8002984:	4281      	cmp	r1, r0
 8002986:	d302      	bcc.n	800298e <clmt_clust+0x22>
		cl -= ncl; tbl++;		/* Next fragment */
 8002988:	1a09      	subs	r1, r1, r0
 800298a:	3308      	adds	r3, #8
		ncl = *tbl++;			/* Number of cluters in the fragment */
 800298c:	e7f8      	b.n	8002980 <clmt_clust+0x14>
	}
	return cl + *tbl;	/* Return the cluster number */
 800298e:	6858      	ldr	r0, [r3, #4]
 8002990:	4408      	add	r0, r1
}
 8002992:	4770      	bx	lr

08002994 <get_ldnumber>:
	char c;
	TCHAR tc;
#endif


	if (*path) {	/* If the pointer is not a null */
 8002994:	6802      	ldr	r2, [r0, #0]
{
 8002996:	b510      	push	{r4, lr}
	if (*path) {	/* If the pointer is not a null */
 8002998:	b152      	cbz	r2, 80029b0 <get_ldnumber+0x1c>
 800299a:	4611      	mov	r1, r2
 800299c:	460b      	mov	r3, r1
		for (tt = *path; (UINT)*tt >= (_USE_LFN ? ' ' : '!') && *tt != ':'; tt++) ;	/* Find ':' in the path */
 800299e:	f811 4b01 	ldrb.w	r4, [r1], #1
 80029a2:	2c20      	cmp	r4, #32
 80029a4:	d90c      	bls.n	80029c0 <get_ldnumber+0x2c>
 80029a6:	2c3a      	cmp	r4, #58	; 0x3a
 80029a8:	d1f8      	bne.n	800299c <get_ldnumber+0x8>
		if (*tt == ':') {	/* If a ':' is exist in the path name */
			tp = *path;
			i = *tp++ - '0'; 
 80029aa:	1c51      	adds	r1, r2, #1
			if (i < 10 && tp == tt) {	/* Is there a numeric drive id? */
 80029ac:	428b      	cmp	r3, r1
 80029ae:	d002      	beq.n	80029b6 <get_ldnumber+0x22>
	int vol = -1;
 80029b0:	f04f 30ff 	mov.w	r0, #4294967295
 80029b4:	e005      	b.n	80029c2 <get_ldnumber+0x2e>
				if (i < _VOLUMES) {	/* If a drive id is found, get the value and strip it */
 80029b6:	7812      	ldrb	r2, [r2, #0]
 80029b8:	2a30      	cmp	r2, #48	; 0x30
 80029ba:	d1f9      	bne.n	80029b0 <get_ldnumber+0x1c>
					vol = (int)i;
					*path = ++tt;
 80029bc:	3301      	adds	r3, #1
 80029be:	6003      	str	r3, [r0, #0]
			return vol;
		}
#if _FS_RPATH && _VOLUMES >= 2
		vol = CurrVol;	/* Current drive */
#else
		vol = 0;		/* Drive 0 */
 80029c0:	2000      	movs	r0, #0
#endif
	}
	return vol;
}
 80029c2:	bd10      	pop	{r4, pc}

080029c4 <validate>:

static
FRESULT validate (	/* FR_OK(0): The object is valid, !=0: Invalid */
	void* obj		/* Pointer to the object FIL/DIR to check validity */
)
{
 80029c4:	b508      	push	{r3, lr}
	FIL *fil = (FIL*)obj;	/* Assuming offset of .fs and .id in the FIL/DIR structure is identical */


	if (!fil || !fil->fs || !fil->fs->fs_type || fil->fs->id != fil->id || (disk_status(fil->fs->drv) & STA_NOINIT))
 80029c6:	b190      	cbz	r0, 80029ee <validate+0x2a>
 80029c8:	f8d0 3200 	ldr.w	r3, [r0, #512]	; 0x200
 80029cc:	b17b      	cbz	r3, 80029ee <validate+0x2a>
 80029ce:	f893 2200 	ldrb.w	r2, [r3, #512]	; 0x200
 80029d2:	b162      	cbz	r2, 80029ee <validate+0x2a>
 80029d4:	f8b3 1206 	ldrh.w	r1, [r3, #518]	; 0x206
 80029d8:	f8b0 2204 	ldrh.w	r2, [r0, #516]	; 0x204
 80029dc:	4291      	cmp	r1, r2
 80029de:	d106      	bne.n	80029ee <validate+0x2a>
 80029e0:	f893 0201 	ldrb.w	r0, [r3, #513]	; 0x201
 80029e4:	f7ff fec0 	bl	8002768 <disk_status>
 80029e8:	f010 0001 	ands.w	r0, r0, #1
 80029ec:	d000      	beq.n	80029f0 <validate+0x2c>
		return FR_INVALID_OBJECT;
 80029ee:	2009      	movs	r0, #9

	ENTER_FF(fil->fs);		/* Lock file system */

	return FR_OK;
}
 80029f0:	bd08      	pop	{r3, pc}

080029f2 <ld_clust.isra.0>:
	cl = LD_WORD(dir + DIR_FstClusLO);
 80029f2:	7eca      	ldrb	r2, [r1, #27]
 80029f4:	7e8b      	ldrb	r3, [r1, #26]
	if (fs->fs_type == FS_FAT32)
 80029f6:	2803      	cmp	r0, #3
	cl = LD_WORD(dir + DIR_FstClusLO);
 80029f8:	ea43 2302 	orr.w	r3, r3, r2, lsl #8
		cl |= (DWORD)LD_WORD(dir + DIR_FstClusHI) << 16;
 80029fc:	bf01      	itttt	eq
 80029fe:	7d48      	ldrbeq	r0, [r1, #21]
 8002a00:	7d0a      	ldrbeq	r2, [r1, #20]
 8002a02:	ea42 2200 	orreq.w	r2, r2, r0, lsl #8
 8002a06:	ea43 4302 	orreq.w	r3, r3, r2, lsl #16
}
 8002a0a:	4618      	mov	r0, r3
 8002a0c:	4770      	bx	lr

08002a0e <sync_window.part.0>:
FRESULT sync_window (
 8002a0e:	b5f8      	push	{r3, r4, r5, r6, r7, lr}
		wsect = fs->winsect;	/* Current sector number */
 8002a10:	f8d0 622c 	ldr.w	r6, [r0, #556]	; 0x22c
		if (disk_write(fs->drv, fs->win.d8, wsect, 1) != RES_OK) {
 8002a14:	4601      	mov	r1, r0
FRESULT sync_window (
 8002a16:	4604      	mov	r4, r0
		if (disk_write(fs->drv, fs->win.d8, wsect, 1) != RES_OK) {
 8002a18:	2301      	movs	r3, #1
 8002a1a:	4632      	mov	r2, r6
 8002a1c:	f890 0201 	ldrb.w	r0, [r0, #513]	; 0x201
 8002a20:	f7ff feca 	bl	80027b8 <disk_write>
 8002a24:	4605      	mov	r5, r0
 8002a26:	b9d0      	cbnz	r0, 8002a5e <sync_window.part.0+0x50>
			if (wsect - fs->fatbase < fs->fsize) {		/* Is it in the FAT area? */
 8002a28:	f8d4 3220 	ldr.w	r3, [r4, #544]	; 0x220
 8002a2c:	f8d4 2218 	ldr.w	r2, [r4, #536]	; 0x218
 8002a30:	1af3      	subs	r3, r6, r3
 8002a32:	4293      	cmp	r3, r2
			fs->wflag = 0;
 8002a34:	f884 0204 	strb.w	r0, [r4, #516]	; 0x204
			if (wsect - fs->fatbase < fs->fsize) {		/* Is it in the FAT area? */
 8002a38:	d203      	bcs.n	8002a42 <sync_window.part.0+0x34>
				for (nf = fs->n_fats; nf >= 2; nf--) {	/* Reflect the change to all FAT copies */
 8002a3a:	f894 7203 	ldrb.w	r7, [r4, #515]	; 0x203
 8002a3e:	2f01      	cmp	r7, #1
 8002a40:	d801      	bhi.n	8002a46 <sync_window.part.0+0x38>
}
 8002a42:	4628      	mov	r0, r5
 8002a44:	bdf8      	pop	{r3, r4, r5, r6, r7, pc}
					wsect += fs->fsize;
 8002a46:	f8d4 3218 	ldr.w	r3, [r4, #536]	; 0x218
					disk_write(fs->drv, fs->win.d8, wsect, 1);
 8002a4a:	4621      	mov	r1, r4
					wsect += fs->fsize;
 8002a4c:	441e      	add	r6, r3
					disk_write(fs->drv, fs->win.d8, wsect, 1);
 8002a4e:	4632      	mov	r2, r6
 8002a50:	2301      	movs	r3, #1
 8002a52:	f894 0201 	ldrb.w	r0, [r4, #513]	; 0x201
 8002a56:	f7ff feaf 	bl	80027b8 <disk_write>
				for (nf = fs->n_fats; nf >= 2; nf--) {	/* Reflect the change to all FAT copies */
 8002a5a:	3f01      	subs	r7, #1
 8002a5c:	e7ef      	b.n	8002a3e <sync_window.part.0+0x30>
			res = FR_DISK_ERR;
 8002a5e:	2501      	movs	r5, #1
 8002a60:	e7ef      	b.n	8002a42 <sync_window.part.0+0x34>

08002a62 <sync_window>:
	if (fs->wflag) {	/* Write back the sector if it is dirty */
 8002a62:	f890 3204 	ldrb.w	r3, [r0, #516]	; 0x204
 8002a66:	b10b      	cbz	r3, 8002a6c <sync_window+0xa>
 8002a68:	f7ff bfd1 	b.w	8002a0e <sync_window.part.0>
}
 8002a6c:	4618      	mov	r0, r3
 8002a6e:	4770      	bx	lr

08002a70 <move_window>:
{
 8002a70:	b538      	push	{r3, r4, r5, lr}
	if (sector != fs->winsect) {	/* Window offset changed? */
 8002a72:	f8d0 322c 	ldr.w	r3, [r0, #556]	; 0x22c
{
 8002a76:	4605      	mov	r5, r0
	if (sector != fs->winsect) {	/* Window offset changed? */
 8002a78:	428b      	cmp	r3, r1
{
 8002a7a:	460c      	mov	r4, r1
	if (sector != fs->winsect) {	/* Window offset changed? */
 8002a7c:	d011      	beq.n	8002aa2 <move_window+0x32>
		res = sync_window(fs);		/* Write-back changes */
 8002a7e:	f7ff fff0 	bl	8002a62 <sync_window>
		if (res == FR_OK) {			/* Fill sector window with new data */
 8002a82:	b968      	cbnz	r0, 8002aa0 <move_window+0x30>
			if (disk_read(fs->drv, fs->win.d8, sector, 1) != RES_OK) {
 8002a84:	4622      	mov	r2, r4
 8002a86:	2301      	movs	r3, #1
 8002a88:	4629      	mov	r1, r5
 8002a8a:	f895 0201 	ldrb.w	r0, [r5, #513]	; 0x201
 8002a8e:	f7ff fe85 	bl	800279c <disk_read>
				res = FR_DISK_ERR;
 8002a92:	2800      	cmp	r0, #0
 8002a94:	bf1c      	itt	ne
 8002a96:	f04f 34ff 	movne.w	r4, #4294967295
 8002a9a:	2001      	movne	r0, #1
			fs->winsect = sector;
 8002a9c:	f8c5 422c 	str.w	r4, [r5, #556]	; 0x22c
}
 8002aa0:	bd38      	pop	{r3, r4, r5, pc}
	FRESULT res = FR_OK;
 8002aa2:	2000      	movs	r0, #0
 8002aa4:	e7fc      	b.n	8002aa0 <move_window+0x30>
	...

08002aa8 <check_fs>:
	fs->wflag = 0; fs->winsect = 0xFFFFFFFF;	/* Invaidate window */
 8002aa8:	2300      	movs	r3, #0
{
 8002aaa:	b510      	push	{r4, lr}
	fs->wflag = 0; fs->winsect = 0xFFFFFFFF;	/* Invaidate window */
 8002aac:	f880 3204 	strb.w	r3, [r0, #516]	; 0x204
 8002ab0:	f04f 33ff 	mov.w	r3, #4294967295
 8002ab4:	f8c0 322c 	str.w	r3, [r0, #556]	; 0x22c
{
 8002ab8:	4604      	mov	r4, r0
	if (move_window(fs, sect) != FR_OK)			/* Load boot record */
 8002aba:	f7ff ffd9 	bl	8002a70 <move_window>
 8002abe:	b9c0      	cbnz	r0, 8002af2 <check_fs+0x4a>
	if (LD_WORD(&fs->win.d8[BS_55AA]) != 0xAA55)	/* Check boot record signature (always placed at offset 510 even if the sector size is >512) */
 8002ac0:	f894 21ff 	ldrb.w	r2, [r4, #511]	; 0x1ff
 8002ac4:	f894 31fe 	ldrb.w	r3, [r4, #510]	; 0x1fe
 8002ac8:	ea43 2302 	orr.w	r3, r3, r2, lsl #8
 8002acc:	f64a 2255 	movw	r2, #43605	; 0xaa55
 8002ad0:	4293      	cmp	r3, r2
 8002ad2:	d110      	bne.n	8002af6 <check_fs+0x4e>
	if ((LD_DWORD(&fs->win.d8[BS_FilSysType]) & 0xFFFFFF) == 0x544146)		/* Check "FAT" string */
 8002ad4:	f8d4 3036 	ldr.w	r3, [r4, #54]	; 0x36
 8002ad8:	4a08      	ldr	r2, [pc, #32]	; (8002afc <check_fs+0x54>)
 8002ada:	f023 437f 	bic.w	r3, r3, #4278190080	; 0xff000000
 8002ade:	4293      	cmp	r3, r2
 8002ae0:	d006      	beq.n	8002af0 <check_fs+0x48>
	if ((LD_DWORD(&fs->win.d8[BS_FilSysType32]) & 0xFFFFFF) == 0x544146)	/* Check "FAT" string */
 8002ae2:	f8d4 0052 	ldr.w	r0, [r4, #82]	; 0x52
 8002ae6:	f020 407f 	bic.w	r0, r0, #4278190080	; 0xff000000
		return 3;
 8002aea:	1a80      	subs	r0, r0, r2
 8002aec:	bf18      	it	ne
 8002aee:	2001      	movne	r0, #1
}
 8002af0:	bd10      	pop	{r4, pc}
		return 3;
 8002af2:	2003      	movs	r0, #3
 8002af4:	e7fc      	b.n	8002af0 <check_fs+0x48>
		return 2;
 8002af6:	2002      	movs	r0, #2
 8002af8:	e7fa      	b.n	8002af0 <check_fs+0x48>
 8002afa:	bf00      	nop
 8002afc:	00544146 	.word	0x00544146

08002b00 <find_volume>:
{
 8002b00:	e92d 41ff 	stmdb	sp!, {r0, r1, r2, r3, r4, r5, r6, r7, r8, lr}
	*rfs = 0;
 8002b04:	2300      	movs	r3, #0
{
 8002b06:	4605      	mov	r5, r0
	*rfs = 0;
 8002b08:	6003      	str	r3, [r0, #0]
	vol = get_ldnumber(path);
 8002b0a:	4608      	mov	r0, r1
{
 8002b0c:	4617      	mov	r7, r2
	vol = get_ldnumber(path);
 8002b0e:	f7ff ff41 	bl	8002994 <get_ldnumber>
	if (vol < 0) return FR_INVALID_DRIVE;
 8002b12:	1e06      	subs	r6, r0, #0
 8002b14:	f2c0 8126 	blt.w	8002d64 <find_volume+0x264>
	fs = FatFs[vol];					/* Get pointer to the file system object */
 8002b18:	4b96      	ldr	r3, [pc, #600]	; (8002d74 <find_volume+0x274>)
 8002b1a:	f853 4026 	ldr.w	r4, [r3, r6, lsl #2]
	if (!fs) return FR_NOT_ENABLED;		/* Is the file system object available? */
 8002b1e:	2c00      	cmp	r4, #0
 8002b20:	f000 8122 	beq.w	8002d68 <find_volume+0x268>
	*rfs = fs;							/* Return pointer to the file system object */
 8002b24:	602c      	str	r4, [r5, #0]
	if (fs->fs_type) {					/* If the volume has been mounted */
 8002b26:	f894 3200 	ldrb.w	r3, [r4, #512]	; 0x200
 8002b2a:	b183      	cbz	r3, 8002b4e <find_volume+0x4e>
		stat = disk_status(fs->drv);
 8002b2c:	f894 0201 	ldrb.w	r0, [r4, #513]	; 0x201
 8002b30:	f7ff fe1a 	bl	8002768 <disk_status>
		if (!(stat & STA_NOINIT)) {		/* and the physical drive is kept initialized */
 8002b34:	07c1      	lsls	r1, r0, #31
 8002b36:	d40a      	bmi.n	8002b4e <find_volume+0x4e>
			if (!_FS_READONLY && wmode && (stat & STA_PROTECT))	/* Check write protection if needed */
 8002b38:	2f00      	cmp	r7, #0
 8002b3a:	f000 8117 	beq.w	8002d6c <find_volume+0x26c>
 8002b3e:	f010 0504 	ands.w	r5, r0, #4
 8002b42:	d000      	beq.n	8002b46 <find_volume+0x46>
				return FR_WRITE_PROTECTED;
 8002b44:	250a      	movs	r5, #10
}
 8002b46:	4628      	mov	r0, r5
 8002b48:	b004      	add	sp, #16
 8002b4a:	e8bd 81f0 	ldmia.w	sp!, {r4, r5, r6, r7, r8, pc}
	fs->fs_type = 0;					/* Clear the file system object */
 8002b4e:	2300      	movs	r3, #0
	fs->drv = LD2PD(vol);				/* Bind the logical drive and a physical drive */
 8002b50:	b2f0      	uxtb	r0, r6
	fs->fs_type = 0;					/* Clear the file system object */
 8002b52:	f884 3200 	strb.w	r3, [r4, #512]	; 0x200
	fs->drv = LD2PD(vol);				/* Bind the logical drive and a physical drive */
 8002b56:	f884 0201 	strb.w	r0, [r4, #513]	; 0x201
	stat = disk_initialize(fs->drv);	/* Initialize the physical drive */
 8002b5a:	f7ff fe0f 	bl	800277c <disk_initialize>
	if (stat & STA_NOINIT)				/* Check if the initialization succeeded */
 8002b5e:	f010 0501 	ands.w	r5, r0, #1
 8002b62:	f040 8105 	bne.w	8002d70 <find_volume+0x270>
	if (!_FS_READONLY && wmode && (stat & STA_PROTECT))	/* Check disk write protection if needed */
 8002b66:	b10f      	cbz	r7, 8002b6c <find_volume+0x6c>
 8002b68:	0742      	lsls	r2, r0, #29
 8002b6a:	d4eb      	bmi.n	8002b44 <find_volume+0x44>
	fmt = check_fs(fs, bsect);					/* Load sector 0 and check if it is an FAT boot sector as SFD */
 8002b6c:	2100      	movs	r1, #0
 8002b6e:	4620      	mov	r0, r4
 8002b70:	f7ff ff9a 	bl	8002aa8 <check_fs>
	if (fmt == 1 || (!fmt && (LD2PT(vol)))) {	/* Not an FAT boot sector or forced partition number */
 8002b74:	2801      	cmp	r0, #1
	fmt = check_fs(fs, bsect);					/* Load sector 0 and check if it is an FAT boot sector as SFD */
 8002b76:	4606      	mov	r6, r0
	if (fmt == 1 || (!fmt && (LD2PT(vol)))) {	/* Not an FAT boot sector or forced partition number */
 8002b78:	f040 80db 	bne.w	8002d32 <find_volume+0x232>
 8002b7c:	46e8      	mov	r8, sp
 8002b7e:	4641      	mov	r1, r8
 8002b80:	f504 73df 	add.w	r3, r4, #446	; 0x1be
 8002b84:	f504 70ff 	add.w	r0, r4, #510	; 0x1fe
			br[i] = pt[4] ? LD_DWORD(&pt[8]) : 0;
 8002b88:	791a      	ldrb	r2, [r3, #4]
 8002b8a:	b102      	cbz	r2, 8002b8e <find_volume+0x8e>
 8002b8c:	689a      	ldr	r2, [r3, #8]
 8002b8e:	3310      	adds	r3, #16
		for (i = 0; i < 4; i++) {			/* Get partition offset */
 8002b90:	4298      	cmp	r0, r3
			br[i] = pt[4] ? LD_DWORD(&pt[8]) : 0;
 8002b92:	f841 2b04 	str.w	r2, [r1], #4
		for (i = 0; i < 4; i++) {			/* Get partition offset */
 8002b96:	d1f7      	bne.n	8002b88 <find_volume+0x88>
 8002b98:	2700      	movs	r7, #0
			bsect = br[i];
 8002b9a:	f858 6b04 	ldr.w	r6, [r8], #4
			fmt = bsect ? check_fs(fs, bsect) : 2;	/* Check the partition */
 8002b9e:	2e00      	cmp	r6, #0
 8002ba0:	f000 80be 	beq.w	8002d20 <find_volume+0x220>
 8002ba4:	4631      	mov	r1, r6
 8002ba6:	4620      	mov	r0, r4
 8002ba8:	f7ff ff7e 	bl	8002aa8 <check_fs>
		} while (!LD2PT(vol) && fmt && ++i < 4);
 8002bac:	2800      	cmp	r0, #0
 8002bae:	f040 80b8 	bne.w	8002d22 <find_volume+0x222>
	if (LD_WORD(fs->win.d8 + BPB_BytsPerSec) != SS(fs))	/* (BPB_BytsPerSec must be equal to the physical sector size) */
 8002bb2:	7b22      	ldrb	r2, [r4, #12]
 8002bb4:	7ae3      	ldrb	r3, [r4, #11]
 8002bb6:	ea43 2302 	orr.w	r3, r3, r2, lsl #8
 8002bba:	f5b3 7f00 	cmp.w	r3, #512	; 0x200
 8002bbe:	f040 80bd 	bne.w	8002d3c <find_volume+0x23c>
	fasize = LD_WORD(fs->win.d8 + BPB_FATSz16);			/* Number of sectors per FAT */
 8002bc2:	7de3      	ldrb	r3, [r4, #23]
 8002bc4:	7da1      	ldrb	r1, [r4, #22]
	fs->n_fats = fs->win.d8[BPB_NumFATs];					/* Number of FAT copies */
 8002bc6:	f894 e010 	ldrb.w	lr, [r4, #16]
	if (!fasize) fasize = LD_DWORD(fs->win.d8 + BPB_FATSz32);
 8002bca:	ea51 2103 	orrs.w	r1, r1, r3, lsl #8
 8002bce:	bf08      	it	eq
 8002bd0:	6a61      	ldreq	r1, [r4, #36]	; 0x24
	if (fs->n_fats != 1 && fs->n_fats != 2)				/* (Must be 1 or 2) */
 8002bd2:	f10e 33ff 	add.w	r3, lr, #4294967295
 8002bd6:	2b01      	cmp	r3, #1
	fs->fsize = fasize;
 8002bd8:	f8c4 1218 	str.w	r1, [r4, #536]	; 0x218
	fs->n_fats = fs->win.d8[BPB_NumFATs];					/* Number of FAT copies */
 8002bdc:	f884 e203 	strb.w	lr, [r4, #515]	; 0x203
	if (fs->n_fats != 1 && fs->n_fats != 2)				/* (Must be 1 or 2) */
 8002be0:	f200 80ac 	bhi.w	8002d3c <find_volume+0x23c>
	fs->csize = fs->win.d8[BPB_SecPerClus];				/* Number of sectors per cluster */
 8002be4:	7b67      	ldrb	r7, [r4, #13]
 8002be6:	f884 7202 	strb.w	r7, [r4, #514]	; 0x202
	if (!fs->csize || (fs->csize & (fs->csize - 1)))	/* (Must be power of 2) */
 8002bea:	2f00      	cmp	r7, #0
 8002bec:	f000 80a6 	beq.w	8002d3c <find_volume+0x23c>
 8002bf0:	1e7b      	subs	r3, r7, #1
 8002bf2:	423b      	tst	r3, r7
 8002bf4:	f040 80a2 	bne.w	8002d3c <find_volume+0x23c>
	fs->n_rootdir = LD_WORD(fs->win.d8 + BPB_RootEntCnt);	/* Number of root directory entries */
 8002bf8:	7ca3      	ldrb	r3, [r4, #18]
 8002bfa:	7c60      	ldrb	r0, [r4, #17]
 8002bfc:	ea40 2003 	orr.w	r0, r0, r3, lsl #8
	if (fs->n_rootdir % (SS(fs) / SZ_DIRE))				/* (Must be sector aligned) */
 8002c00:	0703      	lsls	r3, r0, #28
	fs->n_rootdir = LD_WORD(fs->win.d8 + BPB_RootEntCnt);	/* Number of root directory entries */
 8002c02:	f8a4 0208 	strh.w	r0, [r4, #520]	; 0x208
	if (fs->n_rootdir % (SS(fs) / SZ_DIRE))				/* (Must be sector aligned) */
 8002c06:	f040 8099 	bne.w	8002d3c <find_volume+0x23c>
	tsect = LD_WORD(fs->win.d8 + BPB_TotSec16);			/* Number of sectors on the volume */
 8002c0a:	7d22      	ldrb	r2, [r4, #20]
 8002c0c:	7ce3      	ldrb	r3, [r4, #19]
	nrsv = LD_WORD(fs->win.d8 + BPB_RsvdSecCnt);			/* Number of reserved sectors */
 8002c0e:	f894 c00f 	ldrb.w	ip, [r4, #15]
	if (!tsect) tsect = LD_DWORD(fs->win.d8 + BPB_TotSec32);
 8002c12:	ea53 2302 	orrs.w	r3, r3, r2, lsl #8
	nrsv = LD_WORD(fs->win.d8 + BPB_RsvdSecCnt);			/* Number of reserved sectors */
 8002c16:	7ba2      	ldrb	r2, [r4, #14]
	if (!tsect) tsect = LD_DWORD(fs->win.d8 + BPB_TotSec32);
 8002c18:	bf08      	it	eq
 8002c1a:	6a23      	ldreq	r3, [r4, #32]
	if (!nrsv) return FR_NO_FILESYSTEM;					/* (Must not be 0) */
 8002c1c:	ea52 220c 	orrs.w	r2, r2, ip, lsl #8
 8002c20:	f000 808c 	beq.w	8002d3c <find_volume+0x23c>
	fasize *= fs->n_fats;								/* Number of sectors for FAT area */
 8002c24:	fb01 fe0e 	mul.w	lr, r1, lr
	sysect = nrsv + fasize + fs->n_rootdir / (SS(fs) / SZ_DIRE);	/* RSV + FAT + DIR */
 8002c28:	eb02 1c10 	add.w	ip, r2, r0, lsr #4
 8002c2c:	44f4      	add	ip, lr
	if (tsect < sysect) return FR_NO_FILESYSTEM;		/* (Invalid volume size) */
 8002c2e:	4563      	cmp	r3, ip
 8002c30:	f0c0 8084 	bcc.w	8002d3c <find_volume+0x23c>
	nclst = (tsect - sysect) / fs->csize;				/* Number of clusters */
 8002c34:	eba3 030c 	sub.w	r3, r3, ip
	if (!nclst) return FR_NO_FILESYSTEM;				/* (Invalid volume size) */
 8002c38:	42bb      	cmp	r3, r7
	nclst = (tsect - sysect) / fs->csize;				/* Number of clusters */
 8002c3a:	fbb3 f8f7 	udiv	r8, r3, r7
	if (!nclst) return FR_NO_FILESYSTEM;				/* (Invalid volume size) */
 8002c3e:	d37d      	bcc.n	8002d3c <find_volume+0x23c>
	if (nclst >= MIN_FAT16) fmt = FS_FAT16;
 8002c40:	f640 73f5 	movw	r3, #4085	; 0xff5
 8002c44:	4598      	cmp	r8, r3
 8002c46:	d97b      	bls.n	8002d40 <find_volume+0x240>
	if (nclst >= MIN_FAT32) fmt = FS_FAT32;
 8002c48:	f64f 77f5 	movw	r7, #65525	; 0xfff5
 8002c4c:	45b8      	cmp	r8, r7
 8002c4e:	bf94      	ite	ls
 8002c50:	2702      	movls	r7, #2
 8002c52:	2703      	movhi	r7, #3
	fs->n_fatent = nclst + 2;							/* Number of FAT entries */
 8002c54:	f108 0302 	add.w	r3, r8, #2
	fs->fatbase = bsect + nrsv; 						/* FAT start sector */
 8002c58:	4432      	add	r2, r6
	fs->database = bsect + sysect;						/* Data start sector */
 8002c5a:	44b4      	add	ip, r6
	if (fmt == FS_FAT32) {
 8002c5c:	2f03      	cmp	r7, #3
	fs->n_fatent = nclst + 2;							/* Number of FAT entries */
 8002c5e:	f8c4 3214 	str.w	r3, [r4, #532]	; 0x214
	fs->volbase = bsect;								/* Volume start sector */
 8002c62:	f8c4 621c 	str.w	r6, [r4, #540]	; 0x21c
	fs->fatbase = bsect + nrsv; 						/* FAT start sector */
 8002c66:	f8c4 2220 	str.w	r2, [r4, #544]	; 0x220
	fs->database = bsect + sysect;						/* Data start sector */
 8002c6a:	f8c4 c228 	str.w	ip, [r4, #552]	; 0x228
	if (fmt == FS_FAT32) {
 8002c6e:	d169      	bne.n	8002d44 <find_volume+0x244>
		if (fs->n_rootdir) return FR_NO_FILESYSTEM;		/* (BPB_RootEntCnt must be 0) */
 8002c70:	2800      	cmp	r0, #0
 8002c72:	d163      	bne.n	8002d3c <find_volume+0x23c>
		fs->dirbase = LD_DWORD(fs->win.d8 + BPB_RootClus);	/* Root directory start cluster */
 8002c74:	6ae2      	ldr	r2, [r4, #44]	; 0x2c
		szbfat = fs->n_fatent * 4;						/* (Needed FAT size) */
 8002c76:	009b      	lsls	r3, r3, #2
		fs->dirbase = LD_DWORD(fs->win.d8 + BPB_RootClus);	/* Root directory start cluster */
 8002c78:	f8c4 2224 	str.w	r2, [r4, #548]	; 0x224
	if (fs->fsize < (szbfat + (SS(fs) - 1)) / SS(fs))	/* (BPB_FATSz must not be less than the size needed) */
 8002c7c:	f203 13ff 	addw	r3, r3, #511	; 0x1ff
 8002c80:	ebb1 2f53 	cmp.w	r1, r3, lsr #9
 8002c84:	d35a      	bcc.n	8002d3c <find_volume+0x23c>
	fs->last_clust = fs->free_clust = 0xFFFFFFFF;
 8002c86:	f04f 33ff 	mov.w	r3, #4294967295
 8002c8a:	e9c4 3383 	strd	r3, r3, [r4, #524]	; 0x20c
	fs->fsi_flag = 0x80;
 8002c8e:	2380      	movs	r3, #128	; 0x80
	if (fmt == FS_FAT32				/* Enable FSINFO only if FAT32 and BPB_FSInfo is 1 */
 8002c90:	2f03      	cmp	r7, #3
	fs->fsi_flag = 0x80;
 8002c92:	f884 3205 	strb.w	r3, [r4, #517]	; 0x205
	if (fmt == FS_FAT32				/* Enable FSINFO only if FAT32 and BPB_FSInfo is 1 */
 8002c96:	d12d      	bne.n	8002cf4 <find_volume+0x1f4>
		&& LD_WORD(fs->win.d8 + BPB_FSInfo) == 1
 8002c98:	f894 2031 	ldrb.w	r2, [r4, #49]	; 0x31
 8002c9c:	f894 3030 	ldrb.w	r3, [r4, #48]	; 0x30
 8002ca0:	ea43 2302 	orr.w	r3, r3, r2, lsl #8
 8002ca4:	2b01      	cmp	r3, #1
 8002ca6:	d125      	bne.n	8002cf4 <find_volume+0x1f4>
		&& move_window(fs, bsect + 1) == FR_OK)
 8002ca8:	4620      	mov	r0, r4
 8002caa:	1c71      	adds	r1, r6, #1
 8002cac:	f7ff fee0 	bl	8002a70 <move_window>
 8002cb0:	bb00      	cbnz	r0, 8002cf4 <find_volume+0x1f4>
		if (LD_WORD(fs->win.d8 + BS_55AA) == 0xAA55	/* Load FSINFO data if available */
 8002cb2:	f894 21ff 	ldrb.w	r2, [r4, #511]	; 0x1ff
 8002cb6:	f894 31fe 	ldrb.w	r3, [r4, #510]	; 0x1fe
		fs->fsi_flag = 0;
 8002cba:	f884 0205 	strb.w	r0, [r4, #517]	; 0x205
		if (LD_WORD(fs->win.d8 + BS_55AA) == 0xAA55	/* Load FSINFO data if available */
 8002cbe:	ea43 2302 	orr.w	r3, r3, r2, lsl #8
 8002cc2:	f64a 2255 	movw	r2, #43605	; 0xaa55
 8002cc6:	4293      	cmp	r3, r2
 8002cc8:	d114      	bne.n	8002cf4 <find_volume+0x1f4>
			&& LD_DWORD(fs->win.d8 + FSI_LeadSig) == 0x41615252
 8002cca:	6822      	ldr	r2, [r4, #0]
 8002ccc:	4b2a      	ldr	r3, [pc, #168]	; (8002d78 <find_volume+0x278>)
 8002cce:	429a      	cmp	r2, r3
 8002cd0:	d110      	bne.n	8002cf4 <find_volume+0x1f4>
			&& LD_DWORD(fs->win.d8 + FSI_StrucSig) == 0x61417272)
 8002cd2:	f103 53ff 	add.w	r3, r3, #534773760	; 0x1fe00000
 8002cd6:	f8d4 21e4 	ldr.w	r2, [r4, #484]	; 0x1e4
 8002cda:	f503 5300 	add.w	r3, r3, #8192	; 0x2000
 8002cde:	3320      	adds	r3, #32
 8002ce0:	429a      	cmp	r2, r3
			fs->free_clust = LD_DWORD(fs->win.d8 + FSI_Free_Count);
 8002ce2:	bf01      	itttt	eq
 8002ce4:	f8d4 31e8 	ldreq.w	r3, [r4, #488]	; 0x1e8
 8002ce8:	f8c4 3210 	streq.w	r3, [r4, #528]	; 0x210
			fs->last_clust = LD_DWORD(fs->win.d8 + FSI_Nxt_Free);
 8002cec:	f8d4 31ec 	ldreq.w	r3, [r4, #492]	; 0x1ec
 8002cf0:	f8c4 320c 	streq.w	r3, [r4, #524]	; 0x20c
	fs->id = ++Fsid;	/* File system mount ID */
 8002cf4:	4a21      	ldr	r2, [pc, #132]	; (8002d7c <find_volume+0x27c>)
	fs->fs_type = fmt;	/* FAT sub-type */
 8002cf6:	f884 7200 	strb.w	r7, [r4, #512]	; 0x200
	fs->id = ++Fsid;	/* File system mount ID */
 8002cfa:	8813      	ldrh	r3, [r2, #0]
 8002cfc:	3301      	adds	r3, #1
 8002cfe:	b29b      	uxth	r3, r3
 8002d00:	8013      	strh	r3, [r2, #0]
 8002d02:	f8a4 3206 	strh.w	r3, [r4, #518]	; 0x206
		if (Files[i].fs == fs) Files[i].fs = 0;
 8002d06:	4b1e      	ldr	r3, [pc, #120]	; (8002d80 <find_volume+0x280>)
 8002d08:	681a      	ldr	r2, [r3, #0]
 8002d0a:	4294      	cmp	r4, r2
 8002d0c:	bf04      	itt	eq
 8002d0e:	2200      	moveq	r2, #0
 8002d10:	601a      	streq	r2, [r3, #0]
 8002d12:	68da      	ldr	r2, [r3, #12]
 8002d14:	4294      	cmp	r4, r2
 8002d16:	f47f af16 	bne.w	8002b46 <find_volume+0x46>
 8002d1a:	2200      	movs	r2, #0
 8002d1c:	60da      	str	r2, [r3, #12]
 8002d1e:	e712      	b.n	8002b46 <find_volume+0x46>
			fmt = bsect ? check_fs(fs, bsect) : 2;	/* Check the partition */
 8002d20:	2002      	movs	r0, #2
		} while (!LD2PT(vol) && fmt && ++i < 4);
 8002d22:	3701      	adds	r7, #1
 8002d24:	2f04      	cmp	r7, #4
 8002d26:	f47f af38 	bne.w	8002b9a <find_volume+0x9a>
	if (fmt == 3) return FR_DISK_ERR;		/* An error occured in the disk I/O layer */
 8002d2a:	2803      	cmp	r0, #3
 8002d2c:	d106      	bne.n	8002d3c <find_volume+0x23c>
 8002d2e:	2501      	movs	r5, #1
 8002d30:	e709      	b.n	8002b46 <find_volume+0x46>
 8002d32:	2803      	cmp	r0, #3
 8002d34:	d0fb      	beq.n	8002d2e <find_volume+0x22e>
	if (fmt) return FR_NO_FILESYSTEM;		/* No FAT volume is found */
 8002d36:	2800      	cmp	r0, #0
 8002d38:	f43f af3b 	beq.w	8002bb2 <find_volume+0xb2>
 8002d3c:	250d      	movs	r5, #13
 8002d3e:	e702      	b.n	8002b46 <find_volume+0x46>
	fmt = FS_FAT12;
 8002d40:	2701      	movs	r7, #1
 8002d42:	e787      	b.n	8002c54 <find_volume+0x154>
		if (!fs->n_rootdir)	return FR_NO_FILESYSTEM;	/* (BPB_RootEntCnt must not be 0) */
 8002d44:	2800      	cmp	r0, #0
 8002d46:	d0f9      	beq.n	8002d3c <find_volume+0x23c>
		fs->dirbase = fs->fatbase + fasize;				/* Root directory start sector */
 8002d48:	4472      	add	r2, lr
			fs->n_fatent * 2 : fs->n_fatent * 3 / 2 + (fs->n_fatent & 1);
 8002d4a:	2f02      	cmp	r7, #2
		fs->dirbase = fs->fatbase + fasize;				/* Root directory start sector */
 8002d4c:	f8c4 2224 	str.w	r2, [r4, #548]	; 0x224
		szbfat = (fmt == FS_FAT16) ?					/* (Needed FAT size) */
 8002d50:	ea4f 0243 	mov.w	r2, r3, lsl #1
			fs->n_fatent * 2 : fs->n_fatent * 3 / 2 + (fs->n_fatent & 1);
 8002d54:	bf1b      	ittet	ne
 8002d56:	18d2      	addne	r2, r2, r3
 8002d58:	f003 0301 	andne.w	r3, r3, #1
 8002d5c:	4613      	moveq	r3, r2
 8002d5e:	eb03 0352 	addne.w	r3, r3, r2, lsr #1
 8002d62:	e78b      	b.n	8002c7c <find_volume+0x17c>
	if (vol < 0) return FR_INVALID_DRIVE;
 8002d64:	250b      	movs	r5, #11
 8002d66:	e6ee      	b.n	8002b46 <find_volume+0x46>
	if (!fs) return FR_NOT_ENABLED;		/* Is the file system object available? */
 8002d68:	250c      	movs	r5, #12
 8002d6a:	e6ec      	b.n	8002b46 <find_volume+0x46>
			return FR_OK;				/* The file system object is valid */
 8002d6c:	463d      	mov	r5, r7
 8002d6e:	e6ea      	b.n	8002b46 <find_volume+0x46>
		return FR_NOT_READY;			/* Failed to initialize due to no medium or hard error */
 8002d70:	2503      	movs	r5, #3
 8002d72:	e6e8      	b.n	8002b46 <find_volume+0x46>
 8002d74:	200000c4 	.word	0x200000c4
 8002d78:	41615252 	.word	0x41615252
 8002d7c:	200000e0 	.word	0x200000e0
 8002d80:	200000c8 	.word	0x200000c8

08002d84 <sync_fs>:
{
 8002d84:	b538      	push	{r3, r4, r5, lr}
 8002d86:	4604      	mov	r4, r0
	res = sync_window(fs);
 8002d88:	f7ff fe6b 	bl	8002a62 <sync_window>
 8002d8c:	4605      	mov	r5, r0
	if (res == FR_OK) {
 8002d8e:	bbb8      	cbnz	r0, 8002e00 <sync_fs+0x7c>
		if (fs->fs_type == FS_FAT32 && fs->fsi_flag == 1) {
 8002d90:	f894 3200 	ldrb.w	r3, [r4, #512]	; 0x200
 8002d94:	2b03      	cmp	r3, #3
 8002d96:	d12a      	bne.n	8002dee <sync_fs+0x6a>
 8002d98:	f894 3205 	ldrb.w	r3, [r4, #517]	; 0x205
 8002d9c:	2b01      	cmp	r3, #1
 8002d9e:	d126      	bne.n	8002dee <sync_fs+0x6a>
			mem_set(fs->win.d8, 0, SS(fs));
 8002da0:	4601      	mov	r1, r0
 8002da2:	f44f 7200 	mov.w	r2, #512	; 0x200
 8002da6:	4620      	mov	r0, r4
 8002da8:	f7ff fd2a 	bl	8002800 <mem_set>
			ST_WORD(fs->win.d8 + BS_55AA, 0xAA55);
 8002dac:	f64a 2255 	movw	r2, #43605	; 0xaa55
 8002db0:	f8a4 21fe 	strh.w	r2, [r4, #510]	; 0x1fe
			ST_DWORD(fs->win.d8 + FSI_LeadSig, 0x41615252);
 8002db4:	4a13      	ldr	r2, [pc, #76]	; (8002e04 <sync_fs+0x80>)
			disk_write(fs->drv, fs->win.d8, fs->winsect, 1);
 8002db6:	4621      	mov	r1, r4
			ST_DWORD(fs->win.d8 + FSI_LeadSig, 0x41615252);
 8002db8:	6022      	str	r2, [r4, #0]
			ST_DWORD(fs->win.d8 + FSI_StrucSig, 0x61417272);
 8002dba:	f102 52ff 	add.w	r2, r2, #534773760	; 0x1fe00000
 8002dbe:	f502 5200 	add.w	r2, r2, #8192	; 0x2000
 8002dc2:	3220      	adds	r2, #32
 8002dc4:	f8c4 21e4 	str.w	r2, [r4, #484]	; 0x1e4
			ST_DWORD(fs->win.d8 + FSI_Free_Count, fs->free_clust);
 8002dc8:	f8d4 2210 	ldr.w	r2, [r4, #528]	; 0x210
			disk_write(fs->drv, fs->win.d8, fs->winsect, 1);
 8002dcc:	f894 0201 	ldrb.w	r0, [r4, #513]	; 0x201
			ST_DWORD(fs->win.d8 + FSI_Free_Count, fs->free_clust);
 8002dd0:	f8c4 21e8 	str.w	r2, [r4, #488]	; 0x1e8
			ST_DWORD(fs->win.d8 + FSI_Nxt_Free, fs->last_clust);
 8002dd4:	f8d4 220c 	ldr.w	r2, [r4, #524]	; 0x20c
 8002dd8:	f8c4 21ec 	str.w	r2, [r4, #492]	; 0x1ec
			fs->winsect = fs->volbase + 1;
 8002ddc:	f8d4 221c 	ldr.w	r2, [r4, #540]	; 0x21c
 8002de0:	3201      	adds	r2, #1
 8002de2:	f8c4 222c 	str.w	r2, [r4, #556]	; 0x22c
			disk_write(fs->drv, fs->win.d8, fs->winsect, 1);
 8002de6:	f7ff fce7 	bl	80027b8 <disk_write>
			fs->fsi_flag = 0;
 8002dea:	f884 5205 	strb.w	r5, [r4, #517]	; 0x205
		if (disk_ioctl(fs->drv, CTRL_SYNC, 0) != RES_OK)
 8002dee:	2200      	movs	r2, #0
 8002df0:	f894 0201 	ldrb.w	r0, [r4, #513]	; 0x201
 8002df4:	4611      	mov	r1, r2
 8002df6:	f7ff fced 	bl	80027d4 <disk_ioctl>
	res = sync_window(fs);
 8002dfa:	3800      	subs	r0, #0
 8002dfc:	bf18      	it	ne
 8002dfe:	2001      	movne	r0, #1
}
 8002e00:	bd38      	pop	{r3, r4, r5, pc}
 8002e02:	bf00      	nop
 8002e04:	41615252 	.word	0x41615252

08002e08 <clust2sect>:
	if (clst >= fs->n_fatent - 2) return 0;		/* Invalid cluster# */
 8002e08:	f8d0 3214 	ldr.w	r3, [r0, #532]	; 0x214
	clst -= 2;
 8002e0c:	3902      	subs	r1, #2
	if (clst >= fs->n_fatent - 2) return 0;		/* Invalid cluster# */
 8002e0e:	3b02      	subs	r3, #2
 8002e10:	428b      	cmp	r3, r1
	return clst * fs->csize + fs->database;
 8002e12:	bf83      	ittte	hi
 8002e14:	f890 3202 	ldrbhi.w	r3, [r0, #514]	; 0x202
 8002e18:	f8d0 0228 	ldrhi.w	r0, [r0, #552]	; 0x228
 8002e1c:	fb01 0003 	mlahi	r0, r1, r3, r0
	if (clst >= fs->n_fatent - 2) return 0;		/* Invalid cluster# */
 8002e20:	2000      	movls	r0, #0
}
 8002e22:	4770      	bx	lr

08002e24 <get_fat>:
	if (clst < 2 || clst >= fs->n_fatent) {	/* Check range */
 8002e24:	2901      	cmp	r1, #1
{
 8002e26:	b5f8      	push	{r3, r4, r5, r6, r7, lr}
 8002e28:	4606      	mov	r6, r0
 8002e2a:	460d      	mov	r5, r1
	if (clst < 2 || clst >= fs->n_fatent) {	/* Check range */
 8002e2c:	d959      	bls.n	8002ee2 <get_fat+0xbe>
 8002e2e:	f8d0 3214 	ldr.w	r3, [r0, #532]	; 0x214
 8002e32:	428b      	cmp	r3, r1
 8002e34:	d955      	bls.n	8002ee2 <get_fat+0xbe>
		switch (fs->fs_type) {
 8002e36:	f890 3200 	ldrb.w	r3, [r0, #512]	; 0x200
 8002e3a:	2b02      	cmp	r3, #2
 8002e3c:	d027      	beq.n	8002e8e <get_fat+0x6a>
 8002e3e:	2b03      	cmp	r3, #3
 8002e40:	d036      	beq.n	8002eb0 <get_fat+0x8c>
 8002e42:	2b01      	cmp	r3, #1
 8002e44:	d14d      	bne.n	8002ee2 <get_fat+0xbe>
			bc = (UINT)clst; bc += bc / 2;
 8002e46:	eb01 0451 	add.w	r4, r1, r1, lsr #1
			if (move_window(fs, fs->fatbase + (bc / SS(fs))) != FR_OK) break;
 8002e4a:	f8d0 1220 	ldr.w	r1, [r0, #544]	; 0x220
 8002e4e:	eb01 2154 	add.w	r1, r1, r4, lsr #9
 8002e52:	f7ff fe0d 	bl	8002a70 <move_window>
 8002e56:	b110      	cbz	r0, 8002e5e <get_fat+0x3a>
		val = 0xFFFFFFFF;	/* Default value falls on disk error */
 8002e58:	f04f 30ff 	mov.w	r0, #4294967295
}
 8002e5c:	bdf8      	pop	{r3, r4, r5, r6, r7, pc}
			if (move_window(fs, fs->fatbase + (bc / SS(fs))) != FR_OK) break;
 8002e5e:	f8d6 1220 	ldr.w	r1, [r6, #544]	; 0x220
			wc = fs->win.d8[bc++ % SS(fs)];
 8002e62:	1c67      	adds	r7, r4, #1
			if (move_window(fs, fs->fatbase + (bc / SS(fs))) != FR_OK) break;
 8002e64:	4630      	mov	r0, r6
			wc = fs->win.d8[bc++ % SS(fs)];
 8002e66:	f3c4 0408 	ubfx	r4, r4, #0, #9
			if (move_window(fs, fs->fatbase + (bc / SS(fs))) != FR_OK) break;
 8002e6a:	eb01 2157 	add.w	r1, r1, r7, lsr #9
			wc = fs->win.d8[bc++ % SS(fs)];
 8002e6e:	5d34      	ldrb	r4, [r6, r4]
			if (move_window(fs, fs->fatbase + (bc / SS(fs))) != FR_OK) break;
 8002e70:	f7ff fdfe 	bl	8002a70 <move_window>
 8002e74:	2800      	cmp	r0, #0
 8002e76:	d1ef      	bne.n	8002e58 <get_fat+0x34>
			wc |= fs->win.d8[bc % SS(fs)] << 8;
 8002e78:	f3c7 0708 	ubfx	r7, r7, #0, #9
 8002e7c:	5df0      	ldrb	r0, [r6, r7]
			val = clst & 1 ? wc >> 4 : (wc & 0xFFF);
 8002e7e:	07eb      	lsls	r3, r5, #31
			wc |= fs->win.d8[bc % SS(fs)] << 8;
 8002e80:	ea44 2000 	orr.w	r0, r4, r0, lsl #8
			val = clst & 1 ? wc >> 4 : (wc & 0xFFF);
 8002e84:	bf4c      	ite	mi
 8002e86:	0900      	lsrmi	r0, r0, #4
 8002e88:	f3c0 000b 	ubfxpl	r0, r0, #0, #12
 8002e8c:	e7e6      	b.n	8002e5c <get_fat+0x38>
			if (move_window(fs, fs->fatbase + (clst / (SS(fs) / 2))) != FR_OK) break;
 8002e8e:	f8d0 1220 	ldr.w	r1, [r0, #544]	; 0x220
 8002e92:	eb01 2115 	add.w	r1, r1, r5, lsr #8
 8002e96:	f7ff fdeb 	bl	8002a70 <move_window>
 8002e9a:	2800      	cmp	r0, #0
 8002e9c:	d1dc      	bne.n	8002e58 <get_fat+0x34>
			p = &fs->win.d8[clst * 2 % SS(fs)];
 8002e9e:	006d      	lsls	r5, r5, #1
 8002ea0:	f405 75ff 	and.w	r5, r5, #510	; 0x1fe
			val = LD_WORD(p);
 8002ea4:	1973      	adds	r3, r6, r5
 8002ea6:	785b      	ldrb	r3, [r3, #1]
 8002ea8:	5d70      	ldrb	r0, [r6, r5]
 8002eaa:	ea40 2003 	orr.w	r0, r0, r3, lsl #8
			break;
 8002eae:	e7d5      	b.n	8002e5c <get_fat+0x38>
			if (move_window(fs, fs->fatbase + (clst / (SS(fs) / 4))) != FR_OK) break;
 8002eb0:	f8d0 1220 	ldr.w	r1, [r0, #544]	; 0x220
 8002eb4:	eb01 11d5 	add.w	r1, r1, r5, lsr #7
 8002eb8:	f7ff fdda 	bl	8002a70 <move_window>
 8002ebc:	2800      	cmp	r0, #0
 8002ebe:	d1cb      	bne.n	8002e58 <get_fat+0x34>
			p = &fs->win.d8[clst * 4 % SS(fs)];
 8002ec0:	00ad      	lsls	r5, r5, #2
 8002ec2:	f405 75fe 	and.w	r5, r5, #508	; 0x1fc
 8002ec6:	1973      	adds	r3, r6, r5
			val = LD_DWORD(p) & 0x0FFFFFFF;
 8002ec8:	7898      	ldrb	r0, [r3, #2]
 8002eca:	78da      	ldrb	r2, [r3, #3]
 8002ecc:	0400      	lsls	r0, r0, #16
 8002ece:	ea40 6002 	orr.w	r0, r0, r2, lsl #24
 8002ed2:	5d72      	ldrb	r2, [r6, r5]
 8002ed4:	785b      	ldrb	r3, [r3, #1]
 8002ed6:	4310      	orrs	r0, r2
 8002ed8:	ea40 2003 	orr.w	r0, r0, r3, lsl #8
 8002edc:	f020 4070 	bic.w	r0, r0, #4026531840	; 0xf0000000
			break;
 8002ee0:	e7bc      	b.n	8002e5c <get_fat+0x38>
		switch (fs->fs_type) {
 8002ee2:	2001      	movs	r0, #1
	return val;
 8002ee4:	e7ba      	b.n	8002e5c <get_fat+0x38>

08002ee6 <dir_sdi>:
	clst = dp->sclust;		/* Table start cluster (0:root) */
 8002ee6:	f8d0 2208 	ldr.w	r2, [r0, #520]	; 0x208
{
 8002eea:	b570      	push	{r4, r5, r6, lr}
	if (clst == 1 || clst >= dp->fs->n_fatent)	/* Check start cluster range */
 8002eec:	2a01      	cmp	r2, #1
{
 8002eee:	4604      	mov	r4, r0
 8002ef0:	460d      	mov	r5, r1
	dp->index = (WORD)idx;	/* Current index */
 8002ef2:	f8a0 1206 	strh.w	r1, [r0, #518]	; 0x206
	if (clst == 1 || clst >= dp->fs->n_fatent)	/* Check start cluster range */
 8002ef6:	d101      	bne.n	8002efc <dir_sdi+0x16>
		return FR_INT_ERR;
 8002ef8:	2002      	movs	r0, #2
}
 8002efa:	bd70      	pop	{r4, r5, r6, pc}
	if (clst == 1 || clst >= dp->fs->n_fatent)	/* Check start cluster range */
 8002efc:	f8d0 3200 	ldr.w	r3, [r0, #512]	; 0x200
 8002f00:	f8d3 1214 	ldr.w	r1, [r3, #532]	; 0x214
 8002f04:	4291      	cmp	r1, r2
 8002f06:	d9f7      	bls.n	8002ef8 <dir_sdi+0x12>
	if (!clst && dp->fs->fs_type == FS_FAT32)	/* Replace cluster# 0 with root cluster# if in FAT32 */
 8002f08:	b9fa      	cbnz	r2, 8002f4a <dir_sdi+0x64>
 8002f0a:	f893 1200 	ldrb.w	r1, [r3, #512]	; 0x200
 8002f0e:	2903      	cmp	r1, #3
 8002f10:	d102      	bne.n	8002f18 <dir_sdi+0x32>
		clst = dp->fs->dirbase;
 8002f12:	f8d3 1224 	ldr.w	r1, [r3, #548]	; 0x224
	if (clst == 0) {	/* Static table (root-directory in FAT12/16) */
 8002f16:	b9b9      	cbnz	r1, 8002f48 <dir_sdi+0x62>
		if (idx >= dp->fs->n_rootdir)	/* Is index out of range? */
 8002f18:	f8b3 1208 	ldrh.w	r1, [r3, #520]	; 0x208
 8002f1c:	42a9      	cmp	r1, r5
 8002f1e:	d9eb      	bls.n	8002ef8 <dir_sdi+0x12>
		sect = dp->fs->dirbase;
 8002f20:	f8d3 0224 	ldr.w	r0, [r3, #548]	; 0x224
	dp->clust = clst;	/* Current cluster# */
 8002f24:	f8c4 220c 	str.w	r2, [r4, #524]	; 0x20c
	if (!sect) return FR_INT_ERR;
 8002f28:	2800      	cmp	r0, #0
 8002f2a:	d0e5      	beq.n	8002ef8 <dir_sdi+0x12>
	dp->dir = dp->fs->win.d8 + (idx % (SS(dp->fs) / SZ_DIRE)) * SZ_DIRE;	/* Ptr to the entry in the sector */
 8002f2c:	f8d4 1200 	ldr.w	r1, [r4, #512]	; 0x200
	dp->sect = sect + idx / (SS(dp->fs) / SZ_DIRE);					/* Sector# of the directory entry */
 8002f30:	eb00 1015 	add.w	r0, r0, r5, lsr #4
	dp->dir = dp->fs->win.d8 + (idx % (SS(dp->fs) / SZ_DIRE)) * SZ_DIRE;	/* Ptr to the entry in the sector */
 8002f34:	f005 050f 	and.w	r5, r5, #15
 8002f38:	eb01 1545 	add.w	r5, r1, r5, lsl #5
	dp->sect = sect + idx / (SS(dp->fs) / SZ_DIRE);					/* Sector# of the directory entry */
 8002f3c:	f8c4 0210 	str.w	r0, [r4, #528]	; 0x210
	dp->dir = dp->fs->win.d8 + (idx % (SS(dp->fs) / SZ_DIRE)) * SZ_DIRE;	/* Ptr to the entry in the sector */
 8002f40:	f8c4 5214 	str.w	r5, [r4, #532]	; 0x214
	return FR_OK;
 8002f44:	2000      	movs	r0, #0
 8002f46:	e7d8      	b.n	8002efa <dir_sdi+0x14>
 8002f48:	460a      	mov	r2, r1
		ic = SS(dp->fs) / SZ_DIRE * dp->fs->csize;	/* Entries per cluster */
 8002f4a:	f893 6202 	ldrb.w	r6, [r3, #514]	; 0x202
 8002f4e:	0136      	lsls	r6, r6, #4
		while (idx >= ic) {	/* Follow cluster chain */
 8002f50:	42b5      	cmp	r5, r6
			clst = get_fat(dp->fs, clst);				/* Get next cluster */
 8002f52:	4611      	mov	r1, r2
 8002f54:	f8d4 0200 	ldr.w	r0, [r4, #512]	; 0x200
		while (idx >= ic) {	/* Follow cluster chain */
 8002f58:	d202      	bcs.n	8002f60 <dir_sdi+0x7a>
		sect = clust2sect(dp->fs, clst);
 8002f5a:	f7ff ff55 	bl	8002e08 <clust2sect>
 8002f5e:	e7e1      	b.n	8002f24 <dir_sdi+0x3e>
			clst = get_fat(dp->fs, clst);				/* Get next cluster */
 8002f60:	f7ff ff60 	bl	8002e24 <get_fat>
			if (clst == 0xFFFFFFFF) return FR_DISK_ERR;	/* Disk error */
 8002f64:	1c43      	adds	r3, r0, #1
			clst = get_fat(dp->fs, clst);				/* Get next cluster */
 8002f66:	4602      	mov	r2, r0
			if (clst == 0xFFFFFFFF) return FR_DISK_ERR;	/* Disk error */
 8002f68:	d009      	beq.n	8002f7e <dir_sdi+0x98>
			if (clst < 2 || clst >= dp->fs->n_fatent)	/* Reached to end of table or internal error */
 8002f6a:	2801      	cmp	r0, #1
 8002f6c:	d9c4      	bls.n	8002ef8 <dir_sdi+0x12>
 8002f6e:	f8d4 3200 	ldr.w	r3, [r4, #512]	; 0x200
 8002f72:	f8d3 3214 	ldr.w	r3, [r3, #532]	; 0x214
 8002f76:	4283      	cmp	r3, r0
 8002f78:	d9be      	bls.n	8002ef8 <dir_sdi+0x12>
			idx -= ic;
 8002f7a:	1bad      	subs	r5, r5, r6
 8002f7c:	e7e8      	b.n	8002f50 <dir_sdi+0x6a>
			if (clst == 0xFFFFFFFF) return FR_DISK_ERR;	/* Disk error */
 8002f7e:	2001      	movs	r0, #1
 8002f80:	e7bb      	b.n	8002efa <dir_sdi+0x14>

08002f82 <put_fat>:
	if (clst < 2 || clst >= fs->n_fatent) {	/* Check range */
 8002f82:	2901      	cmp	r1, #1
{
 8002f84:	e92d 41f0 	stmdb	sp!, {r4, r5, r6, r7, r8, lr}
 8002f88:	4605      	mov	r5, r0
 8002f8a:	460c      	mov	r4, r1
 8002f8c:	4616      	mov	r6, r2
	if (clst < 2 || clst >= fs->n_fatent) {	/* Check range */
 8002f8e:	d970      	bls.n	8003072 <put_fat+0xf0>
 8002f90:	f8d0 3214 	ldr.w	r3, [r0, #532]	; 0x214
 8002f94:	428b      	cmp	r3, r1
 8002f96:	d96c      	bls.n	8003072 <put_fat+0xf0>
		switch (fs->fs_type) {
 8002f98:	f890 3200 	ldrb.w	r3, [r0, #512]	; 0x200
 8002f9c:	2b02      	cmp	r3, #2
 8002f9e:	d03c      	beq.n	800301a <put_fat+0x98>
 8002fa0:	2b03      	cmp	r3, #3
 8002fa2:	d04b      	beq.n	800303c <put_fat+0xba>
 8002fa4:	2b01      	cmp	r3, #1
 8002fa6:	d164      	bne.n	8003072 <put_fat+0xf0>
			bc = (UINT)clst; bc += bc / 2;
 8002fa8:	eb01 0751 	add.w	r7, r1, r1, lsr #1
			res = move_window(fs, fs->fatbase + (bc / SS(fs)));
 8002fac:	f8d0 1220 	ldr.w	r1, [r0, #544]	; 0x220
 8002fb0:	eb01 2157 	add.w	r1, r1, r7, lsr #9
 8002fb4:	f7ff fd5c 	bl	8002a70 <move_window>
			if (res != FR_OK) break;
 8002fb8:	bb28      	cbnz	r0, 8003006 <put_fat+0x84>
			*p = (clst & 1) ? ((*p & 0x0F) | ((BYTE)val << 4)) : (BYTE)val;
 8002fba:	f014 0401 	ands.w	r4, r4, #1
			p = &fs->win.d8[bc++ % SS(fs)];
 8002fbe:	f107 0801 	add.w	r8, r7, #1
 8002fc2:	f3c7 0708 	ubfx	r7, r7, #0, #9
			*p = (clst & 1) ? ((*p & 0x0F) | ((BYTE)val << 4)) : (BYTE)val;
 8002fc6:	bf17      	itett	ne
 8002fc8:	5deb      	ldrbne	r3, [r5, r7]
 8002fca:	b2f3      	uxtbeq	r3, r6
 8002fcc:	f003 020f 	andne.w	r2, r3, #15
 8002fd0:	0133      	lslne	r3, r6, #4
 8002fd2:	bf1c      	itt	ne
 8002fd4:	f003 03f0 	andne.w	r3, r3, #240	; 0xf0
 8002fd8:	4313      	orrne	r3, r2
 8002fda:	55eb      	strb	r3, [r5, r7]
			fs->wflag = 1;
 8002fdc:	2301      	movs	r3, #1
			res = move_window(fs, fs->fatbase + (bc / SS(fs)));
 8002fde:	f8d5 1220 	ldr.w	r1, [r5, #544]	; 0x220
 8002fe2:	4628      	mov	r0, r5
			fs->wflag = 1;
 8002fe4:	f885 3204 	strb.w	r3, [r5, #516]	; 0x204
			res = move_window(fs, fs->fatbase + (bc / SS(fs)));
 8002fe8:	eb01 2158 	add.w	r1, r1, r8, lsr #9
 8002fec:	f7ff fd40 	bl	8002a70 <move_window>
			if (res != FR_OK) break;
 8002ff0:	b948      	cbnz	r0, 8003006 <put_fat+0x84>
			p = &fs->win.d8[bc % SS(fs)];
 8002ff2:	f3c8 0808 	ubfx	r8, r8, #0, #9
			*p = (clst & 1) ? (BYTE)(val >> 4) : ((*p & 0xF0) | ((BYTE)(val >> 8) & 0x0F));
 8002ff6:	b144      	cbz	r4, 800300a <put_fat+0x88>
 8002ff8:	f3c6 1207 	ubfx	r2, r6, #4, #8
 8002ffc:	f805 2008 	strb.w	r2, [r5, r8]
			fs->wflag = 1;
 8003000:	2301      	movs	r3, #1
 8003002:	f885 3204 	strb.w	r3, [r5, #516]	; 0x204
}
 8003006:	e8bd 81f0 	ldmia.w	sp!, {r4, r5, r6, r7, r8, pc}
			*p = (clst & 1) ? (BYTE)(val >> 4) : ((*p & 0xF0) | ((BYTE)(val >> 8) & 0x0F));
 800300a:	f815 2008 	ldrb.w	r2, [r5, r8]
 800300e:	f022 030f 	bic.w	r3, r2, #15
 8003012:	f3c6 2203 	ubfx	r2, r6, #8, #4
 8003016:	431a      	orrs	r2, r3
 8003018:	e7f0      	b.n	8002ffc <put_fat+0x7a>
			res = move_window(fs, fs->fatbase + (clst / (SS(fs) / 2)));
 800301a:	f8d0 1220 	ldr.w	r1, [r0, #544]	; 0x220
 800301e:	eb01 2114 	add.w	r1, r1, r4, lsr #8
 8003022:	f7ff fd25 	bl	8002a70 <move_window>
			if (res != FR_OK) break;
 8003026:	2800      	cmp	r0, #0
 8003028:	d1ed      	bne.n	8003006 <put_fat+0x84>
			p = &fs->win.d8[clst * 2 % SS(fs)];
 800302a:	0064      	lsls	r4, r4, #1
 800302c:	f404 74ff 	and.w	r4, r4, #510	; 0x1fe
			ST_WORD(p, (WORD)val);
 8003030:	552e      	strb	r6, [r5, r4]
 8003032:	f3c6 2207 	ubfx	r2, r6, #8, #8
 8003036:	442c      	add	r4, r5
 8003038:	7062      	strb	r2, [r4, #1]
			fs->wflag = 1;
 800303a:	e7e1      	b.n	8003000 <put_fat+0x7e>
			res = move_window(fs, fs->fatbase + (clst / (SS(fs) / 4)));
 800303c:	f8d0 1220 	ldr.w	r1, [r0, #544]	; 0x220
 8003040:	eb01 11d4 	add.w	r1, r1, r4, lsr #7
 8003044:	f7ff fd14 	bl	8002a70 <move_window>
			if (res != FR_OK) break;
 8003048:	2800      	cmp	r0, #0
 800304a:	d1dc      	bne.n	8003006 <put_fat+0x84>
			p = &fs->win.d8[clst * 4 % SS(fs)];
 800304c:	00a4      	lsls	r4, r4, #2
 800304e:	f404 74fe 	and.w	r4, r4, #508	; 0x1fc
 8003052:	1929      	adds	r1, r5, r4
			val |= LD_DWORD(p) & 0xF0000000;
 8003054:	78cb      	ldrb	r3, [r1, #3]
 8003056:	061b      	lsls	r3, r3, #24
 8003058:	f003 4370 	and.w	r3, r3, #4026531840	; 0xf0000000
 800305c:	ea43 0206 	orr.w	r2, r3, r6
			ST_DWORD(p, val);
 8003060:	f3c2 2307 	ubfx	r3, r2, #8, #8
 8003064:	552a      	strb	r2, [r5, r4]
 8003066:	704b      	strb	r3, [r1, #1]
 8003068:	0c13      	lsrs	r3, r2, #16
 800306a:	0e12      	lsrs	r2, r2, #24
 800306c:	708b      	strb	r3, [r1, #2]
 800306e:	70ca      	strb	r2, [r1, #3]
 8003070:	e7c6      	b.n	8003000 <put_fat+0x7e>
		switch (fs->fs_type) {
 8003072:	2002      	movs	r0, #2
 8003074:	e7c7      	b.n	8003006 <put_fat+0x84>

08003076 <create_chain>:
{
 8003076:	b5f8      	push	{r3, r4, r5, r6, r7, lr}
 8003078:	4605      	mov	r5, r0
	if (clst == 0) {		/* Create a new chain */
 800307a:	460f      	mov	r7, r1
 800307c:	b989      	cbnz	r1, 80030a2 <create_chain+0x2c>
		scl = fs->last_clust;			/* Get suggested start point */
 800307e:	f8d0 620c 	ldr.w	r6, [r0, #524]	; 0x20c
		if (!scl || scl >= fs->n_fatent) scl = 1;
 8003082:	b1f6      	cbz	r6, 80030c2 <create_chain+0x4c>
 8003084:	f8d0 3214 	ldr.w	r3, [r0, #532]	; 0x214
 8003088:	429e      	cmp	r6, r3
 800308a:	bf28      	it	cs
 800308c:	2601      	movcs	r6, #1
	ncl = scl;				/* Start cluster */
 800308e:	4634      	mov	r4, r6
		if (ncl >= fs->n_fatent) {		/* Check wrap around */
 8003090:	f8d5 3214 	ldr.w	r3, [r5, #532]	; 0x214
		ncl++;							/* Next cluster */
 8003094:	3401      	adds	r4, #1
		if (ncl >= fs->n_fatent) {		/* Check wrap around */
 8003096:	42a3      	cmp	r3, r4
 8003098:	d816      	bhi.n	80030c8 <create_chain+0x52>
			if (ncl > scl) return 0;	/* No free cluster */
 800309a:	2e01      	cmp	r6, #1
 800309c:	d813      	bhi.n	80030c6 <create_chain+0x50>
 800309e:	2400      	movs	r4, #0
 80030a0:	e005      	b.n	80030ae <create_chain+0x38>
		cs = get_fat(fs, clst);			/* Check the cluster status */
 80030a2:	f7ff febf 	bl	8002e24 <get_fat>
		if (cs < 2) return 1;			/* Invalid value */
 80030a6:	2801      	cmp	r0, #1
		cs = get_fat(fs, clst);			/* Check the cluster status */
 80030a8:	4604      	mov	r4, r0
		if (cs < 2) return 1;			/* Invalid value */
 80030aa:	d802      	bhi.n	80030b2 <create_chain+0x3c>
 80030ac:	2401      	movs	r4, #1
}
 80030ae:	4620      	mov	r0, r4
 80030b0:	bdf8      	pop	{r3, r4, r5, r6, r7, pc}
		if (cs == 0xFFFFFFFF) return cs;	/* A disk error occurred */
 80030b2:	1c60      	adds	r0, r4, #1
 80030b4:	d035      	beq.n	8003122 <create_chain+0xac>
		if (cs < fs->n_fatent) return cs;	/* It is already followed by next cluster */
 80030b6:	f8d5 3214 	ldr.w	r3, [r5, #532]	; 0x214
 80030ba:	42a3      	cmp	r3, r4
 80030bc:	d8f7      	bhi.n	80030ae <create_chain+0x38>
 80030be:	463e      	mov	r6, r7
 80030c0:	e7e5      	b.n	800308e <create_chain+0x18>
		if (!scl || scl >= fs->n_fatent) scl = 1;
 80030c2:	2601      	movs	r6, #1
 80030c4:	e7e3      	b.n	800308e <create_chain+0x18>
			ncl = 2;
 80030c6:	2402      	movs	r4, #2
		cs = get_fat(fs, ncl);			/* Get the cluster status */
 80030c8:	4621      	mov	r1, r4
 80030ca:	4628      	mov	r0, r5
 80030cc:	f7ff feaa 	bl	8002e24 <get_fat>
		if (cs == 0) break;				/* Found a free cluster */
 80030d0:	b130      	cbz	r0, 80030e0 <create_chain+0x6a>
		if (cs == 0xFFFFFFFF || cs == 1)/* An error occurred */
 80030d2:	1c41      	adds	r1, r0, #1
 80030d4:	d025      	beq.n	8003122 <create_chain+0xac>
 80030d6:	2801      	cmp	r0, #1
 80030d8:	d0e8      	beq.n	80030ac <create_chain+0x36>
		if (ncl == scl) return 0;		/* No free cluster */
 80030da:	42b4      	cmp	r4, r6
 80030dc:	d1d8      	bne.n	8003090 <create_chain+0x1a>
 80030de:	e7de      	b.n	800309e <create_chain+0x28>
	res = put_fat(fs, ncl, 0x0FFFFFFF);	/* Mark the new cluster "last link" */
 80030e0:	f06f 4270 	mvn.w	r2, #4026531840	; 0xf0000000
 80030e4:	4621      	mov	r1, r4
 80030e6:	4628      	mov	r0, r5
 80030e8:	f7ff ff4b 	bl	8002f82 <put_fat>
	if (res == FR_OK && clst != 0) {
 80030ec:	b9b8      	cbnz	r0, 800311e <create_chain+0xa8>
 80030ee:	b97f      	cbnz	r7, 8003110 <create_chain+0x9a>
		if (fs->free_clust != 0xFFFFFFFF) {
 80030f0:	f8d5 3210 	ldr.w	r3, [r5, #528]	; 0x210
		fs->last_clust = ncl;			/* Update FSINFO */
 80030f4:	f8c5 420c 	str.w	r4, [r5, #524]	; 0x20c
		if (fs->free_clust != 0xFFFFFFFF) {
 80030f8:	1c5a      	adds	r2, r3, #1
 80030fa:	d0d8      	beq.n	80030ae <create_chain+0x38>
			fs->free_clust--;
 80030fc:	3b01      	subs	r3, #1
 80030fe:	f8c5 3210 	str.w	r3, [r5, #528]	; 0x210
			fs->fsi_flag |= 1;
 8003102:	f895 3205 	ldrb.w	r3, [r5, #517]	; 0x205
 8003106:	f043 0301 	orr.w	r3, r3, #1
 800310a:	f885 3205 	strb.w	r3, [r5, #517]	; 0x205
 800310e:	e7ce      	b.n	80030ae <create_chain+0x38>
		res = put_fat(fs, clst, ncl);	/* Link it to the previous one if needed */
 8003110:	4622      	mov	r2, r4
 8003112:	4639      	mov	r1, r7
 8003114:	4628      	mov	r0, r5
 8003116:	f7ff ff34 	bl	8002f82 <put_fat>
	if (res == FR_OK) {
 800311a:	2800      	cmp	r0, #0
 800311c:	d0e8      	beq.n	80030f0 <create_chain+0x7a>
		ncl = (res == FR_DISK_ERR) ? 0xFFFFFFFF : 1;
 800311e:	2801      	cmp	r0, #1
 8003120:	d1c4      	bne.n	80030ac <create_chain+0x36>
 8003122:	f04f 34ff 	mov.w	r4, #4294967295
 8003126:	e7c2      	b.n	80030ae <create_chain+0x38>

08003128 <dir_next>:
{
 8003128:	e92d 43f8 	stmdb	sp!, {r3, r4, r5, r6, r7, r8, r9, lr}
	i = dp->index + 1;
 800312c:	f8b0 6206 	ldrh.w	r6, [r0, #518]	; 0x206
{
 8003130:	4604      	mov	r4, r0
	i = dp->index + 1;
 8003132:	3601      	adds	r6, #1
	if (!(i & 0xFFFF) || !dp->sect)	/* Report EOT when index has reached 65535 */
 8003134:	b2b3      	uxth	r3, r6
{
 8003136:	4689      	mov	r9, r1
	if (!(i & 0xFFFF) || !dp->sect)	/* Report EOT when index has reached 65535 */
 8003138:	b913      	cbnz	r3, 8003140 <dir_next+0x18>
		return FR_NO_FILE;
 800313a:	2004      	movs	r0, #4
}
 800313c:	e8bd 83f8 	ldmia.w	sp!, {r3, r4, r5, r6, r7, r8, r9, pc}
	if (!(i & 0xFFFF) || !dp->sect)	/* Report EOT when index has reached 65535 */
 8003140:	f8d0 3210 	ldr.w	r3, [r0, #528]	; 0x210
 8003144:	2b00      	cmp	r3, #0
 8003146:	d0f8      	beq.n	800313a <dir_next+0x12>
	if (!(i % (SS(dp->fs) / SZ_DIRE))) {	/* Sector changed? */
 8003148:	f016 080f 	ands.w	r8, r6, #15
 800314c:	d10b      	bne.n	8003166 <dir_next+0x3e>
		if (!dp->clust) {		/* Static table */
 800314e:	f8d4 120c 	ldr.w	r1, [r4, #524]	; 0x20c
		dp->sect++;					/* Next sector */
 8003152:	3301      	adds	r3, #1
 8003154:	f8d0 0200 	ldr.w	r0, [r0, #512]	; 0x200
 8003158:	f8c4 3210 	str.w	r3, [r4, #528]	; 0x210
		if (!dp->clust) {		/* Static table */
 800315c:	b969      	cbnz	r1, 800317a <dir_next+0x52>
			if (i >= dp->fs->n_rootdir)	/* Report EOT if it reached end of static table */
 800315e:	f8b0 3208 	ldrh.w	r3, [r0, #520]	; 0x208
 8003162:	42b3      	cmp	r3, r6
 8003164:	d9e9      	bls.n	800313a <dir_next+0x12>
	dp->dir = dp->fs->win.d8 + (i % (SS(dp->fs) / SZ_DIRE)) * SZ_DIRE;	/* Current entry in the window */
 8003166:	f8d4 3200 	ldr.w	r3, [r4, #512]	; 0x200
	return FR_OK;
 800316a:	2000      	movs	r0, #0
	dp->dir = dp->fs->win.d8 + (i % (SS(dp->fs) / SZ_DIRE)) * SZ_DIRE;	/* Current entry in the window */
 800316c:	eb03 1348 	add.w	r3, r3, r8, lsl #5
	dp->index = (WORD)i;	/* Current index */
 8003170:	f8a4 6206 	strh.w	r6, [r4, #518]	; 0x206
	dp->dir = dp->fs->win.d8 + (i % (SS(dp->fs) / SZ_DIRE)) * SZ_DIRE;	/* Current entry in the window */
 8003174:	f8c4 3214 	str.w	r3, [r4, #532]	; 0x214
	return FR_OK;
 8003178:	e7e0      	b.n	800313c <dir_next+0x14>
			if (((i / (SS(dp->fs) / SZ_DIRE)) & (dp->fs->csize - 1)) == 0) {	/* Cluster changed? */
 800317a:	f890 7202 	ldrb.w	r7, [r0, #514]	; 0x202
 800317e:	3f01      	subs	r7, #1
 8003180:	ea17 1716 	ands.w	r7, r7, r6, lsr #4
 8003184:	d1ef      	bne.n	8003166 <dir_next+0x3e>
				clst = get_fat(dp->fs, dp->clust);				/* Get next cluster */
 8003186:	f7ff fe4d 	bl	8002e24 <get_fat>
				if (clst <= 1) return FR_INT_ERR;
 800318a:	2801      	cmp	r0, #1
				clst = get_fat(dp->fs, dp->clust);				/* Get next cluster */
 800318c:	4605      	mov	r5, r0
				if (clst <= 1) return FR_INT_ERR;
 800318e:	d801      	bhi.n	8003194 <dir_next+0x6c>
 8003190:	2002      	movs	r0, #2
 8003192:	e7d3      	b.n	800313c <dir_next+0x14>
				if (clst == 0xFFFFFFFF) return FR_DISK_ERR;
 8003194:	1c42      	adds	r2, r0, #1
 8003196:	d101      	bne.n	800319c <dir_next+0x74>
 8003198:	2001      	movs	r0, #1
 800319a:	e7cf      	b.n	800313c <dir_next+0x14>
				if (clst >= dp->fs->n_fatent) {					/* If it reached end of dynamic table, */
 800319c:	f8d4 0200 	ldr.w	r0, [r4, #512]	; 0x200
 80031a0:	f8d0 3214 	ldr.w	r3, [r0, #532]	; 0x214
 80031a4:	42ab      	cmp	r3, r5
 80031a6:	d82f      	bhi.n	8003208 <dir_next+0xe0>
					if (!stretch) return FR_NO_FILE;			/* If do not stretch, report EOT */
 80031a8:	f1b9 0f00 	cmp.w	r9, #0
 80031ac:	d0c5      	beq.n	800313a <dir_next+0x12>
					clst = create_chain(dp->fs, dp->clust);		/* Stretch cluster chain */
 80031ae:	f8d4 120c 	ldr.w	r1, [r4, #524]	; 0x20c
 80031b2:	f7ff ff60 	bl	8003076 <create_chain>
					if (clst == 0) return FR_DENIED;			/* No free cluster */
 80031b6:	4605      	mov	r5, r0
 80031b8:	2800      	cmp	r0, #0
 80031ba:	d03e      	beq.n	800323a <dir_next+0x112>
					if (clst == 1) return FR_INT_ERR;
 80031bc:	2801      	cmp	r0, #1
 80031be:	d0e7      	beq.n	8003190 <dir_next+0x68>
					if (clst == 0xFFFFFFFF) return FR_DISK_ERR;
 80031c0:	1c43      	adds	r3, r0, #1
 80031c2:	d0e9      	beq.n	8003198 <dir_next+0x70>
					if (sync_window(dp->fs)) return FR_DISK_ERR;/* Flush disk access window */
 80031c4:	f8d4 0200 	ldr.w	r0, [r4, #512]	; 0x200
 80031c8:	f7ff fc4b 	bl	8002a62 <sync_window>
 80031cc:	4601      	mov	r1, r0
 80031ce:	2800      	cmp	r0, #0
 80031d0:	d1e2      	bne.n	8003198 <dir_next+0x70>
					mem_set(dp->fs->win.d8, 0, SS(dp->fs));		/* Clear window buffer */
 80031d2:	f44f 7200 	mov.w	r2, #512	; 0x200
 80031d6:	f8d4 0200 	ldr.w	r0, [r4, #512]	; 0x200
 80031da:	f7ff fb11 	bl	8002800 <mem_set>
					dp->fs->winsect = clust2sect(dp->fs, clst);	/* Cluster start sector */
 80031de:	f8d4 2200 	ldr.w	r2, [r4, #512]	; 0x200
 80031e2:	4629      	mov	r1, r5
 80031e4:	4610      	mov	r0, r2
 80031e6:	f7ff fe0f 	bl	8002e08 <clust2sect>
						dp->fs->wflag = 1;
 80031ea:	f04f 0901 	mov.w	r9, #1
					dp->fs->winsect = clust2sect(dp->fs, clst);	/* Cluster start sector */
 80031ee:	f8c2 022c 	str.w	r0, [r2, #556]	; 0x22c
					for (c = 0; c < dp->fs->csize; c++) {		/* Fill the new cluster with 0 */
 80031f2:	f8d4 0200 	ldr.w	r0, [r4, #512]	; 0x200
 80031f6:	f890 3202 	ldrb.w	r3, [r0, #514]	; 0x202
 80031fa:	42bb      	cmp	r3, r7
 80031fc:	d80e      	bhi.n	800321c <dir_next+0xf4>
					dp->fs->winsect -= c;						/* Rewind window offset */
 80031fe:	f8d0 322c 	ldr.w	r3, [r0, #556]	; 0x22c
 8003202:	1bdf      	subs	r7, r3, r7
 8003204:	f8c0 722c 	str.w	r7, [r0, #556]	; 0x22c
				dp->sect = clust2sect(dp->fs, clst);
 8003208:	4629      	mov	r1, r5
 800320a:	f8d4 0200 	ldr.w	r0, [r4, #512]	; 0x200
				dp->clust = clst;				/* Initialize data for new cluster */
 800320e:	f8c4 520c 	str.w	r5, [r4, #524]	; 0x20c
				dp->sect = clust2sect(dp->fs, clst);
 8003212:	f7ff fdf9 	bl	8002e08 <clust2sect>
 8003216:	f8c4 0210 	str.w	r0, [r4, #528]	; 0x210
 800321a:	e7a4      	b.n	8003166 <dir_next+0x3e>
						dp->fs->wflag = 1;
 800321c:	f880 9204 	strb.w	r9, [r0, #516]	; 0x204
	if (fs->wflag) {	/* Write back the sector if it is dirty */
 8003220:	f7ff fbf5 	bl	8002a0e <sync_window.part.0>
						if (sync_window(dp->fs)) return FR_DISK_ERR;
 8003224:	2800      	cmp	r0, #0
 8003226:	d1b7      	bne.n	8003198 <dir_next+0x70>
						dp->fs->winsect++;
 8003228:	f8d4 2200 	ldr.w	r2, [r4, #512]	; 0x200
					for (c = 0; c < dp->fs->csize; c++) {		/* Fill the new cluster with 0 */
 800322c:	3701      	adds	r7, #1
						dp->fs->winsect++;
 800322e:	f8d2 322c 	ldr.w	r3, [r2, #556]	; 0x22c
 8003232:	3301      	adds	r3, #1
 8003234:	f8c2 322c 	str.w	r3, [r2, #556]	; 0x22c
					for (c = 0; c < dp->fs->csize; c++) {		/* Fill the new cluster with 0 */
 8003238:	e7db      	b.n	80031f2 <dir_next+0xca>
					if (clst == 0) return FR_DENIED;			/* No free cluster */
 800323a:	2007      	movs	r0, #7
 800323c:	e77e      	b.n	800313c <dir_next+0x14>
	...

08003240 <follow_path>:
{
 8003240:	e92d 43f8 	stmdb	sp!, {r3, r4, r5, r6, r7, r8, r9, lr}
	if (*path == '/' || *path == '\\')		/* Strip heading separator if exist */
 8003244:	780b      	ldrb	r3, [r1, #0]
{
 8003246:	4604      	mov	r4, r0
	if (*path == '/' || *path == '\\')		/* Strip heading separator if exist */
 8003248:	2b2f      	cmp	r3, #47	; 0x2f
{
 800324a:	460d      	mov	r5, r1
	if (*path == '/' || *path == '\\')		/* Strip heading separator if exist */
 800324c:	d001      	beq.n	8003252 <follow_path+0x12>
 800324e:	2b5c      	cmp	r3, #92	; 0x5c
 8003250:	d100      	bne.n	8003254 <follow_path+0x14>
		path++;
 8003252:	3501      	adds	r5, #1
	dp->sclust = 0;							/* Always start from the root directory */
 8003254:	2600      	movs	r6, #0
 8003256:	f8c4 6208 	str.w	r6, [r4, #520]	; 0x208
	if ((UINT)*path < ' ') {				/* Null path name is the origin directory itself */
 800325a:	782b      	ldrb	r3, [r5, #0]
 800325c:	2b1f      	cmp	r3, #31
 800325e:	d934      	bls.n	80032ca <follow_path+0x8a>
			c = ExCvt[c - 0x80];		/* To upper extended characters (SBCS cfg) */
 8003260:	4e5f      	ldr	r6, [pc, #380]	; (80033e0 <follow_path+0x1a0>)
	for (p = *path; *p == '/' || *p == '\\'; p++) ;	/* Strip duplicated separator */
 8003262:	462b      	mov	r3, r5
 8003264:	f813 2b01 	ldrb.w	r2, [r3], #1
 8003268:	2a2f      	cmp	r2, #47	; 0x2f
 800326a:	d036      	beq.n	80032da <follow_path+0x9a>
 800326c:	2a5c      	cmp	r2, #92	; 0x5c
 800326e:	d034      	beq.n	80032da <follow_path+0x9a>
	sfn = dp->fn;
 8003270:	f8d4 8218 	ldr.w	r8, [r4, #536]	; 0x218
	mem_set(sfn, ' ', 11);
 8003274:	220b      	movs	r2, #11
 8003276:	2120      	movs	r1, #32
 8003278:	4640      	mov	r0, r8
 800327a:	f7ff fac1 	bl	8002800 <mem_set>
	si = i = b = 0; ni = 8;
 800327e:	f04f 0c00 	mov.w	ip, #0
 8003282:	2708      	movs	r7, #8
 8003284:	4663      	mov	r3, ip
 8003286:	f105 3eff 	add.w	lr, r5, #4294967295
 800328a:	f1c5 0902 	rsb	r9, r5, #2
		c = (BYTE)p[si++];
 800328e:	eb09 010e 	add.w	r1, r9, lr
 8003292:	f81e 2f01 	ldrb.w	r2, [lr, #1]!
		if (c <= ' ' || c == '/' || c == '\\') break;	/* Break on end of segment */
 8003296:	2a20      	cmp	r2, #32
 8003298:	d935      	bls.n	8003306 <follow_path+0xc6>
 800329a:	2a2f      	cmp	r2, #47	; 0x2f
 800329c:	d033      	beq.n	8003306 <follow_path+0xc6>
 800329e:	2a5c      	cmp	r2, #92	; 0x5c
 80032a0:	d031      	beq.n	8003306 <follow_path+0xc6>
		if (c == '.' || i >= ni) {
 80032a2:	2a2e      	cmp	r2, #46	; 0x2e
 80032a4:	f000 8094 	beq.w	80033d0 <follow_path+0x190>
 80032a8:	4567      	cmp	r7, ip
 80032aa:	d90c      	bls.n	80032c6 <follow_path+0x86>
		if (c >= 0x80) {				/* Extended character? */
 80032ac:	0611      	lsls	r1, r2, #24
			c = ExCvt[c - 0x80];		/* To upper extended characters (SBCS cfg) */
 80032ae:	bf44      	itt	mi
 80032b0:	3a80      	submi	r2, #128	; 0x80
 80032b2:	5cb2      	ldrbmi	r2, [r6, r2]
 80032b4:	484b      	ldr	r0, [pc, #300]	; (80033e4 <follow_path+0x1a4>)
			b |= 3;						/* Eliminate NT flag */
 80032b6:	bf48      	it	mi
 80032b8:	f043 0303 	orrmi.w	r3, r3, #3
	while (*str && *str != chr) str++;
 80032bc:	f810 1b01 	ldrb.w	r1, [r0], #1
 80032c0:	b169      	cbz	r1, 80032de <follow_path+0x9e>
 80032c2:	428a      	cmp	r2, r1
 80032c4:	d1fa      	bne.n	80032bc <follow_path+0x7c>
			if (ni != 8 || c != '.') return FR_INVALID_NAME;
 80032c6:	2006      	movs	r0, #6
	return res;
 80032c8:	e005      	b.n	80032d6 <follow_path+0x96>
		res = dir_sdi(dp, 0);
 80032ca:	4631      	mov	r1, r6
 80032cc:	4620      	mov	r0, r4
 80032ce:	f7ff fe0a 	bl	8002ee6 <dir_sdi>
		dp->dir = 0;
 80032d2:	f8c4 6214 	str.w	r6, [r4, #532]	; 0x214
}
 80032d6:	e8bd 83f8 	ldmia.w	sp!, {r3, r4, r5, r6, r7, r8, r9, pc}
{
 80032da:	461d      	mov	r5, r3
 80032dc:	e7c1      	b.n	8003262 <follow_path+0x22>
			if (IsUpper(c)) {			/* ASCII large capital? */
 80032de:	f1a2 0141 	sub.w	r1, r2, #65	; 0x41
 80032e2:	2919      	cmp	r1, #25
 80032e4:	d806      	bhi.n	80032f4 <follow_path+0xb4>
				b |= 2;
 80032e6:	f043 0302 	orr.w	r3, r3, #2
			sfn[i++] = c;
 80032ea:	f808 200c 	strb.w	r2, [r8, ip]
 80032ee:	f10c 0c01 	add.w	ip, ip, #1
 80032f2:	e7cc      	b.n	800328e <follow_path+0x4e>
				if (IsLower(c)) {		/* ASCII small capital? */
 80032f4:	f1a2 0161 	sub.w	r1, r2, #97	; 0x61
 80032f8:	2919      	cmp	r1, #25
					b |= 1; c -= 0x20;
 80032fa:	bf9e      	ittt	ls
 80032fc:	3a20      	subls	r2, #32
 80032fe:	f043 0301 	orrls.w	r3, r3, #1
 8003302:	b2d2      	uxtbls	r2, r2
 8003304:	e7f1      	b.n	80032ea <follow_path+0xaa>
	c = (c <= ' ') ? NS_LAST : 0;		/* Set last segment flag if end of path */
 8003306:	2a21      	cmp	r2, #33	; 0x21
 8003308:	bf34      	ite	cc
 800330a:	2204      	movcc	r2, #4
 800330c:	2200      	movcs	r2, #0
	*path = &p[si];						/* Return pointer to the next segment */
 800330e:	440d      	add	r5, r1
	if (!i) return FR_INVALID_NAME;		/* Reject nul string */
 8003310:	f1bc 0f00 	cmp.w	ip, #0
 8003314:	d0d7      	beq.n	80032c6 <follow_path+0x86>
	if (sfn[0] == DDEM) sfn[0] = RDDEM;	/* When first character collides with DDEM, replace it with RDDEM */
 8003316:	f898 1000 	ldrb.w	r1, [r8]
 800331a:	29e5      	cmp	r1, #229	; 0xe5
 800331c:	bf04      	itt	eq
 800331e:	2105      	moveq	r1, #5
 8003320:	f888 1000 	strbeq.w	r1, [r8]
	if (ni == 8) b <<= 2;
 8003324:	2f08      	cmp	r7, #8
 8003326:	d12e      	bne.n	8003386 <follow_path+0x146>
 8003328:	009b      	lsls	r3, r3, #2
 800332a:	b2db      	uxtb	r3, r3
	if ((b & 0x0C) == 0x04) c |= NS_BODY;	/* NT flag (Name body has only small capital) */
 800332c:	f003 030c 	and.w	r3, r3, #12
 8003330:	2b04      	cmp	r3, #4
 8003332:	bf08      	it	eq
 8003334:	f042 0208 	orreq.w	r2, r2, #8
	res = dir_sdi(dp, 0);			/* Rewind directory object */
 8003338:	2100      	movs	r1, #0
 800333a:	4620      	mov	r0, r4
	sfn[NSFLAG] = c;		/* Store NT flag, File name is created */
 800333c:	f888 200b 	strb.w	r2, [r8, #11]
	res = dir_sdi(dp, 0);			/* Rewind directory object */
 8003340:	f7ff fdd1 	bl	8002ee6 <dir_sdi>
	if (res != FR_OK) return res;
 8003344:	bb38      	cbnz	r0, 8003396 <follow_path+0x156>
		res = move_window(dp->fs, dp->sect);
 8003346:	f8d4 1210 	ldr.w	r1, [r4, #528]	; 0x210
 800334a:	f8d4 0200 	ldr.w	r0, [r4, #512]	; 0x200
 800334e:	f7ff fb8f 	bl	8002a70 <move_window>
		if (res != FR_OK) break;
 8003352:	bb00      	cbnz	r0, 8003396 <follow_path+0x156>
		dir = dp->dir;					/* Ptr to the directory entry of current index */
 8003354:	f8d4 3214 	ldr.w	r3, [r4, #532]	; 0x214
		if (c == 0) { res = FR_NO_FILE; break; }	/* Reached to end of table */
 8003358:	781a      	ldrb	r2, [r3, #0]
 800335a:	b1da      	cbz	r2, 8003394 <follow_path+0x154>
		if (!(dir[DIR_Attr] & AM_VOL) && !mem_cmp(dir, dp->fn, 11)) /* Is it a valid entry? */
 800335c:	7ad8      	ldrb	r0, [r3, #11]
 800335e:	f010 0008 	ands.w	r0, r0, #8
 8003362:	d10b      	bne.n	800337c <follow_path+0x13c>
 8003364:	f8d4 2218 	ldr.w	r2, [r4, #536]	; 0x218
int mem_cmp (const void* dst, const void* src, UINT cnt) {
 8003368:	f103 0c0b 	add.w	ip, r3, #11
	while (cnt-- && (r = *d++ - *s++) == 0) ;
 800336c:	4563      	cmp	r3, ip
 800336e:	d012      	beq.n	8003396 <follow_path+0x156>
 8003370:	f813 7b01 	ldrb.w	r7, [r3], #1
 8003374:	f812 1b01 	ldrb.w	r1, [r2], #1
 8003378:	428f      	cmp	r7, r1
 800337a:	d0f7      	beq.n	800336c <follow_path+0x12c>
		res = dir_next(dp, 0);		/* Next entry */
 800337c:	2100      	movs	r1, #0
 800337e:	4620      	mov	r0, r4
 8003380:	f7ff fed2 	bl	8003128 <dir_next>
 8003384:	e7de      	b.n	8003344 <follow_path+0x104>
	if ((b & 0x03) == 0x01) c |= NS_EXT;	/* NT flag (Name extension has only small capital) */
 8003386:	f003 0103 	and.w	r1, r3, #3
 800338a:	2901      	cmp	r1, #1
 800338c:	bf08      	it	eq
 800338e:	f042 0210 	orreq.w	r2, r2, #16
 8003392:	e7cb      	b.n	800332c <follow_path+0xec>
		if (c == 0) { res = FR_NO_FILE; break; }	/* Reached to end of table */
 8003394:	2004      	movs	r0, #4
			ns = dp->fn[NSFLAG];
 8003396:	f8d4 3218 	ldr.w	r3, [r4, #536]	; 0x218
 800339a:	7adb      	ldrb	r3, [r3, #11]
			if (res != FR_OK) {				/* Failed to find the object */
 800339c:	b130      	cbz	r0, 80033ac <follow_path+0x16c>
				if (res == FR_NO_FILE) {	/* Object is not found */
 800339e:	2804      	cmp	r0, #4
 80033a0:	d199      	bne.n	80032d6 <follow_path+0x96>
						if (!(ns & NS_LAST)) res = FR_NO_PATH;	/* Adjust error code if not last segment */
 80033a2:	f013 0f04 	tst.w	r3, #4
 80033a6:	bf08      	it	eq
 80033a8:	2005      	moveq	r0, #5
 80033aa:	e794      	b.n	80032d6 <follow_path+0x96>
			if (ns & NS_LAST) break;			/* Last segment matched. Function completed. */
 80033ac:	075a      	lsls	r2, r3, #29
 80033ae:	d492      	bmi.n	80032d6 <follow_path+0x96>
			dir = dp->dir;						/* Follow the sub-directory */
 80033b0:	f8d4 1214 	ldr.w	r1, [r4, #532]	; 0x214
			if (!(dir[DIR_Attr] & AM_DIR)) {	/* It is not a sub-directory and cannot follow */
 80033b4:	7acb      	ldrb	r3, [r1, #11]
 80033b6:	06db      	lsls	r3, r3, #27
 80033b8:	d508      	bpl.n	80033cc <follow_path+0x18c>
			dp->sclust = ld_clust(dp->fs, dir);
 80033ba:	f8d4 3200 	ldr.w	r3, [r4, #512]	; 0x200
 80033be:	f893 0200 	ldrb.w	r0, [r3, #512]	; 0x200
 80033c2:	f7ff fb16 	bl	80029f2 <ld_clust.isra.0>
 80033c6:	f8c4 0208 	str.w	r0, [r4, #520]	; 0x208
			res = create_name(dp, &path);	/* Get a segment name of the path */
 80033ca:	e74a      	b.n	8003262 <follow_path+0x22>
						if (!(ns & NS_LAST)) res = FR_NO_PATH;	/* Adjust error code if not last segment */
 80033cc:	2005      	movs	r0, #5
 80033ce:	e782      	b.n	80032d6 <follow_path+0x96>
			if (ni != 8 || c != '.') return FR_INVALID_NAME;
 80033d0:	2f08      	cmp	r7, #8
 80033d2:	f47f af78 	bne.w	80032c6 <follow_path+0x86>
			b <<= 2; continue;
 80033d6:	009b      	lsls	r3, r3, #2
			i = 8; ni = 11;
 80033d8:	46bc      	mov	ip, r7
			b <<= 2; continue;
 80033da:	b2db      	uxtb	r3, r3
			i = 8; ni = 11;
 80033dc:	270b      	movs	r7, #11
			b <<= 2; continue;
 80033de:	e756      	b.n	800328e <follow_path+0x4e>
 80033e0:	0800843c 	.word	0x0800843c
 80033e4:	0800842d 	.word	0x0800842d

080033e8 <dir_register>:
{
 80033e8:	b538      	push	{r3, r4, r5, lr}
	res = dir_sdi(dp, 0);
 80033ea:	2100      	movs	r1, #0
{
 80033ec:	4605      	mov	r5, r0
	res = dir_sdi(dp, 0);
 80033ee:	f7ff fd7a 	bl	8002ee6 <dir_sdi>
	if (res == FR_OK) {
 80033f2:	4604      	mov	r4, r0
 80033f4:	bb68      	cbnz	r0, 8003452 <dir_register+0x6a>
			res = move_window(dp->fs, dp->sect);
 80033f6:	f8d5 1210 	ldr.w	r1, [r5, #528]	; 0x210
 80033fa:	f8d5 0200 	ldr.w	r0, [r5, #512]	; 0x200
 80033fe:	f7ff fb37 	bl	8002a70 <move_window>
			if (res != FR_OK) break;
 8003402:	4604      	mov	r4, r0
 8003404:	bb28      	cbnz	r0, 8003452 <dir_register+0x6a>
			if (dp->dir[0] == DDEM || dp->dir[0] == 0) {	/* Is it a free entry? */
 8003406:	f8d5 3214 	ldr.w	r3, [r5, #532]	; 0x214
 800340a:	781b      	ldrb	r3, [r3, #0]
 800340c:	2be5      	cmp	r3, #229	; 0xe5
 800340e:	d119      	bne.n	8003444 <dir_register+0x5c>
		res = move_window(dp->fs, dp->sect);
 8003410:	f8d5 1210 	ldr.w	r1, [r5, #528]	; 0x210
 8003414:	f8d5 0200 	ldr.w	r0, [r5, #512]	; 0x200
 8003418:	f7ff fb2a 	bl	8002a70 <move_window>
		if (res == FR_OK) {
 800341c:	4604      	mov	r4, r0
 800341e:	b978      	cbnz	r0, 8003440 <dir_register+0x58>
			mem_set(dp->dir, 0, SZ_DIRE);	/* Clean the entry */
 8003420:	4601      	mov	r1, r0
 8003422:	2220      	movs	r2, #32
 8003424:	f8d5 0214 	ldr.w	r0, [r5, #532]	; 0x214
 8003428:	f7ff f9ea 	bl	8002800 <mem_set>
			mem_cpy(dp->dir, dp->fn, 11);	/* Put SFN */
 800342c:	e9d5 0185 	ldrd	r0, r1, [r5, #532]	; 0x214
 8003430:	220b      	movs	r2, #11
 8003432:	f7ff f9db 	bl	80027ec <mem_cpy>
			dp->fs->wflag = 1;
 8003436:	2201      	movs	r2, #1
 8003438:	f8d5 3200 	ldr.w	r3, [r5, #512]	; 0x200
 800343c:	f883 2204 	strb.w	r2, [r3, #516]	; 0x204
}
 8003440:	4620      	mov	r0, r4
 8003442:	bd38      	pop	{r3, r4, r5, pc}
			if (dp->dir[0] == DDEM || dp->dir[0] == 0) {	/* Is it a free entry? */
 8003444:	2b00      	cmp	r3, #0
 8003446:	d0e3      	beq.n	8003410 <dir_register+0x28>
			res = dir_next(dp, 1);		/* Next entry with table stretch enabled */
 8003448:	2101      	movs	r1, #1
 800344a:	4628      	mov	r0, r5
 800344c:	f7ff fe6c 	bl	8003128 <dir_next>
 8003450:	e7cf      	b.n	80033f2 <dir_register+0xa>
	if (res == FR_NO_FILE) res = FR_DENIED;	/* No directory entry to allocate */
 8003452:	2c04      	cmp	r4, #4
 8003454:	bf08      	it	eq
 8003456:	2407      	moveq	r4, #7
 8003458:	e7f2      	b.n	8003440 <dir_register+0x58>

0800345a <remove_chain>:
	if (clst < 2 || clst >= fs->n_fatent) {	/* Check range */
 800345a:	2901      	cmp	r1, #1
{
 800345c:	b570      	push	{r4, r5, r6, lr}
 800345e:	4605      	mov	r5, r0
 8003460:	460c      	mov	r4, r1
	if (clst < 2 || clst >= fs->n_fatent) {	/* Check range */
 8003462:	d929      	bls.n	80034b8 <remove_chain+0x5e>
 8003464:	f8d0 3214 	ldr.w	r3, [r0, #532]	; 0x214
 8003468:	428b      	cmp	r3, r1
 800346a:	d925      	bls.n	80034b8 <remove_chain+0x5e>
			nxt = get_fat(fs, clst);			/* Get cluster status */
 800346c:	4621      	mov	r1, r4
 800346e:	4628      	mov	r0, r5
 8003470:	f7ff fcd8 	bl	8002e24 <get_fat>
			if (nxt == 0) break;				/* Empty cluster? */
 8003474:	4626      	mov	r6, r4
 8003476:	4604      	mov	r4, r0
 8003478:	b908      	cbnz	r0, 800347e <remove_chain+0x24>
		res = FR_INT_ERR;
 800347a:	2000      	movs	r0, #0
}
 800347c:	bd70      	pop	{r4, r5, r6, pc}
			if (nxt == 1) { res = FR_INT_ERR; break; }	/* Internal error? */
 800347e:	2801      	cmp	r0, #1
 8003480:	d01a      	beq.n	80034b8 <remove_chain+0x5e>
			if (nxt == 0xFFFFFFFF) { res = FR_DISK_ERR; break; }	/* Disk error? */
 8003482:	1c41      	adds	r1, r0, #1
 8003484:	d01a      	beq.n	80034bc <remove_chain+0x62>
			res = put_fat(fs, clst, 0);			/* Mark the cluster "empty" */
 8003486:	2200      	movs	r2, #0
 8003488:	4631      	mov	r1, r6
 800348a:	4628      	mov	r0, r5
 800348c:	f7ff fd79 	bl	8002f82 <put_fat>
			if (res != FR_OK) break;
 8003490:	2800      	cmp	r0, #0
 8003492:	d1f3      	bne.n	800347c <remove_chain+0x22>
			if (fs->free_clust != 0xFFFFFFFF) {	/* Update FSINFO */
 8003494:	f8d5 3210 	ldr.w	r3, [r5, #528]	; 0x210
 8003498:	1c5a      	adds	r2, r3, #1
 800349a:	d008      	beq.n	80034ae <remove_chain+0x54>
				fs->free_clust++;
 800349c:	3301      	adds	r3, #1
 800349e:	f8c5 3210 	str.w	r3, [r5, #528]	; 0x210
				fs->fsi_flag |= 1;
 80034a2:	f895 3205 	ldrb.w	r3, [r5, #517]	; 0x205
 80034a6:	f043 0301 	orr.w	r3, r3, #1
 80034aa:	f885 3205 	strb.w	r3, [r5, #517]	; 0x205
		while (clst < fs->n_fatent) {			/* Not a last link? */
 80034ae:	f8d5 3214 	ldr.w	r3, [r5, #532]	; 0x214
 80034b2:	429c      	cmp	r4, r3
 80034b4:	d3da      	bcc.n	800346c <remove_chain+0x12>
 80034b6:	e7e0      	b.n	800347a <remove_chain+0x20>
		res = FR_INT_ERR;
 80034b8:	2002      	movs	r0, #2
 80034ba:	e7df      	b.n	800347c <remove_chain+0x22>
			if (nxt == 0xFFFFFFFF) { res = FR_DISK_ERR; break; }	/* Disk error? */
 80034bc:	2001      	movs	r0, #1
 80034be:	e7dd      	b.n	800347c <remove_chain+0x22>

080034c0 <f_mount>:
FRESULT f_mount (
	FATFS* fs,			/* Pointer to the file system object (NULL:unmount)*/
	const TCHAR* path,	/* Logical drive number to be mounted/unmounted */
	BYTE opt			/* 0:Do not mount (delayed mount), 1:Mount immediately */
)
{
 80034c0:	b530      	push	{r4, r5, lr}
 80034c2:	b085      	sub	sp, #20
 80034c4:	e9cd 1000 	strd	r1, r0, [sp]
	int vol;
	FRESULT res;
	const TCHAR *rp = path;


	vol = get_ldnumber(&rp);
 80034c8:	a803      	add	r0, sp, #12
	const TCHAR *rp = path;
 80034ca:	9103      	str	r1, [sp, #12]
{
 80034cc:	4615      	mov	r5, r2
	vol = get_ldnumber(&rp);
 80034ce:	f7ff fa61 	bl	8002994 <get_ldnumber>
	if (vol < 0) return FR_INVALID_DRIVE;
 80034d2:	1e01      	subs	r1, r0, #0
 80034d4:	db22      	blt.n	800351c <f_mount+0x5c>
	cfs = FatFs[vol];					/* Pointer to fs object */
 80034d6:	4c13      	ldr	r4, [pc, #76]	; (8003524 <f_mount+0x64>)
 80034d8:	f854 0021 	ldr.w	r0, [r4, r1, lsl #2]

	if (cfs) {
 80034dc:	b168      	cbz	r0, 80034fa <f_mount+0x3a>
		if (Files[i].fs == fs) Files[i].fs = 0;
 80034de:	4b12      	ldr	r3, [pc, #72]	; (8003528 <f_mount+0x68>)
 80034e0:	681a      	ldr	r2, [r3, #0]
 80034e2:	4290      	cmp	r0, r2
 80034e4:	bf04      	itt	eq
 80034e6:	2200      	moveq	r2, #0
 80034e8:	601a      	streq	r2, [r3, #0]
 80034ea:	68da      	ldr	r2, [r3, #12]
 80034ec:	4290      	cmp	r0, r2
 80034ee:	f04f 0200 	mov.w	r2, #0
 80034f2:	bf08      	it	eq
 80034f4:	60da      	streq	r2, [r3, #12]
		clear_lock(cfs);
#endif
#if _FS_REENTRANT						/* Discard sync object of the current volume */
		if (!ff_del_syncobj(cfs->sobj)) return FR_INT_ERR;
#endif
		cfs->fs_type = 0;				/* Clear old fs object */
 80034f6:	f880 2200 	strb.w	r2, [r0, #512]	; 0x200
	}

	if (fs) {
 80034fa:	9801      	ldr	r0, [sp, #4]
 80034fc:	b110      	cbz	r0, 8003504 <f_mount+0x44>
		fs->fs_type = 0;				/* Clear new fs object */
 80034fe:	2300      	movs	r3, #0
 8003500:	f880 3200 	strb.w	r3, [r0, #512]	; 0x200
#if _FS_REENTRANT						/* Create sync object for the new volume */
		if (!ff_cre_syncobj((BYTE)vol, &fs->sobj)) return FR_INT_ERR;
#endif
	}
	FatFs[vol] = fs;					/* Register new fs object */
 8003504:	f844 0021 	str.w	r0, [r4, r1, lsl #2]

	if (!fs || opt != 1) return FR_OK;	/* Do not mount now, it will be mounted later */
 8003508:	b130      	cbz	r0, 8003518 <f_mount+0x58>
 800350a:	2d01      	cmp	r5, #1
 800350c:	d108      	bne.n	8003520 <f_mount+0x60>

	res = find_volume(&fs, &path, 0);	/* Force mounted the volume */
 800350e:	2200      	movs	r2, #0
 8003510:	4669      	mov	r1, sp
 8003512:	a801      	add	r0, sp, #4
 8003514:	f7ff faf4 	bl	8002b00 <find_volume>
	LEAVE_FF(fs, res);
}
 8003518:	b005      	add	sp, #20
 800351a:	bd30      	pop	{r4, r5, pc}
	if (vol < 0) return FR_INVALID_DRIVE;
 800351c:	200b      	movs	r0, #11
 800351e:	e7fb      	b.n	8003518 <f_mount+0x58>
	if (!fs || opt != 1) return FR_OK;	/* Do not mount now, it will be mounted later */
 8003520:	2000      	movs	r0, #0
 8003522:	e7f9      	b.n	8003518 <f_mount+0x58>
 8003524:	200000c4 	.word	0x200000c4
 8003528:	200000c8 	.word	0x200000c8

0800352c <f_open>:
FRESULT f_open (
	FIL* fp,			/* Pointer to the blank file object */
	const TCHAR* path,	/* Pointer to the file name */
	BYTE mode			/* Access mode and file open mode flags */
)
{
 800352c:	e92d 41f0 	stmdb	sp!, {r4, r5, r6, r7, r8, lr}
 8003530:	f5ad 7d0e 	sub.w	sp, sp, #568	; 0x238
 8003534:	4617      	mov	r7, r2
#if !_FS_READONLY
	DWORD dw, cl;
#endif


	if (!fp) return FR_INVALID_OBJECT;
 8003536:	4605      	mov	r5, r0
{
 8003538:	9101      	str	r1, [sp, #4]
	if (!fp) return FR_INVALID_OBJECT;
 800353a:	2800      	cmp	r0, #0
 800353c:	f000 8090 	beq.w	8003660 <f_open+0x134>
	fp->fs = 0;			/* Clear file object */
 8003540:	2300      	movs	r3, #0

	/* Get logical drive number */
#if !_FS_READONLY
	mode &= FA_READ | FA_WRITE | FA_CREATE_ALWAYS | FA_OPEN_ALWAYS | FA_CREATE_NEW;
	res = find_volume(&dj.fs, &path, (BYTE)(mode & ~FA_READ));
 8003542:	f002 021e 	and.w	r2, r2, #30
	fp->fs = 0;			/* Clear file object */
 8003546:	f8c0 3200 	str.w	r3, [r0, #512]	; 0x200
	res = find_volume(&dj.fs, &path, (BYTE)(mode & ~FA_READ));
 800354a:	a901      	add	r1, sp, #4
 800354c:	a886      	add	r0, sp, #536	; 0x218
 800354e:	f7ff fad7 	bl	8002b00 <find_volume>
#else
	mode &= FA_READ;
	res = find_volume(&dj.fs, &path, 0);
#endif
	if (res == FR_OK) {
 8003552:	bb10      	cbnz	r0, 800359a <f_open+0x6e>
		INIT_BUF(dj);
 8003554:	ab03      	add	r3, sp, #12
		res = follow_path(&dj, path);	/* Follow the file path */
 8003556:	9901      	ldr	r1, [sp, #4]
 8003558:	a806      	add	r0, sp, #24
		INIT_BUF(dj);
 800355a:	938c      	str	r3, [sp, #560]	; 0x230
		res = follow_path(&dj, path);	/* Follow the file path */
 800355c:	f7ff fe70 	bl	8003240 <follow_path>
	mode &= FA_READ | FA_WRITE | FA_CREATE_ALWAYS | FA_OPEN_ALWAYS | FA_CREATE_NEW;
 8003560:	f007 041f 	and.w	r4, r7, #31
		dir = dj.dir;
 8003564:	9e8b      	ldr	r6, [sp, #556]	; 0x22c
#if !_FS_READONLY	/* R/W configuration */
		if (res == FR_OK) {
 8003566:	b940      	cbnz	r0, 800357a <f_open+0x4e>
			if (!dir)	/* Default directory itself */
 8003568:	b1de      	cbz	r6, 80035a2 <f_open+0x76>
				res = FR_INVALID_NAME;
#if _FS_LOCK
			else
				res = chk_lock(&dj, (mode & ~FA_READ) ? 1 : 0);
 800356a:	f014 0f1e 	tst.w	r4, #30
 800356e:	bf14      	ite	ne
 8003570:	2101      	movne	r1, #1
 8003572:	2100      	moveq	r1, #0
 8003574:	a806      	add	r0, sp, #24
 8003576:	f7ff f94b 	bl	8002810 <chk_lock>
#endif
		}
		/* Create or Open a file */
		if (mode & (FA_CREATE_ALWAYS | FA_OPEN_ALWAYS | FA_CREATE_NEW)) {
 800357a:	f017 0f1c 	tst.w	r7, #28
 800357e:	d064      	beq.n	800364a <f_open+0x11e>
			if (res != FR_OK) {					/* No file, create new */
 8003580:	b188      	cbz	r0, 80035a6 <f_open+0x7a>
				if (res == FR_NO_FILE)			/* There is no file to open, create a new entry */
 8003582:	2804      	cmp	r0, #4
 8003584:	d109      	bne.n	800359a <f_open+0x6e>
	for (i = 0; i < _FS_LOCK && Files[i].fs; i++) ;
 8003586:	4b48      	ldr	r3, [pc, #288]	; (80036a8 <f_open+0x17c>)
 8003588:	681a      	ldr	r2, [r3, #0]
 800358a:	b112      	cbz	r2, 8003592 <f_open+0x66>
 800358c:	68db      	ldr	r3, [r3, #12]
 800358e:	2b00      	cmp	r3, #0
 8003590:	d168      	bne.n	8003664 <f_open+0x138>
#if _FS_LOCK
					res = enq_lock() ? dir_register(&dj) : FR_TOO_MANY_OPEN_FILES;
 8003592:	a806      	add	r0, sp, #24
 8003594:	f7ff ff28 	bl	80033e8 <dir_register>
				} else {
					if (mode & FA_CREATE_NEW)	/* Cannot create as new file */
						res = FR_EXIST;
				}
			}
			if (res == FR_OK && (mode & FA_CREATE_ALWAYS)) {	/* Truncate it if overwrite mode */
 8003598:	b170      	cbz	r0, 80035b8 <f_open+0x8c>
			fp->id = fp->fs->id;
		}
	}

	LEAVE_FF(dj.fs, res);
}
 800359a:	f50d 7d0e 	add.w	sp, sp, #568	; 0x238
 800359e:	e8bd 81f0 	ldmia.w	sp!, {r4, r5, r6, r7, r8, pc}
				res = FR_INVALID_NAME;
 80035a2:	2006      	movs	r0, #6
 80035a4:	e7e9      	b.n	800357a <f_open+0x4e>
				if (dir[DIR_Attr] & (AM_RDO | AM_DIR)) {	/* Cannot overwrite it (R/O or DIR) */
 80035a6:	7af3      	ldrb	r3, [r6, #11]
 80035a8:	f013 0f11 	tst.w	r3, #17
 80035ac:	d156      	bne.n	800365c <f_open+0x130>
					if (mode & FA_CREATE_NEW)	/* Cannot create as new file */
 80035ae:	0778      	lsls	r0, r7, #29
 80035b0:	d45a      	bmi.n	8003668 <f_open+0x13c>
			if (res == FR_OK && (mode & FA_CREATE_ALWAYS)) {	/* Truncate it if overwrite mode */
 80035b2:	073b      	lsls	r3, r7, #28
 80035b4:	d533      	bpl.n	800361e <f_open+0xf2>
 80035b6:	e002      	b.n	80035be <f_open+0x92>
				dir = dj.dir;					/* New entry */
 80035b8:	9e8b      	ldr	r6, [sp, #556]	; 0x22c
				mode |= FA_CREATE_ALWAYS;		/* File is created */
 80035ba:	f044 0408 	orr.w	r4, r4, #8
				dw = GET_FATTIME();				/* Created time */
 80035be:	f002 fe27 	bl	8006210 <get_fattime>
				dir[DIR_Attr] = 0;				/* Reset attribute */
 80035c2:	2700      	movs	r7, #0
				ST_DWORD(dir + DIR_CrtTime, dw);
 80035c4:	f3c0 2307 	ubfx	r3, r0, #8, #8
 80035c8:	73b0      	strb	r0, [r6, #14]
 80035ca:	73f3      	strb	r3, [r6, #15]
 80035cc:	0c03      	lsrs	r3, r0, #16
 80035ce:	0e00      	lsrs	r0, r0, #24
				dir[DIR_Attr] = 0;				/* Reset attribute */
 80035d0:	72f7      	strb	r7, [r6, #11]
				ST_DWORD(dir + DIR_FileSize, 0);/* size = 0 */
 80035d2:	7737      	strb	r7, [r6, #28]
 80035d4:	7777      	strb	r7, [r6, #29]
 80035d6:	77b7      	strb	r7, [r6, #30]
 80035d8:	77f7      	strb	r7, [r6, #31]
				ST_DWORD(dir + DIR_CrtTime, dw);
 80035da:	7433      	strb	r3, [r6, #16]
 80035dc:	7470      	strb	r0, [r6, #17]
				cl = ld_clust(dj.fs, dir);		/* Get start cluster */
 80035de:	9b86      	ldr	r3, [sp, #536]	; 0x218
 80035e0:	4631      	mov	r1, r6
 80035e2:	f893 0200 	ldrb.w	r0, [r3, #512]	; 0x200
 80035e6:	f7ff fa04 	bl	80029f2 <ld_clust.isra.0>
				dj.fs->wflag = 1;
 80035ea:	2301      	movs	r3, #1
				cl = ld_clust(dj.fs, dir);		/* Get start cluster */
 80035ec:	4601      	mov	r1, r0
	ST_WORD(dir + DIR_FstClusLO, cl);
 80035ee:	76b7      	strb	r7, [r6, #26]
 80035f0:	76f7      	strb	r7, [r6, #27]
	ST_WORD(dir + DIR_FstClusHI, cl >> 16);
 80035f2:	7537      	strb	r7, [r6, #20]
 80035f4:	7577      	strb	r7, [r6, #21]
				dj.fs->wflag = 1;
 80035f6:	9886      	ldr	r0, [sp, #536]	; 0x218
				if (cl) {						/* Remove the cluster chain if exist */
 80035f8:	460f      	mov	r7, r1
				dj.fs->wflag = 1;
 80035fa:	f880 3204 	strb.w	r3, [r0, #516]	; 0x204
				if (cl) {						/* Remove the cluster chain if exist */
 80035fe:	b171      	cbz	r1, 800361e <f_open+0xf2>
					dw = dj.fs->winsect;
 8003600:	f8d0 822c 	ldr.w	r8, [r0, #556]	; 0x22c
					res = remove_chain(dj.fs, cl);
 8003604:	f7ff ff29 	bl	800345a <remove_chain>
					if (res == FR_OK) {
 8003608:	2800      	cmp	r0, #0
 800360a:	d1c6      	bne.n	800359a <f_open+0x6e>
						dj.fs->last_clust = cl - 1;	/* Reuse the cluster hole */
 800360c:	9886      	ldr	r0, [sp, #536]	; 0x218
 800360e:	3f01      	subs	r7, #1
						res = move_window(dj.fs, dw);
 8003610:	4641      	mov	r1, r8
						dj.fs->last_clust = cl - 1;	/* Reuse the cluster hole */
 8003612:	f8c0 720c 	str.w	r7, [r0, #524]	; 0x20c
						res = move_window(dj.fs, dw);
 8003616:	f7ff fa2b 	bl	8002a70 <move_window>
		if (res == FR_OK) {
 800361a:	2800      	cmp	r0, #0
 800361c:	d1bd      	bne.n	800359a <f_open+0x6e>
			fp->dir_sect = dj.fs->winsect;		/* Pointer to the directory entry */
 800361e:	9b86      	ldr	r3, [sp, #536]	; 0x218
			if (mode & FA_CREATE_ALWAYS)		/* Set file change flag if created or overwritten */
 8003620:	0722      	lsls	r2, r4, #28
			fp->dir_sect = dj.fs->winsect;		/* Pointer to the directory entry */
 8003622:	f8d3 322c 	ldr.w	r3, [r3, #556]	; 0x22c
				mode |= FA__WRITTEN;
 8003626:	bf48      	it	mi
 8003628:	f044 0420 	orrmi.w	r4, r4, #32
			fp->lockid = inc_lock(&dj, (mode & ~FA_READ) ? 1 : 0);
 800362c:	f014 0ffe 	tst.w	r4, #254	; 0xfe
 8003630:	bf14      	ite	ne
 8003632:	2101      	movne	r1, #1
 8003634:	2100      	moveq	r1, #0
			fp->dir_ptr = dir;
 8003636:	e9c5 3687 	strd	r3, r6, [r5, #540]	; 0x21c
			fp->lockid = inc_lock(&dj, (mode & ~FA_READ) ? 1 : 0);
 800363a:	a806      	add	r0, sp, #24
 800363c:	f7ff f92a 	bl	8002894 <inc_lock>
 8003640:	f8c5 0228 	str.w	r0, [r5, #552]	; 0x228
			if (!fp->lockid) res = FR_INT_ERR;
 8003644:	b9a0      	cbnz	r0, 8003670 <f_open+0x144>
 8003646:	2002      	movs	r0, #2
 8003648:	e7a7      	b.n	800359a <f_open+0x6e>
			if (res == FR_OK) {					/* Follow succeeded */
 800364a:	2800      	cmp	r0, #0
 800364c:	d1a5      	bne.n	800359a <f_open+0x6e>
				if (dir[DIR_Attr] & AM_DIR) {	/* It is a directory */
 800364e:	7af3      	ldrb	r3, [r6, #11]
 8003650:	06da      	lsls	r2, r3, #27
 8003652:	d40b      	bmi.n	800366c <f_open+0x140>
					if ((mode & FA_WRITE) && (dir[DIR_Attr] & AM_RDO)) /* R/O violation */
 8003654:	07bf      	lsls	r7, r7, #30
 8003656:	d5e2      	bpl.n	800361e <f_open+0xf2>
 8003658:	07d8      	lsls	r0, r3, #31
 800365a:	d5e0      	bpl.n	800361e <f_open+0xf2>
					res = FR_DENIED;
 800365c:	2007      	movs	r0, #7
 800365e:	e79c      	b.n	800359a <f_open+0x6e>
	if (!fp) return FR_INVALID_OBJECT;
 8003660:	2009      	movs	r0, #9
 8003662:	e79a      	b.n	800359a <f_open+0x6e>
					res = enq_lock() ? dir_register(&dj) : FR_TOO_MANY_OPEN_FILES;
 8003664:	2012      	movs	r0, #18
 8003666:	e798      	b.n	800359a <f_open+0x6e>
						res = FR_EXIST;
 8003668:	2008      	movs	r0, #8
 800366a:	e796      	b.n	800359a <f_open+0x6e>
					res = FR_NO_FILE;
 800366c:	2004      	movs	r0, #4
 800366e:	e794      	b.n	800359a <f_open+0x6e>
			fp->flag = mode;					/* File access mode */
 8003670:	f885 4206 	strb.w	r4, [r5, #518]	; 0x206
			fp->err = 0;						/* Clear error flag */
 8003674:	2400      	movs	r4, #0
			fp->sclust = ld_clust(dj.fs, dir);	/* File start cluster */
 8003676:	9f86      	ldr	r7, [sp, #536]	; 0x218
			fp->err = 0;						/* Clear error flag */
 8003678:	f885 4207 	strb.w	r4, [r5, #519]	; 0x207
			fp->sclust = ld_clust(dj.fs, dir);	/* File start cluster */
 800367c:	f897 0200 	ldrb.w	r0, [r7, #512]	; 0x200
 8003680:	4631      	mov	r1, r6
 8003682:	f7ff f9b6 	bl	80029f2 <ld_clust.isra.0>
 8003686:	f8c5 0210 	str.w	r0, [r5, #528]	; 0x210
			fp->fsize = LD_DWORD(dir + DIR_FileSize);	/* File size */
 800368a:	69f3      	ldr	r3, [r6, #28]
			fp->id = fp->fs->id;
 800368c:	4620      	mov	r0, r4
			fp->fptr = 0;						/* File pointer */
 800368e:	e9c5 4382 	strd	r4, r3, [r5, #520]	; 0x208
			fp->id = fp->fs->id;
 8003692:	f8b7 3206 	ldrh.w	r3, [r7, #518]	; 0x206
			fp->dsect = 0;
 8003696:	f8c5 4218 	str.w	r4, [r5, #536]	; 0x218
			fp->cltbl = 0;						/* Normal seek mode */
 800369a:	f8c5 4224 	str.w	r4, [r5, #548]	; 0x224
			fp->fs = dj.fs;	 					/* Validate file object */
 800369e:	f8c5 7200 	str.w	r7, [r5, #512]	; 0x200
			fp->id = fp->fs->id;
 80036a2:	f8a5 3204 	strh.w	r3, [r5, #516]	; 0x204
 80036a6:	e778      	b.n	800359a <f_open+0x6e>
 80036a8:	200000c8 	.word	0x200000c8

080036ac <f_read>:
	FIL* fp, 		/* Pointer to the file object */
	void* buff,		/* Pointer to data buffer */
	UINT btr,		/* Number of bytes to read */
	UINT* br		/* Pointer to number of bytes read */
)
{
 80036ac:	e92d 4ff7 	stmdb	sp!, {r0, r1, r2, r4, r5, r6, r7, r8, r9, sl, fp, lr}
 80036b0:	469a      	mov	sl, r3
	DWORD clst, sect, remain;
	UINT rcnt, cc;
	BYTE csect, *rbuff = (BYTE*)buff;


	*br = 0;	/* Clear read byte counter */
 80036b2:	2300      	movs	r3, #0
 80036b4:	f8ca 3000 	str.w	r3, [sl]
{
 80036b8:	4604      	mov	r4, r0
 80036ba:	4689      	mov	r9, r1
 80036bc:	4617      	mov	r7, r2

	res = validate(fp);							/* Check validity */
 80036be:	f7ff f981 	bl	80029c4 <validate>
	if (res != FR_OK) LEAVE_FF(fp->fs, res);
 80036c2:	4605      	mov	r5, r0
 80036c4:	bb50      	cbnz	r0, 800371c <f_read+0x70>
	if (fp->err)								/* Check error */
 80036c6:	f894 5207 	ldrb.w	r5, [r4, #519]	; 0x207
 80036ca:	bb3d      	cbnz	r5, 800371c <f_read+0x70>
		LEAVE_FF(fp->fs, (FRESULT)fp->err);
	if (!(fp->flag & FA_READ)) 					/* Check access mode */
 80036cc:	f894 3206 	ldrb.w	r3, [r4, #518]	; 0x206
 80036d0:	f013 0301 	ands.w	r3, r3, #1
 80036d4:	9300      	str	r3, [sp, #0]
 80036d6:	f000 80ae 	beq.w	8003836 <f_read+0x18a>
		LEAVE_FF(fp->fs, FR_DENIED);
	remain = fp->fsize - fp->fptr;
 80036da:	e9d4 2682 	ldrd	r2, r6, [r4, #520]	; 0x208
 80036de:	1ab6      	subs	r6, r6, r2
 80036e0:	42be      	cmp	r6, r7
 80036e2:	bf28      	it	cs
 80036e4:	463e      	movcs	r6, r7
	if (btr > remain) btr = (UINT)remain;		/* Truncate btr by remaining bytes */

	for ( ;  btr;								/* Repeat until all data read */
 80036e6:	b1ce      	cbz	r6, 800371c <f_read+0x70>
		rbuff += rcnt, fp->fptr += rcnt, *br += rcnt, btr -= rcnt) {
		if ((fp->fptr % SS(fp->fs)) == 0) {		/* On the sector boundary? */
 80036e8:	f8d4 1208 	ldr.w	r1, [r4, #520]	; 0x208
 80036ec:	f3c1 0308 	ubfx	r3, r1, #0, #9
 80036f0:	2b00      	cmp	r3, #0
 80036f2:	f040 8091 	bne.w	8003818 <f_read+0x16c>
			csect = (BYTE)(fp->fptr / SS(fp->fs) & (fp->fs->csize - 1));	/* Sector offset in the cluster */
 80036f6:	f8d4 0200 	ldr.w	r0, [r4, #512]	; 0x200
 80036fa:	f890 8202 	ldrb.w	r8, [r0, #514]	; 0x202
 80036fe:	f108 38ff 	add.w	r8, r8, #4294967295
 8003702:	ea08 2851 	and.w	r8, r8, r1, lsr #9
			if (!csect) {						/* On the cluster boundary? */
 8003706:	f018 08ff 	ands.w	r8, r8, #255	; 0xff
 800370a:	d120      	bne.n	800374e <f_read+0xa2>
				if (fp->fptr == 0) {			/* On the top of the file? */
 800370c:	b951      	cbnz	r1, 8003724 <f_read+0x78>
					clst = fp->sclust;			/* Follow from the origin */
 800370e:	f8d4 0210 	ldr.w	r0, [r4, #528]	; 0x210
						clst = clmt_clust(fp, fp->fptr);	/* Get cluster# from the CLMT */
					else
#endif
						clst = get_fat(fp->fs, fp->clust);	/* Follow cluster chain on the FAT */
				}
				if (clst < 2) ABORT(fp->fs, FR_INT_ERR);
 8003712:	2801      	cmp	r0, #1
 8003714:	d812      	bhi.n	800373c <f_read+0x90>
 8003716:	2502      	movs	r5, #2
 8003718:	f884 5207 	strb.w	r5, [r4, #519]	; 0x207
		mem_cpy(rbuff, &fp->buf.d8[fp->fptr % SS(fp->fs)], rcnt);	/* Pick partial sector */
#endif
	}

	LEAVE_FF(fp->fs, FR_OK);
}
 800371c:	4628      	mov	r0, r5
 800371e:	b003      	add	sp, #12
 8003720:	e8bd 8ff0 	ldmia.w	sp!, {r4, r5, r6, r7, r8, r9, sl, fp, pc}
					if (fp->cltbl)
 8003724:	f8d4 3224 	ldr.w	r3, [r4, #548]	; 0x224
 8003728:	b11b      	cbz	r3, 8003732 <f_read+0x86>
						clst = clmt_clust(fp, fp->fptr);	/* Get cluster# from the CLMT */
 800372a:	4620      	mov	r0, r4
 800372c:	f7ff f91e 	bl	800296c <clmt_clust>
 8003730:	e7ef      	b.n	8003712 <f_read+0x66>
						clst = get_fat(fp->fs, fp->clust);	/* Follow cluster chain on the FAT */
 8003732:	f8d4 1214 	ldr.w	r1, [r4, #532]	; 0x214
 8003736:	f7ff fb75 	bl	8002e24 <get_fat>
 800373a:	e7ea      	b.n	8003712 <f_read+0x66>
				if (clst == 0xFFFFFFFF) ABORT(fp->fs, FR_DISK_ERR);
 800373c:	1c42      	adds	r2, r0, #1
 800373e:	d104      	bne.n	800374a <f_read+0x9e>
 8003740:	2301      	movs	r3, #1
 8003742:	9d00      	ldr	r5, [sp, #0]
 8003744:	f884 3207 	strb.w	r3, [r4, #519]	; 0x207
 8003748:	e7e8      	b.n	800371c <f_read+0x70>
				fp->clust = clst;				/* Update current cluster */
 800374a:	f8c4 0214 	str.w	r0, [r4, #532]	; 0x214
			sect = clust2sect(fp->fs, fp->clust);	/* Get current sector */
 800374e:	f8d4 b200 	ldr.w	fp, [r4, #512]	; 0x200
 8003752:	f8d4 1214 	ldr.w	r1, [r4, #532]	; 0x214
 8003756:	4658      	mov	r0, fp
 8003758:	f7ff fb56 	bl	8002e08 <clust2sect>
			if (!sect) ABORT(fp->fs, FR_INT_ERR);
 800375c:	2800      	cmp	r0, #0
 800375e:	d0da      	beq.n	8003716 <f_read+0x6a>
			if (cc) {							/* Read maximum contiguous sectors directly */
 8003760:	f5b6 7f00 	cmp.w	r6, #512	; 0x200
			sect += csect;
 8003764:	eb00 0708 	add.w	r7, r0, r8
			if (cc) {							/* Read maximum contiguous sectors directly */
 8003768:	d333      	bcc.n	80037d2 <f_read+0x126>
				if (csect + cc > fp->fs->csize)	/* Clip at cluster boundary */
 800376a:	f89b 2202 	ldrb.w	r2, [fp, #514]	; 0x202
 800376e:	eb08 2156 	add.w	r1, r8, r6, lsr #9
 8003772:	4291      	cmp	r1, r2
			cc = btr / SS(fp->fs);				/* When remaining bytes >= sector size, */
 8003774:	ea4f 2356 	mov.w	r3, r6, lsr #9
				if (disk_read(fp->fs->drv, rbuff, sect, cc) != RES_OK)
 8003778:	4649      	mov	r1, r9
					cc = fp->fs->csize - csect;
 800377a:	bf88      	it	hi
 800377c:	eba2 0308 	subhi.w	r3, r2, r8
				if (disk_read(fp->fs->drv, rbuff, sect, cc) != RES_OK)
 8003780:	f89b 0201 	ldrb.w	r0, [fp, #513]	; 0x201
 8003784:	463a      	mov	r2, r7
 8003786:	9301      	str	r3, [sp, #4]
 8003788:	f7ff f808 	bl	800279c <disk_read>
 800378c:	2800      	cmp	r0, #0
 800378e:	d1d7      	bne.n	8003740 <f_read+0x94>
				if ((fp->flag & FA__DIRTY) && fp->dsect - sect < cc)
 8003790:	f894 2206 	ldrb.w	r2, [r4, #518]	; 0x206
 8003794:	9b01      	ldr	r3, [sp, #4]
 8003796:	f012 0f40 	tst.w	r2, #64	; 0x40
 800379a:	d00c      	beq.n	80037b6 <f_read+0x10a>
 800379c:	f8d4 0218 	ldr.w	r0, [r4, #536]	; 0x218
 80037a0:	1bc0      	subs	r0, r0, r7
 80037a2:	4283      	cmp	r3, r0
 80037a4:	d907      	bls.n	80037b6 <f_read+0x10a>
					mem_cpy(rbuff + ((fp->dsect - sect) * SS(fp->fs)), fp->buf.d8, SS(fp->fs));
 80037a6:	f44f 7200 	mov.w	r2, #512	; 0x200
 80037aa:	4621      	mov	r1, r4
 80037ac:	eb09 2040 	add.w	r0, r9, r0, lsl #9
 80037b0:	f7ff f81c 	bl	80027ec <mem_cpy>
 80037b4:	9b01      	ldr	r3, [sp, #4]
				rcnt = SS(fp->fs) * cc;			/* Number of bytes transferred */
 80037b6:	025f      	lsls	r7, r3, #9
		rbuff += rcnt, fp->fptr += rcnt, *br += rcnt, btr -= rcnt) {
 80037b8:	f8d4 3208 	ldr.w	r3, [r4, #520]	; 0x208
 80037bc:	44b9      	add	r9, r7
 80037be:	443b      	add	r3, r7
 80037c0:	f8c4 3208 	str.w	r3, [r4, #520]	; 0x208
 80037c4:	f8da 3000 	ldr.w	r3, [sl]
 80037c8:	1bf6      	subs	r6, r6, r7
 80037ca:	443b      	add	r3, r7
 80037cc:	f8ca 3000 	str.w	r3, [sl]
 80037d0:	e789      	b.n	80036e6 <f_read+0x3a>
			if (fp->dsect != sect) {			/* Load data sector if not in cache */
 80037d2:	f8d4 2218 	ldr.w	r2, [r4, #536]	; 0x218
 80037d6:	4297      	cmp	r7, r2
 80037d8:	d01c      	beq.n	8003814 <f_read+0x168>
				if (fp->flag & FA__DIRTY) {		/* Write-back dirty sector cache */
 80037da:	f894 3206 	ldrb.w	r3, [r4, #518]	; 0x206
 80037de:	065b      	lsls	r3, r3, #25
 80037e0:	d50d      	bpl.n	80037fe <f_read+0x152>
					if (disk_write(fp->fs->drv, fp->buf.d8, fp->dsect, 1) != RES_OK)
 80037e2:	2301      	movs	r3, #1
 80037e4:	4621      	mov	r1, r4
 80037e6:	f89b 0201 	ldrb.w	r0, [fp, #513]	; 0x201
 80037ea:	f7fe ffe5 	bl	80027b8 <disk_write>
 80037ee:	2800      	cmp	r0, #0
 80037f0:	d1a6      	bne.n	8003740 <f_read+0x94>
					fp->flag &= ~FA__DIRTY;
 80037f2:	f894 3206 	ldrb.w	r3, [r4, #518]	; 0x206
 80037f6:	f023 0340 	bic.w	r3, r3, #64	; 0x40
 80037fa:	f884 3206 	strb.w	r3, [r4, #518]	; 0x206
				if (disk_read(fp->fs->drv, fp->buf.d8, sect, 1) != RES_OK)	/* Fill sector cache */
 80037fe:	f8d4 0200 	ldr.w	r0, [r4, #512]	; 0x200
 8003802:	2301      	movs	r3, #1
 8003804:	463a      	mov	r2, r7
 8003806:	4621      	mov	r1, r4
 8003808:	f890 0201 	ldrb.w	r0, [r0, #513]	; 0x201
 800380c:	f7fe ffc6 	bl	800279c <disk_read>
 8003810:	2800      	cmp	r0, #0
 8003812:	d195      	bne.n	8003740 <f_read+0x94>
			fp->dsect = sect;
 8003814:	f8c4 7218 	str.w	r7, [r4, #536]	; 0x218
		rcnt = SS(fp->fs) - ((UINT)fp->fptr % SS(fp->fs));	/* Get partial sector data from sector buffer */
 8003818:	f8d4 1208 	ldr.w	r1, [r4, #520]	; 0x208
		mem_cpy(rbuff, &fp->buf.d8[fp->fptr % SS(fp->fs)], rcnt);	/* Pick partial sector */
 800381c:	4648      	mov	r0, r9
		rcnt = SS(fp->fs) - ((UINT)fp->fptr % SS(fp->fs));	/* Get partial sector data from sector buffer */
 800381e:	f3c1 0108 	ubfx	r1, r1, #0, #9
 8003822:	f5c1 7700 	rsb	r7, r1, #512	; 0x200
		if (rcnt > btr) rcnt = btr;
 8003826:	42b7      	cmp	r7, r6
 8003828:	bf28      	it	cs
 800382a:	4637      	movcs	r7, r6
		mem_cpy(rbuff, &fp->buf.d8[fp->fptr % SS(fp->fs)], rcnt);	/* Pick partial sector */
 800382c:	4421      	add	r1, r4
 800382e:	463a      	mov	r2, r7
 8003830:	f7fe ffdc 	bl	80027ec <mem_cpy>
 8003834:	e7c0      	b.n	80037b8 <f_read+0x10c>
		LEAVE_FF(fp->fs, FR_DENIED);
 8003836:	2507      	movs	r5, #7
 8003838:	e770      	b.n	800371c <f_read+0x70>

0800383a <f_write>:
	FIL* fp,			/* Pointer to the file object */
	const void *buff,	/* Pointer to the data to be written */
	UINT btw,			/* Number of bytes to write */
	UINT* bw			/* Pointer to number of bytes written */
)
{
 800383a:	e92d 4ff7 	stmdb	sp!, {r0, r1, r2, r4, r5, r6, r7, r8, r9, sl, fp, lr}
 800383e:	4699      	mov	r9, r3
	UINT wcnt, cc;
	const BYTE *wbuff = (const BYTE*)buff;
	BYTE csect;


	*bw = 0;	/* Clear write byte counter */
 8003840:	2300      	movs	r3, #0
 8003842:	f8c9 3000 	str.w	r3, [r9]
{
 8003846:	4604      	mov	r4, r0
 8003848:	4688      	mov	r8, r1
 800384a:	4616      	mov	r6, r2

	res = validate(fp);						/* Check validity */
 800384c:	f7ff f8ba 	bl	80029c4 <validate>
	if (res != FR_OK) LEAVE_FF(fp->fs, res);
 8003850:	4605      	mov	r5, r0
 8003852:	bb30      	cbnz	r0, 80038a2 <f_write+0x68>
	if (fp->err)							/* Check error */
 8003854:	f894 5207 	ldrb.w	r5, [r4, #519]	; 0x207
 8003858:	bb1d      	cbnz	r5, 80038a2 <f_write+0x68>
		LEAVE_FF(fp->fs, (FRESULT)fp->err);
	if (!(fp->flag & FA_WRITE))				/* Check access mode */
 800385a:	f894 3206 	ldrb.w	r3, [r4, #518]	; 0x206
 800385e:	0799      	lsls	r1, r3, #30
 8003860:	f140 80d2 	bpl.w	8003a08 <f_write+0x1ce>
		LEAVE_FF(fp->fs, FR_DENIED);
	if (fp->fptr + btw < fp->fptr) btw = 0;	/* File size cannot reach 4GB */
 8003864:	f8d4 3208 	ldr.w	r3, [r4, #520]	; 0x208
 8003868:	42de      	cmn	r6, r3
 800386a:	f0c0 8084 	bcc.w	8003976 <f_write+0x13c>
		mem_cpy(&fp->buf.d8[fp->fptr % SS(fp->fs)], wbuff, wcnt);	/* Fit partial sector */
		fp->flag |= FA__DIRTY;
#endif
	}

	if (fp->fptr > fp->fsize) fp->fsize = fp->fptr;	/* Update file size if needed */
 800386e:	e9d4 3282 	ldrd	r3, r2, [r4, #520]	; 0x208
 8003872:	4293      	cmp	r3, r2
 8003874:	f200 80c5 	bhi.w	8003a02 <f_write+0x1c8>
	fp->flag |= FA__WRITTEN;						/* Set file change flag */
 8003878:	f894 3206 	ldrb.w	r3, [r4, #518]	; 0x206
 800387c:	f043 0320 	orr.w	r3, r3, #32
 8003880:	f884 3206 	strb.w	r3, [r4, #518]	; 0x206

	LEAVE_FF(fp->fs, FR_OK);
 8003884:	e00d      	b.n	80038a2 <f_write+0x68>
					if (fp->cltbl)
 8003886:	f8d4 3224 	ldr.w	r3, [r4, #548]	; 0x224
 800388a:	b173      	cbz	r3, 80038aa <f_write+0x70>
						clst = clmt_clust(fp, fp->fptr);	/* Get cluster# from the CLMT */
 800388c:	4620      	mov	r0, r4
 800388e:	f7ff f86d 	bl	800296c <clmt_clust>
						clst = create_chain(fp->fs, fp->clust);	/* Follow or stretch cluster chain on the FAT */
 8003892:	4601      	mov	r1, r0
				if (clst == 0) break;		/* Could not allocate a new cluster (disk full) */
 8003894:	2800      	cmp	r0, #0
 8003896:	d0ea      	beq.n	800386e <f_write+0x34>
				if (clst == 1) ABORT(fp->fs, FR_INT_ERR);
 8003898:	2901      	cmp	r1, #1
 800389a:	d109      	bne.n	80038b0 <f_write+0x76>
 800389c:	2502      	movs	r5, #2
				if (clst == 0xFFFFFFFF) ABORT(fp->fs, FR_DISK_ERR);
 800389e:	f884 5207 	strb.w	r5, [r4, #519]	; 0x207
}
 80038a2:	4628      	mov	r0, r5
 80038a4:	b003      	add	sp, #12
 80038a6:	e8bd 8ff0 	ldmia.w	sp!, {r4, r5, r6, r7, r8, r9, sl, fp, pc}
						clst = create_chain(fp->fs, fp->clust);	/* Follow or stretch cluster chain on the FAT */
 80038aa:	f8d4 1214 	ldr.w	r1, [r4, #532]	; 0x214
 80038ae:	e07c      	b.n	80039aa <f_write+0x170>
				if (clst == 0xFFFFFFFF) ABORT(fp->fs, FR_DISK_ERR);
 80038b0:	1c4a      	adds	r2, r1, #1
 80038b2:	d101      	bne.n	80038b8 <f_write+0x7e>
 80038b4:	2501      	movs	r5, #1
 80038b6:	e7f2      	b.n	800389e <f_write+0x64>
				if (fp->sclust == 0) fp->sclust = clst;	/* Set start cluster if the first write */
 80038b8:	f8d4 3210 	ldr.w	r3, [r4, #528]	; 0x210
				fp->clust = clst;			/* Update current cluster */
 80038bc:	f8c4 1214 	str.w	r1, [r4, #532]	; 0x214
				if (fp->sclust == 0) fp->sclust = clst;	/* Set start cluster if the first write */
 80038c0:	b90b      	cbnz	r3, 80038c6 <f_write+0x8c>
 80038c2:	f8c4 1210 	str.w	r1, [r4, #528]	; 0x210
			if (fp->flag & FA__DIRTY) {		/* Write-back sector cache */
 80038c6:	f894 3206 	ldrb.w	r3, [r4, #518]	; 0x206
 80038ca:	065b      	lsls	r3, r3, #25
 80038cc:	d511      	bpl.n	80038f2 <f_write+0xb8>
				if (disk_write(fp->fs->drv, fp->buf.d8, fp->dsect, 1) != RES_OK)
 80038ce:	f8d4 0200 	ldr.w	r0, [r4, #512]	; 0x200
 80038d2:	2301      	movs	r3, #1
 80038d4:	4621      	mov	r1, r4
 80038d6:	f8d4 2218 	ldr.w	r2, [r4, #536]	; 0x218
 80038da:	f890 0201 	ldrb.w	r0, [r0, #513]	; 0x201
 80038de:	f7fe ff6b 	bl	80027b8 <disk_write>
 80038e2:	2800      	cmp	r0, #0
 80038e4:	d1e6      	bne.n	80038b4 <f_write+0x7a>
				fp->flag &= ~FA__DIRTY;
 80038e6:	f894 3206 	ldrb.w	r3, [r4, #518]	; 0x206
 80038ea:	f023 0340 	bic.w	r3, r3, #64	; 0x40
 80038ee:	f884 3206 	strb.w	r3, [r4, #518]	; 0x206
			sect = clust2sect(fp->fs, fp->clust);	/* Get current sector */
 80038f2:	f8d4 b200 	ldr.w	fp, [r4, #512]	; 0x200
 80038f6:	f8d4 1214 	ldr.w	r1, [r4, #532]	; 0x214
 80038fa:	4658      	mov	r0, fp
 80038fc:	f7ff fa84 	bl	8002e08 <clust2sect>
			if (!sect) ABORT(fp->fs, FR_INT_ERR);
 8003900:	2800      	cmp	r0, #0
 8003902:	d0cb      	beq.n	800389c <f_write+0x62>
			if (cc) {						/* Write maximum contiguous sectors directly */
 8003904:	f5b6 7f00 	cmp.w	r6, #512	; 0x200
			sect += csect;
 8003908:	eb00 0a07 	add.w	sl, r0, r7
			if (cc) {						/* Write maximum contiguous sectors directly */
 800390c:	d350      	bcc.n	80039b0 <f_write+0x176>
				if (csect + cc > fp->fs->csize)	/* Clip at cluster boundary */
 800390e:	f89b 2202 	ldrb.w	r2, [fp, #514]	; 0x202
 8003912:	eb07 2156 	add.w	r1, r7, r6, lsr #9
 8003916:	4291      	cmp	r1, r2
			cc = btw / SS(fp->fs);			/* When remaining bytes >= sector size, */
 8003918:	ea4f 2356 	mov.w	r3, r6, lsr #9
				if (disk_write(fp->fs->drv, wbuff, sect, cc) != RES_OK)
 800391c:	4641      	mov	r1, r8
					cc = fp->fs->csize - csect;
 800391e:	bf88      	it	hi
 8003920:	1bd3      	subhi	r3, r2, r7
				if (disk_write(fp->fs->drv, wbuff, sect, cc) != RES_OK)
 8003922:	f89b 0201 	ldrb.w	r0, [fp, #513]	; 0x201
 8003926:	4652      	mov	r2, sl
 8003928:	9301      	str	r3, [sp, #4]
 800392a:	f7fe ff45 	bl	80027b8 <disk_write>
 800392e:	2800      	cmp	r0, #0
 8003930:	d1c0      	bne.n	80038b4 <f_write+0x7a>
				if (fp->dsect - sect < cc) { /* Refill sector cache if it gets invalidated by the direct write */
 8003932:	f8d4 1218 	ldr.w	r1, [r4, #536]	; 0x218
 8003936:	9b01      	ldr	r3, [sp, #4]
 8003938:	eba1 010a 	sub.w	r1, r1, sl
 800393c:	428b      	cmp	r3, r1
 800393e:	d90d      	bls.n	800395c <f_write+0x122>
					mem_cpy(fp->buf.d8, wbuff + ((fp->dsect - sect) * SS(fp->fs)), SS(fp->fs));
 8003940:	f44f 7200 	mov.w	r2, #512	; 0x200
 8003944:	4620      	mov	r0, r4
 8003946:	eb08 2141 	add.w	r1, r8, r1, lsl #9
 800394a:	f7fe ff4f 	bl	80027ec <mem_cpy>
					fp->flag &= ~FA__DIRTY;
 800394e:	f894 2206 	ldrb.w	r2, [r4, #518]	; 0x206
 8003952:	9b01      	ldr	r3, [sp, #4]
 8003954:	f022 0240 	bic.w	r2, r2, #64	; 0x40
 8003958:	f884 2206 	strb.w	r2, [r4, #518]	; 0x206
				wcnt = SS(fp->fs) * cc;		/* Number of bytes transferred */
 800395c:	025f      	lsls	r7, r3, #9
		wbuff += wcnt, fp->fptr += wcnt, *bw += wcnt, btw -= wcnt) {
 800395e:	f8d4 3208 	ldr.w	r3, [r4, #520]	; 0x208
 8003962:	44b8      	add	r8, r7
 8003964:	443b      	add	r3, r7
 8003966:	f8c4 3208 	str.w	r3, [r4, #520]	; 0x208
 800396a:	f8d9 3000 	ldr.w	r3, [r9]
 800396e:	1bf6      	subs	r6, r6, r7
 8003970:	443b      	add	r3, r7
 8003972:	f8c9 3000 	str.w	r3, [r9]
	for ( ;  btw;							/* Repeat until all data written */
 8003976:	f8d4 1208 	ldr.w	r1, [r4, #520]	; 0x208
 800397a:	2e00      	cmp	r6, #0
 800397c:	f43f af77 	beq.w	800386e <f_write+0x34>
		if ((fp->fptr % SS(fp->fs)) == 0) {	/* On the sector boundary? */
 8003980:	f3c1 0308 	ubfx	r3, r1, #0, #9
 8003984:	bb43      	cbnz	r3, 80039d8 <f_write+0x19e>
			csect = (BYTE)(fp->fptr / SS(fp->fs) & (fp->fs->csize - 1));	/* Sector offset in the cluster */
 8003986:	f8d4 0200 	ldr.w	r0, [r4, #512]	; 0x200
 800398a:	f890 7202 	ldrb.w	r7, [r0, #514]	; 0x202
 800398e:	3f01      	subs	r7, #1
 8003990:	ea07 2751 	and.w	r7, r7, r1, lsr #9
			if (!csect) {					/* On the cluster boundary? */
 8003994:	f017 07ff 	ands.w	r7, r7, #255	; 0xff
 8003998:	d195      	bne.n	80038c6 <f_write+0x8c>
				if (fp->fptr == 0) {		/* On the top of the file? */
 800399a:	2900      	cmp	r1, #0
 800399c:	f47f af73 	bne.w	8003886 <f_write+0x4c>
					clst = fp->sclust;		/* Follow from the origin */
 80039a0:	f8d4 1210 	ldr.w	r1, [r4, #528]	; 0x210
					if (clst == 0)			/* When no cluster is allocated, */
 80039a4:	2900      	cmp	r1, #0
 80039a6:	f47f af77 	bne.w	8003898 <f_write+0x5e>
						clst = create_chain(fp->fs, fp->clust);	/* Follow or stretch cluster chain on the FAT */
 80039aa:	f7ff fb64 	bl	8003076 <create_chain>
 80039ae:	e770      	b.n	8003892 <f_write+0x58>
			if (fp->dsect != sect) {		/* Fill sector cache with file data */
 80039b0:	f8d4 3218 	ldr.w	r3, [r4, #536]	; 0x218
 80039b4:	459a      	cmp	sl, r3
 80039b6:	d00d      	beq.n	80039d4 <f_write+0x19a>
				if (fp->fptr < fp->fsize &&
 80039b8:	e9d4 3282 	ldrd	r3, r2, [r4, #520]	; 0x208
 80039bc:	429a      	cmp	r2, r3
 80039be:	d909      	bls.n	80039d4 <f_write+0x19a>
					disk_read(fp->fs->drv, fp->buf.d8, sect, 1) != RES_OK)
 80039c0:	2301      	movs	r3, #1
 80039c2:	4652      	mov	r2, sl
 80039c4:	4621      	mov	r1, r4
 80039c6:	f89b 0201 	ldrb.w	r0, [fp, #513]	; 0x201
 80039ca:	f7fe fee7 	bl	800279c <disk_read>
				if (fp->fptr < fp->fsize &&
 80039ce:	2800      	cmp	r0, #0
 80039d0:	f47f af70 	bne.w	80038b4 <f_write+0x7a>
			fp->dsect = sect;
 80039d4:	f8c4 a218 	str.w	sl, [r4, #536]	; 0x218
		wcnt = SS(fp->fs) - ((UINT)fp->fptr % SS(fp->fs));/* Put partial sector into file I/O buffer */
 80039d8:	f8d4 0208 	ldr.w	r0, [r4, #520]	; 0x208
		mem_cpy(&fp->buf.d8[fp->fptr % SS(fp->fs)], wbuff, wcnt);	/* Fit partial sector */
 80039dc:	4641      	mov	r1, r8
		wcnt = SS(fp->fs) - ((UINT)fp->fptr % SS(fp->fs));/* Put partial sector into file I/O buffer */
 80039de:	f3c0 0008 	ubfx	r0, r0, #0, #9
 80039e2:	f5c0 7700 	rsb	r7, r0, #512	; 0x200
		if (wcnt > btw) wcnt = btw;
 80039e6:	42b7      	cmp	r7, r6
 80039e8:	bf28      	it	cs
 80039ea:	4637      	movcs	r7, r6
		mem_cpy(&fp->buf.d8[fp->fptr % SS(fp->fs)], wbuff, wcnt);	/* Fit partial sector */
 80039ec:	4420      	add	r0, r4
 80039ee:	463a      	mov	r2, r7
 80039f0:	f7fe fefc 	bl	80027ec <mem_cpy>
		fp->flag |= FA__DIRTY;
 80039f4:	f894 3206 	ldrb.w	r3, [r4, #518]	; 0x206
 80039f8:	f043 0340 	orr.w	r3, r3, #64	; 0x40
 80039fc:	f884 3206 	strb.w	r3, [r4, #518]	; 0x206
 8003a00:	e7ad      	b.n	800395e <f_write+0x124>
	if (fp->fptr > fp->fsize) fp->fsize = fp->fptr;	/* Update file size if needed */
 8003a02:	f8c4 320c 	str.w	r3, [r4, #524]	; 0x20c
 8003a06:	e737      	b.n	8003878 <f_write+0x3e>
		LEAVE_FF(fp->fs, FR_DENIED);
 8003a08:	2507      	movs	r5, #7
 8003a0a:	e74a      	b.n	80038a2 <f_write+0x68>

08003a0c <f_sync>:
/*-----------------------------------------------------------------------*/

FRESULT f_sync (
	FIL* fp		/* Pointer to the file object */
)
{
 8003a0c:	b570      	push	{r4, r5, r6, lr}
 8003a0e:	4604      	mov	r4, r0
	FRESULT res;
	DWORD tm;
	BYTE *dir;


	res = validate(fp);					/* Check validity of the object */
 8003a10:	f7fe ffd8 	bl	80029c4 <validate>
	if (res == FR_OK) {
 8003a14:	2800      	cmp	r0, #0
 8003a16:	d159      	bne.n	8003acc <f_sync+0xc0>
		if (fp->flag & FA__WRITTEN) {	/* Has the file been written? */
 8003a18:	f894 3206 	ldrb.w	r3, [r4, #518]	; 0x206
 8003a1c:	f013 0020 	ands.w	r0, r3, #32
 8003a20:	d054      	beq.n	8003acc <f_sync+0xc0>
			/* Write-back dirty buffer */
#if !_FS_TINY
			if (fp->flag & FA__DIRTY) {
 8003a22:	065b      	lsls	r3, r3, #25
 8003a24:	d511      	bpl.n	8003a4a <f_sync+0x3e>
				if (disk_write(fp->fs->drv, fp->buf.d8, fp->dsect, 1) != RES_OK)
 8003a26:	f8d4 0200 	ldr.w	r0, [r4, #512]	; 0x200
 8003a2a:	2301      	movs	r3, #1
 8003a2c:	4621      	mov	r1, r4
 8003a2e:	f8d4 2218 	ldr.w	r2, [r4, #536]	; 0x218
 8003a32:	f890 0201 	ldrb.w	r0, [r0, #513]	; 0x201
 8003a36:	f7fe febf 	bl	80027b8 <disk_write>
 8003a3a:	2800      	cmp	r0, #0
 8003a3c:	d145      	bne.n	8003aca <f_sync+0xbe>
					LEAVE_FF(fp->fs, FR_DISK_ERR);
				fp->flag &= ~FA__DIRTY;
 8003a3e:	f894 3206 	ldrb.w	r3, [r4, #518]	; 0x206
 8003a42:	f023 0340 	bic.w	r3, r3, #64	; 0x40
 8003a46:	f884 3206 	strb.w	r3, [r4, #518]	; 0x206
			}
#endif
			/* Update the directory entry */
			res = move_window(fp->fs, fp->dir_sect);
 8003a4a:	f8d4 121c 	ldr.w	r1, [r4, #540]	; 0x21c
 8003a4e:	f8d4 0200 	ldr.w	r0, [r4, #512]	; 0x200
 8003a52:	f7ff f80d 	bl	8002a70 <move_window>
 8003a56:	4606      	mov	r6, r0
			if (res == FR_OK) {
 8003a58:	bbc0      	cbnz	r0, 8003acc <f_sync+0xc0>
				dir = fp->dir_ptr;
 8003a5a:	f8d4 5220 	ldr.w	r5, [r4, #544]	; 0x220
				dir[DIR_Attr] |= AM_ARC;					/* Set archive bit */
 8003a5e:	7aeb      	ldrb	r3, [r5, #11]
 8003a60:	f043 0320 	orr.w	r3, r3, #32
 8003a64:	72eb      	strb	r3, [r5, #11]
				ST_DWORD(dir + DIR_FileSize, fp->fsize);	/* Update file size */
 8003a66:	f8d4 320c 	ldr.w	r3, [r4, #524]	; 0x20c
 8003a6a:	772b      	strb	r3, [r5, #28]
 8003a6c:	f8b4 320c 	ldrh.w	r3, [r4, #524]	; 0x20c
 8003a70:	0a1b      	lsrs	r3, r3, #8
 8003a72:	776b      	strb	r3, [r5, #29]
 8003a74:	f8b4 320e 	ldrh.w	r3, [r4, #526]	; 0x20e
 8003a78:	77ab      	strb	r3, [r5, #30]
 8003a7a:	f894 320f 	ldrb.w	r3, [r4, #527]	; 0x20f
 8003a7e:	77eb      	strb	r3, [r5, #31]
				st_clust(dir, fp->sclust);					/* Update start cluster */
 8003a80:	f8d4 3210 	ldr.w	r3, [r4, #528]	; 0x210
	ST_WORD(dir + DIR_FstClusLO, cl);
 8003a84:	76ab      	strb	r3, [r5, #26]
 8003a86:	f3c3 2207 	ubfx	r2, r3, #8, #8
	ST_WORD(dir + DIR_FstClusHI, cl >> 16);
 8003a8a:	0c1b      	lsrs	r3, r3, #16
 8003a8c:	752b      	strb	r3, [r5, #20]
 8003a8e:	0a1b      	lsrs	r3, r3, #8
 8003a90:	756b      	strb	r3, [r5, #21]
	ST_WORD(dir + DIR_FstClusLO, cl);
 8003a92:	76ea      	strb	r2, [r5, #27]
				tm = GET_FATTIME();							/* Update updated time */
 8003a94:	f002 fbbc 	bl	8006210 <get_fattime>
				ST_DWORD(dir + DIR_WrtTime, tm);
 8003a98:	f3c0 2307 	ubfx	r3, r0, #8, #8
 8003a9c:	75eb      	strb	r3, [r5, #23]
 8003a9e:	0c03      	lsrs	r3, r0, #16
 8003aa0:	762b      	strb	r3, [r5, #24]
 8003aa2:	0e03      	lsrs	r3, r0, #24
 8003aa4:	75a8      	strb	r0, [r5, #22]
 8003aa6:	766b      	strb	r3, [r5, #25]
				ST_WORD(dir + DIR_LstAccDate, 0);
 8003aa8:	74ae      	strb	r6, [r5, #18]
 8003aaa:	74ee      	strb	r6, [r5, #19]
				fp->flag &= ~FA__WRITTEN;
 8003aac:	f894 3206 	ldrb.w	r3, [r4, #518]	; 0x206
				fp->fs->wflag = 1;
 8003ab0:	f8d4 0200 	ldr.w	r0, [r4, #512]	; 0x200
				fp->flag &= ~FA__WRITTEN;
 8003ab4:	f023 0320 	bic.w	r3, r3, #32
 8003ab8:	f884 3206 	strb.w	r3, [r4, #518]	; 0x206
				fp->fs->wflag = 1;
 8003abc:	2301      	movs	r3, #1
 8003abe:	f880 3204 	strb.w	r3, [r0, #516]	; 0x204
			}
		}
	}

	LEAVE_FF(fp->fs, res);
}
 8003ac2:	e8bd 4070 	ldmia.w	sp!, {r4, r5, r6, lr}
				res = sync_fs(fp->fs);
 8003ac6:	f7ff b95d 	b.w	8002d84 <sync_fs>
					LEAVE_FF(fp->fs, FR_DISK_ERR);
 8003aca:	2001      	movs	r0, #1
}
 8003acc:	bd70      	pop	{r4, r5, r6, pc}

08003ace <f_close>:
/*-----------------------------------------------------------------------*/

FRESULT f_close (
	FIL *fp		/* Pointer to the file object to be closed */
)
{
 8003ace:	b510      	push	{r4, lr}
 8003ad0:	4604      	mov	r4, r0
	FRESULT res;


#if !_FS_READONLY
	res = f_sync(fp);					/* Flush cached data */
 8003ad2:	f7ff ff9b 	bl	8003a0c <f_sync>
	if (res == FR_OK)
 8003ad6:	b950      	cbnz	r0, 8003aee <f_close+0x20>
#endif
	{
		res = validate(fp);				/* Lock volume */
 8003ad8:	4620      	mov	r0, r4
 8003ada:	f7fe ff73 	bl	80029c4 <validate>
		if (res == FR_OK) {
 8003ade:	b930      	cbnz	r0, 8003aee <f_close+0x20>
#if _FS_REENTRANT
			FATFS *fs = fp->fs;
#endif
#if _FS_LOCK
			res = dec_lock(fp->lockid);	/* Decrement file open counter */
 8003ae0:	f8d4 0228 	ldr.w	r0, [r4, #552]	; 0x228
 8003ae4:	f7fe ff22 	bl	800292c <dec_lock>
			if (res == FR_OK)
 8003ae8:	b908      	cbnz	r0, 8003aee <f_close+0x20>
#endif
				fp->fs = 0;				/* Invalidate file object */
 8003aea:	f8c4 0200 	str.w	r0, [r4, #512]	; 0x200
			unlock_fs(fs, FR_OK);		/* Unlock volume */
#endif
		}
	}
	return res;
}
 8003aee:	bd10      	pop	{r4, pc}

08003af0 <f_mkdir>:
/*-----------------------------------------------------------------------*/

FRESULT f_mkdir (
	const TCHAR* path		/* Pointer to the directory path */
)
{
 8003af0:	e92d 4ff0 	stmdb	sp!, {r4, r5, r6, r7, r8, r9, sl, fp, lr}
 8003af4:	f5ad 7d15 	sub.w	sp, sp, #596	; 0x254
 8003af8:	9007      	str	r0, [sp, #28]
	FRESULT res;
	DIR dj;
	BYTE *dir, n;
	DWORD dsc, dcl, pcl, tm = GET_FATTIME();
 8003afa:	f002 fb89 	bl	8006210 <get_fattime>
	DEFINE_NAMEBUF;


	/* Get logical drive number */
	res = find_volume(&dj.fs, &path, 1);
 8003afe:	2201      	movs	r2, #1
	DWORD dsc, dcl, pcl, tm = GET_FATTIME();
 8003b00:	4607      	mov	r7, r0
	res = find_volume(&dj.fs, &path, 1);
 8003b02:	a907      	add	r1, sp, #28
 8003b04:	a88c      	add	r0, sp, #560	; 0x230
 8003b06:	f7fe fffb 	bl	8002b00 <find_volume>
 8003b0a:	4604      	mov	r4, r0
 8003b0c:	4605      	mov	r5, r0
	if (res == FR_OK) {
 8003b0e:	2800      	cmp	r0, #0
 8003b10:	f040 80ba 	bne.w	8003c88 <f_mkdir+0x198>
		INIT_BUF(dj);
 8003b14:	ab09      	add	r3, sp, #36	; 0x24
		res = follow_path(&dj, path);			/* Follow the file path */
 8003b16:	9907      	ldr	r1, [sp, #28]
 8003b18:	a80c      	add	r0, sp, #48	; 0x30
		INIT_BUF(dj);
 8003b1a:	9392      	str	r3, [sp, #584]	; 0x248
		res = follow_path(&dj, path);			/* Follow the file path */
 8003b1c:	f7ff fb90 	bl	8003240 <follow_path>
		if (res == FR_OK) res = FR_EXIST;		/* Any object with same name is already existing */
 8003b20:	4604      	mov	r4, r0
 8003b22:	2800      	cmp	r0, #0
 8003b24:	f000 80b9 	beq.w	8003c9a <f_mkdir+0x1aa>
		if (_FS_RPATH && res == FR_NO_FILE && (dj.fn[NSFLAG] & NS_DOT))
			res = FR_INVALID_NAME;
		if (res == FR_NO_FILE) {				/* Can create a new directory */
 8003b28:	2804      	cmp	r0, #4
 8003b2a:	f040 80ad 	bne.w	8003c88 <f_mkdir+0x198>
			dcl = create_chain(dj.fs, 0);		/* Allocate a cluster for the new directory table */
 8003b2e:	4629      	mov	r1, r5
 8003b30:	988c      	ldr	r0, [sp, #560]	; 0x230
 8003b32:	f7ff faa0 	bl	8003076 <create_chain>
			res = FR_OK;
			if (dcl == 0) res = FR_DENIED;		/* No space to allocate a new cluster */
 8003b36:	4606      	mov	r6, r0
 8003b38:	2800      	cmp	r0, #0
 8003b3a:	f000 80a0 	beq.w	8003c7e <f_mkdir+0x18e>
			if (dcl == 1) res = FR_INT_ERR;
 8003b3e:	2e01      	cmp	r6, #1
 8003b40:	988c      	ldr	r0, [sp, #560]	; 0x230
 8003b42:	f000 80a6 	beq.w	8003c92 <f_mkdir+0x1a2>
			if (dcl == 0xFFFFFFFF) res = FR_DISK_ERR;
 8003b46:	1c73      	adds	r3, r6, #1
 8003b48:	f000 80a5 	beq.w	8003c96 <f_mkdir+0x1a6>
			if (res == FR_OK)					/* Flush FAT */
				res = sync_window(dj.fs);
 8003b4c:	f7fe ff89 	bl	8002a62 <sync_window>
			if (res == FR_OK) {					/* Initialize the new directory table */
 8003b50:	4604      	mov	r4, r0
 8003b52:	2800      	cmp	r0, #0
 8003b54:	f040 8094 	bne.w	8003c80 <f_mkdir+0x190>
				dsc = clust2sect(dj.fs, dcl);
 8003b58:	9d8c      	ldr	r5, [sp, #560]	; 0x230
 8003b5a:	4631      	mov	r1, r6
 8003b5c:	4628      	mov	r0, r5
 8003b5e:	f7ff f953 	bl	8002e08 <clust2sect>
				dir = dj.fs->win.d8;
				mem_set(dir, 0, SS(dj.fs));
 8003b62:	4621      	mov	r1, r4
 8003b64:	f44f 7200 	mov.w	r2, #512	; 0x200
				dsc = clust2sect(dj.fs, dcl);
 8003b68:	9005      	str	r0, [sp, #20]
				mem_set(dir, 0, SS(dj.fs));
 8003b6a:	4628      	mov	r0, r5
 8003b6c:	f7fe fe48 	bl	8002800 <mem_set>
				mem_set(dir + DIR_Name, ' ', 11);	/* Create "." entry */
 8003b70:	220b      	movs	r2, #11
 8003b72:	2120      	movs	r1, #32
 8003b74:	4628      	mov	r0, r5
 8003b76:	f7fe fe43 	bl	8002800 <mem_set>
				dir[DIR_Name] = '.';
				dir[DIR_Attr] = AM_DIR;
 8003b7a:	2210      	movs	r2, #16
				dir[DIR_Name] = '.';
 8003b7c:	242e      	movs	r4, #46	; 0x2e
				dir[DIR_Attr] = AM_DIR;
 8003b7e:	72ea      	strb	r2, [r5, #11]
				ST_DWORD(dir + DIR_WrtTime, tm);
				st_clust(dir, dcl);
				mem_cpy(dir + SZ_DIRE, dir, SZ_DIRE); 	/* Create ".." entry */
 8003b80:	2220      	movs	r2, #32
				ST_DWORD(dir + DIR_WrtTime, tm);
 8003b82:	b2fb      	uxtb	r3, r7
 8003b84:	9301      	str	r3, [sp, #4]
 8003b86:	75ab      	strb	r3, [r5, #22]
 8003b88:	f3c7 2307 	ubfx	r3, r7, #8, #8
 8003b8c:	9302      	str	r3, [sp, #8]
 8003b8e:	75eb      	strb	r3, [r5, #23]
 8003b90:	f3c7 4307 	ubfx	r3, r7, #16, #8
 8003b94:	9303      	str	r3, [sp, #12]
 8003b96:	762b      	strb	r3, [r5, #24]
	ST_WORD(dir + DIR_FstClusLO, cl);
 8003b98:	fa5f f886 	uxtb.w	r8, r6
				ST_DWORD(dir + DIR_WrtTime, tm);
 8003b9c:	0e3b      	lsrs	r3, r7, #24
	ST_WORD(dir + DIR_FstClusLO, cl);
 8003b9e:	f3c6 2907 	ubfx	r9, r6, #8, #8
	ST_WORD(dir + DIR_FstClusHI, cl >> 16);
 8003ba2:	f3c6 4a07 	ubfx	sl, r6, #16, #8
 8003ba6:	ea4f 6b16 	mov.w	fp, r6, lsr #24
				mem_cpy(dir + SZ_DIRE, dir, SZ_DIRE); 	/* Create ".." entry */
 8003baa:	18a8      	adds	r0, r5, r2
 8003bac:	4629      	mov	r1, r5
				ST_DWORD(dir + DIR_WrtTime, tm);
 8003bae:	766b      	strb	r3, [r5, #25]
				dir[DIR_Name] = '.';
 8003bb0:	702c      	strb	r4, [r5, #0]
	ST_WORD(dir + DIR_FstClusLO, cl);
 8003bb2:	f885 801a 	strb.w	r8, [r5, #26]
 8003bb6:	f885 901b 	strb.w	r9, [r5, #27]
	ST_WORD(dir + DIR_FstClusHI, cl >> 16);
 8003bba:	f885 a014 	strb.w	sl, [r5, #20]
 8003bbe:	f885 b015 	strb.w	fp, [r5, #21]
				ST_DWORD(dir + DIR_WrtTime, tm);
 8003bc2:	9304      	str	r3, [sp, #16]
				mem_cpy(dir + SZ_DIRE, dir, SZ_DIRE); 	/* Create ".." entry */
 8003bc4:	f7fe fe12 	bl	80027ec <mem_cpy>
				dir[SZ_DIRE + 1] = '.'; pcl = dj.sclust;
 8003bc8:	f885 4021 	strb.w	r4, [r5, #33]	; 0x21
				if (dj.fs->fs_type == FS_FAT32 && pcl == dj.fs->dirbase)
 8003bcc:	998c      	ldr	r1, [sp, #560]	; 0x230
				dir[SZ_DIRE + 1] = '.'; pcl = dj.sclust;
 8003bce:	9a8e      	ldr	r2, [sp, #568]	; 0x238
				if (dj.fs->fs_type == FS_FAT32 && pcl == dj.fs->dirbase)
 8003bd0:	f891 0200 	ldrb.w	r0, [r1, #512]	; 0x200
 8003bd4:	9b05      	ldr	r3, [sp, #20]
 8003bd6:	2803      	cmp	r0, #3
 8003bd8:	d104      	bne.n	8003be4 <f_mkdir+0xf4>
 8003bda:	f8d1 1224 	ldr.w	r1, [r1, #548]	; 0x224
					pcl = 0;
 8003bde:	4291      	cmp	r1, r2
 8003be0:	bf08      	it	eq
 8003be2:	2200      	moveq	r2, #0
	ST_WORD(dir + DIR_FstClusLO, cl);
 8003be4:	f885 203a 	strb.w	r2, [r5, #58]	; 0x3a
 8003be8:	f3c2 2107 	ubfx	r1, r2, #8, #8
	ST_WORD(dir + DIR_FstClusHI, cl >> 16);
 8003bec:	0c12      	lsrs	r2, r2, #16
 8003bee:	f885 2034 	strb.w	r2, [r5, #52]	; 0x34
 8003bf2:	0a12      	lsrs	r2, r2, #8
	ST_WORD(dir + DIR_FstClusLO, cl);
 8003bf4:	f885 103b 	strb.w	r1, [r5, #59]	; 0x3b
	ST_WORD(dir + DIR_FstClusHI, cl >> 16);
 8003bf8:	f885 2035 	strb.w	r2, [r5, #53]	; 0x35
				st_clust(dir + SZ_DIRE, pcl);
				for (n = dj.fs->csize; n; n--) {	/* Write dot entries and clear following sectors */
 8003bfc:	9a8c      	ldr	r2, [sp, #560]	; 0x230
 8003bfe:	af0c      	add	r7, sp, #48	; 0x30
 8003c00:	f892 2202 	ldrb.w	r2, [r2, #514]	; 0x202
 8003c04:	441a      	add	r2, r3
 8003c06:	9206      	str	r2, [sp, #24]
 8003c08:	9a06      	ldr	r2, [sp, #24]
 8003c0a:	4293      	cmp	r3, r2
 8003c0c:	d121      	bne.n	8003c52 <f_mkdir+0x162>
					res = sync_window(dj.fs);
					if (res != FR_OK) break;
					mem_set(dir, 0, SS(dj.fs));
				}
			}
			if (res == FR_OK) res = dir_register(&dj);	/* Register the object to the directoy */
 8003c0e:	4638      	mov	r0, r7
 8003c10:	f7ff fbea 	bl	80033e8 <dir_register>
			if (res != FR_OK) {
 8003c14:	4604      	mov	r4, r0
 8003c16:	bb98      	cbnz	r0, 8003c80 <f_mkdir+0x190>
				remove_chain(dj.fs, dcl);			/* Could not register, remove cluster chain */
			} else {
				dir = dj.dir;
				dir[DIR_Attr] = AM_DIR;				/* Attribute */
 8003c18:	2210      	movs	r2, #16
				dir = dj.dir;
 8003c1a:	f8d7 3214 	ldr.w	r3, [r7, #532]	; 0x214
				dir[DIR_Attr] = AM_DIR;				/* Attribute */
 8003c1e:	72da      	strb	r2, [r3, #11]
				ST_DWORD(dir + DIR_WrtTime, tm);	/* Created time */
 8003c20:	9a01      	ldr	r2, [sp, #4]
	ST_WORD(dir + DIR_FstClusLO, cl);
 8003c22:	f883 801a 	strb.w	r8, [r3, #26]
				ST_DWORD(dir + DIR_WrtTime, tm);	/* Created time */
 8003c26:	759a      	strb	r2, [r3, #22]
 8003c28:	9a02      	ldr	r2, [sp, #8]
	ST_WORD(dir + DIR_FstClusLO, cl);
 8003c2a:	f883 901b 	strb.w	r9, [r3, #27]
				ST_DWORD(dir + DIR_WrtTime, tm);	/* Created time */
 8003c2e:	75da      	strb	r2, [r3, #23]
 8003c30:	9a03      	ldr	r2, [sp, #12]
	ST_WORD(dir + DIR_FstClusHI, cl >> 16);
 8003c32:	f883 a014 	strb.w	sl, [r3, #20]
				ST_DWORD(dir + DIR_WrtTime, tm);	/* Created time */
 8003c36:	761a      	strb	r2, [r3, #24]
 8003c38:	9a04      	ldr	r2, [sp, #16]
	ST_WORD(dir + DIR_FstClusHI, cl >> 16);
 8003c3a:	f883 b015 	strb.w	fp, [r3, #21]
				ST_DWORD(dir + DIR_WrtTime, tm);	/* Created time */
 8003c3e:	765a      	strb	r2, [r3, #25]
				st_clust(dir, dcl);					/* Table start cluster */
				dj.fs->wflag = 1;
 8003c40:	2301      	movs	r3, #1
 8003c42:	f8d7 0200 	ldr.w	r0, [r7, #512]	; 0x200
 8003c46:	f880 3204 	strb.w	r3, [r0, #516]	; 0x204
				res = sync_fs(dj.fs);
 8003c4a:	f7ff f89b 	bl	8002d84 <sync_fs>
 8003c4e:	4604      	mov	r4, r0
 8003c50:	e01a      	b.n	8003c88 <f_mkdir+0x198>
					dj.fs->winsect = dsc++;
 8003c52:	f8d7 0200 	ldr.w	r0, [r7, #512]	; 0x200
 8003c56:	1c5a      	adds	r2, r3, #1
 8003c58:	f8c0 322c 	str.w	r3, [r0, #556]	; 0x22c
					dj.fs->wflag = 1;
 8003c5c:	f04f 0301 	mov.w	r3, #1
 8003c60:	f880 3204 	strb.w	r3, [r0, #516]	; 0x204
					dj.fs->winsect = dsc++;
 8003c64:	9205      	str	r2, [sp, #20]
	if (fs->wflag) {	/* Write back the sector if it is dirty */
 8003c66:	f7fe fed2 	bl	8002a0e <sync_window.part.0>
					if (res != FR_OK) break;
 8003c6a:	4604      	mov	r4, r0
 8003c6c:	b940      	cbnz	r0, 8003c80 <f_mkdir+0x190>
					mem_set(dir, 0, SS(dj.fs));
 8003c6e:	4601      	mov	r1, r0
 8003c70:	f44f 7200 	mov.w	r2, #512	; 0x200
 8003c74:	4628      	mov	r0, r5
 8003c76:	f7fe fdc3 	bl	8002800 <mem_set>
					dj.fs->winsect = dsc++;
 8003c7a:	9b05      	ldr	r3, [sp, #20]
 8003c7c:	e7c4      	b.n	8003c08 <f_mkdir+0x118>
			if (dcl == 0) res = FR_DENIED;		/* No space to allocate a new cluster */
 8003c7e:	2407      	movs	r4, #7
				remove_chain(dj.fs, dcl);			/* Could not register, remove cluster chain */
 8003c80:	4631      	mov	r1, r6
 8003c82:	988c      	ldr	r0, [sp, #560]	; 0x230
 8003c84:	f7ff fbe9 	bl	800345a <remove_chain>
		}
		FREE_BUF();
	}

	LEAVE_FF(dj.fs, res);
}
 8003c88:	4620      	mov	r0, r4
 8003c8a:	f50d 7d15 	add.w	sp, sp, #596	; 0x254
 8003c8e:	e8bd 8ff0 	ldmia.w	sp!, {r4, r5, r6, r7, r8, r9, sl, fp, pc}
			if (dcl == 1) res = FR_INT_ERR;
 8003c92:	2402      	movs	r4, #2
 8003c94:	e7f4      	b.n	8003c80 <f_mkdir+0x190>
			if (dcl == 0xFFFFFFFF) res = FR_DISK_ERR;
 8003c96:	2401      	movs	r4, #1
 8003c98:	e7f2      	b.n	8003c80 <f_mkdir+0x190>
		if (res == FR_OK) res = FR_EXIST;		/* Any object with same name is already existing */
 8003c9a:	2408      	movs	r4, #8
	LEAVE_FF(dj.fs, res);
 8003c9c:	e7f4      	b.n	8003c88 <f_mkdir+0x198>

08003c9e <f_gets>:
TCHAR* f_gets (
	TCHAR* buff,	/* Pointer to the string buffer to read */
	int len,		/* Size of string buffer (characters) */
	FIL* fp			/* Pointer to the file object */
)
{
 8003c9e:	e92d 41f3 	stmdb	sp!, {r0, r1, r4, r5, r6, r7, r8, lr}
 8003ca2:	4604      	mov	r4, r0
 8003ca4:	4690      	mov	r8, r2
	int n = 0;
	TCHAR c, *p = buff;
 8003ca6:	4606      	mov	r6, r0
	int n = 0;
 8003ca8:	2500      	movs	r5, #0
	BYTE s[2];
	UINT rc;


	while (n < len - 1) {	/* Read characters until buffer gets filled */
 8003caa:	1e4f      	subs	r7, r1, #1
 8003cac:	42bd      	cmp	r5, r7
 8003cae:	da12      	bge.n	8003cd6 <f_gets+0x38>
		}
		c = ff_convert(c, 1);	/* OEM -> Unicode */
		if (!c) c = '?';
#endif
#else						/* Read a character without conversion */
		f_read(fp, s, 1, &rc);
 8003cb0:	ab01      	add	r3, sp, #4
 8003cb2:	2201      	movs	r2, #1
 8003cb4:	4669      	mov	r1, sp
 8003cb6:	4640      	mov	r0, r8
 8003cb8:	f7ff fcf8 	bl	80036ac <f_read>
		if (rc != 1) break;
 8003cbc:	9b01      	ldr	r3, [sp, #4]
 8003cbe:	2b01      	cmp	r3, #1
 8003cc0:	d109      	bne.n	8003cd6 <f_gets+0x38>
		c = s[0];
 8003cc2:	f89d 3000 	ldrb.w	r3, [sp]
#endif
		if (_USE_STRFUNC == 2 && c == '\r') continue;	/* Strip '\r' */
 8003cc6:	2b0d      	cmp	r3, #13
 8003cc8:	d0f0      	beq.n	8003cac <f_gets+0xe>
		*p++ = c;
		n++;
		if (c == '\n') break;		/* Break on EOL */
 8003cca:	2b0a      	cmp	r3, #10
		*p++ = c;
 8003ccc:	f806 3b01 	strb.w	r3, [r6], #1
		n++;
 8003cd0:	f105 0501 	add.w	r5, r5, #1
		if (c == '\n') break;		/* Break on EOL */
 8003cd4:	d1ea      	bne.n	8003cac <f_gets+0xe>
	}
	*p = 0;
 8003cd6:	2300      	movs	r3, #0
	return n ? buff : 0;			/* When no data read (eof or error), return with error. */
 8003cd8:	429d      	cmp	r5, r3
}
 8003cda:	bf14      	ite	ne
 8003cdc:	4620      	movne	r0, r4
 8003cde:	4618      	moveq	r0, r3
	*p = 0;
 8003ce0:	7033      	strb	r3, [r6, #0]
}
 8003ce2:	b002      	add	sp, #8
 8003ce4:	e8bd 81f0 	ldmia.w	sp!, {r4, r5, r6, r7, r8, pc}

08003ce8 <FATFS_LinkDriverEx>:
  * @param  lun : only used for USB Key Disk to add multi-lun management
            else the paramter must be equal to 0
  * @retval Returns 0 in case of success, otherwise 1.
  */
uint8_t FATFS_LinkDriverEx(Diskio_drvTypeDef *drv, char *path, uint8_t lun)
{
 8003ce8:	b530      	push	{r4, r5, lr}
  uint8_t ret = 1;
  uint8_t DiskNum = 0;
  
  if(disk.nbr <= _VOLUMES)
 8003cea:	4b0f      	ldr	r3, [pc, #60]	; (8003d28 <FATFS_LinkDriverEx+0x40>)
{
 8003cec:	4605      	mov	r5, r0
  if(disk.nbr <= _VOLUMES)
 8003cee:	7a58      	ldrb	r0, [r3, #9]
 8003cf0:	2801      	cmp	r0, #1
 8003cf2:	d816      	bhi.n	8003d22 <FATFS_LinkDriverEx+0x3a>
  {
    disk.is_initialized[disk.nbr] = 0;
 8003cf4:	2000      	movs	r0, #0
 8003cf6:	7a5c      	ldrb	r4, [r3, #9]
 8003cf8:	b2e4      	uxtb	r4, r4
 8003cfa:	5518      	strb	r0, [r3, r4]
    disk.drv[disk.nbr] = drv;  
 8003cfc:	7a5c      	ldrb	r4, [r3, #9]
 8003cfe:	eb03 0484 	add.w	r4, r3, r4, lsl #2
 8003d02:	6065      	str	r5, [r4, #4]
    disk.lun[disk.nbr] = lun;  
 8003d04:	7a5c      	ldrb	r4, [r3, #9]
 8003d06:	441c      	add	r4, r3
 8003d08:	7222      	strb	r2, [r4, #8]
    DiskNum = disk.nbr++;
 8003d0a:	7a5a      	ldrb	r2, [r3, #9]
 8003d0c:	1c54      	adds	r4, r2, #1
 8003d0e:	b2e4      	uxtb	r4, r4
 8003d10:	725c      	strb	r4, [r3, #9]
    path[0] = DiskNum + '0';
    path[1] = ':';
 8003d12:	233a      	movs	r3, #58	; 0x3a
 8003d14:	704b      	strb	r3, [r1, #1]
    path[2] = '/';
 8003d16:	232f      	movs	r3, #47	; 0x2f
    path[0] = DiskNum + '0';
 8003d18:	3230      	adds	r2, #48	; 0x30
 8003d1a:	700a      	strb	r2, [r1, #0]
    path[2] = '/';
 8003d1c:	708b      	strb	r3, [r1, #2]
    path[3] = 0;
 8003d1e:	70c8      	strb	r0, [r1, #3]
    ret = 0;
  }
  
  return ret;
}
 8003d20:	bd30      	pop	{r4, r5, pc}
  uint8_t ret = 1;
 8003d22:	2001      	movs	r0, #1
 8003d24:	e7fc      	b.n	8003d20 <FATFS_LinkDriverEx+0x38>
 8003d26:	bf00      	nop
 8003d28:	200000e4 	.word	0x200000e4

08003d2c <FATFS_LinkDriver>:
  * @param  path: pointer to the logical drive path 
  * @retval Returns 0 in case of success, otherwise 1.
  */
uint8_t FATFS_LinkDriver(Diskio_drvTypeDef *drv, char *path)
{
  return FATFS_LinkDriverEx(drv, path, 0);
 8003d2c:	2200      	movs	r2, #0
 8003d2e:	f7ff bfdb 	b.w	8003ce8 <FATFS_LinkDriverEx>
	...

08003d34 <CAN_Buffer_Init>:
	can_msg_t Item[CAN_BUFFER_SIZE];
} CAN_Buffer, CAN_Log_Buffer;

void CAN_Buffer_Init(void)
{
	CAN_Buffer.Pointer_Read = 0;
 8003d34:	2300      	movs	r3, #0
 8003d36:	4a02      	ldr	r2, [pc, #8]	; (8003d40 <CAN_Buffer_Init+0xc>)
 8003d38:	6013      	str	r3, [r2, #0]
	CAN_Buffer.Pointer_Write = 0;

	CAN_Log_Buffer.Pointer_Read = 0;
 8003d3a:	4a02      	ldr	r2, [pc, #8]	; (8003d44 <CAN_Buffer_Init+0x10>)
 8003d3c:	6013      	str	r3, [r2, #0]
	CAN_Log_Buffer.Pointer_Write = 0;
}
 8003d3e:	4770      	bx	lr
 8003d40:	200001e0 	.word	0x200001e0
 8003d44:	20000d90 	.word	0x20000d90

08003d48 <Generate_Next_FileName>:
		return HAL_BUSY;
	}
}

void Generate_Next_FileName(uint8_t * name, uint8_t * path)
{
 8003d48:	b5f0      	push	{r4, r5, r6, r7, lr}
	uint32_t pie;
	uint8_t piece;
	uint32_t pow10 = 10000000;
	num_file++;

	name[0] = '/';
 8003d4a:	242f      	movs	r4, #47	; 0x2f
 8003d4c:	7004      	strb	r4, [r0, #0]
	name[1] = path[0];
 8003d4e:	780d      	ldrb	r5, [r1, #0]
	num_file++;
 8003d50:	4b29      	ldr	r3, [pc, #164]	; (8003df8 <Generate_Next_FileName+0xb0>)
	name[1] = path[0];
 8003d52:	7045      	strb	r5, [r0, #1]
	name[2] = path[1];
 8003d54:	784d      	ldrb	r5, [r1, #1]
	num_file++;
 8003d56:	681a      	ldr	r2, [r3, #0]
	name[2] = path[1];
 8003d58:	7085      	strb	r5, [r0, #2]
	name[3] = path[2];
 8003d5a:	788d      	ldrb	r5, [r1, #2]
	num_file++;
 8003d5c:	3201      	adds	r2, #1
	name[3] = path[2];
 8003d5e:	70c5      	strb	r5, [r0, #3]
	name[4] = path[3];
 8003d60:	78cd      	ldrb	r5, [r1, #3]
	num_file++;
 8003d62:	601a      	str	r2, [r3, #0]
	name[4] = path[3];
 8003d64:	7105      	strb	r5, [r0, #4]
	name[5] = path[4];
 8003d66:	790d      	ldrb	r5, [r1, #4]
	for(int i = 0; i < 7; i++)
	{
		piece = pie / pow10;
		pie -= piece * pow10;
		name[i + LOG_NAME_SHIFT] = piece + '0';
		pow10 /= 10;
 8003d68:	260a      	movs	r6, #10
	name[5] = path[4];
 8003d6a:	7145      	strb	r5, [r0, #5]
	name[6] = path[5];
 8003d6c:	794d      	ldrb	r5, [r1, #5]
 8003d6e:	7185      	strb	r5, [r0, #6]
	name[7] = path[6];
 8003d70:	798d      	ldrb	r5, [r1, #6]
 8003d72:	71c5      	strb	r5, [r0, #7]
	name[8] = path[7];
 8003d74:	79c9      	ldrb	r1, [r1, #7]
 8003d76:	f100 0510 	add.w	r5, r0, #16
 8003d7a:	7201      	strb	r1, [r0, #8]
	if(num_file > 99999999) num_file = 0;
 8003d7c:	491f      	ldr	r1, [pc, #124]	; (8003dfc <Generate_Next_FileName+0xb4>)
	name[9] = '/';
 8003d7e:	7244      	strb	r4, [r0, #9]
	if(num_file > 99999999) num_file = 0;
 8003d80:	428a      	cmp	r2, r1
 8003d82:	bf84      	itt	hi
 8003d84:	2200      	movhi	r2, #0
 8003d86:	601a      	strhi	r2, [r3, #0]
	pie = num_file;
 8003d88:	681b      	ldr	r3, [r3, #0]
	uint32_t pow10 = 10000000;
 8003d8a:	4a1d      	ldr	r2, [pc, #116]	; (8003e00 <Generate_Next_FileName+0xb8>)
 8003d8c:	f100 0409 	add.w	r4, r0, #9
		piece = pie / pow10;
 8003d90:	fbb3 f1f2 	udiv	r1, r3, r2
		pie -= piece * pow10;
 8003d94:	b2cf      	uxtb	r7, r1
		name[i + LOG_NAME_SHIFT] = piece + '0';
 8003d96:	3130      	adds	r1, #48	; 0x30
 8003d98:	f804 1f01 	strb.w	r1, [r4, #1]!
	for(int i = 0; i < 7; i++)
 8003d9c:	42a5      	cmp	r5, r4
		pie -= piece * pow10;
 8003d9e:	fb02 3317 	mls	r3, r2, r7, r3
		pow10 /= 10;
 8003da2:	fbb2 f2f6 	udiv	r2, r2, r6
	for(int i = 0; i < 7; i++)
 8003da6:	d1f3      	bne.n	8003d90 <Generate_Next_FileName+0x48>
	}
	name[7 + LOG_NAME_SHIFT] = pie +'0';
 8003da8:	3330      	adds	r3, #48	; 0x30
 8003daa:	7443      	strb	r3, [r0, #17]
	name[8 + LOG_NAME_SHIFT] = '.';
 8003dac:	232e      	movs	r3, #46	; 0x2e
 8003dae:	7483      	strb	r3, [r0, #18]
	if(conf.fileOutputType == BINARYFILE)
 8003db0:	4b14      	ldr	r3, [pc, #80]	; (8003e04 <Generate_Next_FileName+0xbc>)
 8003db2:	f893 3031 	ldrb.w	r3, [r3, #49]	; 0x31
 8003db6:	2b01      	cmp	r3, #1
 8003db8:	d108      	bne.n	8003dcc <Generate_Next_FileName+0x84>
	{
		name[9 + LOG_NAME_SHIFT] = 'L';
 8003dba:	234c      	movs	r3, #76	; 0x4c
 8003dbc:	74c3      	strb	r3, [r0, #19]
		name[10 + LOG_NAME_SHIFT] = 'O';
 8003dbe:	234f      	movs	r3, #79	; 0x4f
 8003dc0:	7503      	strb	r3, [r0, #20]
		name[11 + LOG_NAME_SHIFT] = 'G';
 8003dc2:	2347      	movs	r3, #71	; 0x47
	}
	else
	{
		name[9 + LOG_NAME_SHIFT] = 'T';
		name[10 + LOG_NAME_SHIFT] = 'X';
		name[11 + LOG_NAME_SHIFT] = 'T';
 8003dc4:	7543      	strb	r3, [r0, #21]
	}
	name[12 + LOG_NAME_SHIFT] = 0;
 8003dc6:	2300      	movs	r3, #0
 8003dc8:	7583      	strb	r3, [r0, #22]
}
 8003dca:	bdf0      	pop	{r4, r5, r6, r7, pc}
	else if(conf.fileOutputType == GVRET_FILE)
 8003dcc:	2b02      	cmp	r3, #2
 8003dce:	d105      	bne.n	8003ddc <Generate_Next_FileName+0x94>
		name[9 + LOG_NAME_SHIFT] = 'C';
 8003dd0:	2343      	movs	r3, #67	; 0x43
 8003dd2:	74c3      	strb	r3, [r0, #19]
		name[10 + LOG_NAME_SHIFT] = 'S';
 8003dd4:	2353      	movs	r3, #83	; 0x53
 8003dd6:	7503      	strb	r3, [r0, #20]
		name[11 + LOG_NAME_SHIFT] = 'V';
 8003dd8:	2356      	movs	r3, #86	; 0x56
 8003dda:	e7f3      	b.n	8003dc4 <Generate_Next_FileName+0x7c>
	else if(conf.fileOutputType == CRTD_FILE)
 8003ddc:	2b03      	cmp	r3, #3
 8003dde:	d105      	bne.n	8003dec <Generate_Next_FileName+0xa4>
		name[9 + LOG_NAME_SHIFT] = 'C';
 8003de0:	2343      	movs	r3, #67	; 0x43
 8003de2:	74c3      	strb	r3, [r0, #19]
		name[10 + LOG_NAME_SHIFT] = 'R';
 8003de4:	2352      	movs	r3, #82	; 0x52
 8003de6:	7503      	strb	r3, [r0, #20]
		name[11 + LOG_NAME_SHIFT] = 'T';
 8003de8:	2354      	movs	r3, #84	; 0x54
 8003dea:	e7eb      	b.n	8003dc4 <Generate_Next_FileName+0x7c>
		name[9 + LOG_NAME_SHIFT] = 'T';
 8003dec:	2354      	movs	r3, #84	; 0x54
		name[10 + LOG_NAME_SHIFT] = 'X';
 8003dee:	2258      	movs	r2, #88	; 0x58
		name[9 + LOG_NAME_SHIFT] = 'T';
 8003df0:	74c3      	strb	r3, [r0, #19]
		name[10 + LOG_NAME_SHIFT] = 'X';
 8003df2:	7502      	strb	r2, [r0, #20]
 8003df4:	e7e6      	b.n	8003dc4 <Generate_Next_FileName+0x7c>
 8003df6:	bf00      	nop
 8003df8:	200000f8 	.word	0x200000f8
 8003dfc:	05f5e0ff 	.word	0x05f5e0ff
 8003e00:	00989680 	.word	0x00989680
 8003e04:	20001f48 	.word	0x20001f48

08003e08 <Generate_Next_Path>:
{
	static uint32_t num_path = 0;
	uint32_t pie;
	uint8_t piece;
	uint32_t pow10 = 10000;
	num_path++;
 8003e08:	4b0f      	ldr	r3, [pc, #60]	; (8003e48 <Generate_Next_Path+0x40>)
	if(num_path > 99999) num_path = 0;
 8003e0a:	4910      	ldr	r1, [pc, #64]	; (8003e4c <Generate_Next_Path+0x44>)
	num_path++;
 8003e0c:	681a      	ldr	r2, [r3, #0]
{
 8003e0e:	b5f0      	push	{r4, r5, r6, r7, lr}
	num_path++;
 8003e10:	3201      	adds	r2, #1
	if(num_path > 99999) num_path = 0;
 8003e12:	428a      	cmp	r2, r1
 8003e14:	bf88      	it	hi
 8003e16:	2200      	movhi	r2, #0
	for(int i = 0; i < 4; i++)
	{
		piece = pie / pow10;
		pie -= piece * pow10;
		name[i + LOG_PATH_SHIFT] = piece + '0';
		pow10 /= 10;
 8003e18:	260a      	movs	r6, #10
	if(num_path > 99999) num_path = 0;
 8003e1a:	601a      	str	r2, [r3, #0]
	uint32_t pow10 = 10000;
 8003e1c:	f242 7210 	movw	r2, #10000	; 0x2710
	pie = num_path;
 8003e20:	681b      	ldr	r3, [r3, #0]
	for(int i = 0; i < 4; i++)
 8003e22:	1c84      	adds	r4, r0, #2
 8003e24:	1d85      	adds	r5, r0, #6
		piece = pie / pow10;
 8003e26:	fbb3 f1f2 	udiv	r1, r3, r2
		pie -= piece * pow10;
 8003e2a:	b2cf      	uxtb	r7, r1
		name[i + LOG_PATH_SHIFT] = piece + '0';
 8003e2c:	3130      	adds	r1, #48	; 0x30
 8003e2e:	f804 1f01 	strb.w	r1, [r4, #1]!
	for(int i = 0; i < 4; i++)
 8003e32:	42a5      	cmp	r5, r4
		pie -= piece * pow10;
 8003e34:	fb02 3317 	mls	r3, r2, r7, r3
		pow10 /= 10;
 8003e38:	fbb2 f2f6 	udiv	r2, r2, r6
	for(int i = 0; i < 4; i++)
 8003e3c:	d1f3      	bne.n	8003e26 <Generate_Next_Path+0x1e>
	}
	name[4 + LOG_PATH_SHIFT] = pie +'0';
 8003e3e:	3330      	adds	r3, #48	; 0x30
 8003e40:	71c3      	strb	r3, [r0, #7]
	name[5 + LOG_PATH_SHIFT] = 0;
 8003e42:	2300      	movs	r3, #0
 8003e44:	7203      	strb	r3, [r0, #8]
}
 8003e46:	bdf0      	pop	{r4, r5, r6, r7, pc}
 8003e48:	200000fc 	.word	0x200000fc
 8003e4c:	0001869f 	.word	0x0001869f

08003e50 <CAN_Buffer_Write_Data>:
{
	CAN_Buffer.Pointer_Read = CAN_Buffer.Pointer_Write;
}

HAL_StatusTypeDef CAN_Buffer_Write_Data(can_msg_t msg)
{
 8003e50:	b084      	sub	sp, #16
 8003e52:	b5f0      	push	{r4, r5, r6, r7, lr}
	uint16_t capacity;
	HAL_StatusTypeDef res;


    if(CAN_Buffer.Pointer_Write >= CAN_Buffer.Pointer_Read)
 8003e54:	4f14      	ldr	r7, [pc, #80]	; (8003ea8 <CAN_Buffer_Write_Data+0x58>)
{
 8003e56:	ac05      	add	r4, sp, #20
    if(CAN_Buffer.Pointer_Write >= CAN_Buffer.Pointer_Read)
 8003e58:	887e      	ldrh	r6, [r7, #2]
{
 8003e5a:	e884 000f 	stmia.w	r4, {r0, r1, r2, r3}
    if(CAN_Buffer.Pointer_Write >= CAN_Buffer.Pointer_Read)
 8003e5e:	883b      	ldrh	r3, [r7, #0]
 8003e60:	429e      	cmp	r6, r3
    {
        capacity = CAN_BUFFER_SIZE - (CAN_Buffer.Pointer_Write - CAN_Buffer.Pointer_Read);
 8003e62:	bf28      	it	cs
 8003e64:	333c      	addcs	r3, #60	; 0x3c
    }
    else
    {
        capacity = CAN_Buffer.Pointer_Read - CAN_Buffer.Pointer_Write;
 8003e66:	1b9b      	subs	r3, r3, r6
 8003e68:	b29b      	uxth	r3, r3
    }

	if(capacity > 1)
 8003e6a:	2b01      	cmp	r3, #1
 8003e6c:	d919      	bls.n	8003ea2 <CAN_Buffer_Write_Data+0x52>
	{
		CAN_Buffer.Item[CAN_Buffer.Pointer_Write] = msg;
 8003e6e:	2430      	movs	r4, #48	; 0x30
 8003e70:	fb04 7406 	mla	r4, r4, r6, r7
 8003e74:	ad05      	add	r5, sp, #20
 8003e76:	3408      	adds	r4, #8
 8003e78:	cd0f      	ldmia	r5!, {r0, r1, r2, r3}
 8003e7a:	c40f      	stmia	r4!, {r0, r1, r2, r3}
 8003e7c:	cd0f      	ldmia	r5!, {r0, r1, r2, r3}
 8003e7e:	c40f      	stmia	r4!, {r0, r1, r2, r3}
 8003e80:	e895 000f 	ldmia.w	r5, {r0, r1, r2, r3}
		CAN_Buffer.Pointer_Write = (CAN_Buffer.Pointer_Write < (CAN_BUFFER_SIZE-1)) ? (CAN_Buffer.Pointer_Write + 1) : 0;
 8003e84:	2e3a      	cmp	r6, #58	; 0x3a
 8003e86:	bf88      	it	hi
 8003e88:	2600      	movhi	r6, #0
		CAN_Buffer.Item[CAN_Buffer.Pointer_Write] = msg;
 8003e8a:	e884 000f 	stmia.w	r4, {r0, r1, r2, r3}
		res = HAL_OK;
 8003e8e:	f04f 0000 	mov.w	r0, #0
		CAN_Buffer.Pointer_Write = (CAN_Buffer.Pointer_Write < (CAN_BUFFER_SIZE-1)) ? (CAN_Buffer.Pointer_Write + 1) : 0;
 8003e92:	bf9c      	itt	ls
 8003e94:	3601      	addls	r6, #1
 8003e96:	b2b6      	uxthls	r6, r6
 8003e98:	807e      	strh	r6, [r7, #2]
	else
	{
		res = HAL_BUSY;
	}
	return res;
}
 8003e9a:	e8bd 40f0 	ldmia.w	sp!, {r4, r5, r6, r7, lr}
 8003e9e:	b004      	add	sp, #16
 8003ea0:	4770      	bx	lr
		res = HAL_BUSY;
 8003ea2:	2002      	movs	r0, #2
 8003ea4:	e7f9      	b.n	8003e9a <CAN_Buffer_Write_Data+0x4a>
 8003ea6:	bf00      	nop
 8003ea8:	200001e0 	.word	0x200001e0

08003eac <CAN_Log_Buffer_Write_Data>:

HAL_StatusTypeDef CAN_Log_Buffer_Write_Data(can_msg_t msg)
{
 8003eac:	b084      	sub	sp, #16
 8003eae:	b5f0      	push	{r4, r5, r6, r7, lr}
	uint16_t capacity;
	HAL_StatusTypeDef res;


    if(CAN_Log_Buffer.Pointer_Write >= CAN_Log_Buffer.Pointer_Read)
 8003eb0:	4f14      	ldr	r7, [pc, #80]	; (8003f04 <CAN_Log_Buffer_Write_Data+0x58>)
{
 8003eb2:	ac05      	add	r4, sp, #20
    if(CAN_Log_Buffer.Pointer_Write >= CAN_Log_Buffer.Pointer_Read)
 8003eb4:	887e      	ldrh	r6, [r7, #2]
{
 8003eb6:	e884 000f 	stmia.w	r4, {r0, r1, r2, r3}
    if(CAN_Log_Buffer.Pointer_Write >= CAN_Log_Buffer.Pointer_Read)
 8003eba:	883b      	ldrh	r3, [r7, #0]
 8003ebc:	429e      	cmp	r6, r3
    {
        capacity = CAN_BUFFER_SIZE - (CAN_Log_Buffer.Pointer_Write - CAN_Log_Buffer.Pointer_Read);
 8003ebe:	bf28      	it	cs
 8003ec0:	333c      	addcs	r3, #60	; 0x3c
    }
    else
    {
        capacity = CAN_Log_Buffer.Pointer_Read - CAN_Log_Buffer.Pointer_Write;
 8003ec2:	1b9b      	subs	r3, r3, r6
 8003ec4:	b29b      	uxth	r3, r3
    }

	if(capacity > 1)
 8003ec6:	2b01      	cmp	r3, #1
 8003ec8:	d919      	bls.n	8003efe <CAN_Log_Buffer_Write_Data+0x52>
	{
		CAN_Log_Buffer.Item[CAN_Log_Buffer.Pointer_Write] = msg;
 8003eca:	2430      	movs	r4, #48	; 0x30
 8003ecc:	fb04 7406 	mla	r4, r4, r6, r7
 8003ed0:	ad05      	add	r5, sp, #20
 8003ed2:	3408      	adds	r4, #8
 8003ed4:	cd0f      	ldmia	r5!, {r0, r1, r2, r3}
 8003ed6:	c40f      	stmia	r4!, {r0, r1, r2, r3}
 8003ed8:	cd0f      	ldmia	r5!, {r0, r1, r2, r3}
 8003eda:	c40f      	stmia	r4!, {r0, r1, r2, r3}
 8003edc:	e895 000f 	ldmia.w	r5, {r0, r1, r2, r3}
		CAN_Log_Buffer.Pointer_Write = (CAN_Log_Buffer.Pointer_Write < (CAN_BUFFER_SIZE-1)) ? (CAN_Log_Buffer.Pointer_Write + 1) : 0;
 8003ee0:	2e3a      	cmp	r6, #58	; 0x3a
 8003ee2:	bf88      	it	hi
 8003ee4:	2600      	movhi	r6, #0
		CAN_Log_Buffer.Item[CAN_Log_Buffer.Pointer_Write] = msg;
 8003ee6:	e884 000f 	stmia.w	r4, {r0, r1, r2, r3}
		res = HAL_OK;
 8003eea:	f04f 0000 	mov.w	r0, #0
		CAN_Log_Buffer.Pointer_Write = (CAN_Log_Buffer.Pointer_Write < (CAN_BUFFER_SIZE-1)) ? (CAN_Log_Buffer.Pointer_Write + 1) : 0;
 8003eee:	bf9c      	itt	ls
 8003ef0:	3601      	addls	r6, #1
 8003ef2:	b2b6      	uxthls	r6, r6
 8003ef4:	807e      	strh	r6, [r7, #2]
	else
	{
		res = HAL_BUSY;
	}
	return res;
}
 8003ef6:	e8bd 40f0 	ldmia.w	sp!, {r4, r5, r6, r7, lr}
 8003efa:	b004      	add	sp, #16
 8003efc:	4770      	bx	lr
		res = HAL_BUSY;
 8003efe:	2002      	movs	r0, #2
 8003f00:	e7f9      	b.n	8003ef6 <CAN_Log_Buffer_Write_Data+0x4a>
 8003f02:	bf00      	nop
 8003f04:	20000d90 	.word	0x20000d90

08003f08 <HexTo4bits>:

uint8_t HexTo4bits (uint8_t H)
{
	if (H >= 'a')
 8003f08:	2860      	cmp	r0, #96	; 0x60
 8003f0a:	d904      	bls.n	8003f16 <HexTo4bits+0xe>
	    H -= 0x27;		// convert chars a-f
 8003f0c:	3827      	subs	r0, #39	; 0x27
	else if (H >= 'A')
	    H -= 0x07;		// convert chars A-F
 8003f0e:	b2c0      	uxtb	r0, r0
	H -= '0';		// convert chars 0-9
 8003f10:	3830      	subs	r0, #48	; 0x30
	return H;
}
 8003f12:	b2c0      	uxtb	r0, r0
 8003f14:	4770      	bx	lr
	else if (H >= 'A')
 8003f16:	2840      	cmp	r0, #64	; 0x40
 8003f18:	d9fa      	bls.n	8003f10 <HexTo4bits+0x8>
	    H -= 0x07;		// convert chars A-F
 8003f1a:	3807      	subs	r0, #7
 8003f1c:	e7f7      	b.n	8003f0e <HexTo4bits+0x6>

08003f1e <HexToShort>:

uint8_t HexToShort (uint8_t H, uint8_t L)
{
	if (H >= 'a')
 8003f1e:	2860      	cmp	r0, #96	; 0x60
 8003f20:	d90c      	bls.n	8003f3c <HexToShort+0x1e>
	    H -= 0x27;		// convert chars a-f
 8003f22:	3827      	subs	r0, #39	; 0x27
	else if (H >= 'A')
	    H -= 0x07;		// convert chars A-F
 8003f24:	b2c0      	uxtb	r0, r0
	H -= '0';		// convert chars 0-9
 8003f26:	3830      	subs	r0, #48	; 0x30

	if (L > 0x60)
 8003f28:	2960      	cmp	r1, #96	; 0x60
	H -= '0';		// convert chars 0-9
 8003f2a:	b2c0      	uxtb	r0, r0
	if (L > 0x60)
 8003f2c:	d90a      	bls.n	8003f44 <HexToShort+0x26>
	    L -= 0x27;		// convert chars a-f
 8003f2e:	3927      	subs	r1, #39	; 0x27
	else if (L > 0x40)
	    L -= 0x07;		// convert chars A-F
 8003f30:	b2c9      	uxtb	r1, r1
	L -= 0x30;		// convert chars 0-9
 8003f32:	3930      	subs	r1, #48	; 0x30
	return H<<4 | L;
 8003f34:	ea41 1000 	orr.w	r0, r1, r0, lsl #4
}
 8003f38:	b2c0      	uxtb	r0, r0
 8003f3a:	4770      	bx	lr
	else if (H >= 'A')
 8003f3c:	2840      	cmp	r0, #64	; 0x40
 8003f3e:	d9f2      	bls.n	8003f26 <HexToShort+0x8>
	    H -= 0x07;		// convert chars A-F
 8003f40:	3807      	subs	r0, #7
 8003f42:	e7ef      	b.n	8003f24 <HexToShort+0x6>
	else if (L > 0x40)
 8003f44:	2940      	cmp	r1, #64	; 0x40
 8003f46:	d9f4      	bls.n	8003f32 <HexToShort+0x14>
	    L -= 0x07;		// convert chars A-F
 8003f48:	3907      	subs	r1, #7
 8003f4a:	e7f1      	b.n	8003f30 <HexToShort+0x12>

08003f4c <ShortToHex>:
}

void ShortToHex (uint8_t in, uint8_t * out)
{
	uint8_t temp;
	temp = (in >> 4) & 0x0F;
 8003f4c:	0903      	lsrs	r3, r0, #4
	out[0] = (temp < 10) ? temp + '0' : temp + ('A' - 10);
 8003f4e:	289f      	cmp	r0, #159	; 0x9f
	temp = in & 0x0F;
 8003f50:	f000 000f 	and.w	r0, r0, #15
	out[0] = (temp < 10) ? temp + '0' : temp + ('A' - 10);
 8003f54:	bf94      	ite	ls
 8003f56:	3330      	addls	r3, #48	; 0x30
 8003f58:	3337      	addhi	r3, #55	; 0x37
	out[1] = (temp < 10) ? temp + '0' : temp + ('A' - 10);
 8003f5a:	2809      	cmp	r0, #9
 8003f5c:	bf94      	ite	ls
 8003f5e:	3030      	addls	r0, #48	; 0x30
 8003f60:	3037      	addhi	r0, #55	; 0x37
	out[0] = (temp < 10) ? temp + '0' : temp + ('A' - 10);
 8003f62:	700b      	strb	r3, [r1, #0]
	out[1] = (temp < 10) ? temp + '0' : temp + ('A' - 10);
 8003f64:	7048      	strb	r0, [r1, #1]
}
 8003f66:	4770      	bx	lr

08003f68 <BuildFrameToUSB>:

uint16_t BuildFrameToUSB (can_msg_t frame, int whichBus, uint8_t * buf)
{
 8003f68:	b084      	sub	sp, #16
 8003f6a:	e92d 47f0 	stmdb	sp!, {r4, r5, r6, r7, r8, r9, sl, lr}
 8003f6e:	ac08      	add	r4, sp, #32
 8003f70:	e884 000f 	stmia.w	r4, {r0, r1, r2, r3}
	uint32_t pointer = 0;
    uint8_t temp;

    if (conf.state == LAWICEL_CONNECT)
 8003f74:	4957      	ldr	r1, [pc, #348]	; (80040d4 <BuildFrameToUSB+0x16c>)
 8003f76:	4604      	mov	r4, r0
 8003f78:	e9dd 3509 	ldrd	r3, r5, [sp, #36]	; 0x24
 8003f7c:	7808      	ldrb	r0, [r1, #0]
 8003f7e:	460f      	mov	r7, r1
 8003f80:	2801      	cmp	r0, #1
{
 8003f82:	9a15      	ldr	r2, [sp, #84]	; 0x54
 8003f84:	f8dd c02c 	ldr.w	ip, [sp, #44]	; 0x2c
 8003f88:	9e0d      	ldr	r6, [sp, #52]	; 0x34
    if (conf.state == LAWICEL_CONNECT)
 8003f8a:	d16b      	bne.n	8004064 <BuildFrameToUSB+0xfc>
 8003f8c:	f8dd 8030 	ldr.w	r8, [sp, #48]	; 0x30
    {
    	if(frame.header.IDE == CAN_ID_STD)//(frame.format == STANDARD)
 8003f90:	f1bc 0f00 	cmp.w	ip, #0
 8003f94:	d144      	bne.n	8004020 <BuildFrameToUSB+0xb8>
    	{
    		if(frame.header.RTR == CAN_RTR_DATA)//(frame.type == DATA)
    		{
    			buf[pointer++] = 't';
 8003f96:	f1b8 0f00 	cmp.w	r8, #0
 8003f9a:	bf14      	ite	ne
 8003f9c:	2172      	movne	r1, #114	; 0x72
 8003f9e:	2174      	moveq	r1, #116	; 0x74
    		}
    		else
    		{
    			buf[pointer++] = 'r';
    		}
    		buf[pointer++] = ((frame.header.StdId >> 8) < 10) ? (frame.header.StdId >> 8) + '0' : (frame.header.StdId >> 8) + ('A' - 10);
 8003fa0:	f5b3 6f20 	cmp.w	r3, #2560	; 0xa00
 8003fa4:	7011      	strb	r1, [r2, #0]
 8003fa6:	f3c3 2107 	ubfx	r1, r3, #8, #8
 8003faa:	bf34      	ite	cc
 8003fac:	3130      	addcc	r1, #48	; 0x30
 8003fae:	3137      	addcs	r1, #55	; 0x37
 8003fb0:	b2c9      	uxtb	r1, r1
 8003fb2:	7051      	strb	r1, [r2, #1]
    		ShortToHex(frame.header.StdId & 0xFF, &buf[pointer]);
 8003fb4:	b2d8      	uxtb	r0, r3
 8003fb6:	1c91      	adds	r1, r2, #2
 8003fb8:	f7ff ffc8 	bl	8003f4c <ShortToHex>
    		pointer +=2;
 8003fbc:	2104      	movs	r1, #4
    		pointer +=2;
    		ShortToHex((frame.header.ExtId >> 0) & 0xFF, &buf[pointer]);
    		pointer +=2;
    	}

    	buf[pointer++] = (frame.header.DLC  < 10) ? frame.header.DLC + '0' : frame.header.DLC + ('A' - 10);
 8003fbe:	b2f3      	uxtb	r3, r6
 8003fc0:	2e09      	cmp	r6, #9
 8003fc2:	bf94      	ite	ls
 8003fc4:	3330      	addls	r3, #48	; 0x30
 8003fc6:	3337      	addhi	r3, #55	; 0x37
 8003fc8:	b2db      	uxtb	r3, r3
 8003fca:	1c4d      	adds	r5, r1, #1
 8003fcc:	5453      	strb	r3, [r2, r1]

    	if(frame.header.RTR == CAN_RTR_DATA)//(frame.type == DATA)
 8003fce:	f1b8 0f00 	cmp.w	r8, #0
 8003fd2:	d10a      	bne.n	8003fea <BuildFrameToUSB+0x82>
 8003fd4:	f10d 0a40 	add.w	sl, sp, #64	; 0x40
 8003fd8:	eb02 0905 	add.w	r9, r2, r5
    	{
    		for(int i = 0; i < frame.header.DLC; i++)
 8003fdc:	4546      	cmp	r6, r8
 8003fde:	4649      	mov	r1, r9
 8003fe0:	f109 0902 	add.w	r9, r9, #2
 8003fe4:	d137      	bne.n	8004056 <BuildFrameToUSB+0xee>
 8003fe6:	eb05 0546 	add.w	r5, r5, r6, lsl #1
    			ShortToHex(frame.data_byte[i], &buf[pointer]);
    			pointer +=2;
    		}
    	}

    	if(conf.timestamp_en)
 8003fea:	787b      	ldrb	r3, [r7, #1]
 8003fec:	b183      	cbz	r3, 8004010 <BuildFrameToUSB+0xa8>
    	{
    		uint16_t timestamp = frame.timestamp % 60000u;
 8003fee:	f64e 2360 	movw	r3, #60000	; 0xea60
 8003ff2:	fbb4 f0f3 	udiv	r0, r4, r3
 8003ff6:	fb03 4410 	mls	r4, r3, r0, r4
    		ShortToHex(timestamp >> 8 , &buf[pointer]);
 8003ffa:	1951      	adds	r1, r2, r5
 8003ffc:	f3c4 2007 	ubfx	r0, r4, #8, #8
 8004000:	f7ff ffa4 	bl	8003f4c <ShortToHex>
    		pointer +=2;
 8004004:	1ca9      	adds	r1, r5, #2
    		ShortToHex(timestamp & 0xFF , &buf[pointer]);
 8004006:	4411      	add	r1, r2
 8004008:	b2e0      	uxtb	r0, r4
 800400a:	f7ff ff9f 	bl	8003f4c <ShortToHex>
    		pointer +=2;
 800400e:	3504      	adds	r5, #4
    	}

    	buf[pointer++] = CR;
 8004010:	230d      	movs	r3, #13
 8004012:	1c68      	adds	r0, r5, #1
 8004014:	5553      	strb	r3, [r2, r5]
            }
            SerialUSB.println();*/
        }
    }
    return pointer;
}
 8004016:	b280      	uxth	r0, r0
 8004018:	e8bd 47f0 	ldmia.w	sp!, {r4, r5, r6, r7, r8, r9, sl, lr}
 800401c:	b004      	add	sp, #16
 800401e:	4770      	bx	lr
    			buf[pointer++] = 'T';
 8004020:	f1b8 0f00 	cmp.w	r8, #0
 8004024:	4611      	mov	r1, r2
 8004026:	bf14      	ite	ne
 8004028:	2352      	movne	r3, #82	; 0x52
 800402a:	2354      	moveq	r3, #84	; 0x54
    		ShortToHex((frame.header.ExtId >> 24) & 0xFF, &buf[pointer]);
 800402c:	0e28      	lsrs	r0, r5, #24
 800402e:	f801 3b01 	strb.w	r3, [r1], #1
 8004032:	f7ff ff8b 	bl	8003f4c <ShortToHex>
    		ShortToHex((frame.header.ExtId >> 16) & 0xFF, &buf[pointer]);
 8004036:	f3c5 4007 	ubfx	r0, r5, #16, #8
 800403a:	1cd1      	adds	r1, r2, #3
 800403c:	f7ff ff86 	bl	8003f4c <ShortToHex>
    		ShortToHex((frame.header.ExtId >> 8) & 0xFF, &buf[pointer]);
 8004040:	f3c5 2007 	ubfx	r0, r5, #8, #8
 8004044:	1d51      	adds	r1, r2, #5
 8004046:	f7ff ff81 	bl	8003f4c <ShortToHex>
    		ShortToHex((frame.header.ExtId >> 0) & 0xFF, &buf[pointer]);
 800404a:	b2e8      	uxtb	r0, r5
 800404c:	1dd1      	adds	r1, r2, #7
 800404e:	f7ff ff7d 	bl	8003f4c <ShortToHex>
    		pointer +=2;
 8004052:	2109      	movs	r1, #9
 8004054:	e7b3      	b.n	8003fbe <BuildFrameToUSB+0x56>
    			ShortToHex(frame.data_byte[i], &buf[pointer]);
 8004056:	f81a 0b01 	ldrb.w	r0, [sl], #1
 800405a:	f7ff ff77 	bl	8003f4c <ShortToHex>
    		for(int i = 0; i < frame.header.DLC; i++)
 800405e:	f108 0801 	add.w	r8, r8, #1
 8004062:	e7bb      	b.n	8003fdc <BuildFrameToUSB+0x74>
    else if(conf.state == SAVVYCAN_CONNECT)
 8004064:	2802      	cmp	r0, #2
 8004066:	d132      	bne.n	80040ce <BuildFrameToUSB+0x166>
        if (conf.useBinarySerialComm)
 8004068:	7888      	ldrb	r0, [r1, #2]
 800406a:	2800      	cmp	r0, #0
 800406c:	d0d3      	beq.n	8004016 <BuildFrameToUSB+0xae>
            buf[pointer++] = 0xF1;
 800406e:	21f1      	movs	r1, #241	; 0xf1
 8004070:	7011      	strb	r1, [r2, #0]
            buf[pointer++] = 0; //0 = canbus frame sending
 8004072:	2100      	movs	r1, #0
            if (frame.header.IDE == CAN_ID_EXT) id_temp = frame.header.ExtId | 1 << 31;
 8004074:	f1bc 0f04 	cmp.w	ip, #4
            buf[pointer++] = 0; //0 = canbus frame sending
 8004078:	7051      	strb	r1, [r2, #1]
            buf[pointer++] = (uint8_t)(frame.timestamp >> 8);
 800407a:	ea4f 2114 	mov.w	r1, r4, lsr #8
            if (frame.header.IDE == CAN_ID_EXT) id_temp = frame.header.ExtId | 1 << 31;
 800407e:	bf08      	it	eq
 8004080:	f045 4300 	orreq.w	r3, r5, #2147483648	; 0x80000000
            buf[pointer++] = (uint8_t)(frame.timestamp >> 8);
 8004084:	70d1      	strb	r1, [r2, #3]
            buf[pointer++] = (uint8_t)(frame.timestamp >> 16);
 8004086:	0c21      	lsrs	r1, r4, #16
 8004088:	7111      	strb	r1, [r2, #4]
            buf[pointer++] = (uint8_t)(id_temp >> 8);
 800408a:	0a19      	lsrs	r1, r3, #8
            buf[pointer++] = (uint8_t)(id_temp & 0xFF);
 800408c:	7193      	strb	r3, [r2, #6]
            buf[pointer++] = (uint8_t)(id_temp >> 8);
 800408e:	71d1      	strb	r1, [r2, #7]
            buf[pointer++] = (uint8_t)(id_temp >> 16);
 8004090:	0c19      	lsrs	r1, r3, #16
            buf[pointer++] = (uint8_t)(id_temp >> 24);
 8004092:	0e1b      	lsrs	r3, r3, #24
 8004094:	7253      	strb	r3, [r2, #9]
            buf[pointer++] = frame.header.DLC + (uint8_t)(frame.bus << 4);
 8004096:	4613      	mov	r3, r2
            buf[pointer++] = (uint8_t)(id_temp >> 16);
 8004098:	7211      	strb	r1, [r2, #8]
            buf[pointer++] = frame.header.DLC + (uint8_t)(frame.bus << 4);
 800409a:	f89d 1049 	ldrb.w	r1, [sp, #73]	; 0x49
            buf[pointer++] = (uint8_t)(frame.timestamp & 0xFF);
 800409e:	7094      	strb	r4, [r2, #2]
            buf[pointer++] = frame.header.DLC + (uint8_t)(frame.bus << 4);
 80040a0:	eb06 1101 	add.w	r1, r6, r1, lsl #4
            buf[pointer++] = (uint8_t)(frame.timestamp >> 24);
 80040a4:	0e24      	lsrs	r4, r4, #24
 80040a6:	7154      	strb	r4, [r2, #5]
            buf[pointer++] = frame.header.DLC + (uint8_t)(frame.bus << 4);
 80040a8:	f803 1f0a 	strb.w	r1, [r3, #10]!
            for (int c = 0; c < frame.header.DLC; c++) {
 80040ac:	f106 010a 	add.w	r1, r6, #10
 80040b0:	a810      	add	r0, sp, #64	; 0x40
 80040b2:	4411      	add	r1, r2
 80040b4:	428b      	cmp	r3, r1
 80040b6:	d105      	bne.n	80040c4 <BuildFrameToUSB+0x15c>
            buf[pointer++] = temp;
 80040b8:	2300      	movs	r3, #0
 80040ba:	4432      	add	r2, r6
 80040bc:	f106 000c 	add.w	r0, r6, #12
 80040c0:	72d3      	strb	r3, [r2, #11]
 80040c2:	e7a8      	b.n	8004016 <BuildFrameToUSB+0xae>
                buf[pointer++] = frame.data_byte[c];
 80040c4:	f810 4b01 	ldrb.w	r4, [r0], #1
 80040c8:	f803 4f01 	strb.w	r4, [r3, #1]!
            for (int c = 0; c < frame.header.DLC; c++) {
 80040cc:	e7f2      	b.n	80040b4 <BuildFrameToUSB+0x14c>
	uint32_t pointer = 0;
 80040ce:	2000      	movs	r0, #0
 80040d0:	e7a1      	b.n	8004016 <BuildFrameToUSB+0xae>
 80040d2:	bf00      	nop
 80040d4:	20001f48 	.word	0x20001f48

080040d8 <CAN_Buffer_pull>:
{
 80040d8:	e92d 41f0 	stmdb	sp!, {r4, r5, r6, r7, r8, lr}
	if(CAN_Buffer.Pointer_Read != CAN_Buffer.Pointer_Write)
 80040dc:	4e18      	ldr	r6, [pc, #96]	; (8004140 <CAN_Buffer_pull+0x68>)
{
 80040de:	b08a      	sub	sp, #40	; 0x28
	if(CAN_Buffer.Pointer_Read != CAN_Buffer.Pointer_Write)
 80040e0:	8834      	ldrh	r4, [r6, #0]
 80040e2:	8873      	ldrh	r3, [r6, #2]
 80040e4:	42a3      	cmp	r3, r4
 80040e6:	d027      	beq.n	8004138 <CAN_Buffer_pull+0x60>
		uint16_t length = BuildFrameToUSB(CAN_Buffer.Item[CAN_Buffer.Pointer_Read], 0, uart_tx_bufer);
 80040e8:	2330      	movs	r3, #48	; 0x30
 80040ea:	fb03 6404 	mla	r4, r3, r4, r6
 80040ee:	2300      	movs	r3, #0
 80040f0:	466d      	mov	r5, sp
 80040f2:	f8df 8054 	ldr.w	r8, [pc, #84]	; 8004148 <CAN_Buffer_pull+0x70>
 80040f6:	9308      	str	r3, [sp, #32]
 80040f8:	f8cd 8024 	str.w	r8, [sp, #36]	; 0x24
 80040fc:	f104 0708 	add.w	r7, r4, #8
 8004100:	3418      	adds	r4, #24
 8004102:	cc0f      	ldmia	r4!, {r0, r1, r2, r3}
 8004104:	c50f      	stmia	r5!, {r0, r1, r2, r3}
 8004106:	e894 000f 	ldmia.w	r4, {r0, r1, r2, r3}
 800410a:	e885 000f 	stmia.w	r5, {r0, r1, r2, r3}
 800410e:	e897 000f 	ldmia.w	r7, {r0, r1, r2, r3}
 8004112:	f7ff ff29 	bl	8003f68 <BuildFrameToUSB>
		if(HAL_UART_Transmit_DMA(huart_active, uart_tx_bufer, length) == HAL_OK)
 8004116:	4b0b      	ldr	r3, [pc, #44]	; (8004144 <CAN_Buffer_pull+0x6c>)
		uint16_t length = BuildFrameToUSB(CAN_Buffer.Item[CAN_Buffer.Pointer_Read], 0, uart_tx_bufer);
 8004118:	4602      	mov	r2, r0
		if(HAL_UART_Transmit_DMA(huart_active, uart_tx_bufer, length) == HAL_OK)
 800411a:	4641      	mov	r1, r8
 800411c:	6818      	ldr	r0, [r3, #0]
 800411e:	f7fe f9c3 	bl	80024a8 <HAL_UART_Transmit_DMA>
 8004122:	b958      	cbnz	r0, 800413c <CAN_Buffer_pull+0x64>
			CAN_Buffer.Pointer_Read = (CAN_Buffer.Pointer_Read < (CAN_BUFFER_SIZE-1)) ? (CAN_Buffer.Pointer_Read + 1) : 0;
 8004124:	8833      	ldrh	r3, [r6, #0]
 8004126:	2b3a      	cmp	r3, #58	; 0x3a
 8004128:	bf8e      	itee	hi
 800412a:	4603      	movhi	r3, r0
 800412c:	3301      	addls	r3, #1
 800412e:	b29b      	uxthls	r3, r3
 8004130:	8033      	strh	r3, [r6, #0]
}
 8004132:	b00a      	add	sp, #40	; 0x28
 8004134:	e8bd 81f0 	ldmia.w	sp!, {r4, r5, r6, r7, r8, pc}
		return HAL_BUSY;
 8004138:	2002      	movs	r0, #2
 800413a:	e7fa      	b.n	8004132 <CAN_Buffer_pull+0x5a>
			return HAL_ERROR;
 800413c:	2001      	movs	r0, #1
 800413e:	e7f8      	b.n	8004132 <CAN_Buffer_pull+0x5a>
 8004140:	200001e0 	.word	0x200001e0
 8004144:	20002af4 	.word	0x20002af4
 8004148:	200029eb 	.word	0x200029eb

0800414c <BuildFrameToFile>:


uint16_t BuildFrameToFile(can_msg_t frame, uint8_t * buff)
{
 800414c:	b084      	sub	sp, #16
 800414e:	e92d 43f0 	stmdb	sp!, {r4, r5, r6, r7, r8, r9, lr}
 8004152:	b085      	sub	sp, #20
 8004154:	ac0c      	add	r4, sp, #48	; 0x30
 8004156:	e884 000f 	stmia.w	r4, {r0, r1, r2, r3}
   // uint8_t buff[40];
    //uint8_t temp;
    unsigned int id_temp;
    uint32_t pointer = 0;
    if (conf.fileOutputType == BINARYFILE) {
 800415a:	4a53      	ldr	r2, [pc, #332]	; (80042a8 <BuildFrameToFile+0x15c>)
{
 800415c:	9c18      	ldr	r4, [sp, #96]	; 0x60
    if (conf.fileOutputType == BINARYFILE) {
 800415e:	f892 2031 	ldrb.w	r2, [r2, #49]	; 0x31
 8004162:	9b0f      	ldr	r3, [sp, #60]	; 0x3c
 8004164:	2a01      	cmp	r2, #1
 8004166:	9e11      	ldr	r6, [sp, #68]	; 0x44
 8004168:	f89d c059 	ldrb.w	ip, [sp, #89]	; 0x59
 800416c:	e9dd 170d 	ldrd	r1, r7, [sp, #52]	; 0x34
 8004170:	d12a      	bne.n	80041c8 <BuildFrameToFile+0x7c>
    	if (frame.header.IDE == CAN_ID_EXT) id_temp = frame.header.ExtId | 1 << 31;
 8004172:	2b04      	cmp	r3, #4
    	else id_temp = frame.header.StdId;
        buff[pointer++] = (uint8_t)(frame.timestamp & 0xFF);
        buff[pointer++] = (uint8_t)(frame.timestamp >> 8);
 8004174:	ea4f 2310 	mov.w	r3, r0, lsr #8
    	if (frame.header.IDE == CAN_ID_EXT) id_temp = frame.header.ExtId | 1 << 31;
 8004178:	bf08      	it	eq
 800417a:	f047 4100 	orreq.w	r1, r7, #2147483648	; 0x80000000
        buff[pointer++] = (uint8_t)(frame.timestamp >> 8);
 800417e:	7063      	strb	r3, [r4, #1]
        buff[pointer++] = (uint8_t)(frame.timestamp >> 16);
 8004180:	0c03      	lsrs	r3, r0, #16
 8004182:	70a3      	strb	r3, [r4, #2]
        buff[pointer++] = (uint8_t)(frame.timestamp >> 24);
        buff[pointer++] = (uint8_t)(id_temp & 0xFF);
        buff[pointer++] = (uint8_t)(id_temp >> 8);
 8004184:	0a0b      	lsrs	r3, r1, #8
 8004186:	7163      	strb	r3, [r4, #5]
        buff[pointer++] = (uint8_t)(id_temp >> 16);
 8004188:	0c0b      	lsrs	r3, r1, #16
 800418a:	71a3      	strb	r3, [r4, #6]
        buff[pointer++] = (uint8_t)(id_temp >> 24);
        buff[pointer++] = frame.header.DLC + (uint8_t)(frame.bus << 4);
 800418c:	4623      	mov	r3, r4
        buff[pointer++] = (uint8_t)(frame.timestamp & 0xFF);
 800418e:	7020      	strb	r0, [r4, #0]
        buff[pointer++] = (uint8_t)(id_temp & 0xFF);
 8004190:	7121      	strb	r1, [r4, #4]
        buff[pointer++] = frame.header.DLC + (uint8_t)(frame.bus << 4);
 8004192:	eb06 120c 	add.w	r2, r6, ip, lsl #4
        buff[pointer++] = (uint8_t)(id_temp >> 24);
 8004196:	0e09      	lsrs	r1, r1, #24
        buff[pointer++] = (uint8_t)(frame.timestamp >> 24);
 8004198:	0e00      	lsrs	r0, r0, #24
        buff[pointer++] = (uint8_t)(id_temp >> 24);
 800419a:	71e1      	strb	r1, [r4, #7]
        buff[pointer++] = (uint8_t)(frame.timestamp >> 24);
 800419c:	70e0      	strb	r0, [r4, #3]
        buff[pointer++] = frame.header.DLC + (uint8_t)(frame.bus << 4);
 800419e:	f803 2f08 	strb.w	r2, [r3, #8]!
        for (int c = 0; c < frame.header.DLC; c++) {
 80041a2:	f106 0208 	add.w	r2, r6, #8
 80041a6:	a914      	add	r1, sp, #80	; 0x50
 80041a8:	4414      	add	r4, r2
 80041aa:	429c      	cmp	r4, r3
 80041ac:	d107      	bne.n	80041be <BuildFrameToFile+0x72>
 80041ae:	f106 0009 	add.w	r0, r6, #9
        buff[pointer++] = '\r';
        buff[pointer++] = '\n';
        //Logger::fileRaw(buff, 2);
    }
    return pointer;
}
 80041b2:	b280      	uxth	r0, r0
 80041b4:	b005      	add	sp, #20
 80041b6:	e8bd 43f0 	ldmia.w	sp!, {r4, r5, r6, r7, r8, r9, lr}
 80041ba:	b004      	add	sp, #16
 80041bc:	4770      	bx	lr
            buff[pointer++] = frame.data_byte[c];
 80041be:	f811 2b01 	ldrb.w	r2, [r1], #1
 80041c2:	f803 2f01 	strb.w	r2, [r3, #1]!
        for (int c = 0; c < frame.header.DLC; c++) {
 80041c6:	e7f0      	b.n	80041aa <BuildFrameToFile+0x5e>
    } else if (conf.fileOutputType == GVRET_FILE) {
 80041c8:	2a02      	cmp	r2, #2
 80041ca:	9d10      	ldr	r5, [sp, #64]	; 0x40
 80041cc:	d12e      	bne.n	800422c <BuildFrameToFile+0xe0>
        sprintf((char *)buff, "%i,%x,%i,%i,%i", (int)frame.timestamp, id_temp, (int)frame.header.IDE, (int)frame.bus, (int)frame.header.DLC);
 80041ce:	4602      	mov	r2, r0
 80041d0:	e9cd c601 	strd	ip, r6, [sp, #4]
 80041d4:	9300      	str	r3, [sp, #0]
 80041d6:	4620      	mov	r0, r4
 80041d8:	2b04      	cmp	r3, #4
 80041da:	bf0c      	ite	eq
 80041dc:	463b      	moveq	r3, r7
 80041de:	460b      	movne	r3, r1
 80041e0:	4932      	ldr	r1, [pc, #200]	; (80042ac <BuildFrameToFile+0x160>)
 80041e2:	f003 fcaf 	bl	8007b44 <siprintf>
        pointer = strlen((char *)buff);
 80041e6:	4620      	mov	r0, r4
 80041e8:	f7fb ffb0 	bl	800014c <strlen>
 80041ec:	4607      	mov	r7, r0
        if(frame.header.RTR == CAN_RTR_DATA)
 80041ee:	b975      	cbnz	r5, 800420e <BuildFrameToFile+0xc2>
    		for(int i = 0; i < frame.header.DLC; i++)
 80041f0:	462a      	mov	r2, r5
    			buff[pointer++] = ',';
 80041f2:	252c      	movs	r5, #44	; 0x2c
 80041f4:	eb04 0800 	add.w	r8, r4, r0
 80041f8:	f10d 0950 	add.w	r9, sp, #80	; 0x50
    		for(int i = 0; i < frame.header.DLC; i++)
 80041fc:	4296      	cmp	r6, r2
 80041fe:	f108 0101 	add.w	r1, r8, #1
 8004202:	f108 0803 	add.w	r8, r8, #3
 8004206:	d109      	bne.n	800421c <BuildFrameToFile+0xd0>
 8004208:	eb06 0346 	add.w	r3, r6, r6, lsl #1
 800420c:	441f      	add	r7, r3
        buff[pointer++] = '\r';
 800420e:	230d      	movs	r3, #13
        buff[pointer++] = '\n';
 8004210:	220a      	movs	r2, #10
        buff[pointer++] = '\r';
 8004212:	55e3      	strb	r3, [r4, r7]
        buff[pointer++] = '\n';
 8004214:	443c      	add	r4, r7
 8004216:	1cb8      	adds	r0, r7, #2
 8004218:	7062      	strb	r2, [r4, #1]
 800421a:	e7ca      	b.n	80041b2 <BuildFrameToFile+0x66>
    			ShortToHex(frame.data_byte[i], &buff[pointer]);
 800421c:	f819 0b01 	ldrb.w	r0, [r9], #1
    			buff[pointer++] = ',';
 8004220:	f808 5c03 	strb.w	r5, [r8, #-3]
    			ShortToHex(frame.data_byte[i], &buff[pointer]);
 8004224:	f7ff fe92 	bl	8003f4c <ShortToHex>
    		for(int i = 0; i < frame.header.DLC; i++)
 8004228:	3201      	adds	r2, #1
 800422a:	e7e7      	b.n	80041fc <BuildFrameToFile+0xb0>
    } else if (conf.fileOutputType == CRTD_FILE) {
 800422c:	2a03      	cmp	r2, #3
 800422e:	d138      	bne.n	80042a2 <BuildFrameToFile+0x156>
        else id_temp = frame.header.StdId;
 8004230:	2b04      	cmp	r3, #4
        sprintf((char *)buff, "%i.%u %c%i %x", (int)(frame.timestamp / 1000), (int)(frame.timestamp % 1000), (frame.can_dir == DIR_TRANSMIT)?'T':'R', idBits, id_temp);
 8004232:	f44f 737a 	mov.w	r3, #1000	; 0x3e8
        else id_temp = frame.header.StdId;
 8004236:	bf18      	it	ne
 8004238:	460f      	movne	r7, r1
        sprintf((char *)buff, "%i.%u %c%i %x", (int)(frame.timestamp / 1000), (int)(frame.timestamp % 1000), (frame.can_dir == DIR_TRANSMIT)?'T':'R', idBits, id_temp);
 800423a:	f89d 1058 	ldrb.w	r1, [sp, #88]	; 0x58
        else id_temp = frame.header.StdId;
 800423e:	bf0c      	ite	eq
 8004240:	f04f 0c1d 	moveq.w	ip, #29
 8004244:	f04f 0c0b 	movne.w	ip, #11
        sprintf((char *)buff, "%i.%u %c%i %x", (int)(frame.timestamp / 1000), (int)(frame.timestamp % 1000), (frame.can_dir == DIR_TRANSMIT)?'T':'R', idBits, id_temp);
 8004248:	2901      	cmp	r1, #1
 800424a:	fbb0 f2f3 	udiv	r2, r0, r3
 800424e:	bf0c      	ite	eq
 8004250:	2154      	moveq	r1, #84	; 0x54
 8004252:	2152      	movne	r1, #82	; 0x52
 8004254:	fb03 0312 	mls	r3, r3, r2, r0
 8004258:	e9cd c701 	strd	ip, r7, [sp, #4]
 800425c:	9100      	str	r1, [sp, #0]
 800425e:	4620      	mov	r0, r4
 8004260:	4913      	ldr	r1, [pc, #76]	; (80042b0 <BuildFrameToFile+0x164>)
 8004262:	f003 fc6f 	bl	8007b44 <siprintf>
        pointer = strlen((char *)buff);
 8004266:	4620      	mov	r0, r4
 8004268:	f7fb ff70 	bl	800014c <strlen>
 800426c:	4607      	mov	r7, r0
        if(frame.header.RTR == CAN_RTR_DATA)
 800426e:	2d00      	cmp	r5, #0
 8004270:	d1cd      	bne.n	800420e <BuildFrameToFile+0xc2>
    		for(int i = 0; i < frame.header.DLC; i++)
 8004272:	462a      	mov	r2, r5
    			buff[pointer++] = ' ';
 8004274:	2520      	movs	r5, #32
 8004276:	eb04 0800 	add.w	r8, r4, r0
 800427a:	f10d 0950 	add.w	r9, sp, #80	; 0x50
    		for(int i = 0; i < frame.header.DLC; i++)
 800427e:	42b2      	cmp	r2, r6
 8004280:	f108 0101 	add.w	r1, r8, #1
 8004284:	f108 0803 	add.w	r8, r8, #3
 8004288:	d103      	bne.n	8004292 <BuildFrameToFile+0x146>
 800428a:	eb02 0242 	add.w	r2, r2, r2, lsl #1
 800428e:	4417      	add	r7, r2
 8004290:	e7bd      	b.n	800420e <BuildFrameToFile+0xc2>
    			ShortToHex(frame.data_byte[i], &buff[pointer]);
 8004292:	f819 0b01 	ldrb.w	r0, [r9], #1
    			buff[pointer++] = ' ';
 8004296:	f808 5c03 	strb.w	r5, [r8, #-3]
    			ShortToHex(frame.data_byte[i], &buff[pointer]);
 800429a:	f7ff fe57 	bl	8003f4c <ShortToHex>
    		for(int i = 0; i < frame.header.DLC; i++)
 800429e:	3201      	adds	r2, #1
 80042a0:	e7ed      	b.n	800427e <BuildFrameToFile+0x132>
    uint32_t pointer = 0;
 80042a2:	2000      	movs	r0, #0
 80042a4:	e785      	b.n	80041b2 <BuildFrameToFile+0x66>
 80042a6:	bf00      	nop
 80042a8:	20001f48 	.word	0x20001f48
 80042ac:	080084bc 	.word	0x080084bc
 80042b0:	080084cb 	.word	0x080084cb

080042b4 <CAN_Log_Buffer_pull>:
{
 80042b4:	e92d 41f0 	stmdb	sp!, {r4, r5, r6, r7, r8, lr}
	if(CAN_Log_Buffer.Pointer_Read != CAN_Log_Buffer.Pointer_Write)
 80042b8:	4e16      	ldr	r6, [pc, #88]	; (8004314 <CAN_Log_Buffer_pull+0x60>)
{
 80042ba:	b08a      	sub	sp, #40	; 0x28
	if(CAN_Log_Buffer.Pointer_Read != CAN_Log_Buffer.Pointer_Write)
 80042bc:	8834      	ldrh	r4, [r6, #0]
 80042be:	8873      	ldrh	r3, [r6, #2]
 80042c0:	42a3      	cmp	r3, r4
 80042c2:	d023      	beq.n	800430c <CAN_Log_Buffer_pull+0x58>
		uint16_t length = BuildFrameToFile(CAN_Log_Buffer.Item[CAN_Log_Buffer.Pointer_Read], flash_buffer);
 80042c4:	2330      	movs	r3, #48	; 0x30
 80042c6:	466d      	mov	r5, sp
 80042c8:	fb03 6404 	mla	r4, r3, r4, r6
 80042cc:	f8df 8048 	ldr.w	r8, [pc, #72]	; 8004318 <CAN_Log_Buffer_pull+0x64>
 80042d0:	f104 0708 	add.w	r7, r4, #8
 80042d4:	f8cd 8020 	str.w	r8, [sp, #32]
 80042d8:	3418      	adds	r4, #24
 80042da:	cc0f      	ldmia	r4!, {r0, r1, r2, r3}
 80042dc:	c50f      	stmia	r5!, {r0, r1, r2, r3}
 80042de:	e894 000f 	ldmia.w	r4, {r0, r1, r2, r3}
 80042e2:	e885 000f 	stmia.w	r5, {r0, r1, r2, r3}
 80042e6:	e897 000f 	ldmia.w	r7, {r0, r1, r2, r3}
 80042ea:	f7ff ff2f 	bl	800414c <BuildFrameToFile>
 80042ee:	4601      	mov	r1, r0
		if(Save_to_File(flash_buffer, length) == HAL_OK)
 80042f0:	4640      	mov	r0, r8
 80042f2:	f002 fc7b 	bl	8006bec <Save_to_File>
 80042f6:	b958      	cbnz	r0, 8004310 <CAN_Log_Buffer_pull+0x5c>
			CAN_Log_Buffer.Pointer_Read = (CAN_Log_Buffer.Pointer_Read < (CAN_BUFFER_SIZE-1)) ? (CAN_Log_Buffer.Pointer_Read + 1) : 0;
 80042f8:	8833      	ldrh	r3, [r6, #0]
 80042fa:	2b3a      	cmp	r3, #58	; 0x3a
 80042fc:	bf8e      	itee	hi
 80042fe:	4603      	movhi	r3, r0
 8004300:	3301      	addls	r3, #1
 8004302:	b29b      	uxthls	r3, r3
 8004304:	8033      	strh	r3, [r6, #0]
}
 8004306:	b00a      	add	sp, #40	; 0x28
 8004308:	e8bd 81f0 	ldmia.w	sp!, {r4, r5, r6, r7, r8, pc}
		return HAL_BUSY;
 800430c:	2002      	movs	r0, #2
 800430e:	e7fa      	b.n	8004306 <CAN_Log_Buffer_pull+0x52>
			return HAL_ERROR;
 8004310:	2001      	movs	r0, #1
 8004312:	e7f8      	b.n	8004306 <CAN_Log_Buffer_pull+0x52>
 8004314:	20000d90 	.word	0x20000d90
 8004318:	20002a6b 	.word	0x20002a6b

0800431c <SetFilterCAN>:
        Can1.setRXFilter(filter, 0, 0, false);
    }*/
}

HAL_StatusTypeDef SetFilterCAN(uint32_t id, uint32_t mask_or_id, uint32_t mode, uint32_t num)
{
 800431c:	b510      	push	{r4, lr}
	 if(mask_or_id == 0 && mode == CAN_FILTERMODE_IDMASK)
 800431e:	ea51 0402 	orrs.w	r4, r1, r2
{
 8004322:	b08a      	sub	sp, #40	; 0x28
	 if(mask_or_id == 0 && mode == CAN_FILTERMODE_IDMASK)
 8004324:	d112      	bne.n	800434c <SetFilterCAN+0x30>
 		  CAN_FilterStructure.FilterFIFOAssignment = CAN_FILTER_FIFO1;
 		  CAN_FilterStructure.FilterMaskIdHigh = 0xFFFF;
 		  CAN_FilterStructure.FilterMaskIdLow = 0xFFFF;
 		  CAN_FilterStructure.FilterIdHigh = 0;
 		  CAN_FilterStructure.FilterIdLow = 0;
 		  CAN_FilterStructure.FilterScale = CAN_FILTERSCALE_32BIT;
 8004326:	2301      	movs	r3, #1
 		  CAN_FilterStructure.FilterMode = CAN_FILTERMODE_IDMASK;
 8004328:	e9cd 4405 	strd	r4, r4, [sp, #20]
 		  CAN_FilterStructure.FilterIdLow = 0;
 800432c:	e9cd 4400 	strd	r4, r4, [sp]
 		  CAN_FilterStructure.FilterActivation = CAN_FILTER_ENABLE;
 8004330:	e9cd 3307 	strd	r3, r3, [sp, #28]

 		  CAN_FilterStructure.FilterIdHigh = 0;
 		  CAN_FilterStructure.FilterIdLow = 0;
 		  CAN_FilterStructure.FilterBank = 0;
 		  CAN_FilterStructure.FilterMaskIdHigh = 0;
 		  CAN_FilterStructure.FilterMaskIdLow = 0;
 8004334:	e9cd 4402 	strd	r4, r4, [sp, #8]
 		  CAN_FilterStructure.FilterFIFOAssignment = CAN_FILTER_FIFO0;
 8004338:	9404      	str	r4, [sp, #16]

		  CAN_FilterStructure.FilterScale = CAN_FILTERSCALE_32BIT;
		  CAN_FilterStructure.FilterActivation = CAN_FILTER_ENABLE;

		  CAN_FilterStructure.FilterFIFOAssignment = CAN_FILTER_FIFO0;
		  if(HAL_CAN_ConfigFilter(&hcan, &CAN_FilterStructure) != HAL_OK) return HAL_ERROR;
 800433a:	4669      	mov	r1, sp
 800433c:	480b      	ldr	r0, [pc, #44]	; (800436c <SetFilterCAN+0x50>)
 800433e:	f7fc fad6 	bl	80008ee <HAL_CAN_ConfigFilter>
 8004342:	3800      	subs	r0, #0
 8004344:	bf18      	it	ne
 8004346:	2001      	movne	r0, #1
	 }
	 return HAL_OK;
}
 8004348:	b00a      	add	sp, #40	; 0x28
 800434a:	bd10      	pop	{r4, pc}
		  CAN_FilterStructure.FilterMode = mode;
 800434c:	e9cd 3205 	strd	r3, r2, [sp, #20]
		  CAN_FilterStructure.FilterMaskIdHigh = mask_or_id >> 16;
 8004350:	0c0b      	lsrs	r3, r1, #16
 8004352:	9302      	str	r3, [sp, #8]
		  CAN_FilterStructure.FilterIdHigh = id >> 16;
 8004354:	0c03      	lsrs	r3, r0, #16
 8004356:	9300      	str	r3, [sp, #0]
		  CAN_FilterStructure.FilterScale = CAN_FILTERSCALE_32BIT;
 8004358:	2301      	movs	r3, #1
		  CAN_FilterStructure.FilterActivation = CAN_FILTER_ENABLE;
 800435a:	e9cd 3307 	strd	r3, r3, [sp, #28]
		  CAN_FilterStructure.FilterFIFOAssignment = CAN_FILTER_FIFO0;
 800435e:	2300      	movs	r3, #0
		  CAN_FilterStructure.FilterMaskIdLow = mask_or_id & 0xFFFF;
 8004360:	b289      	uxth	r1, r1
		  CAN_FilterStructure.FilterIdLow = id & 0xFFFF;
 8004362:	b280      	uxth	r0, r0
		  CAN_FilterStructure.FilterMaskIdLow = mask_or_id & 0xFFFF;
 8004364:	9103      	str	r1, [sp, #12]
		  CAN_FilterStructure.FilterIdLow = id & 0xFFFF;
 8004366:	9001      	str	r0, [sp, #4]
		  CAN_FilterStructure.FilterFIFOAssignment = CAN_FILTER_FIFO0;
 8004368:	9304      	str	r3, [sp, #16]
 800436a:	e7e6      	b.n	800433a <SetFilterCAN+0x1e>
 800436c:	20001a5c 	.word	0x20001a5c

08004370 <save_script>:

HAL_StatusTypeDef save_script(uint8_t * cmd_buf, uint8_t cmd_len)
{
	if(conf.script_address < eeprom_settings.start_address_csript || conf.script_address > eeprom_settings.eeprom_size-2)
 8004370:	4b13      	ldr	r3, [pc, #76]	; (80043c0 <save_script+0x50>)
{
 8004372:	b570      	push	{r4, r5, r6, lr}
	if(conf.script_address < eeprom_settings.start_address_csript || conf.script_address > eeprom_settings.eeprom_size-2)
 8004374:	4c13      	ldr	r4, [pc, #76]	; (80043c4 <save_script+0x54>)
{
 8004376:	4602      	mov	r2, r0
	if(conf.script_address < eeprom_settings.start_address_csript || conf.script_address > eeprom_settings.eeprom_size-2)
 8004378:	88d8      	ldrh	r0, [r3, #6]
 800437a:	8966      	ldrh	r6, [r4, #10]
 800437c:	b280      	uxth	r0, r0
 800437e:	4286      	cmp	r6, r0
 8004380:	d304      	bcc.n	800438c <save_script+0x1c>
 8004382:	885d      	ldrh	r5, [r3, #2]
 8004384:	b2ad      	uxth	r5, r5
 8004386:	3d01      	subs	r5, #1
 8004388:	42b5      	cmp	r5, r6
 800438a:	dc01      	bgt.n	8004390 <save_script+0x20>
	{
		conf.script_address = eeprom_settings.start_address_csript;
 800438c:	88d8      	ldrh	r0, [r3, #6]
 800438e:	8160      	strh	r0, [r4, #10]
	}
	if(conf.script_address + cmd_len < eeprom_settings.eeprom_size-2)
 8004390:	885b      	ldrh	r3, [r3, #2]
 8004392:	8960      	ldrh	r0, [r4, #10]
 8004394:	b29b      	uxth	r3, r3
 8004396:	4408      	add	r0, r1
 8004398:	3b02      	subs	r3, #2
 800439a:	4298      	cmp	r0, r3
 800439c:	db01      	blt.n	80043a2 <save_script+0x32>
    	}
    	else
    		return HAL_ERROR;
	}
	else
		return HAL_ERROR;
 800439e:	2001      	movs	r0, #1

}
 80043a0:	bd70      	pop	{r4, r5, r6, pc}
    	cmd_buf[cmd_len] = CR;
 80043a2:	230d      	movs	r3, #13
 80043a4:	5453      	strb	r3, [r2, r1]
    	if(EEPROM_Write(&hspi2, conf.script_address, cmd_buf, cmd_len+1) == HAL_OK)
 80043a6:	b28d      	uxth	r5, r1
 80043a8:	1c4b      	adds	r3, r1, #1
 80043aa:	4807      	ldr	r0, [pc, #28]	; (80043c8 <save_script+0x58>)
 80043ac:	8961      	ldrh	r1, [r4, #10]
 80043ae:	f001 fe99 	bl	80060e4 <EEPROM_Write>
 80043b2:	2800      	cmp	r0, #0
 80043b4:	d1f3      	bne.n	800439e <save_script+0x2e>
    		conf.script_address += cmd_len+1;
 80043b6:	8963      	ldrh	r3, [r4, #10]
 80043b8:	3301      	adds	r3, #1
 80043ba:	441d      	add	r5, r3
 80043bc:	8165      	strh	r5, [r4, #10]
    		return HAL_OK;
 80043be:	e7ef      	b.n	80043a0 <save_script+0x30>
 80043c0:	20000d28 	.word	0x20000d28
 80043c4:	20001f48 	.word	0x20001f48
 80043c8:	20002dbc 	.word	0x20002dbc

080043cc <copy_script>:

HAL_StatusTypeDef copy_script(uint8_t * buf, uint32_t size)
{
 80043cc:	e92d 43f7 	stmdb	sp!, {r0, r1, r2, r4, r5, r6, r7, r8, r9, lr}
 80043d0:	460c      	mov	r4, r1
	uint8_t temp;
	static uint32_t shift = 0;
	if(size > eeprom_settings.eeprom_size + shift - eeprom_settings.start_address_csript - 2)
 80043d2:	4a1d      	ldr	r2, [pc, #116]	; (8004448 <copy_script+0x7c>)
 80043d4:	4d1d      	ldr	r5, [pc, #116]	; (800444c <copy_script+0x80>)
 80043d6:	8853      	ldrh	r3, [r2, #2]
{
 80043d8:	4607      	mov	r7, r0
	if(size > eeprom_settings.eeprom_size + shift - eeprom_settings.start_address_csript - 2)
 80043da:	b298      	uxth	r0, r3
 80043dc:	682b      	ldr	r3, [r5, #0]
 80043de:	88d1      	ldrh	r1, [r2, #6]
 80043e0:	3b02      	subs	r3, #2
 80043e2:	b289      	uxth	r1, r1
 80043e4:	4403      	add	r3, r0
 80043e6:	1a5b      	subs	r3, r3, r1
 80043e8:	42a3      	cmp	r3, r4
 80043ea:	4690      	mov	r8, r2
 80043ec:	d328      	bcc.n	8004440 <copy_script+0x74>
		return ERROR;

	for(uint32_t i = 0; i < size; i++)
 80043ee:	2600      	movs	r6, #0
	{
		EEPROM_Read(&hspi2, eeprom_settings.start_address_csript + i, &temp, 1);
 80043f0:	f8df 905c 	ldr.w	r9, [pc, #92]	; 8004450 <copy_script+0x84>
	for(uint32_t i = 0; i < size; i++)
 80043f4:	42a6      	cmp	r6, r4
 80043f6:	d101      	bne.n	80043fc <copy_script+0x30>
			}
			else
				return HAL_ERROR;
		}
	}
	return HAL_BUSY;
 80043f8:	2002      	movs	r0, #2
 80043fa:	e01c      	b.n	8004436 <copy_script+0x6a>
		EEPROM_Read(&hspi2, eeprom_settings.start_address_csript + i, &temp, 1);
 80043fc:	f8b8 1006 	ldrh.w	r1, [r8, #6]
 8004400:	2301      	movs	r3, #1
 8004402:	4431      	add	r1, r6
 8004404:	f10d 0207 	add.w	r2, sp, #7
 8004408:	4648      	mov	r0, r9
 800440a:	b289      	uxth	r1, r1
 800440c:	f001 fe30 	bl	8006070 <EEPROM_Read>
		if(temp != buf[i])
 8004410:	5dba      	ldrb	r2, [r7, r6]
 8004412:	f89d 3007 	ldrb.w	r3, [sp, #7]
 8004416:	429a      	cmp	r2, r3
 8004418:	d010      	beq.n	800443c <copy_script+0x70>
			if(EEPROM_Write(&hspi2, eeprom_settings.start_address_csript + shift, buf, size) == HAL_OK)
 800441a:	f8b8 3006 	ldrh.w	r3, [r8, #6]
 800441e:	6829      	ldr	r1, [r5, #0]
 8004420:	463a      	mov	r2, r7
 8004422:	4419      	add	r1, r3
 8004424:	480a      	ldr	r0, [pc, #40]	; (8004450 <copy_script+0x84>)
 8004426:	b2a3      	uxth	r3, r4
 8004428:	b289      	uxth	r1, r1
 800442a:	f001 fe5b 	bl	80060e4 <EEPROM_Write>
 800442e:	b948      	cbnz	r0, 8004444 <copy_script+0x78>
				shift += size;
 8004430:	6829      	ldr	r1, [r5, #0]
 8004432:	4421      	add	r1, r4
 8004434:	6029      	str	r1, [r5, #0]
}
 8004436:	b003      	add	sp, #12
 8004438:	e8bd 83f0 	ldmia.w	sp!, {r4, r5, r6, r7, r8, r9, pc}
	for(uint32_t i = 0; i < size; i++)
 800443c:	3601      	adds	r6, #1
 800443e:	e7d9      	b.n	80043f4 <copy_script+0x28>
		return ERROR;
 8004440:	2007      	movs	r0, #7
 8004442:	e7f8      	b.n	8004436 <copy_script+0x6a>
				return HAL_ERROR;
 8004444:	2001      	movs	r0, #1
 8004446:	e7f6      	b.n	8004436 <copy_script+0x6a>
 8004448:	20000d28 	.word	0x20000d28
 800444c:	20000104 	.word	0x20000104
 8004450:	20002dbc 	.word	0x20002dbc

08004454 <Open_LIN_cannel>:
	}
	return msg;
}

HAL_StatusTypeDef Open_LIN_cannel()
{
 8004454:	b570      	push	{r4, r5, r6, lr}
	HAL_GPIO_WritePin(LIN_EN_GPIO_Port, LIN_EN_Pin, GPIO_PIN_SET);
	huart1.Init.BaudRate = eeprom_settings.CAN_Speed[eeprom_settings.numBus];
 8004456:	4c20      	ldr	r4, [pc, #128]	; (80044d8 <Open_LIN_cannel+0x84>)
	HAL_GPIO_WritePin(LIN_EN_GPIO_Port, LIN_EN_Pin, GPIO_PIN_SET);
 8004458:	2201      	movs	r2, #1
 800445a:	2110      	movs	r1, #16
 800445c:	481f      	ldr	r0, [pc, #124]	; (80044dc <Open_LIN_cannel+0x88>)
 800445e:	f7fd f859 	bl	8001514 <HAL_GPIO_WritePin>
	huart1.Init.BaudRate = eeprom_settings.CAN_Speed[eeprom_settings.numBus];
 8004462:	7a23      	ldrb	r3, [r4, #8]
 8004464:	4e1e      	ldr	r6, [pc, #120]	; (80044e0 <Open_LIN_cannel+0x8c>)
 8004466:	3302      	adds	r3, #2
 8004468:	eb04 0383 	add.w	r3, r4, r3, lsl #2
 800446c:	685b      	ldr	r3, [r3, #4]

	huart1.Init.Mode = UART_MODE_TX_RX;
	if (HAL_LIN_Init(&huart1, UART_LINBREAKDETECTLENGTH_10B) == HAL_OK)
 800446e:	2100      	movs	r1, #0
	huart1.Init.BaudRate = eeprom_settings.CAN_Speed[eeprom_settings.numBus];
 8004470:	6073      	str	r3, [r6, #4]
	huart1.Init.Mode = UART_MODE_TX_RX;
 8004472:	230c      	movs	r3, #12
	if (HAL_LIN_Init(&huart1, UART_LINBREAKDETECTLENGTH_10B) == HAL_OK)
 8004474:	4630      	mov	r0, r6
	huart1.Init.Mode = UART_MODE_TX_RX;
 8004476:	6173      	str	r3, [r6, #20]
	if (HAL_LIN_Init(&huart1, UART_LINBREAKDETECTLENGTH_10B) == HAL_OK)
 8004478:	f7fd ffc2 	bl	8002400 <HAL_LIN_Init>
 800447c:	4605      	mov	r5, r0
 800447e:	bb40      	cbnz	r0, 80044d2 <Open_LIN_cannel+0x7e>
	{
		  /* Enable the UART Data Register not empty Interrupt */
		  __HAL_UART_ENABLE_IT(&huart1, UART_IT_RXNE);
 8004480:	6833      	ldr	r3, [r6, #0]
		  __HAL_UART_ENABLE_IT(&huart1, UART_IT_LBD);
		  __HAL_UART_ENABLE_IT(&huart1, UART_IT_IDLE);
		  __HAL_UART_ENABLE_IT(&huart1, UART_IT_RXNE);

			EEPROM_Write(&hspi2,
 8004482:	4818      	ldr	r0, [pc, #96]	; (80044e4 <Open_LIN_cannel+0x90>)
		  __HAL_UART_ENABLE_IT(&huart1, UART_IT_RXNE);
 8004484:	68da      	ldr	r2, [r3, #12]
 8004486:	f042 0220 	orr.w	r2, r2, #32
 800448a:	60da      	str	r2, [r3, #12]
		  __HAL_UART_ENABLE_IT(&huart1, UART_IT_LBD);
 800448c:	691a      	ldr	r2, [r3, #16]
 800448e:	f042 0240 	orr.w	r2, r2, #64	; 0x40
 8004492:	611a      	str	r2, [r3, #16]
		  __HAL_UART_ENABLE_IT(&huart1, UART_IT_IDLE);
 8004494:	68da      	ldr	r2, [r3, #12]
 8004496:	f042 0210 	orr.w	r2, r2, #16
 800449a:	60da      	str	r2, [r3, #12]
		  __HAL_UART_ENABLE_IT(&huart1, UART_IT_RXNE);
 800449c:	68da      	ldr	r2, [r3, #12]
 800449e:	f042 0220 	orr.w	r2, r2, #32
 80044a2:	60da      	str	r2, [r3, #12]
					EEPROM_SETINGS_ADDR + ((uint32_t)&eeprom_settings.CAN_Speed[eeprom_settings.numBus] - (uint32_t)&eeprom_settings),
 80044a4:	7a21      	ldrb	r1, [r4, #8]
					(uint8_t*)&eeprom_settings.CAN_Speed[eeprom_settings.numBus], sizeof(eeprom_settings.CAN_Speed[eeprom_settings.numBus]));
 80044a6:	7a22      	ldrb	r2, [r4, #8]
			EEPROM_Write(&hspi2,
 80044a8:	3103      	adds	r1, #3
					(uint8_t*)&eeprom_settings.CAN_Speed[eeprom_settings.numBus], sizeof(eeprom_settings.CAN_Speed[eeprom_settings.numBus]));
 80044aa:	3203      	adds	r2, #3
			EEPROM_Write(&hspi2,
 80044ac:	2304      	movs	r3, #4
 80044ae:	eb04 0282 	add.w	r2, r4, r2, lsl #2
 80044b2:	0089      	lsls	r1, r1, #2
 80044b4:	f001 fe16 	bl	80060e4 <EEPROM_Write>
			EEPROM_Write(&hspi2,
					EEPROM_SETINGS_ADDR + ((uint32_t)&eeprom_settings.CAN_mode[eeprom_settings.numBus] - (uint32_t)&eeprom_settings),
 80044b8:	7a21      	ldrb	r1, [r4, #8]
					(uint8_t*)&eeprom_settings.CAN_mode[eeprom_settings.numBus], sizeof(eeprom_settings.CAN_mode[eeprom_settings.numBus]));
 80044ba:	7a22      	ldrb	r2, [r4, #8]
			EEPROM_Write(&hspi2,
 80044bc:	310d      	adds	r1, #13
					(uint8_t*)&eeprom_settings.CAN_mode[eeprom_settings.numBus], sizeof(eeprom_settings.CAN_mode[eeprom_settings.numBus]));
 80044be:	320d      	adds	r2, #13
			EEPROM_Write(&hspi2,
 80044c0:	2304      	movs	r3, #4
 80044c2:	4808      	ldr	r0, [pc, #32]	; (80044e4 <Open_LIN_cannel+0x90>)
 80044c4:	eb04 0282 	add.w	r2, r4, r2, lsl #2
 80044c8:	0089      	lsls	r1, r1, #2
 80044ca:	f001 fe0b 	bl	80060e4 <EEPROM_Write>
		return HAL_OK;
	}
	return HAL_ERROR;
}
 80044ce:	4628      	mov	r0, r5
 80044d0:	bd70      	pop	{r4, r5, r6, pc}
	return HAL_ERROR;
 80044d2:	2501      	movs	r5, #1
 80044d4:	e7fb      	b.n	80044ce <Open_LIN_cannel+0x7a>
 80044d6:	bf00      	nop
 80044d8:	20000d28 	.word	0x20000d28
 80044dc:	40010c00 	.word	0x40010c00
 80044e0:	20002f7c 	.word	0x20002f7c
 80044e4:	20002dbc 	.word	0x20002dbc

080044e8 <Close_LIN_cannel>:

HAL_StatusTypeDef Close_LIN_cannel(void)
{
 80044e8:	b510      	push	{r4, lr}
	HAL_GPIO_WritePin(LIN_EN_GPIO_Port, LIN_EN_Pin, GPIO_PIN_RESET);
	HAL_UART_DeInit(&huart1);
 80044ea:	4c0e      	ldr	r4, [pc, #56]	; (8004524 <Close_LIN_cannel+0x3c>)
	HAL_GPIO_WritePin(LIN_EN_GPIO_Port, LIN_EN_Pin, GPIO_PIN_RESET);
 80044ec:	2200      	movs	r2, #0
 80044ee:	2110      	movs	r1, #16
 80044f0:	480d      	ldr	r0, [pc, #52]	; (8004528 <Close_LIN_cannel+0x40>)
 80044f2:	f7fd f80f 	bl	8001514 <HAL_GPIO_WritePin>
	HAL_UART_DeInit(&huart1);
 80044f6:	4620      	mov	r0, r4
 80044f8:	f7fd ffbd 	bl	8002476 <HAL_UART_DeInit>
	  __HAL_UART_DISABLE_IT(&huart1, UART_IT_RXNE);
 80044fc:	6823      	ldr	r3, [r4, #0]
	  __HAL_UART_DISABLE_IT(&huart1, UART_IT_LBD);
	  __HAL_UART_DISABLE_IT(&huart1, UART_IT_IDLE);
	  __HAL_UART_DISABLE_IT(&huart1, UART_IT_RXNE);
	return HAL_ERROR;
}
 80044fe:	2001      	movs	r0, #1
	  __HAL_UART_DISABLE_IT(&huart1, UART_IT_RXNE);
 8004500:	68da      	ldr	r2, [r3, #12]
 8004502:	f022 0220 	bic.w	r2, r2, #32
 8004506:	60da      	str	r2, [r3, #12]
	  __HAL_UART_DISABLE_IT(&huart1, UART_IT_LBD);
 8004508:	691a      	ldr	r2, [r3, #16]
 800450a:	f022 0240 	bic.w	r2, r2, #64	; 0x40
 800450e:	611a      	str	r2, [r3, #16]
	  __HAL_UART_DISABLE_IT(&huart1, UART_IT_IDLE);
 8004510:	68da      	ldr	r2, [r3, #12]
 8004512:	f022 0210 	bic.w	r2, r2, #16
 8004516:	60da      	str	r2, [r3, #12]
	  __HAL_UART_DISABLE_IT(&huart1, UART_IT_RXNE);
 8004518:	68da      	ldr	r2, [r3, #12]
 800451a:	f022 0220 	bic.w	r2, r2, #32
 800451e:	60da      	str	r2, [r3, #12]
}
 8004520:	bd10      	pop	{r4, pc}
 8004522:	bf00      	nop
 8004524:	20002f7c 	.word	0x20002f7c
 8004528:	40010c00 	.word	0x40010c00

0800452c <Close_CAN_cannel>:
	}
	return HAL_ERROR;
}

HAL_StatusTypeDef Close_CAN_cannel(void)
{
 800452c:	b510      	push	{r4, lr}
	if(HAL_CAN_DeInit(&hcan) == HAL_OK)
 800452e:	4807      	ldr	r0, [pc, #28]	; (800454c <Close_CAN_cannel+0x20>)
 8004530:	f7fc faa8 	bl	8000a84 <HAL_CAN_DeInit>
 8004534:	4604      	mov	r4, r0
 8004536:	b938      	cbnz	r0, 8004548 <Close_CAN_cannel+0x1c>
	{
		HAL_GPIO_WritePin(ERROR_LED_GPIO_Port, ERROR_LED_Pin, GPIO_PIN_RESET);
 8004538:	4602      	mov	r2, r0
 800453a:	f44f 7180 	mov.w	r1, #256	; 0x100
 800453e:	4804      	ldr	r0, [pc, #16]	; (8004550 <Close_CAN_cannel+0x24>)
 8004540:	f7fc ffe8 	bl	8001514 <HAL_GPIO_WritePin>
		return HAL_OK;
	}

	return HAL_ERROR;
}
 8004544:	4620      	mov	r0, r4
 8004546:	bd10      	pop	{r4, pc}
	return HAL_ERROR;
 8004548:	2401      	movs	r4, #1
 800454a:	e7fb      	b.n	8004544 <Close_CAN_cannel+0x18>
 800454c:	20001a5c 	.word	0x20001a5c
 8004550:	40010800 	.word	0x40010800

08004554 <Change_CAN_channel>:

void Change_CAN_channel(void)
{
 8004554:	b510      	push	{r4, lr}
	Close_CAN_cannel();
 8004556:	f7ff ffe9 	bl	800452c <Close_CAN_cannel>
	Close_LIN_cannel();
 800455a:	f7ff ffc5 	bl	80044e8 <Close_LIN_cannel>
	HAL_GPIO_WritePin(HS_CAN_EN_GPIO_Port, HS_CAN_EN_Pin, GPIO_PIN_RESET);
 800455e:	2200      	movs	r2, #0
 8004560:	2180      	movs	r1, #128	; 0x80
 8004562:	4819      	ldr	r0, [pc, #100]	; (80045c8 <Change_CAN_channel+0x74>)
 8004564:	f7fc ffd6 	bl	8001514 <HAL_GPIO_WritePin>
	HAL_GPIO_WritePin(FT_CAN_EN_GPIO_Port, FT_CAN_EN_Pin, GPIO_PIN_RESET);
 8004568:	2200      	movs	r2, #0
 800456a:	2140      	movs	r1, #64	; 0x40
 800456c:	4816      	ldr	r0, [pc, #88]	; (80045c8 <Change_CAN_channel+0x74>)
 800456e:	f7fc ffd1 	bl	8001514 <HAL_GPIO_WritePin>
	HAL_GPIO_WritePin(SW_CAN_EN_GPIO_Port, SW_CAN_EN_Pin, GPIO_PIN_RESET);
 8004572:	2200      	movs	r2, #0
 8004574:	2120      	movs	r1, #32
 8004576:	4814      	ldr	r0, [pc, #80]	; (80045c8 <Change_CAN_channel+0x74>)
 8004578:	f7fc ffcc 	bl	8001514 <HAL_GPIO_WritePin>
	HAL_GPIO_WritePin(LIN_EN_GPIO_Port, LIN_EN_Pin, GPIO_PIN_RESET);
 800457c:	2200      	movs	r2, #0
 800457e:	2110      	movs	r1, #16
 8004580:	4811      	ldr	r0, [pc, #68]	; (80045c8 <Change_CAN_channel+0x74>)
 8004582:	f7fc ffc7 	bl	8001514 <HAL_GPIO_WritePin>

	//SysSettings.numBus++;
	//if(SysSettings.numBus > 4) SysSettings.numBus = 0;

	HAL_Delay(50);
 8004586:	2032      	movs	r0, #50	; 0x32
 8004588:	f7fc f924 	bl	80007d4 <HAL_Delay>

	switch(eeprom_settings.numBus)
 800458c:	4b0f      	ldr	r3, [pc, #60]	; (80045cc <Change_CAN_channel+0x78>)
 800458e:	7a1b      	ldrb	r3, [r3, #8]
 8004590:	2b03      	cmp	r3, #3
 8004592:	d808      	bhi.n	80045a6 <Change_CAN_channel+0x52>
 8004594:	e8df f003 	tbb	[pc, r3]
 8004598:	15120f02 	.word	0x15120f02
	{
	default: break;
	case 0: HAL_GPIO_WritePin(HS_CAN_EN_GPIO_Port, HS_CAN_EN_Pin, GPIO_PIN_SET); break;
 800459c:	2201      	movs	r2, #1
 800459e:	2180      	movs	r1, #128	; 0x80
	case 1: HAL_GPIO_WritePin(FT_CAN_EN_GPIO_Port, FT_CAN_EN_Pin, GPIO_PIN_SET); break;
	case 2: HAL_GPIO_WritePin(SW_CAN_EN_GPIO_Port, SW_CAN_EN_Pin, GPIO_PIN_SET); break;
	case 3: HAL_GPIO_WritePin(LIN_EN_GPIO_Port, LIN_EN_Pin, GPIO_PIN_SET); break;
 80045a0:	4809      	ldr	r0, [pc, #36]	; (80045c8 <Change_CAN_channel+0x74>)
 80045a2:	f7fc ffb7 	bl	8001514 <HAL_GPIO_WritePin>
	}

	EEPROM_Write(&hspi2,
			EEPROM_SETINGS_ADDR + ((uint32_t)&eeprom_settings.numBus - (uint32_t)&eeprom_settings),
			(uint8_t*)&eeprom_settings.numBus, sizeof(eeprom_settings.numBus));
}
 80045a6:	e8bd 4010 	ldmia.w	sp!, {r4, lr}
	EEPROM_Write(&hspi2,
 80045aa:	2301      	movs	r3, #1
 80045ac:	2108      	movs	r1, #8
 80045ae:	4a08      	ldr	r2, [pc, #32]	; (80045d0 <Change_CAN_channel+0x7c>)
 80045b0:	4808      	ldr	r0, [pc, #32]	; (80045d4 <Change_CAN_channel+0x80>)
 80045b2:	f001 bd97 	b.w	80060e4 <EEPROM_Write>
	case 1: HAL_GPIO_WritePin(FT_CAN_EN_GPIO_Port, FT_CAN_EN_Pin, GPIO_PIN_SET); break;
 80045b6:	2201      	movs	r2, #1
 80045b8:	2140      	movs	r1, #64	; 0x40
 80045ba:	e7f1      	b.n	80045a0 <Change_CAN_channel+0x4c>
	case 2: HAL_GPIO_WritePin(SW_CAN_EN_GPIO_Port, SW_CAN_EN_Pin, GPIO_PIN_SET); break;
 80045bc:	2201      	movs	r2, #1
 80045be:	2120      	movs	r1, #32
 80045c0:	e7ee      	b.n	80045a0 <Change_CAN_channel+0x4c>
	case 3: HAL_GPIO_WritePin(LIN_EN_GPIO_Port, LIN_EN_Pin, GPIO_PIN_SET); break;
 80045c2:	2201      	movs	r2, #1
 80045c4:	2110      	movs	r1, #16
 80045c6:	e7eb      	b.n	80045a0 <Change_CAN_channel+0x4c>
 80045c8:	40010c00 	.word	0x40010c00
 80045cc:	20000d28 	.word	0x20000d28
 80045d0:	20000d30 	.word	0x20000d30
 80045d4:	20002dbc 	.word	0x20002dbc

080045d8 <HAL_CAN_TxMailbox0CompleteCallback>:
}

void HAL_CAN_TxMailbox0CompleteCallback(CAN_HandleTypeDef *hcan)
{
	//HAL_GPIO_WritePin(TX_LED_GPIO_Port, TX_LED_Pin, GPIO_PIN_RESET);
}
 80045d8:	4770      	bx	lr

080045da <HAL_CAN_TxMailbox1CompleteCallback>:
 80045da:	4770      	bx	lr

080045dc <HAL_CAN_TxMailbox2CompleteCallback>:
 80045dc:	4770      	bx	lr
	...

080045e0 <STM_bxCAN_calc>:
#define MAX_TQ  (MAX_TQ1 + MAX_TQ2 + 1) //25

#define SAMPE_POINT 0.875f //0.75f

void STM_bxCAN_calc(uint32_t freq, float bitrate, CAN_HandleTypeDef * hcan)
{
 80045e0:	e92d 4ff0 	stmdb	sp!, {r4, r5, r6, r7, r8, r9, sl, fp, lr}
 80045e4:	4688      	mov	r8, r1
 80045e6:	b085      	sub	sp, #20
 80045e8:	9002      	str	r0, [sp, #8]
    uint32_t brpresc;
    float number_of_time_quanta;
    uint32_t ceil_of_time_quanta;
    float real_sp, best_sp = 0;

    if(bitrate > 4000000.0f || bitrate < 2000.0f) return;
 80045ea:	4946      	ldr	r1, [pc, #280]	; (8004704 <STM_bxCAN_calc+0x124>)
 80045ec:	4640      	mov	r0, r8
{
 80045ee:	4617      	mov	r7, r2
    if(bitrate > 4000000.0f || bitrate < 2000.0f) return;
 80045f0:	f7fc f87e 	bl	80006f0 <__aeabi_fcmpgt>
 80045f4:	2800      	cmp	r0, #0
 80045f6:	d17f      	bne.n	80046f8 <STM_bxCAN_calc+0x118>
 80045f8:	4640      	mov	r0, r8
 80045fa:	4943      	ldr	r1, [pc, #268]	; (8004708 <STM_bxCAN_calc+0x128>)
 80045fc:	f7fc f85a 	bl	80006b4 <__aeabi_fcmplt>
 8004600:	4605      	mov	r5, r0
 8004602:	2800      	cmp	r0, #0
 8004604:	d178      	bne.n	80046f8 <STM_bxCAN_calc+0x118>
    float real_sp, best_sp = 0;
 8004606:	2300      	movs	r3, #0
 8004608:	9301      	str	r3, [sp, #4]
    float accuracy, best_accuracy = 1;
 800460a:	f04f 537e 	mov.w	r3, #1065353216	; 0x3f800000
        if(accuracy < 0.00001f) accuracy = 0.0f;

        //if(accuracy > 0.5f) continue;

        temp_reg.Init.Prescaler = brpresc;
        temp_reg.Init.TimeSeg1 = (roundf(ceil_of_time_quanta * SAMPE_POINT)) - 1;
 800460e:	f8df a100 	ldr.w	sl, [pc, #256]	; 8004710 <STM_bxCAN_calc+0x130>
    float accuracy, best_accuracy = 1;
 8004612:	9300      	str	r3, [sp, #0]
        number_of_time_quanta = freq / (bitrate * brpresc);
 8004614:	9802      	ldr	r0, [sp, #8]
 8004616:	f7fb fe57 	bl	80002c8 <__aeabi_ui2f>
        brpresc = i+1;
 800461a:	3501      	adds	r5, #1
        number_of_time_quanta = freq / (bitrate * brpresc);
 800461c:	4604      	mov	r4, r0
 800461e:	4628      	mov	r0, r5
 8004620:	f7fb fe52 	bl	80002c8 <__aeabi_ui2f>
 8004624:	4641      	mov	r1, r8
 8004626:	f7fb fea7 	bl	8000378 <__aeabi_fmul>
 800462a:	4601      	mov	r1, r0
 800462c:	4620      	mov	r0, r4
 800462e:	f7fb ff57 	bl	80004e0 <__aeabi_fdiv>
 8004632:	4606      	mov	r6, r0
        ceil_of_time_quanta = roundf(number_of_time_quanta);
 8004634:	f003 fec0 	bl	80083b8 <roundf>
 8004638:	f7fc f864 	bl	8000704 <__aeabi_f2uiz>
        if(ceil_of_time_quanta < MIN_TQ) break;
 800463c:	2807      	cmp	r0, #7
        ceil_of_time_quanta = roundf(number_of_time_quanta);
 800463e:	4604      	mov	r4, r0
        if(ceil_of_time_quanta < MIN_TQ) break;
 8004640:	d95a      	bls.n	80046f8 <STM_bxCAN_calc+0x118>
        if(ceil_of_time_quanta > MAX_TQ) continue;
 8004642:	2819      	cmp	r0, #25
 8004644:	d855      	bhi.n	80046f2 <STM_bxCAN_calc+0x112>
        accuracy = fabsf(number_of_time_quanta - ceil_of_time_quanta);
 8004646:	f7fb fe3f 	bl	80002c8 <__aeabi_ui2f>
 800464a:	4601      	mov	r1, r0
 800464c:	4683      	mov	fp, r0
 800464e:	4630      	mov	r0, r6
 8004650:	f7fb fd88 	bl	8000164 <__aeabi_fsub>
 8004654:	f020 4600 	bic.w	r6, r0, #2147483648	; 0x80000000
        if(accuracy < 0.00001f) accuracy = 0.0f;
 8004658:	4630      	mov	r0, r6
 800465a:	492c      	ldr	r1, [pc, #176]	; (800470c <STM_bxCAN_calc+0x12c>)
 800465c:	f7fc f82a 	bl	80006b4 <__aeabi_fcmplt>
 8004660:	b100      	cbz	r0, 8004664 <STM_bxCAN_calc+0x84>
 8004662:	2600      	movs	r6, #0
        temp_reg.Init.TimeSeg1 = (roundf(ceil_of_time_quanta * SAMPE_POINT)) - 1;
 8004664:	4651      	mov	r1, sl
 8004666:	4658      	mov	r0, fp
 8004668:	f7fb fe86 	bl	8000378 <__aeabi_fmul>
 800466c:	f003 fea4 	bl	80083b8 <roundf>
 8004670:	f04f 517e 	mov.w	r1, #1065353216	; 0x3f800000
 8004674:	f7fb fd76 	bl	8000164 <__aeabi_fsub>
 8004678:	f7fc f844 	bl	8000704 <__aeabi_f2uiz>
        temp_reg.Init.TimeSeg2 = ceil_of_time_quanta - temp_reg.Init.TimeSeg1 - 1;
 800467c:	3c01      	subs	r4, #1

        if(temp_reg.Init.TimeSeg1 > MAX_TQ1 || temp_reg.Init.TimeSeg2 > MAX_TQ2) continue;
 800467e:	2810      	cmp	r0, #16
        temp_reg.Init.TimeSeg1 = (roundf(ceil_of_time_quanta * SAMPE_POINT)) - 1;
 8004680:	4681      	mov	r9, r0
        temp_reg.Init.TimeSeg2 = ceil_of_time_quanta - temp_reg.Init.TimeSeg1 - 1;
 8004682:	eba4 0400 	sub.w	r4, r4, r0
        if(temp_reg.Init.TimeSeg1 > MAX_TQ1 || temp_reg.Init.TimeSeg2 > MAX_TQ2) continue;
 8004686:	d834      	bhi.n	80046f2 <STM_bxCAN_calc+0x112>
 8004688:	2c08      	cmp	r4, #8
 800468a:	d832      	bhi.n	80046f2 <STM_bxCAN_calc+0x112>

        if(temp_reg.Init.TimeSeg2 < 1 && temp_reg.Init.TimeSeg1 >=1)
 800468c:	b924      	cbnz	r4, 8004698 <STM_bxCAN_calc+0xb8>
 800468e:	2800      	cmp	r0, #0
 8004690:	d035      	beq.n	80046fe <STM_bxCAN_calc+0x11e>
        {
            temp_reg.Init.TimeSeg2 +=1;
 8004692:	2401      	movs	r4, #1
            temp_reg.Init.TimeSeg1 -=1;
 8004694:	f100 39ff 	add.w	r9, r0, #4294967295
        }

        real_sp = ((float)(temp_reg.Init.TimeSeg1 + 1) / (float)ceil_of_time_quanta);
 8004698:	f109 0001 	add.w	r0, r9, #1
 800469c:	f7fb fe14 	bl	80002c8 <__aeabi_ui2f>
 80046a0:	4659      	mov	r1, fp
 80046a2:	f7fb ff1d 	bl	80004e0 <__aeabi_fdiv>

        //if(real_sp < 0.5f) continue;

        if((accuracy < best_accuracy) || ((accuracy == 0.0f) && (fabsf(real_sp - SAMPE_POINT) < fabsf(best_sp - SAMPE_POINT)) && (temp_reg.Init.TimeSeg2 == hcan->Init.TimeSeg2)))
 80046a6:	9900      	ldr	r1, [sp, #0]
        real_sp = ((float)(temp_reg.Init.TimeSeg1 + 1) / (float)ceil_of_time_quanta);
 80046a8:	4683      	mov	fp, r0
        if((accuracy < best_accuracy) || ((accuracy == 0.0f) && (fabsf(real_sp - SAMPE_POINT) < fabsf(best_sp - SAMPE_POINT)) && (temp_reg.Init.TimeSeg2 == hcan->Init.TimeSeg2)))
 80046aa:	4630      	mov	r0, r6
 80046ac:	f7fc f802 	bl	80006b4 <__aeabi_fcmplt>
 80046b0:	b9c8      	cbnz	r0, 80046e6 <STM_bxCAN_calc+0x106>
 80046b2:	2100      	movs	r1, #0
 80046b4:	4630      	mov	r0, r6
 80046b6:	f7fb fff3 	bl	80006a0 <__aeabi_fcmpeq>
 80046ba:	b1d0      	cbz	r0, 80046f2 <STM_bxCAN_calc+0x112>
 80046bc:	4651      	mov	r1, sl
 80046be:	4658      	mov	r0, fp
 80046c0:	f7fb fd50 	bl	8000164 <__aeabi_fsub>
 80046c4:	4651      	mov	r1, sl
 80046c6:	f020 4200 	bic.w	r2, r0, #2147483648	; 0x80000000
 80046ca:	9801      	ldr	r0, [sp, #4]
 80046cc:	9203      	str	r2, [sp, #12]
 80046ce:	f7fb fd49 	bl	8000164 <__aeabi_fsub>
 80046d2:	9a03      	ldr	r2, [sp, #12]
 80046d4:	f020 4100 	bic.w	r1, r0, #2147483648	; 0x80000000
 80046d8:	4610      	mov	r0, r2
 80046da:	f7fb ffeb 	bl	80006b4 <__aeabi_fcmplt>
 80046de:	b140      	cbz	r0, 80046f2 <STM_bxCAN_calc+0x112>
 80046e0:	697a      	ldr	r2, [r7, #20]
 80046e2:	4294      	cmp	r4, r2
 80046e4:	d105      	bne.n	80046f2 <STM_bxCAN_calc+0x112>
        {
            hcan->Init.Prescaler = temp_reg.Init.Prescaler;
            hcan->Init.TimeSeg1 = temp_reg.Init.TimeSeg1;
            hcan->Init.TimeSeg2 = temp_reg.Init.TimeSeg2;
 80046e6:	e9c7 9404 	strd	r9, r4, [r7, #16]
            hcan->Init.Prescaler = temp_reg.Init.Prescaler;
 80046ea:	607d      	str	r5, [r7, #4]
            best_accuracy = accuracy;
            best_sp = real_sp;
 80046ec:	f8cd b004 	str.w	fp, [sp, #4]
            best_accuracy = accuracy;
 80046f0:	9600      	str	r6, [sp, #0]
    for(uint32_t i = 0; i < MAX_BRP; i++)
 80046f2:	f5b5 6f80 	cmp.w	r5, #1024	; 0x400
 80046f6:	d18d      	bne.n	8004614 <STM_bxCAN_calc+0x34>
        }
    }

}
 80046f8:	b005      	add	sp, #20
 80046fa:	e8bd 8ff0 	ldmia.w	sp!, {r4, r5, r6, r7, r8, r9, sl, fp, pc}
        temp_reg.Init.TimeSeg2 = ceil_of_time_quanta - temp_reg.Init.TimeSeg1 - 1;
 80046fe:	4604      	mov	r4, r0
 8004700:	e7ca      	b.n	8004698 <STM_bxCAN_calc+0xb8>
 8004702:	bf00      	nop
 8004704:	4a742400 	.word	0x4a742400
 8004708:	44fa0000 	.word	0x44fa0000
 800470c:	3727c5ac 	.word	0x3727c5ac
 8004710:	3f600000 	.word	0x3f600000

08004714 <CAN_Init_Custom>:
{
 8004714:	b538      	push	{r3, r4, r5, lr}
	switch(speed)
 8004716:	4b3f      	ldr	r3, [pc, #252]	; (8004814 <CAN_Init_Custom+0x100>)
{
 8004718:	460d      	mov	r5, r1
	switch(speed)
 800471a:	4298      	cmp	r0, r3
 800471c:	4c3e      	ldr	r4, [pc, #248]	; (8004818 <CAN_Init_Custom+0x104>)
 800471e:	d06c      	beq.n	80047fa <CAN_Init_Custom+0xe6>
 8004720:	d826      	bhi.n	8004770 <CAN_Init_Custom+0x5c>
 8004722:	f644 6320 	movw	r3, #20000	; 0x4e20
 8004726:	4298      	cmp	r0, r3
 8004728:	d060      	beq.n	80047ec <CAN_Init_Custom+0xd8>
 800472a:	d813      	bhi.n	8004754 <CAN_Init_Custom+0x40>
 800472c:	f242 038d 	movw	r3, #8333	; 0x208d
 8004730:	4298      	cmp	r0, r3
 8004732:	d06c      	beq.n	800480e <CAN_Init_Custom+0xfa>
 8004734:	f242 7310 	movw	r3, #10000	; 0x2710
 8004738:	4298      	cmp	r0, r3
 800473a:	d05c      	beq.n	80047f6 <CAN_Init_Custom+0xe2>
 800473c:	f241 3388 	movw	r3, #5000	; 0x1388
 8004740:	4298      	cmp	r0, r3
 8004742:	d061      	beq.n	8004808 <CAN_Init_Custom+0xf4>
			STM_bxCAN_calc(36000000UL, speed, &hcan);
 8004744:	f7fb fdc0 	bl	80002c8 <__aeabi_ui2f>
 8004748:	4a33      	ldr	r2, [pc, #204]	; (8004818 <CAN_Init_Custom+0x104>)
 800474a:	4601      	mov	r1, r0
 800474c:	4833      	ldr	r0, [pc, #204]	; (800481c <CAN_Init_Custom+0x108>)
 800474e:	f7ff ff47 	bl	80045e0 <STM_bxCAN_calc>
			break;
 8004752:	e02c      	b.n	80047ae <CAN_Init_Custom+0x9a>
	switch(speed)
 8004754:	f64b 2303 	movw	r3, #47619	; 0xba03
 8004758:	4298      	cmp	r0, r3
 800475a:	d053      	beq.n	8004804 <CAN_Init_Custom+0xf0>
 800475c:	f24c 3350 	movw	r3, #50000	; 0xc350
 8004760:	4298      	cmp	r0, r3
 8004762:	d041      	beq.n	80047e8 <CAN_Init_Custom+0xd4>
 8004764:	f248 2335 	movw	r3, #33333	; 0x8235
 8004768:	4298      	cmp	r0, r3
 800476a:	d1eb      	bne.n	8004744 <CAN_Init_Custom+0x30>
			hcan.Init.Prescaler = 72;
 800476c:	2348      	movs	r3, #72	; 0x48
 800476e:	e03e      	b.n	80047ee <CAN_Init_Custom+0xda>
	switch(speed)
 8004770:	4b2b      	ldr	r3, [pc, #172]	; (8004820 <CAN_Init_Custom+0x10c>)
 8004772:	4298      	cmp	r0, r3
 8004774:	d029      	beq.n	80047ca <CAN_Init_Custom+0xb6>
 8004776:	d80d      	bhi.n	8004794 <CAN_Init_Custom+0x80>
 8004778:	4b2a      	ldr	r3, [pc, #168]	; (8004824 <CAN_Init_Custom+0x110>)
 800477a:	4298      	cmp	r0, r3
 800477c:	d032      	beq.n	80047e4 <CAN_Init_Custom+0xd0>
 800477e:	4b2a      	ldr	r3, [pc, #168]	; (8004828 <CAN_Init_Custom+0x114>)
 8004780:	4298      	cmp	r0, r3
 8004782:	d02a      	beq.n	80047da <CAN_Init_Custom+0xc6>
 8004784:	4b29      	ldr	r3, [pc, #164]	; (800482c <CAN_Init_Custom+0x118>)
 8004786:	4298      	cmp	r0, r3
 8004788:	d1dc      	bne.n	8004744 <CAN_Init_Custom+0x30>
			hcan.Init.Prescaler = 45;
 800478a:	232d      	movs	r3, #45	; 0x2d
 800478c:	6063      	str	r3, [r4, #4]
			hcan.Init.TimeSeg1 = CAN_BS1_6TQ;
 800478e:	f44f 23a0 	mov.w	r3, #327680	; 0x50000
 8004792:	e009      	b.n	80047a8 <CAN_Init_Custom+0x94>
	switch(speed)
 8004794:	4b26      	ldr	r3, [pc, #152]	; (8004830 <CAN_Init_Custom+0x11c>)
 8004796:	4298      	cmp	r0, r3
 8004798:	d015      	beq.n	80047c6 <CAN_Init_Custom+0xb2>
 800479a:	4b26      	ldr	r3, [pc, #152]	; (8004834 <CAN_Init_Custom+0x120>)
 800479c:	4298      	cmp	r0, r3
 800479e:	d1d1      	bne.n	8004744 <CAN_Init_Custom+0x30>
			hcan.Init.Prescaler = 4;
 80047a0:	2304      	movs	r3, #4
			hcan.Init.Prescaler = 5;
 80047a2:	6063      	str	r3, [r4, #4]
			hcan.Init.TimeSeg1 = CAN_BS1_7TQ;
 80047a4:	f44f 23c0 	mov.w	r3, #393216	; 0x60000
 80047a8:	6123      	str	r3, [r4, #16]
			hcan.Init.TimeSeg2 = CAN_BS2_1TQ;
 80047aa:	2300      	movs	r3, #0
 80047ac:	6163      	str	r3, [r4, #20]
  hcan.Instance = CAN1;
 80047ae:	4b22      	ldr	r3, [pc, #136]	; (8004838 <CAN_Init_Custom+0x124>)
  hcan.Init.Mode = mode; //CAN_MODE_NORMAL;
 80047b0:	60a5      	str	r5, [r4, #8]
  hcan.Instance = CAN1;
 80047b2:	6023      	str	r3, [r4, #0]
  hcan.Init.SyncJumpWidth = CAN_SJW_1TQ;
 80047b4:	2300      	movs	r3, #0
  return HAL_CAN_Init(&hcan);
 80047b6:	4818      	ldr	r0, [pc, #96]	; (8004818 <CAN_Init_Custom+0x104>)
  hcan.Init.SyncJumpWidth = CAN_SJW_1TQ;
 80047b8:	60e3      	str	r3, [r4, #12]
  hcan.Init.TimeTriggeredMode = DISABLE;
 80047ba:	61a3      	str	r3, [r4, #24]
  hcan.Init.ReceiveFifoLocked = DISABLE;
 80047bc:	83a3      	strh	r3, [r4, #28]
}
 80047be:	e8bd 4038 	ldmia.w	sp!, {r3, r4, r5, lr}
  return HAL_CAN_Init(&hcan);
 80047c2:	f7fc b819 	b.w	80007f8 <HAL_CAN_Init>
			hcan.Init.Prescaler = 5;
 80047c6:	2305      	movs	r3, #5
 80047c8:	e7eb      	b.n	80047a2 <CAN_Init_Custom+0x8e>
			hcan.Init.Prescaler = 4;
 80047ca:	2304      	movs	r3, #4
 80047cc:	6063      	str	r3, [r4, #4]
			hcan.Init.TimeSeg1 = CAN_BS1_15TQ;
 80047ce:	f44f 2360 	mov.w	r3, #917504	; 0xe0000
			hcan.Init.TimeSeg1 = CAN_BS1_12TQ;
 80047d2:	6123      	str	r3, [r4, #16]
			hcan.Init.TimeSeg2 = CAN_BS2_2TQ;
 80047d4:	f44f 1380 	mov.w	r3, #1048576	; 0x100000
 80047d8:	e7e8      	b.n	80047ac <CAN_Init_Custom+0x98>
			hcan.Init.Prescaler = 9;
 80047da:	2309      	movs	r3, #9
			hcan.Init.Prescaler = 270;
 80047dc:	6063      	str	r3, [r4, #4]
			hcan.Init.TimeSeg1 = CAN_BS1_13TQ;
 80047de:	f44f 2340 	mov.w	r3, #786432	; 0xc0000
 80047e2:	e7f6      	b.n	80047d2 <CAN_Init_Custom+0xbe>
			hcan.Init.Prescaler = 18;
 80047e4:	2312      	movs	r3, #18
 80047e6:	e7f9      	b.n	80047dc <CAN_Init_Custom+0xc8>
			hcan.Init.Prescaler = 45;
 80047e8:	232d      	movs	r3, #45	; 0x2d
 80047ea:	e7f7      	b.n	80047dc <CAN_Init_Custom+0xc8>
			hcan.Init.Prescaler = 120;
 80047ec:	2378      	movs	r3, #120	; 0x78
			hcan.Init.Prescaler = 72;
 80047ee:	6063      	str	r3, [r4, #4]
			hcan.Init.TimeSeg1 = CAN_BS1_12TQ;
 80047f0:	f44f 2330 	mov.w	r3, #720896	; 0xb0000
 80047f4:	e7ed      	b.n	80047d2 <CAN_Init_Custom+0xbe>
			hcan.Init.Prescaler = 255;
 80047f6:	23ff      	movs	r3, #255	; 0xff
 80047f8:	e7f0      	b.n	80047dc <CAN_Init_Custom+0xc8>
			hcan.Init.Prescaler = 27;
 80047fa:	231b      	movs	r3, #27
			hcan.Init.Prescaler = 54;
 80047fc:	6063      	str	r3, [r4, #4]
			hcan.Init.TimeSeg1 = CAN_BS1_11TQ;
 80047fe:	f44f 2320 	mov.w	r3, #655360	; 0xa0000
 8004802:	e7e6      	b.n	80047d2 <CAN_Init_Custom+0xbe>
			hcan.Init.Prescaler = 54;
 8004804:	2336      	movs	r3, #54	; 0x36
 8004806:	e7f9      	b.n	80047fc <CAN_Init_Custom+0xe8>
			hcan.Init.Prescaler = 450;
 8004808:	f44f 73e1 	mov.w	r3, #450	; 0x1c2
 800480c:	e7e6      	b.n	80047dc <CAN_Init_Custom+0xc8>
			hcan.Init.Prescaler = 270;
 800480e:	f44f 7387 	mov.w	r3, #270	; 0x10e
 8004812:	e7e3      	b.n	80047dc <CAN_Init_Custom+0xc8>
 8004814:	00017406 	.word	0x00017406
 8004818:	20001a5c 	.word	0x20001a5c
 800481c:	02255100 	.word	0x02255100
 8004820:	0007a120 	.word	0x0007a120
 8004824:	0001e848 	.word	0x0001e848
 8004828:	0003d090 	.word	0x0003d090
 800482c:	000186a0 	.word	0x000186a0
 8004830:	000c3500 	.word	0x000c3500
 8004834:	000f4240 	.word	0x000f4240
 8004838:	40006400 	.word	0x40006400

0800483c <Open_CAN_cannel>:
{
 800483c:	b510      	push	{r4, lr}
	if(CAN_Init_Custom(eeprom_settings.CAN_Speed[eeprom_settings.numBus], eeprom_settings.CAN_mode[eeprom_settings.numBus]) == HAL_OK)//);CAN_MODE_LOOPBACK
 800483e:	4c1b      	ldr	r4, [pc, #108]	; (80048ac <Open_CAN_cannel+0x70>)
	Change_CAN_channel();
 8004840:	f7ff fe88 	bl	8004554 <Change_CAN_channel>
	if(CAN_Init_Custom(eeprom_settings.CAN_Speed[eeprom_settings.numBus], eeprom_settings.CAN_mode[eeprom_settings.numBus]) == HAL_OK)//);CAN_MODE_LOOPBACK
 8004844:	7a23      	ldrb	r3, [r4, #8]
 8004846:	3302      	adds	r3, #2
 8004848:	eb04 0383 	add.w	r3, r4, r3, lsl #2
 800484c:	6858      	ldr	r0, [r3, #4]
 800484e:	7a23      	ldrb	r3, [r4, #8]
 8004850:	330c      	adds	r3, #12
 8004852:	eb04 0383 	add.w	r3, r4, r3, lsl #2
 8004856:	6859      	ldr	r1, [r3, #4]
 8004858:	f7ff ff5c 	bl	8004714 <CAN_Init_Custom>
 800485c:	b108      	cbz	r0, 8004862 <Open_CAN_cannel+0x26>
	return HAL_ERROR;
 800485e:	2001      	movs	r0, #1
}
 8004860:	bd10      	pop	{r4, pc}
				EEPROM_SETINGS_ADDR + ((uint32_t)&eeprom_settings.CAN_Speed[eeprom_settings.numBus] - (uint32_t)&eeprom_settings),
 8004862:	7a21      	ldrb	r1, [r4, #8]
				(uint8_t*)&eeprom_settings.CAN_Speed[eeprom_settings.numBus], sizeof(eeprom_settings.CAN_Speed[eeprom_settings.numBus]));
 8004864:	7a22      	ldrb	r2, [r4, #8]
		EEPROM_Write(&hspi2,
 8004866:	3103      	adds	r1, #3
				(uint8_t*)&eeprom_settings.CAN_Speed[eeprom_settings.numBus], sizeof(eeprom_settings.CAN_Speed[eeprom_settings.numBus]));
 8004868:	3203      	adds	r2, #3
		EEPROM_Write(&hspi2,
 800486a:	2304      	movs	r3, #4
 800486c:	eb04 0282 	add.w	r2, r4, r2, lsl #2
 8004870:	0089      	lsls	r1, r1, #2
 8004872:	480f      	ldr	r0, [pc, #60]	; (80048b0 <Open_CAN_cannel+0x74>)
 8004874:	f001 fc36 	bl	80060e4 <EEPROM_Write>
				EEPROM_SETINGS_ADDR + ((uint32_t)&eeprom_settings.CAN_mode[eeprom_settings.numBus] - (uint32_t)&eeprom_settings),
 8004878:	7a21      	ldrb	r1, [r4, #8]
				(uint8_t*)&eeprom_settings.CAN_mode[eeprom_settings.numBus], sizeof(eeprom_settings.CAN_mode[eeprom_settings.numBus]));
 800487a:	7a22      	ldrb	r2, [r4, #8]
		EEPROM_Write(&hspi2,
 800487c:	310d      	adds	r1, #13
				(uint8_t*)&eeprom_settings.CAN_mode[eeprom_settings.numBus], sizeof(eeprom_settings.CAN_mode[eeprom_settings.numBus]));
 800487e:	320d      	adds	r2, #13
		EEPROM_Write(&hspi2,
 8004880:	2304      	movs	r3, #4
 8004882:	480b      	ldr	r0, [pc, #44]	; (80048b0 <Open_CAN_cannel+0x74>)
 8004884:	eb04 0282 	add.w	r2, r4, r2, lsl #2
 8004888:	0089      	lsls	r1, r1, #2
 800488a:	f001 fc2b 	bl	80060e4 <EEPROM_Write>
		  if(HAL_CAN_Start(&hcan) != HAL_OK) return HAL_ERROR;
 800488e:	4809      	ldr	r0, [pc, #36]	; (80048b4 <Open_CAN_cannel+0x78>)
 8004890:	f7fc f89c 	bl	80009cc <HAL_CAN_Start>
 8004894:	2800      	cmp	r0, #0
 8004896:	d1e2      	bne.n	800485e <Open_CAN_cannel+0x22>
		  if(HAL_CAN_ActivateNotification(&hcan, CAN_IT_RX_FIFO0_MSG_PENDING |
 8004898:	f240 413e 	movw	r1, #1086	; 0x43e
 800489c:	4805      	ldr	r0, [pc, #20]	; (80048b4 <Open_CAN_cannel+0x78>)
 800489e:	f7fc f9ca 	bl	8000c36 <HAL_CAN_ActivateNotification>
		  if(HAL_CAN_Start(&hcan) != HAL_OK) return HAL_ERROR;
 80048a2:	3800      	subs	r0, #0
 80048a4:	bf18      	it	ne
 80048a6:	2001      	movne	r0, #1
 80048a8:	e7da      	b.n	8004860 <Open_CAN_cannel+0x24>
 80048aa:	bf00      	nop
 80048ac:	20000d28 	.word	0x20000d28
 80048b0:	20002dbc 	.word	0x20002dbc
 80048b4:	20001a5c 	.word	0x20001a5c

080048b8 <exec_usb_cmd>:
{
 80048b8:	e92d 43f0 	stmdb	sp!, {r4, r5, r6, r7, r8, r9, lr}
 80048bc:	b08d      	sub	sp, #52	; 0x34
 80048be:	4604      	mov	r4, r0
    uint8_t cmd_len = strlen ((char *)cmd_buf);	// get command length
 80048c0:	f7fb fc44 	bl	800014c <strlen>
    if(conf.scpipt_saving == true && cmd_buf[0] != PROGRAM_SCRIPT)
 80048c4:	4d9d      	ldr	r5, [pc, #628]	; (8004b3c <exec_usb_cmd+0x284>)
    uint8_t cmd_len = strlen ((char *)cmd_buf);	// get command length
 80048c6:	b2c6      	uxtb	r6, r0
    if(conf.scpipt_saving == true && cmd_buf[0] != PROGRAM_SCRIPT)
 80048c8:	79eb      	ldrb	r3, [r5, #7]
 80048ca:	2b01      	cmp	r3, #1
 80048cc:	d106      	bne.n	80048dc <exec_usb_cmd+0x24>
 80048ce:	7823      	ldrb	r3, [r4, #0]
 80048d0:	2b50      	cmp	r3, #80	; 0x50
 80048d2:	d003      	beq.n	80048dc <exec_usb_cmd+0x24>
    	save_script(cmd_buf, cmd_len);
 80048d4:	4631      	mov	r1, r6
 80048d6:	4620      	mov	r0, r4
 80048d8:	f7ff fd4a 	bl	8004370 <save_script>
    switch (cmd_buf[0]) {
 80048dc:	7822      	ldrb	r2, [r4, #0]
 80048de:	f1a2 0321 	sub.w	r3, r2, #33	; 0x21
 80048e2:	2b57      	cmp	r3, #87	; 0x57
 80048e4:	f200 80bf 	bhi.w	8004a66 <exec_usb_cmd+0x1ae>
 80048e8:	e8df f013 	tbh	[pc, r3, lsl #1]
 80048ec:	00bd0558 	.word	0x00bd0558
 80048f0:	00bd00bd 	.word	0x00bd00bd
 80048f4:	00bd00bd 	.word	0x00bd00bd
 80048f8:	00bd00bd 	.word	0x00bd00bd
 80048fc:	00bd00bd 	.word	0x00bd00bd
 8004900:	00bd00bd 	.word	0x00bd00bd
 8004904:	00bd00bd 	.word	0x00bd00bd
 8004908:	00bd00bd 	.word	0x00bd00bd
 800490c:	00bd00bd 	.word	0x00bd00bd
 8004910:	00bd00bd 	.word	0x00bd00bd
 8004914:	00bd00bd 	.word	0x00bd00bd
 8004918:	00bd00bd 	.word	0x00bd00bd
 800491c:	00bd00bd 	.word	0x00bd00bd
 8004920:	00bd00bd 	.word	0x00bd00bd
 8004924:	00bd00bd 	.word	0x00bd00bd
 8004928:	00bd0552 	.word	0x00bd0552
 800492c:	048a0066 	.word	0x048a0066
 8004930:	04bf0261 	.word	0x04bf0261
 8004934:	009c0066 	.word	0x009c0066
 8004938:	04eb0066 	.word	0x04eb0066
 800493c:	04b700bd 	.word	0x04b700bd
 8004940:	041600bd 	.word	0x041600bd
 8004944:	005800b2 	.word	0x005800b2
 8004948:	0499023e 	.word	0x0499023e
 800494c:	036e00bd 	.word	0x036e00bd
 8004950:	03950158 	.word	0x03950158
 8004954:	006a0429 	.word	0x006a0429
 8004958:	04e10066 	.word	0x04e10066
 800495c:	008d00bd 	.word	0x008d00bd
 8004960:	00bd00bd 	.word	0x00bd00bd
 8004964:	00bd00bd 	.word	0x00bd00bd
 8004968:	00bd00bd 	.word	0x00bd00bd
 800496c:	00bd00bd 	.word	0x00bd00bd
 8004970:	00bd00bd 	.word	0x00bd00bd
 8004974:	00fb00bd 	.word	0x00fb00bd
 8004978:	04e600bd 	.word	0x04e600bd
 800497c:	00bd00bd 	.word	0x00bd00bd
 8004980:	054500bd 	.word	0x054500bd
 8004984:	00bd00b2 	.word	0x00bd00b2
 8004988:	00bd00bd 	.word	0x00bd00bd
 800498c:	028a00bd 	.word	0x028a00bd
 8004990:	02e30132 	.word	0x02e30132
 8004994:	007c045f 	.word	0x007c045f
 8004998:	04dd00bd 	.word	0x04dd00bd
        	uart_tx_com_bufer[uart_tx_pointer++] = GET_SERIAL;
 800499c:	214e      	movs	r1, #78	; 0x4e
 800499e:	4868      	ldr	r0, [pc, #416]	; (8004b40 <exec_usb_cmd+0x288>)
 80049a0:	4b68      	ldr	r3, [pc, #416]	; (8004b44 <exec_usb_cmd+0x28c>)
 80049a2:	6802      	ldr	r2, [r0, #0]
 80049a4:	5499      	strb	r1, [r3, r2]
            uart_tx_com_bufer[uart_tx_pointer++] = '0';
 80049a6:	4413      	add	r3, r2
            uart_tx_com_bufer[uart_tx_pointer++] = '1';
 80049a8:	3205      	adds	r2, #5
            uart_tx_com_bufer[uart_tx_pointer++] = '0';
 80049aa:	2130      	movs	r1, #48	; 0x30
            uart_tx_com_bufer[uart_tx_pointer++] = '1';
 80049ac:	6002      	str	r2, [r0, #0]
 80049ae:	2231      	movs	r2, #49	; 0x31
            uart_tx_com_bufer[uart_tx_pointer++] = '0';
 80049b0:	7059      	strb	r1, [r3, #1]
            uart_tx_com_bufer[uart_tx_pointer++] = '0';
 80049b2:	7099      	strb	r1, [r3, #2]
            uart_tx_com_bufer[uart_tx_pointer++] = '0';
 80049b4:	70d9      	strb	r1, [r3, #3]
            uart_tx_com_bufer[uart_tx_pointer++] = '1';
 80049b6:	711a      	strb	r2, [r3, #4]
            return CR;
 80049b8:	200d      	movs	r0, #13
}				// end exec_usb_cmd
 80049ba:	b00d      	add	sp, #52	; 0x34
 80049bc:	e8bd 83f0 	ldmia.w	sp!, {r4, r5, r6, r7, r8, r9, pc}
        	uart_tx_com_bufer[uart_tx_pointer++] = (GET_VERSION);
 80049c0:	2456      	movs	r4, #86	; 0x56
 80049c2:	485f      	ldr	r0, [pc, #380]	; (8004b40 <exec_usb_cmd+0x288>)
 80049c4:	4a5f      	ldr	r2, [pc, #380]	; (8004b44 <exec_usb_cmd+0x28c>)
 80049c6:	6803      	ldr	r3, [r0, #0]
	out[0] = (temp < 10) ? temp + '0' : temp + ('A' - 10);
 80049c8:	2531      	movs	r5, #49	; 0x31
        	uart_tx_com_bufer[uart_tx_pointer++] = (GET_VERSION);
 80049ca:	54d4      	strb	r4, [r2, r3]
	out[1] = (temp < 10) ? temp + '0' : temp + ('A' - 10);
 80049cc:	2430      	movs	r4, #48	; 0x30
        	uart_tx_com_bufer[uart_tx_pointer++] = (GET_VERSION);
 80049ce:	1c59      	adds	r1, r3, #1
	out[0] = (temp < 10) ? temp + '0' : temp + ('A' - 10);
 80049d0:	5455      	strb	r5, [r2, r1]
	out[1] = (temp < 10) ? temp + '0' : temp + ('A' - 10);
 80049d2:	4411      	add	r1, r2
 80049d4:	704c      	strb	r4, [r1, #1]
            uart_tx_pointer +=2;
 80049d6:	1cd9      	adds	r1, r3, #3
	out[0] = (temp < 10) ? temp + '0' : temp + ('A' - 10);
 80049d8:	5455      	strb	r5, [r2, r1]
	out[1] = (temp < 10) ? temp + '0' : temp + ('A' - 10);
 80049da:	440a      	add	r2, r1
 80049dc:	7054      	strb	r4, [r2, #1]
            uart_tx_pointer +=2;
 80049de:	3305      	adds	r3, #5
 80049e0:	6003      	str	r3, [r0, #0]
            return CR;
 80049e2:	e7e9      	b.n	80049b8 <exec_usb_cmd+0x100>
        	uart_tx_com_bufer[uart_tx_pointer++] = (GET_SW_VERSION);
 80049e4:	2476      	movs	r4, #118	; 0x76
 80049e6:	4856      	ldr	r0, [pc, #344]	; (8004b40 <exec_usb_cmd+0x288>)
 80049e8:	4a56      	ldr	r2, [pc, #344]	; (8004b44 <exec_usb_cmd+0x28c>)
 80049ea:	6803      	ldr	r3, [r0, #0]
	out[1] = (temp < 10) ? temp + '0' : temp + ('A' - 10);
 80049ec:	2531      	movs	r5, #49	; 0x31
        	uart_tx_com_bufer[uart_tx_pointer++] = (GET_SW_VERSION);
 80049ee:	54d4      	strb	r4, [r2, r3]
	out[0] = (temp < 10) ? temp + '0' : temp + ('A' - 10);
 80049f0:	2430      	movs	r4, #48	; 0x30
        	uart_tx_com_bufer[uart_tx_pointer++] = (GET_SW_VERSION);
 80049f2:	1c59      	adds	r1, r3, #1
	out[0] = (temp < 10) ? temp + '0' : temp + ('A' - 10);
 80049f4:	5454      	strb	r4, [r2, r1]
	out[1] = (temp < 10) ? temp + '0' : temp + ('A' - 10);
 80049f6:	4411      	add	r1, r2
 80049f8:	704d      	strb	r5, [r1, #1]
            uart_tx_pointer +=2;
 80049fa:	1cd9      	adds	r1, r3, #3
	out[0] = (temp < 10) ? temp + '0' : temp + ('A' - 10);
 80049fc:	5454      	strb	r4, [r2, r1]
	out[1] = (temp < 10) ? temp + '0' : temp + ('A' - 10);
 80049fe:	440a      	add	r2, r1
 8004a00:	2141      	movs	r1, #65	; 0x41
 8004a02:	7051      	strb	r1, [r2, #1]
 8004a04:	e7eb      	b.n	80049de <exec_usb_cmd+0x126>
            if(cmd_buf[1] == '1')
 8004a06:	7863      	ldrb	r3, [r4, #1]
 8004a08:	2b31      	cmp	r3, #49	; 0x31
 8004a0a:	d102      	bne.n	8004a12 <exec_usb_cmd+0x15a>
            	conf.timestamp_en = true;
 8004a0c:	2301      	movs	r3, #1
            	conf.timestamp_en = false;
 8004a0e:	706b      	strb	r3, [r5, #1]
 8004a10:	e7d2      	b.n	80049b8 <exec_usb_cmd+0x100>
            else if(cmd_buf[1] == '0')
 8004a12:	2b30      	cmp	r3, #48	; 0x30
 8004a14:	d101      	bne.n	8004a1a <exec_usb_cmd+0x162>
            	conf.timestamp_en = false;
 8004a16:	2300      	movs	r3, #0
 8004a18:	e7f9      	b.n	8004a0e <exec_usb_cmd+0x156>
            	conf.timestamp_en = (conf.timestamp_en) ? false : true;
 8004a1a:	786b      	ldrb	r3, [r5, #1]
 8004a1c:	fab3 f383 	clz	r3, r3
 8004a20:	095b      	lsrs	r3, r3, #5
 8004a22:	e7f4      	b.n	8004a0e <exec_usb_cmd+0x156>
        	uart_tx_com_bufer[uart_tx_pointer++] = (READ_STATUS);
 8004a24:	2246      	movs	r2, #70	; 0x46
 8004a26:	4c46      	ldr	r4, [pc, #280]	; (8004b40 <exec_usb_cmd+0x288>)
 8004a28:	4d46      	ldr	r5, [pc, #280]	; (8004b44 <exec_usb_cmd+0x28c>)
 8004a2a:	6823      	ldr	r3, [r4, #0]
            uart_tx_com_bufer[uart_tx_pointer++] = HAL_CAN_GetState(&hcan) + '0';
 8004a2c:	4846      	ldr	r0, [pc, #280]	; (8004b48 <exec_usb_cmd+0x290>)
        	uart_tx_com_bufer[uart_tx_pointer++] = (READ_STATUS);
 8004a2e:	54ea      	strb	r2, [r5, r3]
            uart_tx_com_bufer[uart_tx_pointer++] = '0';
 8004a30:	1c9a      	adds	r2, r3, #2
 8004a32:	6022      	str	r2, [r4, #0]
 8004a34:	2230      	movs	r2, #48	; 0x30
 8004a36:	442b      	add	r3, r5
 8004a38:	705a      	strb	r2, [r3, #1]
            uart_tx_com_bufer[uart_tx_pointer++] = HAL_CAN_GetState(&hcan) + '0';
 8004a3a:	f7fc fa10 	bl	8000e5e <HAL_CAN_GetState>
 8004a3e:	6823      	ldr	r3, [r4, #0]
 8004a40:	3030      	adds	r0, #48	; 0x30
 8004a42:	1c5a      	adds	r2, r3, #1
 8004a44:	54e8      	strb	r0, [r5, r3]
            HAL_CAN_ResetError(&hcan);
 8004a46:	4840      	ldr	r0, [pc, #256]	; (8004b48 <exec_usb_cmd+0x290>)
            uart_tx_com_bufer[uart_tx_pointer++] = HAL_CAN_GetState(&hcan) + '0';
 8004a48:	6022      	str	r2, [r4, #0]
            HAL_CAN_ResetError(&hcan);
 8004a4a:	f7fc fa1d 	bl	8000e88 <HAL_CAN_ResetError>
            return CR;
 8004a4e:	e7b3      	b.n	80049b8 <exec_usb_cmd+0x100>
        	if(cmd_buf[1] == 'E' || cmd_buf[1] == '1')
 8004a50:	7863      	ldrb	r3, [r4, #1]
 8004a52:	2b45      	cmp	r3, #69	; 0x45
 8004a54:	d001      	beq.n	8004a5a <exec_usb_cmd+0x1a2>
 8004a56:	2b31      	cmp	r3, #49	; 0x31
 8004a58:	d125      	bne.n	8004aa6 <exec_usb_cmd+0x1ee>
 8004a5a:	2103      	movs	r1, #3
 8004a5c:	2300      	movs	r3, #0
 8004a5e:	e00f      	b.n	8004a80 <exec_usb_cmd+0x1c8>
            		if(cmd_buf[i] < '0' || (cmd_buf[i] > '9' && (cmd_buf[i] <'A' || cmd_buf[i] > 'F'))) return ERROR;
 8004a60:	5c60      	ldrb	r0, [r4, r1]
 8004a62:	282f      	cmp	r0, #47	; 0x2f
 8004a64:	d801      	bhi.n	8004a6a <exec_usb_cmd+0x1b2>
            switch(cmd_buf[1])
 8004a66:	2007      	movs	r0, #7
 8004a68:	e7a7      	b.n	80049ba <exec_usb_cmd+0x102>
            		if(cmd_buf[i] < '0' || (cmd_buf[i] > '9' && (cmd_buf[i] <'A' || cmd_buf[i] > 'F'))) return ERROR;
 8004a6a:	2839      	cmp	r0, #57	; 0x39
 8004a6c:	d903      	bls.n	8004a76 <exec_usb_cmd+0x1be>
 8004a6e:	f1a0 0741 	sub.w	r7, r0, #65	; 0x41
 8004a72:	2f05      	cmp	r7, #5
 8004a74:	d8f7      	bhi.n	8004a66 <exec_usb_cmd+0x1ae>
            		filter_temp = filter_temp << 4;
 8004a76:	011b      	lsls	r3, r3, #4
            		filter_temp += HexTo4bits(cmd_buf[i]);
 8004a78:	f7ff fa46 	bl	8003f08 <HexTo4bits>
 8004a7c:	4403      	add	r3, r0
            	for(int i = 3; i < cmd_len; i++)
 8004a7e:	3101      	adds	r1, #1
 8004a80:	428e      	cmp	r6, r1
 8004a82:	dced      	bgt.n	8004a60 <exec_usb_cmd+0x1a8>
            	filter_temp = (filter_temp & 0b111111111111111111) << 3;
 8004a84:	4831      	ldr	r0, [pc, #196]	; (8004b4c <exec_usb_cmd+0x294>)
 8004a86:	ea00 00c3 	and.w	r0, r0, r3, lsl #3
            	filter_temp |= 1<<2;
 8004a8a:	f040 0004 	orr.w	r0, r0, #4
        	if(cmd_buf[2] == 'R' || cmd_buf[2] == '1') filter_temp |= 1<<1;
 8004a8e:	78a3      	ldrb	r3, [r4, #2]
 8004a90:	2b52      	cmp	r3, #82	; 0x52
 8004a92:	d001      	beq.n	8004a98 <exec_usb_cmd+0x1e0>
 8004a94:	2b31      	cmp	r3, #49	; 0x31
 8004a96:	d11f      	bne.n	8004ad8 <exec_usb_cmd+0x220>
 8004a98:	f040 0002 	orr.w	r0, r0, #2
        	if(cmd_buf[0] == SET_FILTER_ID) conf.filter_id = filter_temp;
 8004a9c:	2a4d      	cmp	r2, #77	; 0x4d
 8004a9e:	bf0c      	ite	eq
 8004aa0:	61e8      	streq	r0, [r5, #28]
        	else conf.filter_mask = filter_temp;
 8004aa2:	6228      	strne	r0, [r5, #32]
 8004aa4:	e788      	b.n	80049b8 <exec_usb_cmd+0x100>
        	else if(cmd_buf[1] == 'S' || cmd_buf[1] == '0')
 8004aa6:	2b53      	cmp	r3, #83	; 0x53
 8004aa8:	d001      	beq.n	8004aae <exec_usb_cmd+0x1f6>
 8004aaa:	2b30      	cmp	r3, #48	; 0x30
 8004aac:	d1db      	bne.n	8004a66 <exec_usb_cmd+0x1ae>
 8004aae:	2103      	movs	r1, #3
 8004ab0:	2300      	movs	r3, #0
 8004ab2:	e00d      	b.n	8004ad0 <exec_usb_cmd+0x218>
            		if(cmd_buf[i] < '0' || (cmd_buf[i] > '9' && (cmd_buf[i] <'A' || cmd_buf[i] > 'F'))) return ERROR;
 8004ab4:	5c60      	ldrb	r0, [r4, r1]
 8004ab6:	282f      	cmp	r0, #47	; 0x2f
 8004ab8:	d9d5      	bls.n	8004a66 <exec_usb_cmd+0x1ae>
 8004aba:	2839      	cmp	r0, #57	; 0x39
 8004abc:	d903      	bls.n	8004ac6 <exec_usb_cmd+0x20e>
 8004abe:	f1a0 0741 	sub.w	r7, r0, #65	; 0x41
 8004ac2:	2f05      	cmp	r7, #5
 8004ac4:	d8cf      	bhi.n	8004a66 <exec_usb_cmd+0x1ae>
            		filter_temp = filter_temp << 4;
 8004ac6:	011b      	lsls	r3, r3, #4
            		filter_temp += HexTo4bits(cmd_buf[i]);
 8004ac8:	f7ff fa1e 	bl	8003f08 <HexTo4bits>
 8004acc:	4403      	add	r3, r0
            	for(int i = 3; i < cmd_len; i++)
 8004ace:	3101      	adds	r1, #1
 8004ad0:	428e      	cmp	r6, r1
 8004ad2:	dcef      	bgt.n	8004ab4 <exec_usb_cmd+0x1fc>
            	filter_temp = (filter_temp & 0b11111111111) << 21;
 8004ad4:	0558      	lsls	r0, r3, #21
 8004ad6:	e7da      	b.n	8004a8e <exec_usb_cmd+0x1d6>
        	else if(cmd_buf[2] != 'D' && cmd_buf[2] != '0') return ERROR;
 8004ad8:	2b44      	cmp	r3, #68	; 0x44
 8004ada:	d0df      	beq.n	8004a9c <exec_usb_cmd+0x1e4>
 8004adc:	2b30      	cmp	r3, #48	; 0x30
 8004ade:	d1c2      	bne.n	8004a66 <exec_usb_cmd+0x1ae>
 8004ae0:	e7dc      	b.n	8004a9c <exec_usb_cmd+0x1e4>
        	if(cmd_len == 3)
 8004ae2:	2e03      	cmp	r6, #3
 8004ae4:	d119      	bne.n	8004b1a <exec_usb_cmd+0x262>
        		conf.filter_num = HexTo4bits(cmd_buf[1]);
 8004ae6:	7860      	ldrb	r0, [r4, #1]
 8004ae8:	f7ff fa0e 	bl	8003f08 <HexTo4bits>
 8004aec:	6268      	str	r0, [r5, #36]	; 0x24
        		conf.filter_mode = cmd_buf[2] == 'I' ? CAN_FILTERMODE_IDLIST : cmd_buf[2] == 'M' ? CAN_FILTERMODE_IDMASK : 0xFF;
 8004aee:	78a3      	ldrb	r3, [r4, #2]
        		conf.filter_mode = cmd_buf[3] == 'I' ? CAN_FILTERMODE_IDLIST : cmd_buf[3] == 'M' ? CAN_FILTERMODE_IDMASK : 0xFF;
 8004af0:	2b49      	cmp	r3, #73	; 0x49
 8004af2:	d021      	beq.n	8004b38 <exec_usb_cmd+0x280>
 8004af4:	2b4d      	cmp	r3, #77	; 0x4d
 8004af6:	bf0c      	ite	eq
 8004af8:	2300      	moveq	r3, #0
 8004afa:	23ff      	movne	r3, #255	; 0xff
 8004afc:	62ab      	str	r3, [r5, #40]	; 0x28
        	if(conf.filter_num > 14 || conf.filter_mode == 0xFF) return ERROR;
 8004afe:	6a6b      	ldr	r3, [r5, #36]	; 0x24
 8004b00:	2b0e      	cmp	r3, #14
 8004b02:	d8b0      	bhi.n	8004a66 <exec_usb_cmd+0x1ae>
 8004b04:	6aaa      	ldr	r2, [r5, #40]	; 0x28
 8004b06:	2aff      	cmp	r2, #255	; 0xff
 8004b08:	d0ad      	beq.n	8004a66 <exec_usb_cmd+0x1ae>
        	if(SetFilterCAN(conf.filter_id, conf.filter_mask, conf.filter_mode, conf.filter_num) != HAL_OK) return ERROR;
 8004b0a:	e9d5 0107 	ldrd	r0, r1, [r5, #28]
 8004b0e:	f7ff fc05 	bl	800431c <SetFilterCAN>
        	if(Open_CAN_cannel() != HAL_OK) return ERROR;
 8004b12:	2800      	cmp	r0, #0
 8004b14:	f43f af50 	beq.w	80049b8 <exec_usb_cmd+0x100>
 8004b18:	e7a5      	b.n	8004a66 <exec_usb_cmd+0x1ae>
        	else if(cmd_len == 4)
 8004b1a:	2e04      	cmp	r6, #4
 8004b1c:	d1a3      	bne.n	8004a66 <exec_usb_cmd+0x1ae>
        		conf.filter_num = HexTo4bits(cmd_buf[1]) * 10 + HexTo4bits(cmd_buf[2]);
 8004b1e:	7860      	ldrb	r0, [r4, #1]
 8004b20:	f7ff f9f2 	bl	8003f08 <HexTo4bits>
 8004b24:	4603      	mov	r3, r0
 8004b26:	78a0      	ldrb	r0, [r4, #2]
 8004b28:	f7ff f9ee 	bl	8003f08 <HexTo4bits>
 8004b2c:	220a      	movs	r2, #10
 8004b2e:	fb02 0303 	mla	r3, r2, r3, r0
 8004b32:	626b      	str	r3, [r5, #36]	; 0x24
        		conf.filter_mode = cmd_buf[3] == 'I' ? CAN_FILTERMODE_IDLIST : cmd_buf[3] == 'M' ? CAN_FILTERMODE_IDMASK : 0xFF;
 8004b34:	78e3      	ldrb	r3, [r4, #3]
 8004b36:	e7db      	b.n	8004af0 <exec_usb_cmd+0x238>
 8004b38:	2301      	movs	r3, #1
 8004b3a:	e7df      	b.n	8004afc <exec_usb_cmd+0x244>
 8004b3c:	20001f48 	.word	0x20001f48
 8004b40:	20000150 	.word	0x20000150
 8004b44:	20001f7c 	.word	0x20001f7c
 8004b48:	20001a5c 	.word	0x20001a5c
 8004b4c:	001ffff8 	.word	0x001ffff8
        	eeprom_settings.CAN_Speed[eeprom_settings.numBus] = 0;
 8004b50:	2100      	movs	r1, #0
        		eeprom_settings.CAN_Speed[eeprom_settings.numBus] *= 10;
 8004b52:	250a      	movs	r5, #10
        	eeprom_settings.CAN_Speed[eeprom_settings.numBus] = 0;
 8004b54:	4ba1      	ldr	r3, [pc, #644]	; (8004ddc <exec_usb_cmd+0x524>)
 8004b56:	7a1a      	ldrb	r2, [r3, #8]
 8004b58:	3202      	adds	r2, #2
 8004b5a:	eb03 0282 	add.w	r2, r3, r2, lsl #2
 8004b5e:	6051      	str	r1, [r2, #4]
        	for(int i = 1; i < cmd_len; i++)
 8004b60:	f1c4 0101 	rsb	r1, r4, #1
 8004b64:	190a      	adds	r2, r1, r4
 8004b66:	4296      	cmp	r6, r2
 8004b68:	f77f af26 	ble.w	80049b8 <exec_usb_cmd+0x100>
        		if(cmd_buf[i] < '0' || cmd_buf[i] > '9') return ERROR;
 8004b6c:	7862      	ldrb	r2, [r4, #1]
 8004b6e:	3a30      	subs	r2, #48	; 0x30
 8004b70:	2a09      	cmp	r2, #9
 8004b72:	f63f af78 	bhi.w	8004a66 <exec_usb_cmd+0x1ae>
        		eeprom_settings.CAN_Speed[eeprom_settings.numBus] *= 10;
 8004b76:	7a1a      	ldrb	r2, [r3, #8]
 8004b78:	3202      	adds	r2, #2
 8004b7a:	eb03 0282 	add.w	r2, r3, r2, lsl #2
 8004b7e:	6850      	ldr	r0, [r2, #4]
 8004b80:	4368      	muls	r0, r5
 8004b82:	6050      	str	r0, [r2, #4]
        		eeprom_settings.CAN_Speed[eeprom_settings.numBus] += HexTo4bits(cmd_buf[i]);
 8004b84:	f814 0f01 	ldrb.w	r0, [r4, #1]!
 8004b88:	f7ff f9be 	bl	8003f08 <HexTo4bits>
 8004b8c:	7a1a      	ldrb	r2, [r3, #8]
 8004b8e:	3202      	adds	r2, #2
 8004b90:	eb03 0282 	add.w	r2, r3, r2, lsl #2
 8004b94:	6857      	ldr	r7, [r2, #4]
 8004b96:	4438      	add	r0, r7
 8004b98:	6050      	str	r0, [r2, #4]
        	for(int i = 1; i < cmd_len; i++)
 8004b9a:	e7e3      	b.n	8004b64 <exec_usb_cmd+0x2ac>
            if ((cmd_len != 5) && (cmd_len != 2))
 8004b9c:	2e05      	cmp	r6, #5
 8004b9e:	d002      	beq.n	8004ba6 <exec_usb_cmd+0x2ee>
 8004ba0:	2e02      	cmp	r6, #2
 8004ba2:	f47f af60 	bne.w	8004a66 <exec_usb_cmd+0x1ae>
            if (conf.state != IDLE_ST)
 8004ba6:	782b      	ldrb	r3, [r5, #0]
 8004ba8:	2b00      	cmp	r3, #0
 8004baa:	f47f af5c 	bne.w	8004a66 <exec_usb_cmd+0x1ae>
            switch(cmd_buf[1])
 8004bae:	7863      	ldrb	r3, [r4, #1]
 8004bb0:	3b30      	subs	r3, #48	; 0x30
 8004bb2:	2b34      	cmp	r3, #52	; 0x34
 8004bb4:	f63f af57 	bhi.w	8004a66 <exec_usb_cmd+0x1ae>
 8004bb8:	a201      	add	r2, pc, #4	; (adr r2, 8004bc0 <exec_usb_cmd+0x308>)
 8004bba:	f852 f023 	ldr.w	pc, [r2, r3, lsl #2]
 8004bbe:	bf00      	nop
 8004bc0:	08004c95 	.word	0x08004c95
 8004bc4:	08004ca7 	.word	0x08004ca7
 8004bc8:	08004cb7 	.word	0x08004cb7
 8004bcc:	08004cc7 	.word	0x08004cc7
 8004bd0:	08004cd5 	.word	0x08004cd5
 8004bd4:	08004ce3 	.word	0x08004ce3
 8004bd8:	08004cf1 	.word	0x08004cf1
 8004bdc:	08004cff 	.word	0x08004cff
 8004be0:	08004d0d 	.word	0x08004d0d
 8004be4:	08004d1b 	.word	0x08004d1b
 8004be8:	08004a67 	.word	0x08004a67
 8004bec:	08004a67 	.word	0x08004a67
 8004bf0:	08004a67 	.word	0x08004a67
 8004bf4:	08004a67 	.word	0x08004a67
 8004bf8:	08004a67 	.word	0x08004a67
 8004bfc:	08004a67 	.word	0x08004a67
 8004c00:	08004a67 	.word	0x08004a67
 8004c04:	08004d29 	.word	0x08004d29
 8004c08:	08004d39 	.word	0x08004d39
 8004c0c:	08004d49 	.word	0x08004d49
 8004c10:	08004d59 	.word	0x08004d59
 8004c14:	08004a67 	.word	0x08004a67
 8004c18:	08004a67 	.word	0x08004a67
 8004c1c:	08004a67 	.word	0x08004a67
 8004c20:	08004a67 	.word	0x08004a67
 8004c24:	08004a67 	.word	0x08004a67
 8004c28:	08004a67 	.word	0x08004a67
 8004c2c:	08004a67 	.word	0x08004a67
 8004c30:	08004a67 	.word	0x08004a67
 8004c34:	08004a67 	.word	0x08004a67
 8004c38:	08004a67 	.word	0x08004a67
 8004c3c:	08004a67 	.word	0x08004a67
 8004c40:	08004a67 	.word	0x08004a67
 8004c44:	08004a67 	.word	0x08004a67
 8004c48:	08004a67 	.word	0x08004a67
 8004c4c:	08004a67 	.word	0x08004a67
 8004c50:	08004a67 	.word	0x08004a67
 8004c54:	08004a67 	.word	0x08004a67
 8004c58:	08004a67 	.word	0x08004a67
 8004c5c:	08004a67 	.word	0x08004a67
 8004c60:	08004a67 	.word	0x08004a67
 8004c64:	08004a67 	.word	0x08004a67
 8004c68:	08004a67 	.word	0x08004a67
 8004c6c:	08004a67 	.word	0x08004a67
 8004c70:	08004a67 	.word	0x08004a67
 8004c74:	08004a67 	.word	0x08004a67
 8004c78:	08004a67 	.word	0x08004a67
 8004c7c:	08004a67 	.word	0x08004a67
 8004c80:	08004a67 	.word	0x08004a67
 8004c84:	08004d29 	.word	0x08004d29
 8004c88:	08004d39 	.word	0x08004d39
 8004c8c:	08004d49 	.word	0x08004d49
 8004c90:	08004d59 	.word	0x08004d59
            	eeprom_settings.CAN_Speed[eeprom_settings.numBus] = 10000;
 8004c94:	4b51      	ldr	r3, [pc, #324]	; (8004ddc <exec_usb_cmd+0x524>)
 8004c96:	7a1a      	ldrb	r2, [r3, #8]
 8004c98:	3202      	adds	r2, #2
 8004c9a:	eb03 0382 	add.w	r3, r3, r2, lsl #2
 8004c9e:	f242 7210 	movw	r2, #10000	; 0x2710
            	eeprom_settings.CAN_Speed[eeprom_settings.numBus] = 5000;
 8004ca2:	605a      	str	r2, [r3, #4]
            	break;
 8004ca4:	e688      	b.n	80049b8 <exec_usb_cmd+0x100>
            	eeprom_settings.CAN_Speed[eeprom_settings.numBus] = 20000;
 8004ca6:	4b4d      	ldr	r3, [pc, #308]	; (8004ddc <exec_usb_cmd+0x524>)
 8004ca8:	7a1a      	ldrb	r2, [r3, #8]
 8004caa:	3202      	adds	r2, #2
 8004cac:	eb03 0382 	add.w	r3, r3, r2, lsl #2
 8004cb0:	f644 6220 	movw	r2, #20000	; 0x4e20
 8004cb4:	e7f5      	b.n	8004ca2 <exec_usb_cmd+0x3ea>
            	eeprom_settings.CAN_Speed[eeprom_settings.numBus] = 50000;
 8004cb6:	4b49      	ldr	r3, [pc, #292]	; (8004ddc <exec_usb_cmd+0x524>)
 8004cb8:	7a1a      	ldrb	r2, [r3, #8]
 8004cba:	3202      	adds	r2, #2
 8004cbc:	eb03 0382 	add.w	r3, r3, r2, lsl #2
 8004cc0:	f24c 3250 	movw	r2, #50000	; 0xc350
 8004cc4:	e7ed      	b.n	8004ca2 <exec_usb_cmd+0x3ea>
            	eeprom_settings.CAN_Speed[eeprom_settings.numBus] = 100000;
 8004cc6:	4b45      	ldr	r3, [pc, #276]	; (8004ddc <exec_usb_cmd+0x524>)
 8004cc8:	7a1a      	ldrb	r2, [r3, #8]
 8004cca:	3202      	adds	r2, #2
 8004ccc:	eb03 0382 	add.w	r3, r3, r2, lsl #2
 8004cd0:	4a43      	ldr	r2, [pc, #268]	; (8004de0 <exec_usb_cmd+0x528>)
 8004cd2:	e7e6      	b.n	8004ca2 <exec_usb_cmd+0x3ea>
            	eeprom_settings.CAN_Speed[eeprom_settings.numBus] = 125000;
 8004cd4:	4b41      	ldr	r3, [pc, #260]	; (8004ddc <exec_usb_cmd+0x524>)
 8004cd6:	7a1a      	ldrb	r2, [r3, #8]
 8004cd8:	3202      	adds	r2, #2
 8004cda:	eb03 0382 	add.w	r3, r3, r2, lsl #2
 8004cde:	4a41      	ldr	r2, [pc, #260]	; (8004de4 <exec_usb_cmd+0x52c>)
 8004ce0:	e7df      	b.n	8004ca2 <exec_usb_cmd+0x3ea>
            	eeprom_settings.CAN_Speed[eeprom_settings.numBus] = 250000;
 8004ce2:	4b3e      	ldr	r3, [pc, #248]	; (8004ddc <exec_usb_cmd+0x524>)
 8004ce4:	7a1a      	ldrb	r2, [r3, #8]
 8004ce6:	3202      	adds	r2, #2
 8004ce8:	eb03 0382 	add.w	r3, r3, r2, lsl #2
 8004cec:	4a3e      	ldr	r2, [pc, #248]	; (8004de8 <exec_usb_cmd+0x530>)
 8004cee:	e7d8      	b.n	8004ca2 <exec_usb_cmd+0x3ea>
            	eeprom_settings.CAN_Speed[eeprom_settings.numBus] = 500000;
 8004cf0:	4b3a      	ldr	r3, [pc, #232]	; (8004ddc <exec_usb_cmd+0x524>)
 8004cf2:	7a1a      	ldrb	r2, [r3, #8]
 8004cf4:	3202      	adds	r2, #2
 8004cf6:	eb03 0382 	add.w	r3, r3, r2, lsl #2
 8004cfa:	4a3c      	ldr	r2, [pc, #240]	; (8004dec <exec_usb_cmd+0x534>)
 8004cfc:	e7d1      	b.n	8004ca2 <exec_usb_cmd+0x3ea>
            	eeprom_settings.CAN_Speed[eeprom_settings.numBus] = 800000;
 8004cfe:	4b37      	ldr	r3, [pc, #220]	; (8004ddc <exec_usb_cmd+0x524>)
 8004d00:	7a1a      	ldrb	r2, [r3, #8]
 8004d02:	3202      	adds	r2, #2
 8004d04:	eb03 0382 	add.w	r3, r3, r2, lsl #2
 8004d08:	4a39      	ldr	r2, [pc, #228]	; (8004df0 <exec_usb_cmd+0x538>)
 8004d0a:	e7ca      	b.n	8004ca2 <exec_usb_cmd+0x3ea>
            	eeprom_settings.CAN_Speed[eeprom_settings.numBus] = 1000000;
 8004d0c:	4b33      	ldr	r3, [pc, #204]	; (8004ddc <exec_usb_cmd+0x524>)
 8004d0e:	7a1a      	ldrb	r2, [r3, #8]
 8004d10:	3202      	adds	r2, #2
 8004d12:	eb03 0382 	add.w	r3, r3, r2, lsl #2
 8004d16:	4a37      	ldr	r2, [pc, #220]	; (8004df4 <exec_usb_cmd+0x53c>)
 8004d18:	e7c3      	b.n	8004ca2 <exec_usb_cmd+0x3ea>
            	eeprom_settings.CAN_Speed[eeprom_settings.numBus] = 95238;
 8004d1a:	4b30      	ldr	r3, [pc, #192]	; (8004ddc <exec_usb_cmd+0x524>)
 8004d1c:	7a1a      	ldrb	r2, [r3, #8]
 8004d1e:	3202      	adds	r2, #2
 8004d20:	eb03 0382 	add.w	r3, r3, r2, lsl #2
 8004d24:	4a34      	ldr	r2, [pc, #208]	; (8004df8 <exec_usb_cmd+0x540>)
 8004d26:	e7bc      	b.n	8004ca2 <exec_usb_cmd+0x3ea>
            	eeprom_settings.CAN_Speed[eeprom_settings.numBus] = 8333;
 8004d28:	4b2c      	ldr	r3, [pc, #176]	; (8004ddc <exec_usb_cmd+0x524>)
 8004d2a:	7a1a      	ldrb	r2, [r3, #8]
 8004d2c:	3202      	adds	r2, #2
 8004d2e:	eb03 0382 	add.w	r3, r3, r2, lsl #2
 8004d32:	f242 028d 	movw	r2, #8333	; 0x208d
 8004d36:	e7b4      	b.n	8004ca2 <exec_usb_cmd+0x3ea>
            	eeprom_settings.CAN_Speed[eeprom_settings.numBus] = 47619;
 8004d38:	4b28      	ldr	r3, [pc, #160]	; (8004ddc <exec_usb_cmd+0x524>)
 8004d3a:	7a1a      	ldrb	r2, [r3, #8]
 8004d3c:	3202      	adds	r2, #2
 8004d3e:	eb03 0382 	add.w	r3, r3, r2, lsl #2
 8004d42:	f64b 2203 	movw	r2, #47619	; 0xba03
 8004d46:	e7ac      	b.n	8004ca2 <exec_usb_cmd+0x3ea>
            	eeprom_settings.CAN_Speed[eeprom_settings.numBus] = 33333;
 8004d48:	4b24      	ldr	r3, [pc, #144]	; (8004ddc <exec_usb_cmd+0x524>)
 8004d4a:	7a1a      	ldrb	r2, [r3, #8]
 8004d4c:	3202      	adds	r2, #2
 8004d4e:	eb03 0382 	add.w	r3, r3, r2, lsl #2
 8004d52:	f248 2235 	movw	r2, #33333	; 0x8235
 8004d56:	e7a4      	b.n	8004ca2 <exec_usb_cmd+0x3ea>
            	eeprom_settings.CAN_Speed[eeprom_settings.numBus] = 5000;
 8004d58:	4b20      	ldr	r3, [pc, #128]	; (8004ddc <exec_usb_cmd+0x524>)
 8004d5a:	7a1a      	ldrb	r2, [r3, #8]
 8004d5c:	3202      	adds	r2, #2
 8004d5e:	eb03 0382 	add.w	r3, r3, r2, lsl #2
 8004d62:	f241 3288 	movw	r2, #5000	; 0x1388
 8004d66:	e79c      	b.n	8004ca2 <exec_usb_cmd+0x3ea>
        	if(eeprom_settings.numBus == 3) // LIN
 8004d68:	4c1c      	ldr	r4, [pc, #112]	; (8004ddc <exec_usb_cmd+0x524>)
 8004d6a:	7a23      	ldrb	r3, [r4, #8]
 8004d6c:	2b03      	cmp	r3, #3
 8004d6e:	d110      	bne.n	8004d92 <exec_usb_cmd+0x4da>
            	eeprom_settings.CAN_mode[eeprom_settings.numBus] = CAN_MODE_NORMAL;
 8004d70:	2200      	movs	r2, #0
 8004d72:	7a23      	ldrb	r3, [r4, #8]
 8004d74:	330c      	adds	r3, #12
 8004d76:	eb04 0383 	add.w	r3, r4, r3, lsl #2
 8004d7a:	605a      	str	r2, [r3, #4]
            	if(Open_LIN_cannel() != HAL_OK) return ERROR;
 8004d7c:	f7ff fb6a 	bl	8004454 <Open_LIN_cannel>
            	if(Open_CAN_cannel() != HAL_OK) return ERROR;
 8004d80:	2800      	cmp	r0, #0
 8004d82:	f47f ae70 	bne.w	8004a66 <exec_usb_cmd+0x1ae>
        	conf.CAN_Enable[eeprom_settings.numBus] = true;
 8004d86:	2201      	movs	r2, #1
 8004d88:	7a23      	ldrb	r3, [r4, #8]
    		conf.state = LAWICEL_CONNECT;
 8004d8a:	702a      	strb	r2, [r5, #0]
        	conf.CAN_Enable[eeprom_settings.numBus] = true;
 8004d8c:	442b      	add	r3, r5
 8004d8e:	70da      	strb	r2, [r3, #3]
            return CR;
 8004d90:	e612      	b.n	80049b8 <exec_usb_cmd+0x100>
                if (HAL_CAN_GetState(&hcan) != HAL_CAN_STATE_RESET) return ERROR;
 8004d92:	481a      	ldr	r0, [pc, #104]	; (8004dfc <exec_usb_cmd+0x544>)
 8004d94:	f7fc f863 	bl	8000e5e <HAL_CAN_GetState>
 8004d98:	2800      	cmp	r0, #0
 8004d9a:	f47f ae64 	bne.w	8004a66 <exec_usb_cmd+0x1ae>
            	eeprom_settings.CAN_mode[eeprom_settings.numBus] = CAN_MODE_NORMAL;
 8004d9e:	7a23      	ldrb	r3, [r4, #8]
 8004da0:	330c      	adds	r3, #12
 8004da2:	eb04 0383 	add.w	r3, r4, r3, lsl #2
 8004da6:	6058      	str	r0, [r3, #4]
            	if(Open_CAN_cannel() != HAL_OK) return ERROR;
 8004da8:	f7ff fd48 	bl	800483c <Open_CAN_cannel>
 8004dac:	e7e8      	b.n	8004d80 <exec_usb_cmd+0x4c8>
        	conf.state = IDLE_ST;
 8004dae:	2300      	movs	r3, #0
        	if(eeprom_settings.numBus == 3) // LIN
 8004db0:	4c0a      	ldr	r4, [pc, #40]	; (8004ddc <exec_usb_cmd+0x524>)
        	conf.state = IDLE_ST;
 8004db2:	702b      	strb	r3, [r5, #0]
        	if(eeprom_settings.numBus == 3) // LIN
 8004db4:	7a22      	ldrb	r2, [r4, #8]
 8004db6:	2a03      	cmp	r2, #3
 8004db8:	d109      	bne.n	8004dce <exec_usb_cmd+0x516>
            	if(Close_LIN_cannel() != HAL_OK) return ERROR;
 8004dba:	f7ff fb95 	bl	80044e8 <Close_LIN_cannel>
        		if(Close_CAN_cannel() != HAL_OK) return ERROR;
 8004dbe:	2800      	cmp	r0, #0
 8004dc0:	f47f ae51 	bne.w	8004a66 <exec_usb_cmd+0x1ae>
        	conf.CAN_Enable[eeprom_settings.numBus] = false;
 8004dc4:	7a23      	ldrb	r3, [r4, #8]
 8004dc6:	441d      	add	r5, r3
 8004dc8:	2300      	movs	r3, #0
 8004dca:	70eb      	strb	r3, [r5, #3]
            return CR;
 8004dcc:	e5f4      	b.n	80049b8 <exec_usb_cmd+0x100>
        		HAL_CAN_ResetError(&hcan);
 8004dce:	480b      	ldr	r0, [pc, #44]	; (8004dfc <exec_usb_cmd+0x544>)
 8004dd0:	f7fc f85a 	bl	8000e88 <HAL_CAN_ResetError>
        		if(Close_CAN_cannel() != HAL_OK) return ERROR;
 8004dd4:	f7ff fbaa 	bl	800452c <Close_CAN_cannel>
 8004dd8:	e7f1      	b.n	8004dbe <exec_usb_cmd+0x506>
 8004dda:	bf00      	nop
 8004ddc:	20000d28 	.word	0x20000d28
 8004de0:	000186a0 	.word	0x000186a0
 8004de4:	0001e848 	.word	0x0001e848
 8004de8:	0003d090 	.word	0x0003d090
 8004dec:	0007a120 	.word	0x0007a120
 8004df0:	000c3500 	.word	0x000c3500
 8004df4:	000f4240 	.word	0x000f4240
 8004df8:	00017406 	.word	0x00017406
 8004dfc:	20001a5c 	.word	0x20001a5c
            if (conf.state == IDLE_ST)
 8004e00:	782b      	ldrb	r3, [r5, #0]
 8004e02:	2b00      	cmp	r3, #0
 8004e04:	f43f ae2f 	beq.w	8004a66 <exec_usb_cmd+0x1ae>
            if (cmd_len != 5)
 8004e08:	2e05      	cmp	r6, #5
 8004e0a:	f47f ae2c 	bne.w	8004a66 <exec_usb_cmd+0x1ae>
        	CAN_TxHeader.StdId = (HexTo4bits(cmd_buf[1]) << 8) | HexToShort(cmd_buf[2], cmd_buf[3]);
 8004e0e:	7860      	ldrb	r0, [r4, #1]
 8004e10:	f7ff f87a 	bl	8003f08 <HexTo4bits>
 8004e14:	78e1      	ldrb	r1, [r4, #3]
 8004e16:	4603      	mov	r3, r0
 8004e18:	78a0      	ldrb	r0, [r4, #2]
 8004e1a:	f7ff f880 	bl	8003f1e <HexToShort>
        	CAN_TxHeader.RTR = CAN_RTR_REMOTE;
 8004e1e:	2700      	movs	r7, #0
        	CAN_TxHeader.StdId = (HexTo4bits(cmd_buf[1]) << 8) | HexToShort(cmd_buf[2], cmd_buf[3]);
 8004e20:	ea40 2003 	orr.w	r0, r0, r3, lsl #8
        	CAN_TxHeader.RTR = CAN_RTR_REMOTE;
 8004e24:	2302      	movs	r3, #2
        	CAN_TxHeader.StdId = (HexTo4bits(cmd_buf[1]) << 8) | HexToShort(cmd_buf[2], cmd_buf[3]);
 8004e26:	4eb4      	ldr	r6, [pc, #720]	; (80050f8 <exec_usb_cmd+0x840>)
        	CAN_TxHeader.RTR = CAN_RTR_REMOTE;
 8004e28:	e9c6 7302 	strd	r7, r3, [r6, #8]
        	CAN_TxHeader.StdId = (HexTo4bits(cmd_buf[1]) << 8) | HexToShort(cmd_buf[2], cmd_buf[3]);
 8004e2c:	6030      	str	r0, [r6, #0]
        	CAN_TxHeader.DLC = HexTo4bits(cmd_buf[4]);
 8004e2e:	7920      	ldrb	r0, [r4, #4]
        	CAN_TxHeader.DLC = HexTo4bits(cmd_buf[9]);
 8004e30:	f7ff f86a 	bl	8003f08 <HexTo4bits>
        	CAN_status = HAL_CAN_AddTxMessage(&hcan, &CAN_TxHeader, can_tx_msg.data_byte, &CAN_mailbox);
 8004e34:	4fb1      	ldr	r7, [pc, #708]	; (80050fc <exec_usb_cmd+0x844>)
        	HAL_GPIO_WritePin(TX_LED_GPIO_Port, TX_LED_Pin, GPIO_PIN_SET);
 8004e36:	2201      	movs	r2, #1
 8004e38:	f44f 4100 	mov.w	r1, #32768	; 0x8000
        	CAN_TxHeader.DLC = HexTo4bits(cmd_buf[9]);
 8004e3c:	6130      	str	r0, [r6, #16]
        	HAL_GPIO_WritePin(TX_LED_GPIO_Port, TX_LED_Pin, GPIO_PIN_SET);
 8004e3e:	48b0      	ldr	r0, [pc, #704]	; (8005100 <exec_usb_cmd+0x848>)
 8004e40:	f7fc fb68 	bl	8001514 <HAL_GPIO_WritePin>
        	CAN_status = HAL_CAN_AddTxMessage(&hcan, &CAN_TxHeader, can_tx_msg.data_byte, &CAN_mailbox);
 8004e44:	4baf      	ldr	r3, [pc, #700]	; (8005104 <exec_usb_cmd+0x84c>)
 8004e46:	463a      	mov	r2, r7
 8004e48:	4631      	mov	r1, r6
 8004e4a:	48af      	ldr	r0, [pc, #700]	; (8005108 <exec_usb_cmd+0x850>)
 8004e4c:	f7fb fe2e 	bl	8000aac <HAL_CAN_AddTxMessage>
 8004e50:	4bae      	ldr	r3, [pc, #696]	; (800510c <exec_usb_cmd+0x854>)
 8004e52:	7018      	strb	r0, [r3, #0]
        	if(CAN_status != HAL_OK)
 8004e54:	2800      	cmp	r0, #0
 8004e56:	f47f ae06 	bne.w	8004a66 <exec_usb_cmd+0x1ae>
        	if(conf.loger_run == true)
 8004e5a:	f895 502d 	ldrb.w	r5, [r5, #45]	; 0x2d
 8004e5e:	2d01      	cmp	r5, #1
 8004e60:	f47f adaa 	bne.w	80049b8 <exec_usb_cmd+0x100>
        		can_tx_msg.timestamp = HAL_GetTick();
 8004e64:	f7fb fcb0 	bl	80007c8 <HAL_GetTick>
        		can_tx_msg.can_dir = DIR_TRANSMIT;
 8004e68:	723d      	strb	r5, [r7, #8]
        		CAN_Log_Buffer_Write_Data(can_tx_msg);
 8004e6a:	466d      	mov	r5, sp
        		can_tx_msg.header.DLC = CAN_TxHeader.DLC;
 8004e6c:	6933      	ldr	r3, [r6, #16]
        		can_tx_msg.timestamp = HAL_GetTick();
 8004e6e:	f847 0c20 	str.w	r0, [r7, #-32]
        		can_tx_msg.header.DLC = CAN_TxHeader.DLC;
 8004e72:	f847 3c0c 	str.w	r3, [r7, #-12]
        		can_tx_msg.header.ExtId = CAN_TxHeader.ExtId;
 8004e76:	6873      	ldr	r3, [r6, #4]
        		can_tx_msg.timestamp = HAL_GetTick();
 8004e78:	f1a7 0420 	sub.w	r4, r7, #32
        		can_tx_msg.header.ExtId = CAN_TxHeader.ExtId;
 8004e7c:	f847 3c18 	str.w	r3, [r7, #-24]
        		can_tx_msg.header.StdId = CAN_TxHeader.StdId;
 8004e80:	6833      	ldr	r3, [r6, #0]
 8004e82:	f847 3c1c 	str.w	r3, [r7, #-28]
        		can_tx_msg.header.RTR = CAN_TxHeader.RTR;
 8004e86:	68f3      	ldr	r3, [r6, #12]
 8004e88:	f847 3c10 	str.w	r3, [r7, #-16]
        		can_tx_msg.header.IDE = CAN_TxHeader.IDE;
 8004e8c:	68b3      	ldr	r3, [r6, #8]
        		CAN_Log_Buffer_Write_Data(can_tx_msg);
 8004e8e:	f1a7 0610 	sub.w	r6, r7, #16
        		can_tx_msg.header.IDE = CAN_TxHeader.IDE;
 8004e92:	f847 3c14 	str.w	r3, [r7, #-20]
        		can_tx_msg.bus = eeprom_settings.numBus;
 8004e96:	4b9e      	ldr	r3, [pc, #632]	; (8005110 <exec_usb_cmd+0x858>)
 8004e98:	7a1b      	ldrb	r3, [r3, #8]
 8004e9a:	727b      	strb	r3, [r7, #9]
        		CAN_Log_Buffer_Write_Data(can_tx_msg);
 8004e9c:	ce0f      	ldmia	r6!, {r0, r1, r2, r3}
 8004e9e:	c50f      	stmia	r5!, {r0, r1, r2, r3}
 8004ea0:	e897 000f 	ldmia.w	r7, {r0, r1, r2, r3}
        		CAN_Log_Buffer_Write_Data(can_tx_msg);
 8004ea4:	e885 000f 	stmia.w	r5, {r0, r1, r2, r3}
 8004ea8:	e894 000f 	ldmia.w	r4, {r0, r1, r2, r3}
 8004eac:	f7fe fffe 	bl	8003eac <CAN_Log_Buffer_Write_Data>
 8004eb0:	e582      	b.n	80049b8 <exec_usb_cmd+0x100>
            if (conf.state == IDLE_ST)
 8004eb2:	782b      	ldrb	r3, [r5, #0]
 8004eb4:	2b00      	cmp	r3, #0
 8004eb6:	f43f add6 	beq.w	8004a66 <exec_usb_cmd+0x1ae>
            if ((cmd_len < 5) || (cmd_len > 21))
 8004eba:	1f72      	subs	r2, r6, #5
 8004ebc:	b2d3      	uxtb	r3, r2
 8004ebe:	2b10      	cmp	r3, #16
 8004ec0:	f63f add1 	bhi.w	8004a66 <exec_usb_cmd+0x1ae>
        	CAN_TxHeader.StdId = (HexTo4bits(cmd_buf[1]) << 8) | HexToShort(cmd_buf[2], cmd_buf[3]);
 8004ec4:	7860      	ldrb	r0, [r4, #1]
 8004ec6:	f7ff f81f 	bl	8003f08 <HexTo4bits>
 8004eca:	78e1      	ldrb	r1, [r4, #3]
 8004ecc:	4603      	mov	r3, r0
 8004ece:	78a0      	ldrb	r0, [r4, #2]
 8004ed0:	f7ff f825 	bl	8003f1e <HexToShort>
 8004ed4:	ea40 2003 	orr.w	r0, r0, r3, lsl #8
        	CAN_TxHeader.IDE = CAN_ID_STD;
 8004ed8:	2300      	movs	r3, #0
        	CAN_TxHeader.StdId = (HexTo4bits(cmd_buf[1]) << 8) | HexToShort(cmd_buf[2], cmd_buf[3]);
 8004eda:	4e87      	ldr	r6, [pc, #540]	; (80050f8 <exec_usb_cmd+0x840>)
        	CAN_TxHeader.RTR = CAN_RTR_DATA;
 8004edc:	e9c6 3302 	strd	r3, r3, [r6, #8]
        	CAN_TxHeader.StdId = (HexTo4bits(cmd_buf[1]) << 8) | HexToShort(cmd_buf[2], cmd_buf[3]);
 8004ee0:	6030      	str	r0, [r6, #0]
        	CAN_TxHeader.DLC = HexTo4bits(cmd_buf[4]);
 8004ee2:	7920      	ldrb	r0, [r4, #4]
 8004ee4:	f7ff f810 	bl	8003f08 <HexTo4bits>
            if (CAN_TxHeader.DLC != ((cmd_len - 5) / 2))
 8004ee8:	eb02 71d2 	add.w	r1, r2, r2, lsr #31
 8004eec:	ebb0 0f61 	cmp.w	r0, r1, asr #1
        	CAN_TxHeader.DLC = HexTo4bits(cmd_buf[4]);
 8004ef0:	4607      	mov	r7, r0
 8004ef2:	6130      	str	r0, [r6, #16]
            if (CAN_TxHeader.DLC != ((cmd_len - 5) / 2))
 8004ef4:	f47f adb7 	bne.w	8004a66 <exec_usb_cmd+0x1ae>
            if (CAN_TxHeader.DLC > 8)
 8004ef8:	2808      	cmp	r0, #8
 8004efa:	f63f adb4 	bhi.w	8004a66 <exec_usb_cmd+0x1ae>
 8004efe:	4a7f      	ldr	r2, [pc, #508]	; (80050fc <exec_usb_cmd+0x844>)
 8004f00:	3405      	adds	r4, #5
        	for(int i = 0; i < CAN_TxHeader.DLC; i++)
 8004f02:	429f      	cmp	r7, r3
 8004f04:	f104 0402 	add.w	r4, r4, #2
 8004f08:	d823      	bhi.n	8004f52 <exec_usb_cmd+0x69a>
        	if(eeprom_settings.numBus != BUS_LIN)
 8004f0a:	4f81      	ldr	r7, [pc, #516]	; (8005110 <exec_usb_cmd+0x858>)
        	HAL_GPIO_WritePin(TX_LED_GPIO_Port, TX_LED_Pin, GPIO_PIN_SET);
 8004f0c:	2201      	movs	r2, #1
 8004f0e:	f44f 4100 	mov.w	r1, #32768	; 0x8000
 8004f12:	487b      	ldr	r0, [pc, #492]	; (8005100 <exec_usb_cmd+0x848>)
 8004f14:	f7fc fafe 	bl	8001514 <HAL_GPIO_WritePin>
        	if(eeprom_settings.numBus != BUS_LIN)
 8004f18:	7a3b      	ldrb	r3, [r7, #8]
 8004f1a:	2b03      	cmp	r3, #3
 8004f1c:	d123      	bne.n	8004f66 <exec_usb_cmd+0x6ae>
        		for(i = 0; i < CAN_TxHeader.DLC; i++)
 8004f1e:	2200      	movs	r2, #0
 8004f20:	6931      	ldr	r1, [r6, #16]
        			lin_tx_buff[i] = can_tx_msg.data_byte[i];
 8004f22:	487c      	ldr	r0, [pc, #496]	; (8005114 <exec_usb_cmd+0x85c>)
        		for(i = 0; i < CAN_TxHeader.DLC; i++)
 8004f24:	b2d3      	uxtb	r3, r2
 8004f26:	ac0c      	add	r4, sp, #48	; 0x30
 8004f28:	428b      	cmp	r3, r1
 8004f2a:	f102 0201 	add.w	r2, r2, #1
 8004f2e:	441c      	add	r4, r3
 8004f30:	d344      	bcc.n	8004fbc <exec_usb_cmd+0x704>
        		lin_tx_buff[i] = lin_calc_checksumm(can_tx_msg.data_byte, CAN_TxHeader.DLC, 0);
 8004f32:	2200      	movs	r2, #0
 8004f34:	4871      	ldr	r0, [pc, #452]	; (80050fc <exec_usb_cmd+0x844>)
 8004f36:	f000 fdd6 	bl	8005ae6 <lin_calc_checksumm>
 8004f3a:	f804 0c0c 	strb.w	r0, [r4, #-12]
        		CAN_status = lin_add_slave_msg(lin_calc_pid(CAN_TxHeader.StdId), lin_tx_buff, CAN_TxHeader.DLC+1);
 8004f3e:	6830      	ldr	r0, [r6, #0]
 8004f40:	f000 fdb6 	bl	8005ab0 <lin_calc_pid>
 8004f44:	6932      	ldr	r2, [r6, #16]
 8004f46:	a909      	add	r1, sp, #36	; 0x24
 8004f48:	3201      	adds	r2, #1
 8004f4a:	f000 fe87 	bl	8005c5c <lin_add_slave_msg>
 8004f4e:	b2c0      	uxtb	r0, r0
 8004f50:	e00f      	b.n	8004f72 <exec_usb_cmd+0x6ba>
        		can_tx_msg.data_byte[i] = HexToShort(cmd_buf[i*2+5], cmd_buf[i*2+6]);
 8004f52:	f814 1c01 	ldrb.w	r1, [r4, #-1]
 8004f56:	f814 0c02 	ldrb.w	r0, [r4, #-2]
 8004f5a:	f7fe ffe0 	bl	8003f1e <HexToShort>
 8004f5e:	f802 0b01 	strb.w	r0, [r2], #1
        	for(int i = 0; i < CAN_TxHeader.DLC; i++)
 8004f62:	3301      	adds	r3, #1
 8004f64:	e7cd      	b.n	8004f02 <exec_usb_cmd+0x64a>
            	CAN_status = HAL_CAN_AddTxMessage(&hcan, &CAN_TxHeader, can_tx_msg.data_byte, &CAN_mailbox);
 8004f66:	4b67      	ldr	r3, [pc, #412]	; (8005104 <exec_usb_cmd+0x84c>)
 8004f68:	4a64      	ldr	r2, [pc, #400]	; (80050fc <exec_usb_cmd+0x844>)
 8004f6a:	4963      	ldr	r1, [pc, #396]	; (80050f8 <exec_usb_cmd+0x840>)
 8004f6c:	4866      	ldr	r0, [pc, #408]	; (8005108 <exec_usb_cmd+0x850>)
 8004f6e:	f7fb fd9d 	bl	8000aac <HAL_CAN_AddTxMessage>
        		CAN_status = lin_add_slave_msg(lin_calc_pid(CAN_TxHeader.StdId), lin_tx_buff, CAN_TxHeader.DLC+1);
 8004f72:	4b66      	ldr	r3, [pc, #408]	; (800510c <exec_usb_cmd+0x854>)
 8004f74:	7018      	strb	r0, [r3, #0]
            	if(CAN_status != HAL_OK)
 8004f76:	2800      	cmp	r0, #0
 8004f78:	f47f ad75 	bne.w	8004a66 <exec_usb_cmd+0x1ae>
        	if(conf.loger_run == true)
 8004f7c:	f895 502d 	ldrb.w	r5, [r5, #45]	; 0x2d
 8004f80:	2d01      	cmp	r5, #1
 8004f82:	f47f ad19 	bne.w	80049b8 <exec_usb_cmd+0x100>
        		can_tx_msg.timestamp = HAL_GetTick();
 8004f86:	f7fb fc1f 	bl	80007c8 <HAL_GetTick>
 8004f8a:	4c62      	ldr	r4, [pc, #392]	; (8005114 <exec_usb_cmd+0x85c>)
        		can_tx_msg.header.DLC = CAN_TxHeader.DLC;
 8004f8c:	6933      	ldr	r3, [r6, #16]
        		can_tx_msg.timestamp = HAL_GetTick();
 8004f8e:	6020      	str	r0, [r4, #0]
        		can_tx_msg.header.DLC = CAN_TxHeader.DLC;
 8004f90:	6163      	str	r3, [r4, #20]
        		can_tx_msg.header.ExtId = CAN_TxHeader.ExtId;
 8004f92:	6873      	ldr	r3, [r6, #4]
        		can_tx_msg.can_dir = DIR_TRANSMIT;
 8004f94:	f884 5028 	strb.w	r5, [r4, #40]	; 0x28
        		can_tx_msg.header.ExtId = CAN_TxHeader.ExtId;
 8004f98:	60a3      	str	r3, [r4, #8]
        		can_tx_msg.header.StdId = CAN_TxHeader.StdId;
 8004f9a:	6833      	ldr	r3, [r6, #0]
 8004f9c:	6063      	str	r3, [r4, #4]
        		can_tx_msg.header.RTR = CAN_TxHeader.RTR;
 8004f9e:	68f3      	ldr	r3, [r6, #12]
 8004fa0:	6123      	str	r3, [r4, #16]
        		can_tx_msg.header.IDE = CAN_TxHeader.IDE;
 8004fa2:	68b3      	ldr	r3, [r6, #8]
 8004fa4:	60e3      	str	r3, [r4, #12]
        		can_tx_msg.bus = eeprom_settings.numBus;
 8004fa6:	7a3b      	ldrb	r3, [r7, #8]
        		CAN_Log_Buffer_Write_Data(can_tx_msg);
 8004fa8:	466d      	mov	r5, sp
 8004faa:	f104 0610 	add.w	r6, r4, #16
        		can_tx_msg.bus = eeprom_settings.numBus;
 8004fae:	f884 3029 	strb.w	r3, [r4, #41]	; 0x29
        		CAN_Log_Buffer_Write_Data(can_tx_msg);
 8004fb2:	ce0f      	ldmia	r6!, {r0, r1, r2, r3}
 8004fb4:	c50f      	stmia	r5!, {r0, r1, r2, r3}
 8004fb6:	e896 000f 	ldmia.w	r6, {r0, r1, r2, r3}
 8004fba:	e773      	b.n	8004ea4 <exec_usb_cmd+0x5ec>
        			lin_tx_buff[i] = can_tx_msg.data_byte[i];
 8004fbc:	4403      	add	r3, r0
 8004fbe:	f893 3020 	ldrb.w	r3, [r3, #32]
 8004fc2:	f804 3c0c 	strb.w	r3, [r4, #-12]
        		for(i = 0; i < CAN_TxHeader.DLC; i++)
 8004fc6:	e7ad      	b.n	8004f24 <exec_usb_cmd+0x66c>
            if (conf.state == IDLE_ST) return ERROR;
 8004fc8:	782b      	ldrb	r3, [r5, #0]
 8004fca:	2b00      	cmp	r3, #0
 8004fcc:	f43f ad4b 	beq.w	8004a66 <exec_usb_cmd+0x1ae>
            if (cmd_len != 10)      return ERROR;	// check valid cmd length
 8004fd0:	2e0a      	cmp	r6, #10
 8004fd2:	f47f ad48 	bne.w	8004a66 <exec_usb_cmd+0x1ae>
        	CAN_TxHeader.ExtId = (HexToShort(cmd_buf[1],cmd_buf[2]) << 24) |
 8004fd6:	78a1      	ldrb	r1, [r4, #2]
 8004fd8:	7860      	ldrb	r0, [r4, #1]
 8004fda:	f7fe ffa0 	bl	8003f1e <HexToShort>
        						 (HexToShort(cmd_buf[3],cmd_buf[4]) << 16) |
 8004fde:	7921      	ldrb	r1, [r4, #4]
        	CAN_TxHeader.ExtId = (HexToShort(cmd_buf[1],cmd_buf[2]) << 24) |
 8004fe0:	4602      	mov	r2, r0
        						 (HexToShort(cmd_buf[3],cmd_buf[4]) << 16) |
 8004fe2:	78e0      	ldrb	r0, [r4, #3]
 8004fe4:	f7fe ff9b 	bl	8003f1e <HexToShort>
								 (HexToShort(cmd_buf[5],cmd_buf[6]) << 8) |
 8004fe8:	79a1      	ldrb	r1, [r4, #6]
        						 (HexToShort(cmd_buf[3],cmd_buf[4]) << 16) |
 8004fea:	0403      	lsls	r3, r0, #16
								 (HexToShort(cmd_buf[5],cmd_buf[6]) << 8) |
 8004fec:	7960      	ldrb	r0, [r4, #5]
        	CAN_TxHeader.ExtId = (HexToShort(cmd_buf[1],cmd_buf[2]) << 24) |
 8004fee:	ea43 6302 	orr.w	r3, r3, r2, lsl #24
								 (HexToShort(cmd_buf[5],cmd_buf[6]) << 8) |
 8004ff2:	f7fe ff94 	bl	8003f1e <HexToShort>
								  HexToShort(cmd_buf[7],cmd_buf[8]);
 8004ff6:	7a21      	ldrb	r1, [r4, #8]
								 (HexToShort(cmd_buf[5],cmd_buf[6]) << 8) |
 8004ff8:	4602      	mov	r2, r0
								  HexToShort(cmd_buf[7],cmd_buf[8]);
 8004ffa:	79e0      	ldrb	r0, [r4, #7]
 8004ffc:	f7fe ff8f 	bl	8003f1e <HexToShort>
        	CAN_TxHeader.ExtId = (HexToShort(cmd_buf[1],cmd_buf[2]) << 24) |
 8005000:	4e3d      	ldr	r6, [pc, #244]	; (80050f8 <exec_usb_cmd+0x840>)
								 (HexToShort(cmd_buf[5],cmd_buf[6]) << 8) |
 8005002:	4303      	orrs	r3, r0
 8005004:	ea43 2302 	orr.w	r3, r3, r2, lsl #8
        	CAN_TxHeader.RTR = CAN_RTR_REMOTE;
 8005008:	2004      	movs	r0, #4
        	CAN_TxHeader.ExtId = (HexToShort(cmd_buf[1],cmd_buf[2]) << 24) |
 800500a:	6073      	str	r3, [r6, #4]
        	CAN_TxHeader.RTR = CAN_RTR_REMOTE;
 800500c:	2302      	movs	r3, #2
 800500e:	e9c6 0302 	strd	r0, r3, [r6, #8]
        	CAN_TxHeader.DLC = HexTo4bits(cmd_buf[9]);
 8005012:	7a60      	ldrb	r0, [r4, #9]
 8005014:	e70c      	b.n	8004e30 <exec_usb_cmd+0x578>
            if (conf.state == IDLE_ST) return ERROR;
 8005016:	782b      	ldrb	r3, [r5, #0]
 8005018:	2b00      	cmp	r3, #0
 800501a:	f43f ad24 	beq.w	8004a66 <exec_usb_cmd+0x1ae>
            if ((cmd_len < 10) || (cmd_len > 26))
 800501e:	3e0a      	subs	r6, #10
 8005020:	b2f3      	uxtb	r3, r6
 8005022:	2b10      	cmp	r3, #16
 8005024:	f63f ad1f 	bhi.w	8004a66 <exec_usb_cmd+0x1ae>
        	CAN_TxHeader.ExtId = (HexToShort(cmd_buf[1],cmd_buf[2]) << 24) |
 8005028:	78a1      	ldrb	r1, [r4, #2]
 800502a:	7860      	ldrb	r0, [r4, #1]
 800502c:	f7fe ff77 	bl	8003f1e <HexToShort>
        						 (HexToShort(cmd_buf[3],cmd_buf[4]) << 16) |
 8005030:	7921      	ldrb	r1, [r4, #4]
        	CAN_TxHeader.ExtId = (HexToShort(cmd_buf[1],cmd_buf[2]) << 24) |
 8005032:	4602      	mov	r2, r0
        						 (HexToShort(cmd_buf[3],cmd_buf[4]) << 16) |
 8005034:	78e0      	ldrb	r0, [r4, #3]
 8005036:	f7fe ff72 	bl	8003f1e <HexToShort>
								 (HexToShort(cmd_buf[5],cmd_buf[6]) << 8) |
 800503a:	79a1      	ldrb	r1, [r4, #6]
        						 (HexToShort(cmd_buf[3],cmd_buf[4]) << 16) |
 800503c:	0403      	lsls	r3, r0, #16
								 (HexToShort(cmd_buf[5],cmd_buf[6]) << 8) |
 800503e:	7960      	ldrb	r0, [r4, #5]
        	CAN_TxHeader.ExtId = (HexToShort(cmd_buf[1],cmd_buf[2]) << 24) |
 8005040:	ea43 6302 	orr.w	r3, r3, r2, lsl #24
								 (HexToShort(cmd_buf[5],cmd_buf[6]) << 8) |
 8005044:	f7fe ff6b 	bl	8003f1e <HexToShort>
								 HexToShort(cmd_buf[7], cmd_buf[8]);
 8005048:	7a21      	ldrb	r1, [r4, #8]
								 (HexToShort(cmd_buf[5],cmd_buf[6]) << 8) |
 800504a:	4607      	mov	r7, r0
								 HexToShort(cmd_buf[7], cmd_buf[8]);
 800504c:	79e0      	ldrb	r0, [r4, #7]
 800504e:	f7fe ff66 	bl	8003f1e <HexToShort>
        	CAN_TxHeader.ExtId = (HexToShort(cmd_buf[1],cmd_buf[2]) << 24) |
 8005052:	4a29      	ldr	r2, [pc, #164]	; (80050f8 <exec_usb_cmd+0x840>)
								 (HexToShort(cmd_buf[5],cmd_buf[6]) << 8) |
 8005054:	4303      	orrs	r3, r0
 8005056:	ea43 2307 	orr.w	r3, r3, r7, lsl #8
        	CAN_TxHeader.RTR = CAN_RTR_DATA;
 800505a:	2104      	movs	r1, #4
        	CAN_TxHeader.ExtId = (HexToShort(cmd_buf[1],cmd_buf[2]) << 24) |
 800505c:	6053      	str	r3, [r2, #4]
        	CAN_TxHeader.RTR = CAN_RTR_DATA;
 800505e:	2300      	movs	r3, #0
 8005060:	e9c2 1302 	strd	r1, r3, [r2, #8]
        	CAN_TxHeader.DLC = HexTo4bits(cmd_buf[9]);
 8005064:	7a60      	ldrb	r0, [r4, #9]
 8005066:	f7fe ff4f 	bl	8003f08 <HexTo4bits>
            if (CAN_TxHeader.DLC != ((cmd_len - 10) / 2))
 800506a:	eb06 76d6 	add.w	r6, r6, r6, lsr #31
 800506e:	ebb0 0f66 	cmp.w	r0, r6, asr #1
        	CAN_TxHeader.DLC = HexTo4bits(cmd_buf[9]);
 8005072:	4607      	mov	r7, r0
 8005074:	4616      	mov	r6, r2
 8005076:	6110      	str	r0, [r2, #16]
            if (CAN_TxHeader.DLC != ((cmd_len - 10) / 2))
 8005078:	f47f acf5 	bne.w	8004a66 <exec_usb_cmd+0x1ae>
            if (CAN_TxHeader.DLC > 8)
 800507c:	2808      	cmp	r0, #8
 800507e:	f63f acf2 	bhi.w	8004a66 <exec_usb_cmd+0x1ae>
 8005082:	4a1e      	ldr	r2, [pc, #120]	; (80050fc <exec_usb_cmd+0x844>)
 8005084:	340a      	adds	r4, #10
 8005086:	4690      	mov	r8, r2
        	for(int i = 0; i < CAN_TxHeader.DLC; i++)
 8005088:	429f      	cmp	r7, r3
 800508a:	f104 0402 	add.w	r4, r4, #2
 800508e:	d829      	bhi.n	80050e4 <exec_usb_cmd+0x82c>
        	HAL_GPIO_WritePin(TX_LED_GPIO_Port, TX_LED_Pin, GPIO_PIN_SET);
 8005090:	2201      	movs	r2, #1
 8005092:	f44f 4100 	mov.w	r1, #32768	; 0x8000
 8005096:	481a      	ldr	r0, [pc, #104]	; (8005100 <exec_usb_cmd+0x848>)
 8005098:	f7fc fa3c 	bl	8001514 <HAL_GPIO_WritePin>
        	CAN_status = HAL_CAN_AddTxMessage(&hcan, &CAN_TxHeader, can_tx_msg.data_byte, &CAN_mailbox);
 800509c:	4b19      	ldr	r3, [pc, #100]	; (8005104 <exec_usb_cmd+0x84c>)
 800509e:	4a17      	ldr	r2, [pc, #92]	; (80050fc <exec_usb_cmd+0x844>)
 80050a0:	4915      	ldr	r1, [pc, #84]	; (80050f8 <exec_usb_cmd+0x840>)
 80050a2:	4819      	ldr	r0, [pc, #100]	; (8005108 <exec_usb_cmd+0x850>)
 80050a4:	f7fb fd02 	bl	8000aac <HAL_CAN_AddTxMessage>
 80050a8:	4b18      	ldr	r3, [pc, #96]	; (800510c <exec_usb_cmd+0x854>)
 80050aa:	7018      	strb	r0, [r3, #0]
        	if(CAN_status != HAL_OK)
 80050ac:	2800      	cmp	r0, #0
 80050ae:	f47f acda 	bne.w	8004a66 <exec_usb_cmd+0x1ae>
        	if(conf.loger_run == true)
 80050b2:	f895 502d 	ldrb.w	r5, [r5, #45]	; 0x2d
 80050b6:	2d01      	cmp	r5, #1
 80050b8:	f47f ac7e 	bne.w	80049b8 <exec_usb_cmd+0x100>
        		can_tx_msg.timestamp = HAL_GetTick();
 80050bc:	f7fb fb84 	bl	80007c8 <HAL_GetTick>
 80050c0:	4c14      	ldr	r4, [pc, #80]	; (8005114 <exec_usb_cmd+0x85c>)
        		can_tx_msg.header.DLC = CAN_TxHeader.DLC;
 80050c2:	6933      	ldr	r3, [r6, #16]
        		can_tx_msg.timestamp = HAL_GetTick();
 80050c4:	f848 0c20 	str.w	r0, [r8, #-32]
        		can_tx_msg.header.DLC = CAN_TxHeader.DLC;
 80050c8:	6163      	str	r3, [r4, #20]
        		can_tx_msg.header.ExtId = CAN_TxHeader.ExtId;
 80050ca:	6873      	ldr	r3, [r6, #4]
        		can_tx_msg.can_dir = DIR_TRANSMIT;
 80050cc:	f884 5028 	strb.w	r5, [r4, #40]	; 0x28
        		can_tx_msg.header.ExtId = CAN_TxHeader.ExtId;
 80050d0:	60a3      	str	r3, [r4, #8]
        		can_tx_msg.header.StdId = CAN_TxHeader.StdId;
 80050d2:	6833      	ldr	r3, [r6, #0]
 80050d4:	6063      	str	r3, [r4, #4]
        		can_tx_msg.header.RTR = CAN_TxHeader.RTR;
 80050d6:	68f3      	ldr	r3, [r6, #12]
 80050d8:	6123      	str	r3, [r4, #16]
        		can_tx_msg.header.IDE = CAN_TxHeader.IDE;
 80050da:	68b3      	ldr	r3, [r6, #8]
 80050dc:	60e3      	str	r3, [r4, #12]
        		can_tx_msg.bus = eeprom_settings.numBus;
 80050de:	4b0c      	ldr	r3, [pc, #48]	; (8005110 <exec_usb_cmd+0x858>)
 80050e0:	7a1b      	ldrb	r3, [r3, #8]
 80050e2:	e761      	b.n	8004fa8 <exec_usb_cmd+0x6f0>
        		can_tx_msg.data_byte[i] = HexToShort(cmd_buf[i*2+10], cmd_buf[i*2+11]);
 80050e4:	f814 1c01 	ldrb.w	r1, [r4, #-1]
 80050e8:	f814 0c02 	ldrb.w	r0, [r4, #-2]
 80050ec:	f7fe ff17 	bl	8003f1e <HexToShort>
 80050f0:	f802 0b01 	strb.w	r0, [r2], #1
        	for(int i = 0; i < CAN_TxHeader.DLC; i++)
 80050f4:	3301      	adds	r3, #1
 80050f6:	e7c7      	b.n	8005088 <exec_usb_cmd+0x7d0>
 80050f8:	20000168 	.word	0x20000168
 80050fc:	200001a0 	.word	0x200001a0
 8005100:	40010800 	.word	0x40010800
 8005104:	200001b4 	.word	0x200001b4
 8005108:	20001a5c 	.word	0x20001a5c
 800510c:	200001b0 	.word	0x200001b0
 8005110:	20000d28 	.word	0x20000d28
 8005114:	20000180 	.word	0x20000180
        	eeprom_settings.CAN_mode[eeprom_settings.numBus] = CAN_MODE_SILENT;
 8005118:	f04f 4200 	mov.w	r2, #2147483648	; 0x80000000
 800511c:	4cab      	ldr	r4, [pc, #684]	; (80053cc <exec_usb_cmd+0xb14>)
 800511e:	7a23      	ldrb	r3, [r4, #8]
 8005120:	330c      	adds	r3, #12
 8005122:	eb04 0383 	add.w	r3, r4, r3, lsl #2
 8005126:	605a      	str	r2, [r3, #4]
        	if(Open_CAN_cannel() != HAL_OK) return ERROR;
 8005128:	f7ff fb88 	bl	800483c <Open_CAN_cannel>
 800512c:	2800      	cmp	r0, #0
 800512e:	f47f ac9a 	bne.w	8004a66 <exec_usb_cmd+0x1ae>
    		conf.state = LAWICEL_CONNECT;
 8005132:	2201      	movs	r2, #1
    		conf.CAN_Enable[eeprom_settings.numBus] = true;
 8005134:	7a23      	ldrb	r3, [r4, #8]
    		conf.state = LAWICEL_CONNECT;
 8005136:	702a      	strb	r2, [r5, #0]
    		conf.CAN_Enable[eeprom_settings.numBus] = true;
 8005138:	441d      	add	r5, r3
 800513a:	70ea      	strb	r2, [r5, #3]
            return CR;
 800513c:	e43c      	b.n	80049b8 <exec_usb_cmd+0x100>
        	switch (cmd_buf[1])
 800513e:	7863      	ldrb	r3, [r4, #1]
 8005140:	4ca2      	ldr	r4, [pc, #648]	; (80053cc <exec_usb_cmd+0xb14>)
 8005142:	3b30      	subs	r3, #48	; 0x30
 8005144:	2b06      	cmp	r3, #6
 8005146:	d82e      	bhi.n	80051a6 <exec_usb_cmd+0x8ee>
 8005148:	e8df f003 	tbb	[pc, r3]
 800514c:	211e1b04 	.word	0x211e1b04
 8005150:	2724      	.short	0x2724
 8005152:	2a          	.byte	0x2a
 8005153:	00          	.byte	0x00
        	case '0': eeprom_settings.UART_Speed = 230400; break;
 8005154:	f44f 3361 	mov.w	r3, #230400	; 0x38400
        	HAL_UART_DeInit(huart_active);
 8005158:	4d9d      	ldr	r5, [pc, #628]	; (80053d0 <exec_usb_cmd+0xb18>)
        	default: eeprom_settings.UART_Speed = 1000000; break;
 800515a:	65e3      	str	r3, [r4, #92]	; 0x5c
        	HAL_UART_DeInit(huart_active);
 800515c:	6828      	ldr	r0, [r5, #0]
 800515e:	f7fd f98a 	bl	8002476 <HAL_UART_DeInit>
        	huart3.Init.BaudRate = eeprom_settings.UART_Speed;
 8005162:	6de2      	ldr	r2, [r4, #92]	; 0x5c
 8005164:	4b9b      	ldr	r3, [pc, #620]	; (80053d4 <exec_usb_cmd+0xb1c>)
        	if (HAL_UART_Init(huart_active) != HAL_OK)
 8005166:	6828      	ldr	r0, [r5, #0]
        	huart3.Init.BaudRate = eeprom_settings.UART_Speed;
 8005168:	605a      	str	r2, [r3, #4]
        	if (HAL_UART_Init(huart_active) != HAL_OK)
 800516a:	f7fd f91b 	bl	80023a4 <HAL_UART_Init>
 800516e:	2800      	cmp	r0, #0
 8005170:	f47f ac79 	bne.w	8004a66 <exec_usb_cmd+0x1ae>
        	EEPROM_Write(&hspi2, EEPROM_SETINGS_ADDR + ((uint32_t)&eeprom_settings.UART_Speed - (uint32_t)&eeprom_settings), (uint8_t*)&eeprom_settings.UART_Speed, sizeof(eeprom_settings.UART_Speed));
 8005174:	2304      	movs	r3, #4
 8005176:	215c      	movs	r1, #92	; 0x5c
 8005178:	4a97      	ldr	r2, [pc, #604]	; (80053d8 <exec_usb_cmd+0xb20>)
        		EEPROM_Write(&hspi2, EEPROM_SETINGS_ADDR + ((uint32_t)&eeprom_settings.SD_autoconnect - (uint32_t)&eeprom_settings), (uint8_t*)&eeprom_settings.SD_autoconnect, sizeof(eeprom_settings.SD_autoconnect));
 800517a:	4898      	ldr	r0, [pc, #608]	; (80053dc <exec_usb_cmd+0xb24>)
 800517c:	f000 ffb2 	bl	80060e4 <EEPROM_Write>
 8005180:	e41a      	b.n	80049b8 <exec_usb_cmd+0x100>
        	case '1': eeprom_settings.UART_Speed = 115200; break;
 8005182:	f44f 33e1 	mov.w	r3, #115200	; 0x1c200
 8005186:	e7e7      	b.n	8005158 <exec_usb_cmd+0x8a0>
        	case '2': eeprom_settings.UART_Speed = 57600; break;
 8005188:	f44f 4361 	mov.w	r3, #57600	; 0xe100
 800518c:	e7e4      	b.n	8005158 <exec_usb_cmd+0x8a0>
        	case '3': eeprom_settings.UART_Speed = 38400; break;
 800518e:	f44f 4316 	mov.w	r3, #38400	; 0x9600
 8005192:	e7e1      	b.n	8005158 <exec_usb_cmd+0x8a0>
        	case '4': eeprom_settings.UART_Speed = 19200; break;
 8005194:	f44f 4396 	mov.w	r3, #19200	; 0x4b00
 8005198:	e7de      	b.n	8005158 <exec_usb_cmd+0x8a0>
        	case '5': eeprom_settings.UART_Speed = 9600; break;
 800519a:	f44f 5316 	mov.w	r3, #9600	; 0x2580
 800519e:	e7db      	b.n	8005158 <exec_usb_cmd+0x8a0>
        	case '6': eeprom_settings.UART_Speed = 2400; break;
 80051a0:	f44f 6316 	mov.w	r3, #2400	; 0x960
 80051a4:	e7d8      	b.n	8005158 <exec_usb_cmd+0x8a0>
        	default: eeprom_settings.UART_Speed = 1000000; break;
 80051a6:	4b8e      	ldr	r3, [pc, #568]	; (80053e0 <exec_usb_cmd+0xb28>)
 80051a8:	e7d6      	b.n	8005158 <exec_usb_cmd+0x8a0>
        	eeprom_settings.UART_Speed = 0;
 80051aa:	2300      	movs	r3, #0
        		eeprom_settings.UART_Speed *= 10;
 80051ac:	210a      	movs	r1, #10
        	eeprom_settings.UART_Speed = 0;
 80051ae:	4d87      	ldr	r5, [pc, #540]	; (80053cc <exec_usb_cmd+0xb14>)
        	for(int i = 1; i < cmd_len; i++)
 80051b0:	f1c4 0201 	rsb	r2, r4, #1
        	eeprom_settings.UART_Speed = 0;
 80051b4:	65eb      	str	r3, [r5, #92]	; 0x5c
        	for(int i = 1; i < cmd_len; i++)
 80051b6:	1913      	adds	r3, r2, r4
 80051b8:	429e      	cmp	r6, r3
 80051ba:	dc11      	bgt.n	80051e0 <exec_usb_cmd+0x928>
        	if(eeprom_settings.UART_Speed < 200 || eeprom_settings.UART_Speed > 2000000) return ERROR;
 80051bc:	6deb      	ldr	r3, [r5, #92]	; 0x5c
 80051be:	2bc7      	cmp	r3, #199	; 0xc7
 80051c0:	f67f ac51 	bls.w	8004a66 <exec_usb_cmd+0x1ae>
 80051c4:	6dea      	ldr	r2, [r5, #92]	; 0x5c
 80051c6:	4b87      	ldr	r3, [pc, #540]	; (80053e4 <exec_usb_cmd+0xb2c>)
 80051c8:	429a      	cmp	r2, r3
 80051ca:	f63f ac4c 	bhi.w	8004a66 <exec_usb_cmd+0x1ae>
        	HAL_UART_DeInit(huart_active);
 80051ce:	4c80      	ldr	r4, [pc, #512]	; (80053d0 <exec_usb_cmd+0xb18>)
 80051d0:	6820      	ldr	r0, [r4, #0]
 80051d2:	f7fd f950 	bl	8002476 <HAL_UART_DeInit>
        	huart3.Init.BaudRate = eeprom_settings.UART_Speed;
 80051d6:	6dea      	ldr	r2, [r5, #92]	; 0x5c
 80051d8:	4b7e      	ldr	r3, [pc, #504]	; (80053d4 <exec_usb_cmd+0xb1c>)
        	if (HAL_UART_Init(huart_active) != HAL_OK)
 80051da:	6820      	ldr	r0, [r4, #0]
        	huart3.Init.BaudRate = eeprom_settings.UART_Speed;
 80051dc:	605a      	str	r2, [r3, #4]
        	if (HAL_UART_Init(huart_active) != HAL_OK)
 80051de:	e7c4      	b.n	800516a <exec_usb_cmd+0x8b2>
        		if(cmd_buf[i] < '0' || cmd_buf[i] > '9') return ERROR;
 80051e0:	7863      	ldrb	r3, [r4, #1]
 80051e2:	3b30      	subs	r3, #48	; 0x30
 80051e4:	2b09      	cmp	r3, #9
 80051e6:	f63f ac3e 	bhi.w	8004a66 <exec_usb_cmd+0x1ae>
        		eeprom_settings.UART_Speed *= 10;
 80051ea:	6deb      	ldr	r3, [r5, #92]	; 0x5c
 80051ec:	434b      	muls	r3, r1
 80051ee:	65eb      	str	r3, [r5, #92]	; 0x5c
        		eeprom_settings.UART_Speed += HexTo4bits(cmd_buf[i]);
 80051f0:	f814 0f01 	ldrb.w	r0, [r4, #1]!
 80051f4:	f7fe fe88 	bl	8003f08 <HexTo4bits>
 80051f8:	6deb      	ldr	r3, [r5, #92]	; 0x5c
 80051fa:	4418      	add	r0, r3
 80051fc:	65e8      	str	r0, [r5, #92]	; 0x5c
        	for(int i = 1; i < cmd_len; i++)
 80051fe:	e7da      	b.n	80051b6 <exec_usb_cmd+0x8fe>
        	if(cmd_buf[1] < '0' || cmd_buf[1] > '4') return ERROR;
 8005200:	7860      	ldrb	r0, [r4, #1]
 8005202:	f1a0 0330 	sub.w	r3, r0, #48	; 0x30
 8005206:	2b04      	cmp	r3, #4
 8005208:	f63f ac2d 	bhi.w	8004a66 <exec_usb_cmd+0x1ae>
        	eeprom_settings.numBus = HexTo4bits(cmd_buf[1]) - 1;
 800520c:	f7fe fe7c 	bl	8003f08 <HexTo4bits>
 8005210:	4b6e      	ldr	r3, [pc, #440]	; (80053cc <exec_usb_cmd+0xb14>)
 8005212:	3801      	subs	r0, #1
 8005214:	b2c0      	uxtb	r0, r0
 8005216:	7218      	strb	r0, [r3, #8]
        	if(Open_CAN_cannel() != HAL_OK) return ERROR;
 8005218:	f7ff fb10 	bl	800483c <Open_CAN_cannel>
 800521c:	e479      	b.n	8004b12 <exec_usb_cmd+0x25a>
            if(cmd_buf[1] == '1')
 800521e:	7863      	ldrb	r3, [r4, #1]
 8005220:	2b31      	cmp	r3, #49	; 0x31
 8005222:	d108      	bne.n	8005236 <exec_usb_cmd+0x97e>
            	conf.scpipt_saving = true;
 8005224:	2301      	movs	r3, #1
 8005226:	71eb      	strb	r3, [r5, #7]
            	conf.state = IDLE_ST;
 8005228:	2300      	movs	r3, #0
 800522a:	702b      	strb	r3, [r5, #0]
            	conf.script_address = eeprom_settings.start_address_csript;
 800522c:	4b67      	ldr	r3, [pc, #412]	; (80053cc <exec_usb_cmd+0xb14>)
 800522e:	88db      	ldrh	r3, [r3, #6]
 8005230:	816b      	strh	r3, [r5, #10]
 8005232:	f7ff bbc1 	b.w	80049b8 <exec_usb_cmd+0x100>
            else if(cmd_buf[1] == '0')
 8005236:	2b30      	cmp	r3, #48	; 0x30
 8005238:	d108      	bne.n	800524c <exec_usb_cmd+0x994>
            	uint8_t terminator = 0xFF;
 800523a:	23ff      	movs	r3, #255	; 0xff
 800523c:	f88d 3024 	strb.w	r3, [sp, #36]	; 0x24
            	conf.scpipt_saving = false;
 8005240:	2300      	movs	r3, #0
            	EEPROM_Write(&hspi2, conf.script_address, &terminator, 1);
 8005242:	8969      	ldrh	r1, [r5, #10]
            	conf.scpipt_saving = false;
 8005244:	71eb      	strb	r3, [r5, #7]
            	EEPROM_Write(&hspi2, conf.script_address, &terminator, 1);
 8005246:	aa09      	add	r2, sp, #36	; 0x24
 8005248:	2301      	movs	r3, #1
 800524a:	e796      	b.n	800517a <exec_usb_cmd+0x8c2>
            else if(cmd_buf[1] == '2')
 800524c:	2b32      	cmp	r3, #50	; 0x32
 800524e:	f47f abb3 	bne.w	80049b8 <exec_usb_cmd+0x100>
            	conf.script_print = true;
 8005252:	2301      	movs	r3, #1
 8005254:	726b      	strb	r3, [r5, #9]
 8005256:	f7ff bbaf 	b.w	80049b8 <exec_usb_cmd+0x100>
        	if(conf.script_run)	conf.script_loop_address = conf.script_address;
 800525a:	7a2b      	ldrb	r3, [r5, #8]
 800525c:	2b00      	cmp	r3, #0
 800525e:	f43f abab 	beq.w	80049b8 <exec_usb_cmd+0x100>
 8005262:	896b      	ldrh	r3, [r5, #10]
 8005264:	81ab      	strh	r3, [r5, #12]
 8005266:	f7ff bba7 	b.w	80049b8 <exec_usb_cmd+0x100>
        	conf.script_delay = 0;
 800526a:	2300      	movs	r3, #0
        		conf.script_delay *= 10;
 800526c:	210a      	movs	r1, #10
        	conf.script_delay = 0;
 800526e:	616b      	str	r3, [r5, #20]
        	for(int i = 1; i < cmd_len; i++)
 8005270:	f1c4 0201 	rsb	r2, r4, #1
 8005274:	1913      	adds	r3, r2, r4
 8005276:	429e      	cmp	r6, r3
 8005278:	dc06      	bgt.n	8005288 <exec_usb_cmd+0x9d0>
        	conf.script_timestamp = HAL_GetTick();
 800527a:	f7fb faa5 	bl	80007c8 <HAL_GetTick>
        	conf.script_delay_active = true;
 800527e:	2301      	movs	r3, #1
        	conf.script_timestamp = HAL_GetTick();
 8005280:	6128      	str	r0, [r5, #16]
        	conf.script_delay_active = true;
 8005282:	762b      	strb	r3, [r5, #24]
    return ERROR;
 8005284:	f7ff bbef 	b.w	8004a66 <exec_usb_cmd+0x1ae>
        		if(cmd_buf[i] < '0' || cmd_buf[i] > '9') return ERROR;
 8005288:	7863      	ldrb	r3, [r4, #1]
 800528a:	3b30      	subs	r3, #48	; 0x30
 800528c:	2b09      	cmp	r3, #9
 800528e:	f63f abea 	bhi.w	8004a66 <exec_usb_cmd+0x1ae>
        		conf.script_delay *= 10;
 8005292:	696b      	ldr	r3, [r5, #20]
 8005294:	434b      	muls	r3, r1
 8005296:	616b      	str	r3, [r5, #20]
        		conf.script_delay += HexTo4bits(cmd_buf[i]);
 8005298:	f814 0f01 	ldrb.w	r0, [r4, #1]!
 800529c:	f7fe fe34 	bl	8003f08 <HexTo4bits>
 80052a0:	4403      	add	r3, r0
 80052a2:	616b      	str	r3, [r5, #20]
        	for(int i = 1; i < cmd_len; i++)
 80052a4:	e7e6      	b.n	8005274 <exec_usb_cmd+0x9bc>
        	conf.script_run = false;
 80052a6:	2300      	movs	r3, #0
        	conf.script_run = true;
 80052a8:	722b      	strb	r3, [r5, #8]
        	return CR;
 80052aa:	f7ff bb85 	b.w	80049b8 <exec_usb_cmd+0x100>
        	conf.script_address = eeprom_settings.start_address_csript;
 80052ae:	4b47      	ldr	r3, [pc, #284]	; (80053cc <exec_usb_cmd+0xb14>)
 80052b0:	88db      	ldrh	r3, [r3, #6]
 80052b2:	816b      	strh	r3, [r5, #10]
        	conf.script_run = true;
 80052b4:	2301      	movs	r3, #1
 80052b6:	e7f7      	b.n	80052a8 <exec_usb_cmd+0x9f0>
        	conf.loger_run = false;
 80052b8:	2300      	movs	r3, #0
        		conf.loger_run = true;
 80052ba:	f885 302d 	strb.w	r3, [r5, #45]	; 0x2d
        	return CR;
 80052be:	f7ff bb7b 	b.w	80049b8 <exec_usb_cmd+0x100>
        	if(cmd_len == 2)
 80052c2:	2e02      	cmp	r6, #2
 80052c4:	d10d      	bne.n	80052e2 <exec_usb_cmd+0xa2a>
        		if(cmd_buf[1] >= '0' && cmd_buf[1] <='3')
 80052c6:	7863      	ldrb	r3, [r4, #1]
 80052c8:	3b30      	subs	r3, #48	; 0x30
 80052ca:	b2db      	uxtb	r3, r3
 80052cc:	2b03      	cmp	r3, #3
 80052ce:	f63f abca 	bhi.w	8004a66 <exec_usb_cmd+0x1ae>
        			eeprom_settings.fileOutputType = cmd_buf[1] - '0';
 80052d2:	4a3e      	ldr	r2, [pc, #248]	; (80053cc <exec_usb_cmd+0xb14>)
        			EEPROM_Write(&hspi2, EEPROM_SETINGS_ADDR + ((uint32_t)&eeprom_settings.fileOutputType - (uint32_t)&eeprom_settings), (uint8_t*)&eeprom_settings.fileOutputType, sizeof(eeprom_settings.fileOutputType));
 80052d4:	2164      	movs	r1, #100	; 0x64
        			eeprom_settings.fileOutputType = cmd_buf[1] - '0';
 80052d6:	f802 3f64 	strb.w	r3, [r2, #100]!
        			EEPROM_Write(&hspi2, EEPROM_SETINGS_ADDR + ((uint32_t)&eeprom_settings.fileOutputType - (uint32_t)&eeprom_settings), (uint8_t*)&eeprom_settings.fileOutputType, sizeof(eeprom_settings.fileOutputType));
 80052da:	4840      	ldr	r0, [pc, #256]	; (80053dc <exec_usb_cmd+0xb24>)
 80052dc:	2301      	movs	r3, #1
 80052de:	f000 ff01 	bl	80060e4 <EEPROM_Write>
        	if(conf.sd_card_avalible == false)
 80052e2:	f895 402c 	ldrb.w	r4, [r5, #44]	; 0x2c
 80052e6:	b954      	cbnz	r4, 80052fe <exec_usb_cmd+0xa46>
        		fresult = f_mount(&fs, "0:", 1);
 80052e8:	2201      	movs	r2, #1
 80052ea:	493f      	ldr	r1, [pc, #252]	; (80053e8 <exec_usb_cmd+0xb30>)
 80052ec:	483f      	ldr	r0, [pc, #252]	; (80053ec <exec_usb_cmd+0xb34>)
 80052ee:	f7fe f8e7 	bl	80034c0 <f_mount>
 80052f2:	4b3f      	ldr	r3, [pc, #252]	; (80053f0 <exec_usb_cmd+0xb38>)
 80052f4:	7018      	strb	r0, [r3, #0]
        		if(fresult == FR_OK) conf.sd_card_avalible = true;
 80052f6:	bba8      	cbnz	r0, 8005364 <exec_usb_cmd+0xaac>
 80052f8:	2301      	movs	r3, #1
 80052fa:	f885 302c 	strb.w	r3, [r5, #44]	; 0x2c
        	if(conf.loger_run == true) return CR;
 80052fe:	f895 302d 	ldrb.w	r3, [r5, #45]	; 0x2d
 8005302:	2b01      	cmp	r3, #1
 8005304:	f43f ab58 	beq.w	80049b8 <exec_usb_cmd+0x100>
        		fresult = f_mkdir((TCHAR*)pathname);
 8005308:	4e39      	ldr	r6, [pc, #228]	; (80053f0 <exec_usb_cmd+0xb38>)
        	conf.fileOutputType = eeprom_settings.fileOutputType;
 800530a:	4c30      	ldr	r4, [pc, #192]	; (80053cc <exec_usb_cmd+0xb14>)
 800530c:	4637      	mov	r7, r6
 800530e:	f894 3064 	ldrb.w	r3, [r4, #100]	; 0x64
        		Generate_Next_Path(pathname);
 8005312:	f8df 80f0 	ldr.w	r8, [pc, #240]	; 8005404 <exec_usb_cmd+0xb4c>
        	conf.fileOutputType = eeprom_settings.fileOutputType;
 8005316:	f885 3031 	strb.w	r3, [r5, #49]	; 0x31
        		Generate_Next_Path(pathname);
 800531a:	4640      	mov	r0, r8
 800531c:	f7fe fd74 	bl	8003e08 <Generate_Next_Path>
        		fresult = f_mkdir((TCHAR*)pathname);
 8005320:	f7fe fbe6 	bl	8003af0 <f_mkdir>
        	while(fresult == FR_EXIST);
 8005324:	2808      	cmp	r0, #8
        		fresult = f_mkdir((TCHAR*)pathname);
 8005326:	7030      	strb	r0, [r6, #0]
        	while(fresult == FR_EXIST);
 8005328:	d0f7      	beq.n	800531a <exec_usb_cmd+0xa62>
        	if(fresult != FR_OK) return ERROR;
 800532a:	2800      	cmp	r0, #0
 800532c:	f47f ab9b 	bne.w	8004a66 <exec_usb_cmd+0x1ae>
        		Generate_Next_FileName(filename, pathname);
 8005330:	f8df 90d0 	ldr.w	r9, [pc, #208]	; 8005404 <exec_usb_cmd+0xb4c>
 8005334:	4e2f      	ldr	r6, [pc, #188]	; (80053f4 <exec_usb_cmd+0xb3c>)
        		fresult = f_open(&fil, (TCHAR*)filename, FA_WRITE | FA_CREATE_NEW | FA_CREATE_ALWAYS);
 8005336:	f8df 80d0 	ldr.w	r8, [pc, #208]	; 8005408 <exec_usb_cmd+0xb50>
        		Generate_Next_FileName(filename, pathname);
 800533a:	4649      	mov	r1, r9
 800533c:	4630      	mov	r0, r6
 800533e:	f7fe fd03 	bl	8003d48 <Generate_Next_FileName>
        		fresult = f_open(&fil, (TCHAR*)filename, FA_WRITE | FA_CREATE_NEW | FA_CREATE_ALWAYS);
 8005342:	220e      	movs	r2, #14
 8005344:	4631      	mov	r1, r6
 8005346:	4640      	mov	r0, r8
 8005348:	f7fe f8f0 	bl	800352c <f_open>
        	while(fresult == FR_EXIST);
 800534c:	2808      	cmp	r0, #8
        		fresult = f_open(&fil, (TCHAR*)filename, FA_WRITE | FA_CREATE_NEW | FA_CREATE_ALWAYS);
 800534e:	7038      	strb	r0, [r7, #0]
        	while(fresult == FR_EXIST);
 8005350:	d0f3      	beq.n	800533a <exec_usb_cmd+0xa82>
        	if(fresult == FR_OK)
 8005352:	2800      	cmp	r0, #0
 8005354:	f47f ab87 	bne.w	8004a66 <exec_usb_cmd+0x1ae>
        		conf.fileOutputType = eeprom_settings.fileOutputType;
 8005358:	f894 3064 	ldrb.w	r3, [r4, #100]	; 0x64
 800535c:	f885 3031 	strb.w	r3, [r5, #49]	; 0x31
        		conf.loger_run = true;
 8005360:	2301      	movs	r3, #1
 8005362:	e7aa      	b.n	80052ba <exec_usb_cmd+0xa02>
        			f_mount(0, "0:", 1);
 8005364:	2201      	movs	r2, #1
 8005366:	4620      	mov	r0, r4
 8005368:	491f      	ldr	r1, [pc, #124]	; (80053e8 <exec_usb_cmd+0xb30>)
 800536a:	f7fe f8a9 	bl	80034c0 <f_mount>
        			disk.is_initialized[0] = 0; // Reset flag of initialized
 800536e:	4b22      	ldr	r3, [pc, #136]	; (80053f8 <exec_usb_cmd+0xb40>)
 8005370:	701c      	strb	r4, [r3, #0]
        			return ERROR;
 8005372:	f7ff bb78 	b.w	8004a66 <exec_usb_cmd+0x1ae>
        	conf.LIN_is_Master = (cmd_buf[1] == 'M' || cmd_buf[1] == '1') ? true : false;
 8005376:	7863      	ldrb	r3, [r4, #1]
 8005378:	2b4d      	cmp	r3, #77	; 0x4d
 800537a:	d007      	beq.n	800538c <exec_usb_cmd+0xad4>
 800537c:	f1a3 0231 	sub.w	r2, r3, #49	; 0x31
 8005380:	4253      	negs	r3, r2
 8005382:	4153      	adcs	r3, r2
 8005384:	f885 302e 	strb.w	r3, [r5, #46]	; 0x2e
        	return CR;
 8005388:	f7ff bb16 	b.w	80049b8 <exec_usb_cmd+0x100>
        	conf.LIN_is_Master = (cmd_buf[1] == 'M' || cmd_buf[1] == '1') ? true : false;
 800538c:	2301      	movs	r3, #1
 800538e:	e7f9      	b.n	8005384 <exec_usb_cmd+0xacc>
        	conf.help_print = true;
 8005390:	2301      	movs	r3, #1
 8005392:	766b      	strb	r3, [r5, #25]
        	conf.help_text_pointer = 0;
 8005394:	2300      	movs	r3, #0
 8005396:	836b      	strh	r3, [r5, #26]
        	return CR;
 8005398:	f7ff bb0e 	b.w	80049b8 <exec_usb_cmd+0x100>
        	if(cmd_buf[1] == 'R' && cmd_buf[2] == 'S' && cmd_buf[3] == 'T')
 800539c:	7863      	ldrb	r3, [r4, #1]
 800539e:	2b52      	cmp	r3, #82	; 0x52
 80053a0:	d134      	bne.n	800540c <exec_usb_cmd+0xb54>
 80053a2:	78a3      	ldrb	r3, [r4, #2]
 80053a4:	2b53      	cmp	r3, #83	; 0x53
 80053a6:	f47f ab07 	bne.w	80049b8 <exec_usb_cmd+0x100>
 80053aa:	78e3      	ldrb	r3, [r4, #3]
 80053ac:	2b54      	cmp	r3, #84	; 0x54
 80053ae:	f47f ab03 	bne.w	80049b8 <exec_usb_cmd+0x100>
  __ASM volatile ("dsb 0xF":::"memory");
 80053b2:	f3bf 8f4f 	dsb	sy
                           (SCB->AIRCR & SCB_AIRCR_PRIGROUP_Msk) |
 80053b6:	4911      	ldr	r1, [pc, #68]	; (80053fc <exec_usb_cmd+0xb44>)
  SCB->AIRCR  = (uint32_t)((0x5FAUL << SCB_AIRCR_VECTKEY_Pos)    |
 80053b8:	4b11      	ldr	r3, [pc, #68]	; (8005400 <exec_usb_cmd+0xb48>)
                           (SCB->AIRCR & SCB_AIRCR_PRIGROUP_Msk) |
 80053ba:	68ca      	ldr	r2, [r1, #12]
 80053bc:	f402 62e0 	and.w	r2, r2, #1792	; 0x700
  SCB->AIRCR  = (uint32_t)((0x5FAUL << SCB_AIRCR_VECTKEY_Pos)    |
 80053c0:	4313      	orrs	r3, r2
 80053c2:	60cb      	str	r3, [r1, #12]
 80053c4:	f3bf 8f4f 	dsb	sy
    __NOP();
 80053c8:	bf00      	nop
  for(;;)                                                           /* wait until reset */
 80053ca:	e7fd      	b.n	80053c8 <exec_usb_cmd+0xb10>
 80053cc:	20000d28 	.word	0x20000d28
 80053d0:	20002af4 	.word	0x20002af4
 80053d4:	20002e70 	.word	0x20002e70
 80053d8:	20000d84 	.word	0x20000d84
 80053dc:	20002dbc 	.word	0x20002dbc
 80053e0:	000f4240 	.word	0x000f4240
 80053e4:	001e8480 	.word	0x001e8480
 80053e8:	080084d9 	.word	0x080084d9
 80053ec:	20001f9c 	.word	0x20001f9c
 80053f0:	20000119 	.word	0x20000119
 80053f4:	20000009 	.word	0x20000009
 80053f8:	200000e4 	.word	0x200000e4
 80053fc:	e000ed00 	.word	0xe000ed00
 8005400:	05fa0004 	.word	0x05fa0004
 8005404:	20000020 	.word	0x20000020
 8005408:	20002afc 	.word	0x20002afc
        	if(cmd_buf[1] == 'S' && cmd_buf[2] == 'D')
 800540c:	2b53      	cmp	r3, #83	; 0x53
 800540e:	f47f aad3 	bne.w	80049b8 <exec_usb_cmd+0x100>
 8005412:	78a3      	ldrb	r3, [r4, #2]
 8005414:	2b44      	cmp	r3, #68	; 0x44
 8005416:	f47f aacf 	bne.w	80049b8 <exec_usb_cmd+0x100>
        		if(cmd_buf[3] == '1') eeprom_settings.SD_autoconnect = 1;
 800541a:	78e3      	ldrb	r3, [r4, #3]
        		EEPROM_Write(&hspi2, EEPROM_SETINGS_ADDR + ((uint32_t)&eeprom_settings.SD_autoconnect - (uint32_t)&eeprom_settings), (uint8_t*)&eeprom_settings.SD_autoconnect, sizeof(eeprom_settings.SD_autoconnect));
 800541c:	2165      	movs	r1, #101	; 0x65
        		if(cmd_buf[3] == '1') eeprom_settings.SD_autoconnect = 1;
 800541e:	2b31      	cmp	r3, #49	; 0x31
 8005420:	bf02      	ittt	eq
 8005422:	2201      	moveq	r2, #1
 8005424:	4b06      	ldreq	r3, [pc, #24]	; (8005440 <exec_usb_cmd+0xb88>)
 8005426:	f883 2065 	strbeq.w	r2, [r3, #101]	; 0x65
        		if(cmd_buf[3] == '0') eeprom_settings.SD_autoconnect = 0;
 800542a:	78e3      	ldrb	r3, [r4, #3]
 800542c:	2b30      	cmp	r3, #48	; 0x30
 800542e:	bf02      	ittt	eq
 8005430:	2200      	moveq	r2, #0
 8005432:	4b03      	ldreq	r3, [pc, #12]	; (8005440 <exec_usb_cmd+0xb88>)
 8005434:	f883 2065 	strbeq.w	r2, [r3, #101]	; 0x65
        		EEPROM_Write(&hspi2, EEPROM_SETINGS_ADDR + ((uint32_t)&eeprom_settings.SD_autoconnect - (uint32_t)&eeprom_settings), (uint8_t*)&eeprom_settings.SD_autoconnect, sizeof(eeprom_settings.SD_autoconnect));
 8005438:	2301      	movs	r3, #1
 800543a:	4a02      	ldr	r2, [pc, #8]	; (8005444 <exec_usb_cmd+0xb8c>)
 800543c:	e69d      	b.n	800517a <exec_usb_cmd+0x8c2>
 800543e:	bf00      	nop
 8005440:	20000d28 	.word	0x20000d28
 8005444:	20000d8d 	.word	0x20000d8d

08005448 <Check_Command>:
{
 8005448:	e92d 43f0 	stmdb	sp!, {r4, r5, r6, r7, r8, r9, lr}
    serialCnt++;
 800544c:	4aa3      	ldr	r2, [pc, #652]	; (80056dc <Check_Command+0x294>)
    switch (state) {
 800544e:	4ca4      	ldr	r4, [pc, #656]	; (80056e0 <Check_Command+0x298>)
    serialCnt++;
 8005450:	6813      	ldr	r3, [r2, #0]
{
 8005452:	b089      	sub	sp, #36	; 0x24
    serialCnt++;
 8005454:	3301      	adds	r3, #1
 8005456:	6013      	str	r3, [r2, #0]
    switch (state) {
 8005458:	7823      	ldrb	r3, [r4, #0]
 800545a:	2b0d      	cmp	r3, #13
 800545c:	d833      	bhi.n	80054c6 <Check_Command+0x7e>
 800545e:	e8df f013 	tbh	[pc, r3, lsl #1]
 8005462:	000e      	.short	0x000e
 8005464:	01510042 	.word	0x01510042
 8005468:	003200d5 	.word	0x003200d5
 800546c:	01d10032 	.word	0x01d10032
 8005470:	003201d4 	.word	0x003201d4
 8005474:	00d50032 	.word	0x00d50032
 8005478:	026200d5 	.word	0x026200d5
 800547c:	0269      	.short	0x0269
        if (in_byte == 0xF1) state = GET_COMMAND;
 800547e:	28f1      	cmp	r0, #241	; 0xf1
 8005480:	d102      	bne.n	8005488 <Check_Command+0x40>
 8005482:	2301      	movs	r3, #1
            state = IDLE;
 8005484:	7023      	strb	r3, [r4, #0]
            break;
 8005486:	e01e      	b.n	80054c6 <Check_Command+0x7e>
        else if (in_byte == 0xE7) {
 8005488:	28e7      	cmp	r0, #231	; 0xe7
 800548a:	d105      	bne.n	8005498 <Check_Command+0x50>
            conf.useBinarySerialComm = true;
 800548c:	2201      	movs	r2, #1
 800548e:	4b95      	ldr	r3, [pc, #596]	; (80056e4 <Check_Command+0x29c>)
 8005490:	709a      	strb	r2, [r3, #2]
            conf.state = SAVVYCAN_CONNECT;
 8005492:	2202      	movs	r2, #2
            uart_tx_com_bufer[0] = 0xF1;
 8005494:	701a      	strb	r2, [r3, #0]
            break;
 8005496:	e016      	b.n	80054c6 <Check_Command+0x7e>
        	if (in_byte == CR)	// check for end of command
 8005498:	280d      	cmp	r0, #13
 800549a:	d11a      	bne.n	80054d2 <Check_Command+0x8a>
	            temp_char = exec_usb_cmd (cmd_buf);
 800549c:	4892      	ldr	r0, [pc, #584]	; (80056e8 <Check_Command+0x2a0>)
 800549e:	f7ff fa0b 	bl	80048b8 <exec_usb_cmd>
	            uart_tx_com_bufer[uart_tx_pointer++] = temp_char;
 80054a2:	4a92      	ldr	r2, [pc, #584]	; (80056ec <Check_Command+0x2a4>)
 80054a4:	6813      	ldr	r3, [r2, #0]
 80054a6:	1c59      	adds	r1, r3, #1
 80054a8:	6011      	str	r1, [r2, #0]
 80054aa:	4a91      	ldr	r2, [pc, #580]	; (80056f0 <Check_Command+0x2a8>)
	                cmd_buf[buf_ind] = 0x00;
 80054ac:	2100      	movs	r1, #0
	            uart_tx_com_bufer[uart_tx_pointer++] = temp_char;
 80054ae:	54d0      	strb	r0, [r2, r3]
	            uart_answ_ready = 1;
 80054b0:	2201      	movs	r2, #1
 80054b2:	4b90      	ldr	r3, [pc, #576]	; (80056f4 <Check_Command+0x2ac>)
 80054b4:	701a      	strb	r2, [r3, #0]
	            for (buf_ind = 0; buf_ind < CMD_BUFFER_LENGTH; buf_ind++)
 80054b6:	231f      	movs	r3, #31
 80054b8:	4a8b      	ldr	r2, [pc, #556]	; (80056e8 <Check_Command+0x2a0>)
 80054ba:	3b01      	subs	r3, #1
 80054bc:	f013 03ff 	ands.w	r3, r3, #255	; 0xff
 80054c0:	d104      	bne.n	80054cc <Check_Command+0x84>
	            buf_ind = 0;	// point to start of command
 80054c2:	4a8d      	ldr	r2, [pc, #564]	; (80056f8 <Check_Command+0x2b0>)
	                buf_ind++;
 80054c4:	7013      	strb	r3, [r2, #0]
}
 80054c6:	b009      	add	sp, #36	; 0x24
 80054c8:	e8bd 83f0 	ldmia.w	sp!, {r4, r5, r6, r7, r8, r9, pc}
	                cmd_buf[buf_ind] = 0x00;
 80054cc:	f802 1b01 	strb.w	r1, [r2], #1
	            for (buf_ind = 0; buf_ind < CMD_BUFFER_LENGTH; buf_ind++)
 80054d0:	e7f3      	b.n	80054ba <Check_Command+0x72>
	        else if (in_byte != 0)	// store new char in buffer
 80054d2:	2800      	cmp	r0, #0
 80054d4:	d0f7      	beq.n	80054c6 <Check_Command+0x7e>
	            cmd_buf[buf_ind] = in_byte;	// store char
 80054d6:	4a88      	ldr	r2, [pc, #544]	; (80056f8 <Check_Command+0x2b0>)
 80054d8:	4983      	ldr	r1, [pc, #524]	; (80056e8 <Check_Command+0x2a0>)
 80054da:	7813      	ldrb	r3, [r2, #0]
	            if (buf_ind < sizeof (cmd_buf) - 1)
 80054dc:	2b1c      	cmp	r3, #28
	            cmd_buf[buf_ind] = in_byte;	// store char
 80054de:	54c8      	strb	r0, [r1, r3]
	            if (buf_ind < sizeof (cmd_buf) - 1)
 80054e0:	d8f1      	bhi.n	80054c6 <Check_Command+0x7e>
	                buf_ind++;
 80054e2:	3301      	adds	r3, #1
 80054e4:	e7ee      	b.n	80054c4 <Check_Command+0x7c>
        switch (in_byte) {
 80054e6:	280e      	cmp	r0, #14
 80054e8:	d8ed      	bhi.n	80054c6 <Check_Command+0x7e>
 80054ea:	e8df f010 	tbh	[pc, r0, lsl #1]
 80054ee:	000f      	.short	0x000f
 80054f0:	008f0015 	.word	0x008f0015
 80054f4:	002f008f 	.word	0x002f008f
 80054f8:	003a0034 	.word	0x003a0034
 80054fc:	0091007a 	.word	0x0091007a
 8005500:	00a9009a 	.word	0x00a9009a
 8005504:	00b000ae 	.word	0x00b000ae
 8005508:	00f500be 	.word	0x00f500be
            state = BUILD_CAN_FRAME;
 800550c:	2302      	movs	r3, #2
            uart_tx_com_bufer[0] = 0xF1;
 800550e:	22f1      	movs	r2, #241	; 0xf1
            state = ECHO_CAN_FRAME;
 8005510:	7023      	strb	r3, [r4, #0]
            uart_tx_com_bufer[0] = 0xF1;
 8005512:	4b77      	ldr	r3, [pc, #476]	; (80056f0 <Check_Command+0x2a8>)
 8005514:	701a      	strb	r2, [r3, #0]
 8005516:	e080      	b.n	800561a <Check_Command+0x1d2>
            state = IDLE;//TIME_SYNC;
 8005518:	2300      	movs	r3, #0
            step = 0;
 800551a:	4a78      	ldr	r2, [pc, #480]	; (80056fc <Check_Command+0x2b4>)
            state = IDLE;//TIME_SYNC;
 800551c:	7023      	strb	r3, [r4, #0]
            step = 0;
 800551e:	6013      	str	r3, [r2, #0]
            now = HAL_GetTick();
 8005520:	f7fb f952 	bl	80007c8 <HAL_GetTick>
            uart_tx_com_bufer[uart_tx_pointer++] = 0xF1;
 8005524:	21f1      	movs	r1, #241	; 0xf1
 8005526:	4c71      	ldr	r4, [pc, #452]	; (80056ec <Check_Command+0x2a4>)
 8005528:	4b71      	ldr	r3, [pc, #452]	; (80056f0 <Check_Command+0x2a8>)
 800552a:	6822      	ldr	r2, [r4, #0]
            uart_tx_com_bufer[uart_tx_pointer++] = (uint8_t)(now >> 8);
 800552c:	0a05      	lsrs	r5, r0, #8
            uart_tx_com_bufer[uart_tx_pointer++] = 0xF1;
 800552e:	5499      	strb	r1, [r3, r2]
            uart_tx_com_bufer[uart_tx_pointer++] = 1; //time sync
 8005530:	2101      	movs	r1, #1
 8005532:	4413      	add	r3, r2
            uart_tx_com_bufer[uart_tx_pointer++] = (uint8_t)(now & 0xFF);
 8005534:	7098      	strb	r0, [r3, #2]
            uart_tx_com_bufer[uart_tx_pointer++] = (uint8_t)(now >> 8);
 8005536:	70dd      	strb	r5, [r3, #3]
            uart_tx_com_bufer[uart_tx_pointer++] = (uint8_t)(now >> 16);
 8005538:	0c05      	lsrs	r5, r0, #16
            uart_tx_com_bufer[uart_tx_pointer++] = (uint8_t)(now >> 24);
 800553a:	0e00      	lsrs	r0, r0, #24
            uart_tx_com_bufer[uart_tx_pointer++] = 1; //time sync
 800553c:	7059      	strb	r1, [r3, #1]
            uart_tx_com_bufer[uart_tx_pointer++] = (uint8_t)(now >> 16);
 800553e:	711d      	strb	r5, [r3, #4]
            uart_tx_com_bufer[uart_tx_pointer++] = (uint8_t)(now >> 24);
 8005540:	7158      	strb	r0, [r3, #5]
            uart_answ_ready = 1;
 8005542:	4b6c      	ldr	r3, [pc, #432]	; (80056f4 <Check_Command+0x2ac>)
            uart_tx_com_bufer[uart_tx_pointer++] = (uint8_t)(now >> 24);
 8005544:	3206      	adds	r2, #6
 8005546:	6022      	str	r2, [r4, #0]
            uart_answ_ready = 1;
 8005548:	7019      	strb	r1, [r3, #0]
            break;
 800554a:	e7bc      	b.n	80054c6 <Check_Command+0x7e>
            state = SET_DIG_OUTPUTS;
 800554c:	2306      	movs	r3, #6
 800554e:	7023      	strb	r3, [r4, #0]
            uart_tx_com_bufer[0] = 0xF1;
 8005550:	22f1      	movs	r2, #241	; 0xf1
 8005552:	4b67      	ldr	r3, [pc, #412]	; (80056f0 <Check_Command+0x2a8>)
 8005554:	e79e      	b.n	8005494 <Check_Command+0x4c>
            state = SETUP_CANBUS;
 8005556:	2307      	movs	r3, #7
            step = 0;
 8005558:	2200      	movs	r2, #0
            state = SETUP_EXT_BUSES;
 800555a:	7023      	strb	r3, [r4, #0]
            step = 0;
 800555c:	4b67      	ldr	r3, [pc, #412]	; (80056fc <Check_Command+0x2b4>)
 800555e:	601a      	str	r2, [r3, #0]
            uart_tx_com_bufer[0] = 0xF1;
 8005560:	e7f6      	b.n	8005550 <Check_Command+0x108>
        	uart_tx_com_bufer[uart_tx_pointer++] = 0xF1;
 8005562:	23f1      	movs	r3, #241	; 0xf1
 8005564:	4e61      	ldr	r6, [pc, #388]	; (80056ec <Check_Command+0x2a4>)
 8005566:	4862      	ldr	r0, [pc, #392]	; (80056f0 <Check_Command+0x2a8>)
 8005568:	6831      	ldr	r1, [r6, #0]
        	uart_tx_com_bufer[uart_tx_pointer++] = conf.CAN_Enable[0] + (eeprom_settings.CAN_mode[0] == CAN_MODE_SILENT ? 1 << 4 : 0);
 800556a:	4f5e      	ldr	r7, [pc, #376]	; (80056e4 <Check_Command+0x29c>)
        	uart_tx_com_bufer[uart_tx_pointer++] = 0xF1;
 800556c:	5443      	strb	r3, [r0, r1]
        	uart_tx_com_bufer[uart_tx_pointer++] = 6;
 800556e:	2306      	movs	r3, #6
 8005570:	1842      	adds	r2, r0, r1
 8005572:	7053      	strb	r3, [r2, #1]
        	uart_tx_com_bufer[uart_tx_pointer++] = conf.CAN_Enable[0] + (eeprom_settings.CAN_mode[0] == CAN_MODE_SILENT ? 1 << 4 : 0);
 8005574:	4b62      	ldr	r3, [pc, #392]	; (8005700 <Check_Command+0x2b8>)
 8005576:	78fd      	ldrb	r5, [r7, #3]
 8005578:	f8d3 e034 	ldr.w	lr, [r3, #52]	; 0x34
        	uart_tx_com_bufer[uart_tx_pointer++] = 6;
 800557c:	f101 0c02 	add.w	ip, r1, #2
        	uart_tx_com_bufer[uart_tx_pointer++] = conf.CAN_Enable[0] + (eeprom_settings.CAN_mode[0] == CAN_MODE_SILENT ? 1 << 4 : 0);
 8005580:	f1be 4f00 	cmp.w	lr, #2147483648	; 0x80000000
 8005584:	bf0c      	ite	eq
 8005586:	f04f 0e10 	moveq.w	lr, #16
 800558a:	f04f 0e00 	movne.w	lr, #0
 800558e:	4475      	add	r5, lr
 8005590:	f800 500c 	strb.w	r5, [r0, ip]
        	uart_tx_com_bufer[uart_tx_pointer++] = eeprom_settings.CAN_Speed[0];
 8005594:	68dd      	ldr	r5, [r3, #12]
        	uart_tx_com_bufer[uart_tx_pointer++] = eeprom_settings.CAN_Speed[0] >> 24;
 8005596:	f101 0c07 	add.w	ip, r1, #7
        	uart_tx_com_bufer[uart_tx_pointer++] = eeprom_settings.CAN_Speed[0];
 800559a:	70d5      	strb	r5, [r2, #3]
        	uart_tx_com_bufer[uart_tx_pointer++] = eeprom_settings.CAN_Speed[0] >> 8;
 800559c:	68dd      	ldr	r5, [r3, #12]
        	uart_tx_com_bufer[uart_tx_pointer++] = eeprom_settings.CAN_Speed[1] >> 24;
 800559e:	310c      	adds	r1, #12
        	uart_tx_com_bufer[uart_tx_pointer++] = eeprom_settings.CAN_Speed[0] >> 8;
 80055a0:	0a2d      	lsrs	r5, r5, #8
 80055a2:	7115      	strb	r5, [r2, #4]
        	uart_tx_com_bufer[uart_tx_pointer++] = eeprom_settings.CAN_Speed[0] >> 16;
 80055a4:	68dd      	ldr	r5, [r3, #12]
        	uart_tx_com_bufer[uart_tx_pointer++] = eeprom_settings.CAN_Speed[1] >> 24;
 80055a6:	6031      	str	r1, [r6, #0]
        	uart_tx_com_bufer[uart_tx_pointer++] = eeprom_settings.CAN_Speed[0] >> 16;
 80055a8:	0c2d      	lsrs	r5, r5, #16
 80055aa:	7155      	strb	r5, [r2, #5]
        	uart_tx_com_bufer[uart_tx_pointer++] = eeprom_settings.CAN_Speed[0] >> 24;
 80055ac:	68dd      	ldr	r5, [r3, #12]
 80055ae:	0e2d      	lsrs	r5, r5, #24
 80055b0:	7195      	strb	r5, [r2, #6]
        	uart_tx_com_bufer[uart_tx_pointer++] = conf.CAN_Enable[1] + (eeprom_settings.CAN_mode[1] == CAN_MODE_SILENT ? 1 << 4 : 0);
 80055b2:	793d      	ldrb	r5, [r7, #4]
 80055b4:	6b9f      	ldr	r7, [r3, #56]	; 0x38
 80055b6:	f1b7 4f00 	cmp.w	r7, #2147483648	; 0x80000000
 80055ba:	bf0c      	ite	eq
 80055bc:	2710      	moveq	r7, #16
 80055be:	2700      	movne	r7, #0
 80055c0:	443d      	add	r5, r7
 80055c2:	f800 500c 	strb.w	r5, [r0, ip]
        	uart_tx_com_bufer[uart_tx_pointer++] = eeprom_settings.CAN_Speed[1];
 80055c6:	6918      	ldr	r0, [r3, #16]
 80055c8:	7210      	strb	r0, [r2, #8]
        	uart_tx_com_bufer[uart_tx_pointer++] = eeprom_settings.CAN_Speed[1] >> 8;
 80055ca:	6918      	ldr	r0, [r3, #16]
 80055cc:	0a00      	lsrs	r0, r0, #8
 80055ce:	7250      	strb	r0, [r2, #9]
        	uart_tx_com_bufer[uart_tx_pointer++] = eeprom_settings.CAN_Speed[1] >> 16;
 80055d0:	6918      	ldr	r0, [r3, #16]
        	uart_tx_com_bufer[uart_tx_pointer++] = eeprom_settings.CAN_Speed[1] >> 24;
 80055d2:	691b      	ldr	r3, [r3, #16]
        	uart_tx_com_bufer[uart_tx_pointer++] = eeprom_settings.CAN_Speed[1] >> 16;
 80055d4:	0c00      	lsrs	r0, r0, #16
        	uart_tx_com_bufer[uart_tx_pointer++] = eeprom_settings.CAN_Speed[1] >> 24;
 80055d6:	0e1b      	lsrs	r3, r3, #24
        	uart_tx_com_bufer[uart_tx_pointer++] = eeprom_settings.CAN_Speed[1] >> 16;
 80055d8:	7290      	strb	r0, [r2, #10]
        	uart_tx_com_bufer[uart_tx_pointer++] = eeprom_settings.CAN_Speed[1] >> 24;
 80055da:	72d3      	strb	r3, [r2, #11]
            uart_answ_ready = 1;
 80055dc:	2201      	movs	r2, #1
 80055de:	4b45      	ldr	r3, [pc, #276]	; (80056f4 <Check_Command+0x2ac>)
 80055e0:	e013      	b.n	800560a <Check_Command+0x1c2>
        	uart_tx_com_bufer[uart_tx_pointer++] = 0xF1;
 80055e2:	22f1      	movs	r2, #241	; 0xf1
 80055e4:	4841      	ldr	r0, [pc, #260]	; (80056ec <Check_Command+0x2a4>)
 80055e6:	4b42      	ldr	r3, [pc, #264]	; (80056f0 <Check_Command+0x2a8>)
 80055e8:	6801      	ldr	r1, [r0, #0]
        	uart_tx_com_bufer[uart_tx_pointer++] = EEPROM_VER;
 80055ea:	2517      	movs	r5, #23
        	uart_tx_com_bufer[uart_tx_pointer++] = 0xF1;
 80055ec:	545a      	strb	r2, [r3, r1]
        	uart_tx_com_bufer[uart_tx_pointer++] = 7;
 80055ee:	2207      	movs	r2, #7
 80055f0:	440b      	add	r3, r1
 80055f2:	705a      	strb	r2, [r3, #1]
        	uart_tx_com_bufer[uart_tx_pointer++] = CFG_BUILD_NUM & 0xFF;
 80055f4:	2257      	movs	r2, #87	; 0x57
 80055f6:	709a      	strb	r2, [r3, #2]
        	uart_tx_com_bufer[uart_tx_pointer++] = (CFG_BUILD_NUM >> 8);
 80055f8:	2201      	movs	r2, #1
        	uart_tx_com_bufer[uart_tx_pointer++] = EEPROM_VER;
 80055fa:	711d      	strb	r5, [r3, #4]
        	uart_tx_com_bufer[uart_tx_pointer++] = (CFG_BUILD_NUM >> 8);
 80055fc:	70da      	strb	r2, [r3, #3]
        	uart_tx_com_bufer[uart_tx_pointer++] = 1;//(unsigned char)settings.fileOutputType;
 80055fe:	715a      	strb	r2, [r3, #5]
        	uart_tx_com_bufer[uart_tx_pointer++] = 1;//(unsigned char)settings.autoStartLogging;
 8005600:	719a      	strb	r2, [r3, #6]
        	uart_tx_com_bufer[uart_tx_pointer++] = 1;//settings.singleWire_Enabled;
 8005602:	3108      	adds	r1, #8
 8005604:	71da      	strb	r2, [r3, #7]
            uart_answ_ready = 1;
 8005606:	4b3b      	ldr	r3, [pc, #236]	; (80056f4 <Check_Command+0x2ac>)
        	uart_tx_com_bufer[uart_tx_pointer++] = 1;//settings.singleWire_Enabled;
 8005608:	6001      	str	r1, [r0, #0]
            uart_answ_ready = 1;
 800560a:	701a      	strb	r2, [r3, #0]
            state = IDLE;
 800560c:	2300      	movs	r3, #0
 800560e:	e739      	b.n	8005484 <Check_Command+0x3c>
            uart_tx_com_bufer[0] = 0xF1;
 8005610:	22f1      	movs	r2, #241	; 0xf1
 8005612:	4b37      	ldr	r3, [pc, #220]	; (80056f0 <Check_Command+0x2a8>)
 8005614:	701a      	strb	r2, [r3, #0]
            state = SET_SINGLEWIRE_MODE;
 8005616:	230a      	movs	r3, #10
            state = SET_SYSTYPE;
 8005618:	7023      	strb	r3, [r4, #0]
            step = 0;
 800561a:	2200      	movs	r2, #0
 800561c:	4b37      	ldr	r3, [pc, #220]	; (80056fc <Check_Command+0x2b4>)
 800561e:	601a      	str	r2, [r3, #0]
            break;
 8005620:	e751      	b.n	80054c6 <Check_Command+0x7e>
        	uart_tx_com_bufer[uart_tx_pointer++] = 0xF1;
 8005622:	20f1      	movs	r0, #241	; 0xf1
 8005624:	4931      	ldr	r1, [pc, #196]	; (80056ec <Check_Command+0x2a4>)
 8005626:	4b32      	ldr	r3, [pc, #200]	; (80056f0 <Check_Command+0x2a8>)
 8005628:	680a      	ldr	r2, [r1, #0]
 800562a:	5498      	strb	r0, [r3, r2]
        	uart_tx_com_bufer[uart_tx_pointer++] = 0x09;
 800562c:	2009      	movs	r0, #9
 800562e:	4413      	add	r3, r2
        	uart_tx_com_bufer[uart_tx_pointer++] = 0xAD;
 8005630:	3204      	adds	r2, #4
        	uart_tx_com_bufer[uart_tx_pointer++] = 0x09;
 8005632:	7058      	strb	r0, [r3, #1]
        	uart_tx_com_bufer[uart_tx_pointer++] = 0xAD;
 8005634:	600a      	str	r2, [r1, #0]
        	uart_tx_com_bufer[uart_tx_pointer++] = 0xDE;
 8005636:	20de      	movs	r0, #222	; 0xde
        	uart_tx_com_bufer[uart_tx_pointer++] = 0xAD;
 8005638:	22ad      	movs	r2, #173	; 0xad
        	uart_tx_com_bufer[uart_tx_pointer++] = 0xDE;
 800563a:	7098      	strb	r0, [r3, #2]
        	uart_tx_com_bufer[uart_tx_pointer++] = 0xAD;
 800563c:	70da      	strb	r2, [r3, #3]
            uart_answ_ready = 1;
 800563e:	e7cd      	b.n	80055dc <Check_Command+0x194>
            uart_tx_com_bufer[0] = 0xF1;
 8005640:	22f1      	movs	r2, #241	; 0xf1
 8005642:	4b2b      	ldr	r3, [pc, #172]	; (80056f0 <Check_Command+0x2a8>)
 8005644:	701a      	strb	r2, [r3, #0]
            state = SET_SYSTYPE;
 8005646:	230b      	movs	r3, #11
 8005648:	e7e6      	b.n	8005618 <Check_Command+0x1d0>
            state = ECHO_CAN_FRAME;
 800564a:	230c      	movs	r3, #12
 800564c:	e75f      	b.n	800550e <Check_Command+0xc6>
            uart_tx_com_bufer[uart_tx_pointer++] = 0xF1;
 800564e:	20f1      	movs	r0, #241	; 0xf1
 8005650:	4926      	ldr	r1, [pc, #152]	; (80056ec <Check_Command+0x2a4>)
 8005652:	4b27      	ldr	r3, [pc, #156]	; (80056f0 <Check_Command+0x2a8>)
 8005654:	680a      	ldr	r2, [r1, #0]
 8005656:	5498      	strb	r0, [r3, r2]
            uart_tx_com_bufer[uart_tx_pointer++] = 12;
 8005658:	200c      	movs	r0, #12
 800565a:	4413      	add	r3, r2
            uart_tx_com_bufer[uart_tx_pointer++] = eeprom_settings.number_of_busses; //CAN0, CAN1, SWCAN
 800565c:	3203      	adds	r2, #3
 800565e:	600a      	str	r2, [r1, #0]
 8005660:	4a27      	ldr	r2, [pc, #156]	; (8005700 <Check_Command+0x2b8>)
            uart_tx_com_bufer[uart_tx_pointer++] = 12;
 8005662:	7058      	strb	r0, [r3, #1]
            uart_tx_com_bufer[uart_tx_pointer++] = eeprom_settings.number_of_busses; //CAN0, CAN1, SWCAN
 8005664:	7912      	ldrb	r2, [r2, #4]
 8005666:	709a      	strb	r2, [r3, #2]
 8005668:	e7b8      	b.n	80055dc <Check_Command+0x194>
            uart_tx_com_bufer[0] = 0xF1;
 800566a:	22f1      	movs	r2, #241	; 0xf1
 800566c:	4b20      	ldr	r3, [pc, #128]	; (80056f0 <Check_Command+0x2a8>)
            uart_tx_com_bufer[2] = conf.CAN_Enable[2] + (eeprom_settings.CAN_mode[2] == CAN_MODE_SILENT ? 1 << 4 : 0);//settings.CAN2_Enabled + (eeprom_settings.CAN_mode[2] == CAN_MODE_SILENT ? 1 << 4 : 0);
 800566e:	481d      	ldr	r0, [pc, #116]	; (80056e4 <Check_Command+0x29c>)
            uart_tx_com_bufer[0] = 0xF1;
 8005670:	701a      	strb	r2, [r3, #0]
            uart_tx_com_bufer[1] = 13;
 8005672:	220d      	movs	r2, #13
 8005674:	705a      	strb	r2, [r3, #1]
            uart_tx_com_bufer[2] = conf.CAN_Enable[2] + (eeprom_settings.CAN_mode[2] == CAN_MODE_SILENT ? 1 << 4 : 0);//settings.CAN2_Enabled + (eeprom_settings.CAN_mode[2] == CAN_MODE_SILENT ? 1 << 4 : 0);
 8005676:	4a22      	ldr	r2, [pc, #136]	; (8005700 <Check_Command+0x2b8>)
 8005678:	7941      	ldrb	r1, [r0, #5]
 800567a:	6bd5      	ldr	r5, [r2, #60]	; 0x3c
 800567c:	f1b5 4f00 	cmp.w	r5, #2147483648	; 0x80000000
 8005680:	bf0c      	ite	eq
 8005682:	2510      	moveq	r5, #16
 8005684:	2500      	movne	r5, #0
 8005686:	4429      	add	r1, r5
 8005688:	7099      	strb	r1, [r3, #2]
            uart_tx_com_bufer[3] = eeprom_settings.CAN_Speed[2];
 800568a:	6951      	ldr	r1, [r2, #20]
 800568c:	70d9      	strb	r1, [r3, #3]
            uart_tx_com_bufer[4] = eeprom_settings.CAN_Speed[2] >> 8;
 800568e:	6951      	ldr	r1, [r2, #20]
 8005690:	0a09      	lsrs	r1, r1, #8
 8005692:	7119      	strb	r1, [r3, #4]
            uart_tx_com_bufer[5] = eeprom_settings.CAN_Speed[2] >> 16;
 8005694:	6951      	ldr	r1, [r2, #20]
 8005696:	0c09      	lsrs	r1, r1, #16
 8005698:	7159      	strb	r1, [r3, #5]
            uart_tx_com_bufer[6] = eeprom_settings.CAN_Speed[2] >> 24;
 800569a:	6951      	ldr	r1, [r2, #20]
 800569c:	0e09      	lsrs	r1, r1, #24
 800569e:	7199      	strb	r1, [r3, #6]
            uart_tx_com_bufer[7] = conf.CAN_Enable[3] + (eeprom_settings.CAN_mode[3] == CAN_MODE_SILENT ? 1 << 4 : 0);//settings.CAN3_Enabled + (eeprom_settings.CAN_mode[3] == CAN_MODE_SILENT ? 1 << 4 : 0); //fourth bus enabled
 80056a0:	7981      	ldrb	r1, [r0, #6]
 80056a2:	6c10      	ldr	r0, [r2, #64]	; 0x40
 80056a4:	f1b0 4f00 	cmp.w	r0, #2147483648	; 0x80000000
 80056a8:	bf0c      	ite	eq
 80056aa:	2010      	moveq	r0, #16
 80056ac:	2000      	movne	r0, #0
 80056ae:	4401      	add	r1, r0
 80056b0:	71d9      	strb	r1, [r3, #7]
            uart_tx_com_bufer[8] = eeprom_settings.CAN_Speed[3]; //fourth bus speed (4 bytes)
 80056b2:	6991      	ldr	r1, [r2, #24]
 80056b4:	7219      	strb	r1, [r3, #8]
            uart_tx_com_bufer[9] = eeprom_settings.CAN_Speed[3] >> 8;
 80056b6:	6991      	ldr	r1, [r2, #24]
 80056b8:	0a09      	lsrs	r1, r1, #8
 80056ba:	7259      	strb	r1, [r3, #9]
            uart_tx_com_bufer[10] = eeprom_settings.CAN_Speed[3] >> 16;
 80056bc:	6991      	ldr	r1, [r2, #24]
            uart_tx_com_bufer[11] = eeprom_settings.CAN_Speed[3] >> 24;
 80056be:	6992      	ldr	r2, [r2, #24]
            uart_tx_com_bufer[10] = eeprom_settings.CAN_Speed[3] >> 16;
 80056c0:	0c09      	lsrs	r1, r1, #16
            uart_tx_com_bufer[11] = eeprom_settings.CAN_Speed[3] >> 24;
 80056c2:	0e12      	lsrs	r2, r2, #24
 80056c4:	72da      	strb	r2, [r3, #11]
            uart_tx_com_bufer[12] = 0; //fifth bus enabled
 80056c6:	2200      	movs	r2, #0
            uart_tx_com_bufer[10] = eeprom_settings.CAN_Speed[3] >> 16;
 80056c8:	7299      	strb	r1, [r3, #10]
            uart_tx_com_bufer[12] = 0; //fifth bus enabled
 80056ca:	731a      	strb	r2, [r3, #12]
            uart_tx_com_bufer[13] = 0; //fifth bus speed (4 bytes)
 80056cc:	735a      	strb	r2, [r3, #13]
            uart_tx_com_bufer[14] = 0;
 80056ce:	739a      	strb	r2, [r3, #14]
            uart_tx_com_bufer[15] = 0;
 80056d0:	73da      	strb	r2, [r3, #15]
            uart_tx_com_bufer[16] = 0;
 80056d2:	741a      	strb	r2, [r3, #16]
            state = IDLE;
 80056d4:	7022      	strb	r2, [r4, #0]
            break;
 80056d6:	e6f6      	b.n	80054c6 <Check_Command+0x7e>
            state = SETUP_EXT_BUSES;
 80056d8:	230d      	movs	r3, #13
 80056da:	e73d      	b.n	8005558 <Check_Command+0x110>
 80056dc:	20000100 	.word	0x20000100
 80056e0:	20000108 	.word	0x20000108
 80056e4:	20001f48 	.word	0x20001f48
 80056e8:	200001bc 	.word	0x200001bc
 80056ec:	20000150 	.word	0x20000150
 80056f0:	20001f7c 	.word	0x20001f7c
 80056f4:	20000145 	.word	0x20000145
 80056f8:	200000f0 	.word	0x200000f0
 80056fc:	2000010c 	.word	0x2000010c
 8005700:	20000d28 	.word	0x20000d28
        uart_tx_com_bufer[1 + step] = in_byte;
 8005704:	4f9a      	ldr	r7, [pc, #616]	; (8005970 <Check_Command+0x528>)
 8005706:	4a9b      	ldr	r2, [pc, #620]	; (8005974 <Check_Command+0x52c>)
 8005708:	683b      	ldr	r3, [r7, #0]
 800570a:	441a      	add	r2, r3
 800570c:	7050      	strb	r0, [r2, #1]
        switch (step) {
 800570e:	2b05      	cmp	r3, #5
 8005710:	d82e      	bhi.n	8005770 <Check_Command+0x328>
 8005712:	e8df f003 	tbb	[pc, r3]
 8005716:	0603      	.short	0x0603
 8005718:	231f110c 	.word	0x231f110c
        	CAN_TxHeader.StdId = in_byte;
 800571c:	4b96      	ldr	r3, [pc, #600]	; (8005978 <Check_Command+0x530>)
            build_int = in_byte;
 800571e:	6018      	str	r0, [r3, #0]
            break;
 8005720:	e018      	b.n	8005754 <Check_Command+0x30c>
        	CAN_TxHeader.StdId |= in_byte << 8;
 8005722:	4a95      	ldr	r2, [pc, #596]	; (8005978 <Check_Command+0x530>)
            build_int |= in_byte << 8;
 8005724:	6813      	ldr	r3, [r2, #0]
 8005726:	ea43 2000 	orr.w	r0, r3, r0, lsl #8
            build_int |= in_byte << 16;
 800572a:	6010      	str	r0, [r2, #0]
            break;
 800572c:	e012      	b.n	8005754 <Check_Command+0x30c>
        	CAN_TxHeader.StdId |= in_byte << 16;
 800572e:	4a92      	ldr	r2, [pc, #584]	; (8005978 <Check_Command+0x530>)
            build_int |= in_byte << 16;
 8005730:	6813      	ldr	r3, [r2, #0]
 8005732:	ea43 4000 	orr.w	r0, r3, r0, lsl #16
 8005736:	e7f8      	b.n	800572a <Check_Command+0x2e2>
        	CAN_TxHeader.StdId |= in_byte << 24;
 8005738:	4a8f      	ldr	r2, [pc, #572]	; (8005978 <Check_Command+0x530>)
 800573a:	6813      	ldr	r3, [r2, #0]
 800573c:	ea43 6000 	orr.w	r0, r3, r0, lsl #24
            if (CAN_TxHeader.StdId & 1 << 31) {
 8005740:	2800      	cmp	r0, #0
            	CAN_TxHeader.IDE = CAN_ID_EXT;
 8005742:	bfb4      	ite	lt
 8005744:	2304      	movlt	r3, #4
            } else CAN_TxHeader.IDE = CAN_ID_STD;
 8005746:	2300      	movge	r3, #0
        	CAN_TxHeader.StdId |= in_byte << 24;
 8005748:	6010      	str	r0, [r2, #0]
            	CAN_TxHeader.ExtId = CAN_TxHeader.StdId & 0x7FFFFFFF;
 800574a:	bfbc      	itt	lt
 800574c:	f020 4000 	biclt.w	r0, r0, #2147483648	; 0x80000000
 8005750:	6050      	strlt	r0, [r2, #4]
            } else CAN_TxHeader.IDE = CAN_ID_STD;
 8005752:	6093      	str	r3, [r2, #8]
        step++;
 8005754:	683b      	ldr	r3, [r7, #0]
 8005756:	3301      	adds	r3, #1
 8005758:	603b      	str	r3, [r7, #0]
        break;
 800575a:	e6b4      	b.n	80054c6 <Check_Command+0x7e>
        	CAN_TxHeader.DLC = in_byte & 0xF;
 800575c:	f000 000f 	and.w	r0, r0, #15
            if (CAN_TxHeader.DLC > 8) CAN_TxHeader.DLC = 8;
 8005760:	2808      	cmp	r0, #8
 8005762:	bf88      	it	hi
 8005764:	2208      	movhi	r2, #8
 8005766:	4b84      	ldr	r3, [pc, #528]	; (8005978 <Check_Command+0x530>)
        	CAN_TxHeader.DLC = in_byte & 0xF;
 8005768:	bf94      	ite	ls
 800576a:	6118      	strls	r0, [r3, #16]
            if (CAN_TxHeader.DLC > 8) CAN_TxHeader.DLC = 8;
 800576c:	611a      	strhi	r2, [r3, #16]
 800576e:	e7f1      	b.n	8005754 <Check_Command+0x30c>
            if (step < CAN_TxHeader.DLC + 6) {
 8005770:	4d81      	ldr	r5, [pc, #516]	; (8005978 <Check_Command+0x530>)
 8005772:	692a      	ldr	r2, [r5, #16]
 8005774:	3206      	adds	r2, #6
 8005776:	429a      	cmp	r2, r3
 8005778:	d903      	bls.n	8005782 <Check_Command+0x33a>
            	can_tx_msg.data_byte[step - 6] = in_byte;
 800577a:	4a80      	ldr	r2, [pc, #512]	; (800597c <Check_Command+0x534>)
 800577c:	4413      	add	r3, r2
 800577e:	7698      	strb	r0, [r3, #26]
 8005780:	e7e8      	b.n	8005754 <Check_Command+0x30c>
                state = IDLE;
 8005782:	2600      	movs	r6, #0
                HAL_GPIO_WritePin(TX_LED_GPIO_Port, TX_LED_Pin, GPIO_PIN_SET);
 8005784:	2201      	movs	r2, #1
 8005786:	f44f 4100 	mov.w	r1, #32768	; 0x8000
 800578a:	487d      	ldr	r0, [pc, #500]	; (8005980 <Check_Command+0x538>)
                state = IDLE;
 800578c:	7026      	strb	r6, [r4, #0]
                HAL_GPIO_WritePin(TX_LED_GPIO_Port, TX_LED_Pin, GPIO_PIN_SET);
 800578e:	f7fb fec1 	bl	8001514 <HAL_GPIO_WritePin>
                CAN_TxHeader.RTR = CAN_RTR_DATA;
 8005792:	60ee      	str	r6, [r5, #12]
                if(HAL_CAN_AddTxMessage(&hcan, &CAN_TxHeader, can_tx_msg.data_byte, &CAN_mailbox) == HAL_OK && (conf.loger_run == true))
 8005794:	4e7b      	ldr	r6, [pc, #492]	; (8005984 <Check_Command+0x53c>)
 8005796:	4629      	mov	r1, r5
 8005798:	4632      	mov	r2, r6
 800579a:	4b7b      	ldr	r3, [pc, #492]	; (8005988 <Check_Command+0x540>)
 800579c:	487b      	ldr	r0, [pc, #492]	; (800598c <Check_Command+0x544>)
 800579e:	f7fb f985 	bl	8000aac <HAL_CAN_AddTxMessage>
 80057a2:	2800      	cmp	r0, #0
 80057a4:	d1d6      	bne.n	8005754 <Check_Command+0x30c>
 80057a6:	4b7a      	ldr	r3, [pc, #488]	; (8005990 <Check_Command+0x548>)
 80057a8:	f893 802d 	ldrb.w	r8, [r3, #45]	; 0x2d
 80057ac:	f1b8 0f01 	cmp.w	r8, #1
 80057b0:	d1d0      	bne.n	8005754 <Check_Command+0x30c>
                	can_tx_msg.timestamp = HAL_GetTick();
 80057b2:	f7fb f809 	bl	80007c8 <HAL_GetTick>
                	can_tx_msg.header.DLC = CAN_TxHeader.DLC;
 80057b6:	692b      	ldr	r3, [r5, #16]
                	CAN_Log_Buffer_Write_Data(can_tx_msg);
 80057b8:	f1a6 0c10 	sub.w	ip, r6, #16
                	can_tx_msg.header.DLC = CAN_TxHeader.DLC;
 80057bc:	f846 3c0c 	str.w	r3, [r6, #-12]
                	can_tx_msg.header.ExtId = CAN_TxHeader.ExtId;
 80057c0:	686b      	ldr	r3, [r5, #4]
                	can_tx_msg.timestamp = HAL_GetTick();
 80057c2:	f846 0c20 	str.w	r0, [r6, #-32]
                	can_tx_msg.header.ExtId = CAN_TxHeader.ExtId;
 80057c6:	f846 3c18 	str.w	r3, [r6, #-24]
                	can_tx_msg.header.StdId = CAN_TxHeader.StdId;
 80057ca:	682b      	ldr	r3, [r5, #0]
                	can_tx_msg.can_dir = DIR_TRANSMIT;
 80057cc:	f886 8008 	strb.w	r8, [r6, #8]
                	can_tx_msg.header.StdId = CAN_TxHeader.StdId;
 80057d0:	f846 3c1c 	str.w	r3, [r6, #-28]
                	can_tx_msg.header.RTR = CAN_TxHeader.RTR;
 80057d4:	68eb      	ldr	r3, [r5, #12]
                	can_tx_msg.timestamp = HAL_GetTick();
 80057d6:	f1a6 0420 	sub.w	r4, r6, #32
                	can_tx_msg.header.RTR = CAN_TxHeader.RTR;
 80057da:	f846 3c10 	str.w	r3, [r6, #-16]
                	can_tx_msg.header.IDE = CAN_TxHeader.IDE;
 80057de:	68ab      	ldr	r3, [r5, #8]
                	CAN_Log_Buffer_Write_Data(can_tx_msg);
 80057e0:	466d      	mov	r5, sp
                	can_tx_msg.header.IDE = CAN_TxHeader.IDE;
 80057e2:	f846 3c14 	str.w	r3, [r6, #-20]
                	can_tx_msg.bus = eeprom_settings.numBus;
 80057e6:	4b6b      	ldr	r3, [pc, #428]	; (8005994 <Check_Command+0x54c>)
 80057e8:	7a1b      	ldrb	r3, [r3, #8]
 80057ea:	7273      	strb	r3, [r6, #9]
                	CAN_Log_Buffer_Write_Data(can_tx_msg);
 80057ec:	e8bc 000f 	ldmia.w	ip!, {r0, r1, r2, r3}
 80057f0:	c50f      	stmia	r5!, {r0, r1, r2, r3}
 80057f2:	e896 000f 	ldmia.w	r6, {r0, r1, r2, r3}
 80057f6:	e885 000f 	stmia.w	r5, {r0, r1, r2, r3}
 80057fa:	e894 000f 	ldmia.w	r4, {r0, r1, r2, r3}
 80057fe:	f7fe fb55 	bl	8003eac <CAN_Log_Buffer_Write_Data>
        step++;
 8005802:	e7a7      	b.n	8005754 <Check_Command+0x30c>
        uart_tx_com_bufer[1] = in_byte;
 8005804:	4b5b      	ldr	r3, [pc, #364]	; (8005974 <Check_Command+0x52c>)
 8005806:	7058      	strb	r0, [r3, #1]
        state = IDLE;
 8005808:	e700      	b.n	800560c <Check_Command+0x1c4>
        switch (step) {
 800580a:	4f59      	ldr	r7, [pc, #356]	; (8005970 <Check_Command+0x528>)
 800580c:	683b      	ldr	r3, [r7, #0]
 800580e:	2b07      	cmp	r3, #7
 8005810:	d8a0      	bhi.n	8005754 <Check_Command+0x30c>
 8005812:	e8df f003 	tbb	[pc, r3]
 8005816:	0604      	.short	0x0604
 8005818:	06040a08 	.word	0x06040a08
 800581c:	4008      	.short	0x4008
            build_int = in_byte;
 800581e:	4b5e      	ldr	r3, [pc, #376]	; (8005998 <Check_Command+0x550>)
 8005820:	e77d      	b.n	800571e <Check_Command+0x2d6>
            build_int |= in_byte << 8;
 8005822:	4a5d      	ldr	r2, [pc, #372]	; (8005998 <Check_Command+0x550>)
 8005824:	e77e      	b.n	8005724 <Check_Command+0x2dc>
            build_int |= in_byte << 16;
 8005826:	4a5c      	ldr	r2, [pc, #368]	; (8005998 <Check_Command+0x550>)
 8005828:	e782      	b.n	8005730 <Check_Command+0x2e8>
            build_int |= in_byte << 24;
 800582a:	4d5b      	ldr	r5, [pc, #364]	; (8005998 <Check_Command+0x550>)
 800582c:	4c58      	ldr	r4, [pc, #352]	; (8005990 <Check_Command+0x548>)
 800582e:	682b      	ldr	r3, [r5, #0]
 8005830:	ea43 6000 	orr.w	r0, r3, r0, lsl #24
 8005834:	6028      	str	r0, [r5, #0]
            if (build_int > 0) {
 8005836:	b310      	cbz	r0, 800587e <Check_Command+0x436>
            	Close_CAN_cannel();
 8005838:	f7fe fe78 	bl	800452c <Close_CAN_cannel>
            	eeprom_settings.CAN_Speed[0] = build_int & 0xFFFFF;
 800583c:	682a      	ldr	r2, [r5, #0]
 800583e:	4b55      	ldr	r3, [pc, #340]	; (8005994 <Check_Command+0x54c>)
 8005840:	f3c2 0113 	ubfx	r1, r2, #0, #20
                if (build_int & 0x80000000) { //signals that enabled and listen only status are also being passed
 8005844:	2a00      	cmp	r2, #0
            	eeprom_settings.CAN_Speed[0] = build_int & 0xFFFFF;
 8005846:	60d9      	str	r1, [r3, #12]
                if (build_int & 0x80000000) { //signals that enabled and listen only status are also being passed
 8005848:	da1c      	bge.n	8005884 <Check_Command+0x43c>
                	if ((build_int & 0x60000000) == 0x60000000) {
 800584a:	f002 41c0 	and.w	r1, r2, #1610612736	; 0x60000000
 800584e:	f1b1 4fc0 	cmp.w	r1, #1610612736	; 0x60000000
 8005852:	d10b      	bne.n	800586c <Check_Command+0x424>
                		conf.CAN_Enable[0] = true;
 8005854:	2201      	movs	r2, #1
 8005856:	70e2      	strb	r2, [r4, #3]
                        eeprom_settings.CAN_mode[0] = CAN_MODE_SILENT;
 8005858:	f04f 4200 	mov.w	r2, #2147483648	; 0x80000000
 800585c:	635a      	str	r2, [r3, #52]	; 0x34
                        conf.state = SAVVYCAN_CONNECT;
 800585e:	2202      	movs	r2, #2
 8005860:	7022      	strb	r2, [r4, #0]
                        eeprom_settings.numBus = 0;
 8005862:	2200      	movs	r2, #0
                        eeprom_settings.numBus = 0;
 8005864:	721a      	strb	r2, [r3, #8]
                        Open_CAN_cannel();
 8005866:	f7fe ffe9 	bl	800483c <Open_CAN_cannel>
 800586a:	e773      	b.n	8005754 <Check_Command+0x30c>
                    } else if (build_int & 0x40000000) {
 800586c:	0050      	lsls	r0, r2, #1
 800586e:	d506      	bpl.n	800587e <Check_Command+0x436>
                    	conf.CAN_Enable[0] = true;
 8005870:	2201      	movs	r2, #1
                        conf.state = SAVVYCAN_CONNECT;
 8005872:	2102      	movs	r1, #2
                    	conf.CAN_Enable[0] = true;
 8005874:	70e2      	strb	r2, [r4, #3]
                        eeprom_settings.CAN_mode[0] = CAN_MODE_NORMAL;
 8005876:	2200      	movs	r2, #0
                        conf.state = SAVVYCAN_CONNECT;
 8005878:	7021      	strb	r1, [r4, #0]
                        eeprom_settings.CAN_mode[0] = CAN_MODE_NORMAL;
 800587a:	635a      	str	r2, [r3, #52]	; 0x34
                        conf.state = SAVVYCAN_CONNECT;
 800587c:	e7f2      	b.n	8005864 <Check_Command+0x41c>
                    	conf.CAN_Enable[0] = false;
 800587e:	2300      	movs	r3, #0
                    conf.CAN_Enable[0] = true;
 8005880:	70e3      	strb	r3, [r4, #3]
 8005882:	e767      	b.n	8005754 <Check_Command+0x30c>
                	conf.state = SAVVYCAN_CONNECT;
 8005884:	2202      	movs	r2, #2
 8005886:	7022      	strb	r2, [r4, #0]
                	eeprom_settings.CAN_mode[0] = CAN_MODE_NORMAL;
 8005888:	2200      	movs	r2, #0
 800588a:	635a      	str	r2, [r3, #52]	; 0x34
                	eeprom_settings.numBus = 0;
 800588c:	721a      	strb	r2, [r3, #8]
                    Open_CAN_cannel(); //if not using extended status mode then just default to enabling - this was old behavior
 800588e:	f7fe ffd5 	bl	800483c <Open_CAN_cannel>
                    conf.CAN_Enable[0] = true;
 8005892:	2301      	movs	r3, #1
 8005894:	e7f4      	b.n	8005880 <Check_Command+0x438>
            build_int |= in_byte << 24;
 8005896:	f8df 9100 	ldr.w	r9, [pc, #256]	; 8005998 <Check_Command+0x550>
 800589a:	4d3d      	ldr	r5, [pc, #244]	; (8005990 <Check_Command+0x548>)
 800589c:	f8d9 3000 	ldr.w	r3, [r9]
 80058a0:	ea43 6000 	orr.w	r0, r3, r0, lsl #24
 80058a4:	f8c9 0000 	str.w	r0, [r9]
            if (build_int > 0 ) {
 80058a8:	b368      	cbz	r0, 8005906 <Check_Command+0x4be>
            	eeprom_settings.CAN_Speed[1] = build_int & 0xFFFFF;
 80058aa:	4e3a      	ldr	r6, [pc, #232]	; (8005994 <Check_Command+0x54c>)
            	if(conf.CAN_Enable[0] == false)
 80058ac:	f895 8003 	ldrb.w	r8, [r5, #3]
            	eeprom_settings.CAN_Speed[1] = build_int & 0xFFFFF;
 80058b0:	f3c0 0013 	ubfx	r0, r0, #0, #20
 80058b4:	6130      	str	r0, [r6, #16]
            	if(conf.CAN_Enable[0] == false)
 80058b6:	f1b8 0f00 	cmp.w	r8, #0
 80058ba:	d114      	bne.n	80058e6 <Check_Command+0x49e>
                	Close_CAN_cannel();
 80058bc:	f7fe fe36 	bl	800452c <Close_CAN_cannel>
                    if (build_int & 0x80000000) { //signals that enabled and listen only status are also being passed
 80058c0:	f8d9 3000 	ldr.w	r3, [r9]
 80058c4:	2b00      	cmp	r3, #0
 80058c6:	da21      	bge.n	800590c <Check_Command+0x4c4>
                    	if ((build_int & 0x60000000) == 0x60000000) {
 80058c8:	f003 42c0 	and.w	r2, r3, #1610612736	; 0x60000000
 80058cc:	f1b2 4fc0 	cmp.w	r2, #1610612736	; 0x60000000
 80058d0:	d112      	bne.n	80058f8 <Check_Command+0x4b0>
                    		conf.CAN_Enable[1] = true;
 80058d2:	2301      	movs	r3, #1
                            eeprom_settings.CAN_mode[1] = CAN_MODE_SILENT;
 80058d4:	f04f 4200 	mov.w	r2, #2147483648	; 0x80000000
                    		conf.CAN_Enable[1] = true;
 80058d8:	712b      	strb	r3, [r5, #4]
                            eeprom_settings.CAN_mode[1] = CAN_MODE_SILENT;
 80058da:	63b2      	str	r2, [r6, #56]	; 0x38
                            conf.state = SAVVYCAN_CONNECT;
 80058dc:	2202      	movs	r2, #2
 80058de:	702a      	strb	r2, [r5, #0]
                            eeprom_settings.numBus = 1;
 80058e0:	7233      	strb	r3, [r6, #8]
                            Open_CAN_cannel();
 80058e2:	f7fe ffab 	bl	800483c <Open_CAN_cannel>
            state = IDLE;
 80058e6:	2300      	movs	r3, #0
            EEPROM_Write(&hspi2, EEPROM_SETINGS_ADDR + ((uint32_t)&eeprom_settings.CAN_Speed[0] - (uint32_t)&eeprom_settings),
 80058e8:	210c      	movs	r1, #12
            state = IDLE;
 80058ea:	7023      	strb	r3, [r4, #0]
            EEPROM_Write(&hspi2, EEPROM_SETINGS_ADDR + ((uint32_t)&eeprom_settings.CAN_Speed[0] - (uint32_t)&eeprom_settings),
 80058ec:	4a2b      	ldr	r2, [pc, #172]	; (800599c <Check_Command+0x554>)
 80058ee:	2308      	movs	r3, #8
 80058f0:	482b      	ldr	r0, [pc, #172]	; (80059a0 <Check_Command+0x558>)
 80058f2:	f000 fbf7 	bl	80060e4 <EEPROM_Write>
}
 80058f6:	e72d      	b.n	8005754 <Check_Command+0x30c>
                        } else if (build_int & 0x40000000) {
 80058f8:	0059      	lsls	r1, r3, #1
 80058fa:	d504      	bpl.n	8005906 <Check_Command+0x4be>
                        	conf.CAN_Enable[1] = true;
 80058fc:	2301      	movs	r3, #1
                            eeprom_settings.CAN_mode[1] = CAN_MODE_NORMAL;
 80058fe:	f8c6 8038 	str.w	r8, [r6, #56]	; 0x38
                        	conf.CAN_Enable[1] = true;
 8005902:	712b      	strb	r3, [r5, #4]
                            eeprom_settings.CAN_mode[1] = CAN_MODE_NORMAL;
 8005904:	e7ea      	b.n	80058dc <Check_Command+0x494>
                        	conf.CAN_Enable[1] = false;
 8005906:	2300      	movs	r3, #0
 8005908:	712b      	strb	r3, [r5, #4]
 800590a:	e7ec      	b.n	80058e6 <Check_Command+0x49e>
                    	eeprom_settings.CAN_mode[1] = CAN_MODE_NORMAL;
 800590c:	f8c6 8038 	str.w	r8, [r6, #56]	; 0x38
                    	conf.state = SAVVYCAN_CONNECT;
 8005910:	2302      	movs	r3, #2
                    	eeprom_settings.numBus = 1;
 8005912:	f04f 0801 	mov.w	r8, #1
                    	conf.state = SAVVYCAN_CONNECT;
 8005916:	702b      	strb	r3, [r5, #0]
                    	eeprom_settings.numBus = 1;
 8005918:	f886 8008 	strb.w	r8, [r6, #8]
                        Open_CAN_cannel(); //if not using extended status mode then just default to enabling - this was old behavior
 800591c:	f7fe ff8e 	bl	800483c <Open_CAN_cannel>
                        conf.CAN_Enable[1] = true;
 8005920:	f885 8004 	strb.w	r8, [r5, #4]
 8005924:	e7df      	b.n	80058e6 <Check_Command+0x49e>
        uart_tx_com_bufer[1 + step] = in_byte;
 8005926:	4a12      	ldr	r2, [pc, #72]	; (8005970 <Check_Command+0x528>)
 8005928:	4912      	ldr	r1, [pc, #72]	; (8005974 <Check_Command+0x52c>)
 800592a:	6813      	ldr	r3, [r2, #0]
 800592c:	3301      	adds	r3, #1
 800592e:	54c8      	strb	r0, [r1, r3]
        step++;
 8005930:	6013      	str	r3, [r2, #0]
        break;
 8005932:	e5c8      	b.n	80054c6 <Check_Command+0x7e>
        switch (step) {
 8005934:	4d0e      	ldr	r5, [pc, #56]	; (8005970 <Check_Command+0x528>)
 8005936:	682b      	ldr	r3, [r5, #0]
 8005938:	2b0b      	cmp	r3, #11
 800593a:	d809      	bhi.n	8005950 <Check_Command+0x508>
 800593c:	e8df f003 	tbb	[pc, r3]
 8005940:	32120c06 	.word	0x32120c06
 8005944:	66120c06 	.word	0x66120c06
 8005948:	9b120c06 	.word	0x9b120c06
            build_int = in_byte;
 800594c:	4b12      	ldr	r3, [pc, #72]	; (8005998 <Check_Command+0x550>)
 800594e:	6018      	str	r0, [r3, #0]
        step++;
 8005950:	682b      	ldr	r3, [r5, #0]
 8005952:	3301      	adds	r3, #1
 8005954:	602b      	str	r3, [r5, #0]
}
 8005956:	e5b6      	b.n	80054c6 <Check_Command+0x7e>
            build_int |= in_byte << 8;
 8005958:	4a0f      	ldr	r2, [pc, #60]	; (8005998 <Check_Command+0x550>)
 800595a:	6813      	ldr	r3, [r2, #0]
 800595c:	ea43 2000 	orr.w	r0, r3, r0, lsl #8
            build_int |= in_byte << 16;
 8005960:	6010      	str	r0, [r2, #0]
            break;
 8005962:	e7f5      	b.n	8005950 <Check_Command+0x508>
            build_int |= in_byte << 16;
 8005964:	4a0c      	ldr	r2, [pc, #48]	; (8005998 <Check_Command+0x550>)
 8005966:	6813      	ldr	r3, [r2, #0]
 8005968:	ea43 4000 	orr.w	r0, r3, r0, lsl #16
 800596c:	e7f8      	b.n	8005960 <Check_Command+0x518>
 800596e:	bf00      	nop
 8005970:	2000010c 	.word	0x2000010c
 8005974:	20001f7c 	.word	0x20001f7c
 8005978:	20000168 	.word	0x20000168
 800597c:	20000180 	.word	0x20000180
 8005980:	40010800 	.word	0x40010800
 8005984:	200001a0 	.word	0x200001a0
 8005988:	200001b4 	.word	0x200001b4
 800598c:	20001a5c 	.word	0x20001a5c
 8005990:	20001f48 	.word	0x20001f48
 8005994:	20000d28 	.word	0x20000d28
 8005998:	200000f4 	.word	0x200000f4
 800599c:	20000d34 	.word	0x20000d34
 80059a0:	20002dbc 	.word	0x20002dbc
            build_int |= in_byte << 24;
 80059a4:	4f38      	ldr	r7, [pc, #224]	; (8005a88 <Check_Command+0x640>)
 80059a6:	4c39      	ldr	r4, [pc, #228]	; (8005a8c <Check_Command+0x644>)
 80059a8:	683b      	ldr	r3, [r7, #0]
 80059aa:	ea43 6000 	orr.w	r0, r3, r0, lsl #24
 80059ae:	6038      	str	r0, [r7, #0]
            if (build_int > 0 ) {
 80059b0:	b300      	cbz	r0, 80059f4 <Check_Command+0x5ac>
            	if(conf.CAN_Enable[0] == false && conf.CAN_Enable[1] == false)
 80059b2:	78e6      	ldrb	r6, [r4, #3]
 80059b4:	7923      	ldrb	r3, [r4, #4]
 80059b6:	431e      	orrs	r6, r3
 80059b8:	d1ca      	bne.n	8005950 <Check_Command+0x508>
                	Close_CAN_cannel();
 80059ba:	f7fe fdb7 	bl	800452c <Close_CAN_cannel>
                    if (build_int & 0x80000000) { //signals that enabled and listen only status are also being passed
 80059be:	683b      	ldr	r3, [r7, #0]
 80059c0:	2b00      	cmp	r3, #0
 80059c2:	da1a      	bge.n	80059fa <Check_Command+0x5b2>
                    	if ((build_int & 0x60000000) == 0x60000000) {
 80059c4:	f003 42c0 	and.w	r2, r3, #1610612736	; 0x60000000
 80059c8:	f1b2 4fc0 	cmp.w	r2, #1610612736	; 0x60000000
 80059cc:	d10b      	bne.n	80059e6 <Check_Command+0x59e>
                    		conf.CAN_Enable[2] = true;
 80059ce:	2301      	movs	r3, #1
                            eeprom_settings.CAN_mode[2] = CAN_MODE_SILENT;
 80059d0:	f04f 4200 	mov.w	r2, #2147483648	; 0x80000000
                    		conf.CAN_Enable[2] = true;
 80059d4:	7163      	strb	r3, [r4, #5]
                            eeprom_settings.CAN_mode[2] = CAN_MODE_SILENT;
 80059d6:	4b2e      	ldr	r3, [pc, #184]	; (8005a90 <Check_Command+0x648>)
 80059d8:	63da      	str	r2, [r3, #60]	; 0x3c
                            conf.state = SAVVYCAN_CONNECT;
 80059da:	2202      	movs	r2, #2
 80059dc:	7022      	strb	r2, [r4, #0]
                            eeprom_settings.numBus = 3;
 80059de:	721a      	strb	r2, [r3, #8]
                            Open_CAN_cannel();
 80059e0:	f7fe ff2c 	bl	800483c <Open_CAN_cannel>
 80059e4:	e7b4      	b.n	8005950 <Check_Command+0x508>
                        } else if (build_int & 0x40000000) {
 80059e6:	005a      	lsls	r2, r3, #1
 80059e8:	d504      	bpl.n	80059f4 <Check_Command+0x5ac>
                        	conf.CAN_Enable[2] = true;
 80059ea:	2301      	movs	r3, #1
 80059ec:	7163      	strb	r3, [r4, #5]
                            eeprom_settings.CAN_mode[2] = CAN_MODE_NORMAL;
 80059ee:	4b28      	ldr	r3, [pc, #160]	; (8005a90 <Check_Command+0x648>)
 80059f0:	63de      	str	r6, [r3, #60]	; 0x3c
 80059f2:	e7f2      	b.n	80059da <Check_Command+0x592>
                        	conf.CAN_Enable[2] = false;
 80059f4:	2300      	movs	r3, #0
                        conf.CAN_Enable[2] = true;
 80059f6:	7163      	strb	r3, [r4, #5]
 80059f8:	e7aa      	b.n	8005950 <Check_Command+0x508>
                    	conf.state = SAVVYCAN_CONNECT;
 80059fa:	2202      	movs	r2, #2
                    	eeprom_settings.CAN_mode[2] = CAN_MODE_NORMAL;
 80059fc:	4b24      	ldr	r3, [pc, #144]	; (8005a90 <Check_Command+0x648>)
                    	conf.state = SAVVYCAN_CONNECT;
 80059fe:	7022      	strb	r2, [r4, #0]
                    	eeprom_settings.CAN_mode[2] = CAN_MODE_NORMAL;
 8005a00:	63de      	str	r6, [r3, #60]	; 0x3c
                    	eeprom_settings.numBus = 2;
 8005a02:	721a      	strb	r2, [r3, #8]
                        Open_CAN_cannel(); //if not using extended status mode then just default to enabling - this was old behavior
 8005a04:	f7fe ff1a 	bl	800483c <Open_CAN_cannel>
                        conf.CAN_Enable[2] = true;
 8005a08:	2301      	movs	r3, #1
 8005a0a:	e7f4      	b.n	80059f6 <Check_Command+0x5ae>
            build_int |= in_byte << 24;
 8005a0c:	4f1e      	ldr	r7, [pc, #120]	; (8005a88 <Check_Command+0x640>)
 8005a0e:	4c1f      	ldr	r4, [pc, #124]	; (8005a8c <Check_Command+0x644>)
 8005a10:	683b      	ldr	r3, [r7, #0]
 8005a12:	ea43 6000 	orr.w	r0, r3, r0, lsl #24
 8005a16:	6038      	str	r0, [r7, #0]
            if (build_int > 0 ) {
 8005a18:	b300      	cbz	r0, 8005a5c <Check_Command+0x614>
            	if(conf.CAN_Enable[0] == false && conf.CAN_Enable[1] == false && conf.CAN_Enable[2] == false)
 8005a1a:	78e3      	ldrb	r3, [r4, #3]
 8005a1c:	2b00      	cmp	r3, #0
 8005a1e:	d197      	bne.n	8005950 <Check_Command+0x508>
 8005a20:	88a6      	ldrh	r6, [r4, #4]
 8005a22:	2e00      	cmp	r6, #0
 8005a24:	d194      	bne.n	8005950 <Check_Command+0x508>
                	Close_CAN_cannel(); // TODO in can work in parralel, LIN
 8005a26:	f7fe fd81 	bl	800452c <Close_CAN_cannel>
                    if (build_int & 0x80000000) { //signals that enabled and listen only status are also being passed
 8005a2a:	683b      	ldr	r3, [r7, #0]
 8005a2c:	2b00      	cmp	r3, #0
 8005a2e:	da18      	bge.n	8005a62 <Check_Command+0x61a>
                    	if ((build_int & 0x60000000) == 0x60000000) {
 8005a30:	f003 42c0 	and.w	r2, r3, #1610612736	; 0x60000000
 8005a34:	f1b2 4fc0 	cmp.w	r2, #1610612736	; 0x60000000
 8005a38:	d109      	bne.n	8005a4e <Check_Command+0x606>
                    		conf.CAN_Enable[3] = true;
 8005a3a:	2301      	movs	r3, #1
                            eeprom_settings.CAN_mode[3] = CAN_MODE_SILENT;
 8005a3c:	f04f 4200 	mov.w	r2, #2147483648	; 0x80000000
                    		conf.CAN_Enable[3] = true;
 8005a40:	71a3      	strb	r3, [r4, #6]
                            eeprom_settings.CAN_mode[3] = CAN_MODE_SILENT;
 8005a42:	4b13      	ldr	r3, [pc, #76]	; (8005a90 <Check_Command+0x648>)
 8005a44:	641a      	str	r2, [r3, #64]	; 0x40
                            conf.state = SAVVYCAN_CONNECT;
 8005a46:	2202      	movs	r2, #2
 8005a48:	7022      	strb	r2, [r4, #0]
                            eeprom_settings.numBus = 3;
 8005a4a:	2203      	movs	r2, #3
 8005a4c:	e7c7      	b.n	80059de <Check_Command+0x596>
                        } else if (build_int & 0x40000000) {
 8005a4e:	005b      	lsls	r3, r3, #1
 8005a50:	d504      	bpl.n	8005a5c <Check_Command+0x614>
                        	conf.CAN_Enable[3] = true;
 8005a52:	2301      	movs	r3, #1
 8005a54:	71a3      	strb	r3, [r4, #6]
                            eeprom_settings.CAN_mode[3] = CAN_MODE_NORMAL;
 8005a56:	4b0e      	ldr	r3, [pc, #56]	; (8005a90 <Check_Command+0x648>)
 8005a58:	641e      	str	r6, [r3, #64]	; 0x40
 8005a5a:	e7f4      	b.n	8005a46 <Check_Command+0x5fe>
                        	conf.CAN_Enable[3] = false;
 8005a5c:	2300      	movs	r3, #0
                        conf.CAN_Enable[3] = true;
 8005a5e:	71a3      	strb	r3, [r4, #6]
 8005a60:	e776      	b.n	8005950 <Check_Command+0x508>
                    	conf.state = SAVVYCAN_CONNECT;
 8005a62:	2302      	movs	r3, #2
                    	eeprom_settings.numBus = 3;
 8005a64:	2203      	movs	r2, #3
                    	conf.state = SAVVYCAN_CONNECT;
 8005a66:	7023      	strb	r3, [r4, #0]
                    	eeprom_settings.CAN_mode[3] = CAN_MODE_NORMAL;
 8005a68:	4b09      	ldr	r3, [pc, #36]	; (8005a90 <Check_Command+0x648>)
 8005a6a:	641e      	str	r6, [r3, #64]	; 0x40
                    	eeprom_settings.numBus = 3;
 8005a6c:	721a      	strb	r2, [r3, #8]
                        Open_CAN_cannel(); //if not using extended status mode then just default to enabling - this was old behavior
 8005a6e:	f7fe fee5 	bl	800483c <Open_CAN_cannel>
                        conf.CAN_Enable[3] = true;
 8005a72:	2301      	movs	r3, #1
 8005a74:	e7f3      	b.n	8005a5e <Check_Command+0x616>
            build_int |= in_byte << 24;
 8005a76:	4a04      	ldr	r2, [pc, #16]	; (8005a88 <Check_Command+0x640>)
 8005a78:	6813      	ldr	r3, [r2, #0]
 8005a7a:	ea43 6000 	orr.w	r0, r3, r0, lsl #24
            state = IDLE;
 8005a7e:	2300      	movs	r3, #0
            build_int |= in_byte << 24;
 8005a80:	6010      	str	r0, [r2, #0]
            state = IDLE;
 8005a82:	7023      	strb	r3, [r4, #0]
            break;
 8005a84:	e764      	b.n	8005950 <Check_Command+0x508>
 8005a86:	bf00      	nop
 8005a88:	200000f4 	.word	0x200000f4
 8005a8c:	20001f48 	.word	0x20001f48
 8005a90:	20000d28 	.word	0x20000d28

08005a94 <Next_CAN_channel>:
	eeprom_settings.numBus++;
 8005a94:	4a05      	ldr	r2, [pc, #20]	; (8005aac <Next_CAN_channel+0x18>)
 8005a96:	7a13      	ldrb	r3, [r2, #8]
 8005a98:	3301      	adds	r3, #1
 8005a9a:	b2db      	uxtb	r3, r3
 8005a9c:	7213      	strb	r3, [r2, #8]
	if(eeprom_settings.numBus >= 4) eeprom_settings.numBus = 0;
 8005a9e:	7a13      	ldrb	r3, [r2, #8]
 8005aa0:	2b03      	cmp	r3, #3
 8005aa2:	bf84      	itt	hi
 8005aa4:	2300      	movhi	r3, #0
 8005aa6:	7213      	strbhi	r3, [r2, #8]
	Open_CAN_cannel();
 8005aa8:	f7fe bec8 	b.w	800483c <Open_CAN_cannel>
 8005aac:	20000d28 	.word	0x20000d28

08005ab0 <lin_calc_pid>:
boolean lin_check_slave_answer(uint8_t pid);

uint8_t lin_calc_pid(uint8_t id)
{
	uint8_t p0, p1, pid;
	p0 = ((id >> 0 ^ id >> 1 ^ id >> 2 ^ id >> 4) & 0x01) << 6;
 8005ab0:	0842      	lsrs	r2, r0, #1
	p1 = (~(id >> 1 ^ id >> 3 ^ id >> 4 ^ id >> 5) & 0x01) << 7;
 8005ab2:	ea82 1210 	eor.w	r2, r2, r0, lsr #4
 8005ab6:	ea82 02d0 	eor.w	r2, r2, r0, lsr #3
 8005aba:	ea82 1250 	eor.w	r2, r2, r0, lsr #5
 8005abe:	f012 0f01 	tst.w	r2, #1
 8005ac2:	bf0c      	ite	eq
 8005ac4:	2280      	moveq	r2, #128	; 0x80
 8005ac6:	2200      	movne	r2, #0
	p0 = ((id >> 0 ^ id >> 1 ^ id >> 2 ^ id >> 4) & 0x01) << 6;
 8005ac8:	0883      	lsrs	r3, r0, #2
 8005aca:	ea83 0350 	eor.w	r3, r3, r0, lsr #1
 8005ace:	4043      	eors	r3, r0
 8005ad0:	ea83 1310 	eor.w	r3, r3, r0, lsr #4
 8005ad4:	019b      	lsls	r3, r3, #6
 8005ad6:	f003 0340 	and.w	r3, r3, #64	; 0x40
	pid = (id & 0x3F) | (p0 + p1);
 8005ada:	4413      	add	r3, r2
 8005adc:	f000 003f 	and.w	r0, r0, #63	; 0x3f
 8005ae0:	4318      	orrs	r0, r3
	return pid;
}
 8005ae2:	b2c0      	uxtb	r0, r0
 8005ae4:	4770      	bx	lr

08005ae6 <lin_calc_checksumm>:

uint8_t lin_calc_checksumm(uint8_t * msg, uint8_t len, uint8_t begin_value)
{
	uint16_t crc;
	crc = begin_value;
	for(int i = 0; i < len; i++)
 8005ae6:	2300      	movs	r3, #0
{
 8005ae8:	b510      	push	{r4, lr}
	for(int i = 0; i < len; i++)
 8005aea:	4299      	cmp	r1, r3
 8005aec:	dc02      	bgt.n	8005af4 <lin_calc_checksumm+0xe>
//		crc += crc >> 8;
//		crc &= 0x00FF;
		if(crc >= 256)
			crc -= 255;
	}
	return ~crc;
 8005aee:	43d2      	mvns	r2, r2
}
 8005af0:	b2d0      	uxtb	r0, r2
 8005af2:	bd10      	pop	{r4, pc}
		crc += msg[i];
 8005af4:	5cc4      	ldrb	r4, [r0, r3]
	for(int i = 0; i < len; i++)
 8005af6:	3301      	adds	r3, #1
		crc += msg[i];
 8005af8:	4422      	add	r2, r4
 8005afa:	b292      	uxth	r2, r2
		if(crc >= 256)
 8005afc:	2aff      	cmp	r2, #255	; 0xff
			crc -= 255;
 8005afe:	bf84      	itt	hi
 8005b00:	3aff      	subhi	r2, #255	; 0xff
 8005b02:	b292      	uxthhi	r2, r2
	for(int i = 0; i < len; i++)
 8005b04:	e7f1      	b.n	8005aea <lin_calc_checksumm+0x4>
	...

08005b08 <lin_msg_parse>:


can_msg_t lin_msg_parse(void)
{
 8005b08:	b570      	push	{r4, r5, r6, lr}
 8005b0a:	b08c      	sub	sp, #48	; 0x30
 8005b0c:	4606      	mov	r6, r0
	can_msg_t msg = {0};
 8005b0e:	222c      	movs	r2, #44	; 0x2c
 8005b10:	2100      	movs	r1, #0
 8005b12:	a801      	add	r0, sp, #4
 8005b14:	f002 f80e 	bl	8007b34 <memset>
	uint8_t checksumm;
	msg.timestamp = HAL_GetTick();
 8005b18:	f7fa fe56 	bl	80007c8 <HAL_GetTick>
	msg.header.DLC = (lin_stat.byte_cnt > 2) ? lin_stat.byte_cnt-3 : 0;
 8005b1c:	4b24      	ldr	r3, [pc, #144]	; (8005bb0 <lin_msg_parse+0xa8>)
	msg.timestamp = HAL_GetTick();
 8005b1e:	9000      	str	r0, [sp, #0]
	msg.header.DLC = (lin_stat.byte_cnt > 2) ? lin_stat.byte_cnt-3 : 0;
 8005b20:	7819      	ldrb	r1, [r3, #0]
	msg.data_byte[0] = lin_stat.data[0];
 8005b22:	789a      	ldrb	r2, [r3, #2]
	msg.header.DLC = (lin_stat.byte_cnt > 2) ? lin_stat.byte_cnt-3 : 0;
 8005b24:	2902      	cmp	r1, #2
 8005b26:	bf98      	it	ls
 8005b28:	2100      	movls	r1, #0
	msg.data_byte[0] = lin_stat.data[0];
 8005b2a:	f88d 2020 	strb.w	r2, [sp, #32]
	msg.data_byte[1] = lin_stat.data[1];
 8005b2e:	78da      	ldrb	r2, [r3, #3]
	msg.header.DLC = (lin_stat.byte_cnt > 2) ? lin_stat.byte_cnt-3 : 0;
 8005b30:	bf88      	it	hi
 8005b32:	3903      	subhi	r1, #3
	msg.data_byte[1] = lin_stat.data[1];
 8005b34:	f88d 2021 	strb.w	r2, [sp, #33]	; 0x21
	msg.data_byte[2] = lin_stat.data[2];
 8005b38:	791a      	ldrb	r2, [r3, #4]
	msg.data_byte[7] = lin_stat.data[7];
	msg.lin_checksumm = lin_stat.data[msg.header.DLC];
	msg.can_dir = (lin_stat.transmiting) ? DIR_TRANSMIT : DIR_RECEIVE;
	msg.bus = 3;

	checksumm = lin_calc_checksumm(msg.data_byte, msg.header.DLC, lin_stat.pid);
 8005b3a:	785c      	ldrb	r4, [r3, #1]
	msg.data_byte[2] = lin_stat.data[2];
 8005b3c:	f88d 2022 	strb.w	r2, [sp, #34]	; 0x22
	msg.data_byte[3] = lin_stat.data[3];
 8005b40:	795a      	ldrb	r2, [r3, #5]
	msg.header.DLC = (lin_stat.byte_cnt > 2) ? lin_stat.byte_cnt-3 : 0;
 8005b42:	9105      	str	r1, [sp, #20]
	msg.data_byte[3] = lin_stat.data[3];
 8005b44:	f88d 2023 	strb.w	r2, [sp, #35]	; 0x23
	msg.data_byte[4] = lin_stat.data[4];
 8005b48:	799a      	ldrb	r2, [r3, #6]
	checksumm = lin_calc_checksumm(msg.data_byte, msg.header.DLC, lin_stat.pid);
 8005b4a:	a808      	add	r0, sp, #32
	msg.data_byte[4] = lin_stat.data[4];
 8005b4c:	f88d 2024 	strb.w	r2, [sp, #36]	; 0x24
	msg.data_byte[5] = lin_stat.data[5];
 8005b50:	79da      	ldrb	r2, [r3, #7]
 8005b52:	f88d 2025 	strb.w	r2, [sp, #37]	; 0x25
	msg.data_byte[6] = lin_stat.data[6];
 8005b56:	7a1a      	ldrb	r2, [r3, #8]
 8005b58:	f88d 2026 	strb.w	r2, [sp, #38]	; 0x26
	msg.data_byte[7] = lin_stat.data[7];
 8005b5c:	7a5a      	ldrb	r2, [r3, #9]
 8005b5e:	f88d 2027 	strb.w	r2, [sp, #39]	; 0x27
	msg.lin_checksumm = lin_stat.data[msg.header.DLC];
 8005b62:	185a      	adds	r2, r3, r1
 8005b64:	7895      	ldrb	r5, [r2, #2]
	msg.can_dir = (lin_stat.transmiting) ? DIR_TRANSMIT : DIR_RECEIVE;
 8005b66:	7b5a      	ldrb	r2, [r3, #13]
	checksumm = lin_calc_checksumm(msg.data_byte, msg.header.DLC, lin_stat.pid);
 8005b68:	b2c9      	uxtb	r1, r1
	msg.can_dir = (lin_stat.transmiting) ? DIR_TRANSMIT : DIR_RECEIVE;
 8005b6a:	3a00      	subs	r2, #0
 8005b6c:	bf18      	it	ne
 8005b6e:	2201      	movne	r2, #1
 8005b70:	f88d 2028 	strb.w	r2, [sp, #40]	; 0x28
	msg.bus = 3;
 8005b74:	2203      	movs	r2, #3
 8005b76:	f88d 2029 	strb.w	r2, [sp, #41]	; 0x29
	checksumm = lin_calc_checksumm(msg.data_byte, msg.header.DLC, lin_stat.pid);
 8005b7a:	4622      	mov	r2, r4
	msg.lin_checksumm = lin_stat.data[msg.header.DLC];
 8005b7c:	f88d 502a 	strb.w	r5, [sp, #42]	; 0x2a
	checksumm = lin_calc_checksumm(msg.data_byte, msg.header.DLC, lin_stat.pid);
 8005b80:	f7ff ffb1 	bl	8005ae6 <lin_calc_checksumm>
	if(checksumm + msg.lin_checksumm == 0xFF)
 8005b84:	4428      	add	r0, r5
 8005b86:	28ff      	cmp	r0, #255	; 0xff
	{
		msg.header.ExtId = lin_stat.pid;
		msg.header.IDE = CAN_ID_EXT;
 8005b88:	bf0b      	itete	eq
 8005b8a:	2304      	moveq	r3, #4
	}
	else
	{
		msg.header.StdId = lin_stat.pid;
		msg.header.IDE = CAN_ID_STD;
 8005b8c:	2300      	movne	r3, #0
		msg.header.ExtId = lin_stat.pid;
 8005b8e:	9402      	streq	r4, [sp, #8]
		msg.header.StdId = lin_stat.pid;
 8005b90:	9401      	strne	r4, [sp, #4]
	}
	return msg;
 8005b92:	466d      	mov	r5, sp
 8005b94:	4634      	mov	r4, r6
		msg.header.IDE = CAN_ID_STD;
 8005b96:	9303      	str	r3, [sp, #12]
	return msg;
 8005b98:	cd0f      	ldmia	r5!, {r0, r1, r2, r3}
 8005b9a:	c40f      	stmia	r4!, {r0, r1, r2, r3}
 8005b9c:	cd0f      	ldmia	r5!, {r0, r1, r2, r3}
 8005b9e:	c40f      	stmia	r4!, {r0, r1, r2, r3}
 8005ba0:	e895 000f 	ldmia.w	r5, {r0, r1, r2, r3}
 8005ba4:	e884 000f 	stmia.w	r4, {r0, r1, r2, r3}

}
 8005ba8:	4630      	mov	r0, r6
 8005baa:	b00c      	add	sp, #48	; 0x30
 8005bac:	bd70      	pop	{r4, r5, r6, pc}
 8005bae:	bf00      	nop
 8005bb0:	200018e3 	.word	0x200018e3

08005bb4 <lin_msg_received>:

void lin_msg_received(void)
{
 8005bb4:	b570      	push	{r4, r5, r6, lr}
 8005bb6:	b094      	sub	sp, #80	; 0x50
	can_msg_t temp_msg;
	temp_msg = lin_msg_parse();
	CAN_Buffer_Write_Data(temp_msg);
 8005bb8:	466c      	mov	r4, sp
	temp_msg = lin_msg_parse();
 8005bba:	ae08      	add	r6, sp, #32
 8005bbc:	4630      	mov	r0, r6
	CAN_Buffer_Write_Data(temp_msg);
 8005bbe:	ad0c      	add	r5, sp, #48	; 0x30
	temp_msg = lin_msg_parse();
 8005bc0:	f7ff ffa2 	bl	8005b08 <lin_msg_parse>
	CAN_Buffer_Write_Data(temp_msg);
 8005bc4:	cd0f      	ldmia	r5!, {r0, r1, r2, r3}
 8005bc6:	c40f      	stmia	r4!, {r0, r1, r2, r3}
 8005bc8:	e895 000f 	ldmia.w	r5, {r0, r1, r2, r3}
 8005bcc:	e884 000f 	stmia.w	r4, {r0, r1, r2, r3}
 8005bd0:	e896 000f 	ldmia.w	r6, {r0, r1, r2, r3}
 8005bd4:	f7fe f93c 	bl	8003e50 <CAN_Buffer_Write_Data>
	if(conf.loger_run == true)
 8005bd8:	4b09      	ldr	r3, [pc, #36]	; (8005c00 <lin_msg_received+0x4c>)
 8005bda:	f893 302d 	ldrb.w	r3, [r3, #45]	; 0x2d
 8005bde:	2b01      	cmp	r3, #1
 8005be0:	d10b      	bne.n	8005bfa <lin_msg_received+0x46>
		CAN_Log_Buffer_Write_Data(temp_msg);
 8005be2:	466c      	mov	r4, sp
 8005be4:	ad0c      	add	r5, sp, #48	; 0x30
 8005be6:	cd0f      	ldmia	r5!, {r0, r1, r2, r3}
 8005be8:	c40f      	stmia	r4!, {r0, r1, r2, r3}
 8005bea:	e895 000f 	ldmia.w	r5, {r0, r1, r2, r3}
 8005bee:	e884 000f 	stmia.w	r4, {r0, r1, r2, r3}
 8005bf2:	e896 000f 	ldmia.w	r6, {r0, r1, r2, r3}
 8005bf6:	f7fe f959 	bl	8003eac <CAN_Log_Buffer_Write_Data>
}
 8005bfa:	b014      	add	sp, #80	; 0x50
 8005bfc:	bd70      	pop	{r4, r5, r6, pc}
 8005bfe:	bf00      	nop
 8005c00:	20001f48 	.word	0x20001f48

08005c04 <lin_break_detect>:

void lin_break_detect(void)
{
 8005c04:	b510      	push	{r4, lr}
	if(lin_stat.byte_cnt > 0)
 8005c06:	4c0a      	ldr	r4, [pc, #40]	; (8005c30 <lin_break_detect+0x2c>)
 8005c08:	7823      	ldrb	r3, [r4, #0]
 8005c0a:	b10b      	cbz	r3, 8005c10 <lin_break_detect+0xc>
		lin_msg_received();
 8005c0c:	f7ff ffd2 	bl	8005bb4 <lin_msg_received>
	lin_stat.byte_cnt = 0;
 8005c10:	2300      	movs	r3, #0
	lin_stat.break_detected = 1;
 8005c12:	2201      	movs	r2, #1
	lin_stat.byte_cnt = 0;
 8005c14:	7023      	strb	r3, [r4, #0]
	lin_stat.break_detected = 1;
 8005c16:	7322      	strb	r2, [r4, #12]
	lin_stat.data[0] = lin_stat.data[1] = lin_stat.data[2] = lin_stat.data[3] = lin_stat.data[4] = lin_stat.data[5] = lin_stat.data[6] = lin_stat.data[7] = lin_stat.data[8] = 0;
 8005c18:	72a3      	strb	r3, [r4, #10]
 8005c1a:	7263      	strb	r3, [r4, #9]
 8005c1c:	7223      	strb	r3, [r4, #8]
 8005c1e:	71e3      	strb	r3, [r4, #7]
 8005c20:	71a3      	strb	r3, [r4, #6]
 8005c22:	7163      	strb	r3, [r4, #5]
 8005c24:	7123      	strb	r3, [r4, #4]
 8005c26:	70e3      	strb	r3, [r4, #3]
 8005c28:	70a3      	strb	r3, [r4, #2]
	lin_stat.pid = 0;
 8005c2a:	7063      	strb	r3, [r4, #1]
}
 8005c2c:	bd10      	pop	{r4, pc}
 8005c2e:	bf00      	nop
 8005c30:	200018e3 	.word	0x200018e3

08005c34 <lin_idle_detect>:

void lin_idle_detect(void)
{
 8005c34:	b510      	push	{r4, lr}
	if(lin_stat.byte_cnt > 0)
 8005c36:	4c04      	ldr	r4, [pc, #16]	; (8005c48 <lin_idle_detect+0x14>)
 8005c38:	7822      	ldrb	r2, [r4, #0]
 8005c3a:	b10a      	cbz	r2, 8005c40 <lin_idle_detect+0xc>
		lin_msg_received();
 8005c3c:	f7ff ffba 	bl	8005bb4 <lin_msg_received>
	lin_stat.break_detected = 0;
 8005c40:	2300      	movs	r3, #0
 8005c42:	7323      	strb	r3, [r4, #12]
}
 8005c44:	bd10      	pop	{r4, pc}
 8005c46:	bf00      	nop
 8005c48:	200018e3 	.word	0x200018e3

08005c4c <lin_fault_detect>:

void lin_fault_detect(void)
{
	lin_stat.break_detected = 0;
 8005c4c:	2200      	movs	r2, #0
 8005c4e:	4b02      	ldr	r3, [pc, #8]	; (8005c58 <lin_fault_detect+0xc>)
 8005c50:	731a      	strb	r2, [r3, #12]
	lin_stat.byte_cnt = 0;
 8005c52:	701a      	strb	r2, [r3, #0]
}
 8005c54:	4770      	bx	lr
 8005c56:	bf00      	nop
 8005c58:	200018e3 	.word	0x200018e3

08005c5c <lin_add_slave_msg>:
	}

}

HAL_StatusTypeDef lin_add_slave_msg(uint8_t pid, uint8_t * buf, uint8_t len)
{
 8005c5c:	b5f0      	push	{r4, r5, r6, r7, lr}
	uint8_t buf_item_numb = LIN_SLAVE_BUF_LEN;
	for(uint8_t i = 0; i < LIN_SLAVE_BUF_LEN; i++) 	// find same pid
	{
		if(lin_slave_buf[i].pid == pid)
 8005c5e:	4c19      	ldr	r4, [pc, #100]	; (8005cc4 <lin_add_slave_msg+0x68>)
{
 8005c60:	2300      	movs	r3, #0
		if(lin_slave_buf[i].pid == pid)
 8005c62:	270b      	movs	r7, #11
 8005c64:	4625      	mov	r5, r4
 8005c66:	fb07 fc03 	mul.w	ip, r7, r3
 8005c6a:	f81c c004 	ldrb.w	ip, [ip, r4]
 8005c6e:	b2de      	uxtb	r6, r3
 8005c70:	4584      	cmp	ip, r0
 8005c72:	d00e      	beq.n	8005c92 <lin_add_slave_msg+0x36>
	for(uint8_t i = 0; i < LIN_SLAVE_BUF_LEN; i++) 	// find same pid
 8005c74:	3301      	adds	r3, #1
 8005c76:	2b20      	cmp	r3, #32
 8005c78:	d1f5      	bne.n	8005c66 <lin_add_slave_msg+0xa>
 8005c7a:	2300      	movs	r3, #0
	}
	if(buf_item_numb == LIN_SLAVE_BUF_LEN)			// else find empty item
	{
		for(uint8_t i = 0; i < LIN_SLAVE_BUF_LEN; i++)
		{
			if(lin_slave_buf[i].pid == 0)
 8005c7c:	240b      	movs	r4, #11
 8005c7e:	fb04 f703 	mul.w	r7, r4, r3
 8005c82:	5def      	ldrb	r7, [r5, r7]
 8005c84:	b2de      	uxtb	r6, r3
 8005c86:	b127      	cbz	r7, 8005c92 <lin_add_slave_msg+0x36>
		for(uint8_t i = 0; i < LIN_SLAVE_BUF_LEN; i++)
 8005c88:	3301      	adds	r3, #1
 8005c8a:	2b20      	cmp	r3, #32
 8005c8c:	d1f7      	bne.n	8005c7e <lin_add_slave_msg+0x22>
		lin_slave_buf[buf_item_numb].buf[6] = buf[6];
		lin_slave_buf[buf_item_numb].buf[7] = buf[7];
		lin_slave_buf[buf_item_numb].buf[8] = buf[8];
		return HAL_OK;
	}
	return HAL_BUSY;
 8005c8e:	2002      	movs	r0, #2
}
 8005c90:	bdf0      	pop	{r4, r5, r6, r7, pc}
		lin_slave_buf[buf_item_numb].pid = pid;
 8005c92:	240b      	movs	r4, #11
 8005c94:	4374      	muls	r4, r6
 8005c96:	192b      	adds	r3, r5, r4
 8005c98:	5528      	strb	r0, [r5, r4]
		lin_slave_buf[buf_item_numb].len = len;
 8005c9a:	729a      	strb	r2, [r3, #10]
		lin_slave_buf[buf_item_numb].buf[0] = buf[0];
 8005c9c:	780a      	ldrb	r2, [r1, #0]
		return HAL_OK;
 8005c9e:	2000      	movs	r0, #0
		lin_slave_buf[buf_item_numb].buf[0] = buf[0];
 8005ca0:	705a      	strb	r2, [r3, #1]
		lin_slave_buf[buf_item_numb].buf[1] = buf[1];
 8005ca2:	784a      	ldrb	r2, [r1, #1]
 8005ca4:	709a      	strb	r2, [r3, #2]
		lin_slave_buf[buf_item_numb].buf[2] = buf[2];
 8005ca6:	788a      	ldrb	r2, [r1, #2]
 8005ca8:	70da      	strb	r2, [r3, #3]
		lin_slave_buf[buf_item_numb].buf[3] = buf[3];
 8005caa:	78ca      	ldrb	r2, [r1, #3]
 8005cac:	711a      	strb	r2, [r3, #4]
		lin_slave_buf[buf_item_numb].buf[4] = buf[4];
 8005cae:	790a      	ldrb	r2, [r1, #4]
 8005cb0:	715a      	strb	r2, [r3, #5]
		lin_slave_buf[buf_item_numb].buf[5] = buf[5];
 8005cb2:	794a      	ldrb	r2, [r1, #5]
 8005cb4:	719a      	strb	r2, [r3, #6]
		lin_slave_buf[buf_item_numb].buf[6] = buf[6];
 8005cb6:	798a      	ldrb	r2, [r1, #6]
 8005cb8:	71da      	strb	r2, [r3, #7]
		lin_slave_buf[buf_item_numb].buf[7] = buf[7];
 8005cba:	79ca      	ldrb	r2, [r1, #7]
 8005cbc:	721a      	strb	r2, [r3, #8]
		lin_slave_buf[buf_item_numb].buf[8] = buf[8];
 8005cbe:	7a0a      	ldrb	r2, [r1, #8]
 8005cc0:	725a      	strb	r2, [r3, #9]
		return HAL_OK;
 8005cc2:	e7e5      	b.n	8005c90 <lin_add_slave_msg+0x34>
 8005cc4:	200018fc 	.word	0x200018fc

08005cc8 <lin_check_slave_answer>:

boolean lin_check_slave_answer(uint8_t pid)
{
 8005cc8:	b570      	push	{r4, r5, r6, lr}
 8005cca:	2200      	movs	r2, #0
	for(uint8_t i = 0; i < LIN_SLAVE_BUF_LEN; i++)
	{
		if(lin_slave_buf[i].pid == pid)
 8005ccc:	250b      	movs	r5, #11
 8005cce:	490b      	ldr	r1, [pc, #44]	; (8005cfc <lin_check_slave_answer+0x34>)
 8005cd0:	fb05 f302 	mul.w	r3, r5, r2
 8005cd4:	5c5e      	ldrb	r6, [r3, r1]
 8005cd6:	185c      	adds	r4, r3, r1
 8005cd8:	4286      	cmp	r6, r0
 8005cda:	d10a      	bne.n	8005cf2 <lin_check_slave_answer+0x2a>
		{
			DISABLE_SLAVE;
			SEND_LIN(huart_lin, lin_slave_buf[i].buf, lin_slave_buf[i].len);
 8005cdc:	3301      	adds	r3, #1
 8005cde:	4419      	add	r1, r3
 8005ce0:	4b07      	ldr	r3, [pc, #28]	; (8005d00 <lin_check_slave_answer+0x38>)
 8005ce2:	7aa2      	ldrb	r2, [r4, #10]
 8005ce4:	6818      	ldr	r0, [r3, #0]
 8005ce6:	f7fc fbdf 	bl	80024a8 <HAL_UART_Transmit_DMA>
			lin_slave_buf[i].pid = 0;
 8005cea:	2300      	movs	r3, #0
			return true;
 8005cec:	2001      	movs	r0, #1
			lin_slave_buf[i].pid = 0;
 8005cee:	7023      	strb	r3, [r4, #0]
		}
	}
	return false;
}
 8005cf0:	bd70      	pop	{r4, r5, r6, pc}
	for(uint8_t i = 0; i < LIN_SLAVE_BUF_LEN; i++)
 8005cf2:	3201      	adds	r2, #1
 8005cf4:	2a20      	cmp	r2, #32
 8005cf6:	d1eb      	bne.n	8005cd0 <lin_check_slave_answer+0x8>
	return false;
 8005cf8:	2000      	movs	r0, #0
 8005cfa:	e7f9      	b.n	8005cf0 <lin_check_slave_answer+0x28>
 8005cfc:	200018fc 	.word	0x200018fc
 8005d00:	20002af8 	.word	0x20002af8

08005d04 <lin_byte_received>:
{
 8005d04:	b510      	push	{r4, lr}
	if(lin_stat.break_detected)
 8005d06:	4c13      	ldr	r4, [pc, #76]	; (8005d54 <lin_byte_received+0x50>)
 8005d08:	7b23      	ldrb	r3, [r4, #12]
 8005d0a:	b18b      	cbz	r3, 8005d30 <lin_byte_received+0x2c>
		switch(lin_stat.byte_cnt)
 8005d0c:	7823      	ldrb	r3, [r4, #0]
 8005d0e:	2b0a      	cmp	r3, #10
 8005d10:	d80e      	bhi.n	8005d30 <lin_byte_received+0x2c>
 8005d12:	e8df f003 	tbb	[pc, r3]
 8005d16:	0e06      	.short	0x0e06
 8005d18:	15151515 	.word	0x15151515
 8005d1c:	15151515 	.word	0x15151515
 8005d20:	18          	.byte	0x18
 8005d21:	00          	.byte	0x00
			if(byte == 0x55)
 8005d22:	2855      	cmp	r0, #85	; 0x55
 8005d24:	d102      	bne.n	8005d2c <lin_byte_received+0x28>
				lin_stat.byte_cnt++;
 8005d26:	2301      	movs	r3, #1
			lin_stat.byte_cnt++;
 8005d28:	7023      	strb	r3, [r4, #0]
			break;
 8005d2a:	e001      	b.n	8005d30 <lin_byte_received+0x2c>
				lin_stat.break_detected = 0;
 8005d2c:	2300      	movs	r3, #0
 8005d2e:	7323      	strb	r3, [r4, #12]
}
 8005d30:	bd10      	pop	{r4, pc}
			lin_stat.byte_cnt++;
 8005d32:	2302      	movs	r3, #2
			lin_stat.pid = byte;
 8005d34:	7060      	strb	r0, [r4, #1]
			lin_stat.byte_cnt++;
 8005d36:	7023      	strb	r3, [r4, #0]
			lin_stat.transmiting = lin_check_slave_answer(lin_stat.pid);
 8005d38:	f7ff ffc6 	bl	8005cc8 <lin_check_slave_answer>
 8005d3c:	7360      	strb	r0, [r4, #13]
			break;
 8005d3e:	e7f7      	b.n	8005d30 <lin_byte_received+0x2c>
			lin_stat.data[lin_stat.byte_cnt-2] = byte;
 8005d40:	54e0      	strb	r0, [r4, r3]
			lin_stat.byte_cnt++;
 8005d42:	3301      	adds	r3, #1
 8005d44:	e7f0      	b.n	8005d28 <lin_byte_received+0x24>
			lin_stat.byte_cnt++;
 8005d46:	230b      	movs	r3, #11
			lin_stat.data[8] = byte;
 8005d48:	72a0      	strb	r0, [r4, #10]
			lin_stat.byte_cnt++;
 8005d4a:	7023      	strb	r3, [r4, #0]
}
 8005d4c:	e8bd 4010 	ldmia.w	sp!, {r4, lr}
			lin_msg_received();
 8005d50:	f7ff bf30 	b.w	8005bb4 <lin_msg_received>
 8005d54:	200018e3 	.word	0x200018e3

08005d58 <Button_rutine>:
 *      Author: Arh
 */
#include "button.h"

t_button_state Button_rutine (t_button_var * var, int pressed)
{
 8005d58:	b538      	push	{r3, r4, r5, lr}
 8005d5a:	8883      	ldrh	r3, [r0, #4]
 8005d5c:	4605      	mov	r5, r0
 8005d5e:	460c      	mov	r4, r1
 8005d60:	2b08      	cmp	r3, #8
 8005d62:	d853      	bhi.n	8005e0c <Button_rutine+0xb4>
 8005d64:	e8df f003 	tbb	[pc, r3]
 8005d68:	2b1c0e05 	.word	0x2b1c0e05
 8005d6c:	64544638 	.word	0x64544638
 8005d70:	72          	.byte	0x72
 8005d71:	00          	.byte	0x00
	t_button_state button_state = RELISED;

	switch (var->state) {
	case 0:	// 
		if (pressed){
 8005d72:	b909      	cbnz	r1, 8005d78 <Button_rutine+0x20>
	t_button_state button_state = RELISED;
 8005d74:	2000      	movs	r0, #0
 8005d76:	e01c      	b.n	8005db2 <Button_rutine+0x5a>
			var->time_stamp = GetTimeMs();
 8005d78:	f7fa fd26 	bl	80007c8 <HAL_GetTick>
			var->state = 1;
 8005d7c:	2301      	movs	r3, #1
			var->time_stamp = GetTimeMs();
 8005d7e:	6028      	str	r0, [r5, #0]
		}
		break;
	case 5: //      ( state == 0)
		if(pressed){
			var->time_stamp = GetTimeMs();
			var->state = 6;
 8005d80:	80ab      	strh	r3, [r5, #4]
 8005d82:	e7f7      	b.n	8005d74 <Button_rutine+0x1c>
		if (pressed){
 8005d84:	2900      	cmp	r1, #0
 8005d86:	d041      	beq.n	8005e0c <Button_rutine+0xb4>
			if(GetTimeMs() - var->time_stamp > BUT_DEBOUNSE){
 8005d88:	f7fa fd1e 	bl	80007c8 <HAL_GetTick>
 8005d8c:	682b      	ldr	r3, [r5, #0]
 8005d8e:	1ac0      	subs	r0, r0, r3
 8005d90:	2801      	cmp	r0, #1
 8005d92:	d9ef      	bls.n	8005d74 <Button_rutine+0x1c>
				var->time_stamp = GetTimeMs();
 8005d94:	f7fa fd18 	bl	80007c8 <HAL_GetTick>
 8005d98:	6028      	str	r0, [r5, #0]
				var->state = 2;
 8005d9a:	2002      	movs	r0, #2
				var->state = 0;
			}
		}
		break;
	default:
		var->state = 0;
 8005d9c:	80a8      	strh	r0, [r5, #4]
		break;
 8005d9e:	e008      	b.n	8005db2 <Button_rutine+0x5a>
		if (pressed){
 8005da0:	b141      	cbz	r1, 8005db4 <Button_rutine+0x5c>
			if(GetTimeMs() - var->time_stamp > BUT_LONG){
 8005da2:	f7fa fd11 	bl	80007c8 <HAL_GetTick>
 8005da6:	682b      	ldr	r3, [r5, #0]
 8005da8:	1ac0      	subs	r0, r0, r3
 8005daa:	f5b0 7f2f 	cmp.w	r0, #700	; 0x2bc
 8005dae:	d846      	bhi.n	8005e3e <Button_rutine+0xe6>
				button_state = DOWN;
 8005db0:	2001      	movs	r0, #1
	}
	return button_state;
}
 8005db2:	bd38      	pop	{r3, r4, r5, pc}
			var->time_stamp = GetTimeMs();
 8005db4:	f7fa fd08 	bl	80007c8 <HAL_GetTick>
			var->state = 4;
 8005db8:	2304      	movs	r3, #4
			var->time_stamp = GetTimeMs();
 8005dba:	6028      	str	r0, [r5, #0]
			var->state = 4;
 8005dbc:	e7e0      	b.n	8005d80 <Button_rutine+0x28>
		if (pressed){
 8005dbe:	b329      	cbz	r1, 8005e0c <Button_rutine+0xb4>
			if(GetTimeMs() - var->time_stamp > BUT_REPEAT){
 8005dc0:	f7fa fd02 	bl	80007c8 <HAL_GetTick>
 8005dc4:	682b      	ldr	r3, [r5, #0]
 8005dc6:	1ac0      	subs	r0, r0, r3
 8005dc8:	f5b0 7f96 	cmp.w	r0, #300	; 0x12c
 8005dcc:	d9f0      	bls.n	8005db0 <Button_rutine+0x58>
				var->time_stamp = GetTimeMs();
 8005dce:	f7fa fcfb 	bl	80007c8 <HAL_GetTick>
 8005dd2:	6028      	str	r0, [r5, #0]
				button_state = REPEAT_PRESS;
 8005dd4:	2006      	movs	r0, #6
 8005dd6:	e7ec      	b.n	8005db2 <Button_rutine+0x5a>
		if(pressed){
 8005dd8:	bb31      	cbnz	r1, 8005e28 <Button_rutine+0xd0>
			if(GetTimeMs() - var->time_stamp > BUT_DEBOUNSE){
 8005dda:	f7fa fcf5 	bl	80007c8 <HAL_GetTick>
 8005dde:	682b      	ldr	r3, [r5, #0]
 8005de0:	1ac0      	subs	r0, r0, r3
 8005de2:	2801      	cmp	r0, #1
 8005de4:	d9c6      	bls.n	8005d74 <Button_rutine+0x1c>
				var->time_stamp = GetTimeMs();
 8005de6:	f7fa fcef 	bl	80007c8 <HAL_GetTick>
				var->state = 5;
 8005dea:	2305      	movs	r3, #5
				var->time_stamp = GetTimeMs();
 8005dec:	6028      	str	r0, [r5, #0]
				var->state = 5;
 8005dee:	80ab      	strh	r3, [r5, #4]
				button_state = CLICKED;
 8005df0:	2003      	movs	r0, #3
 8005df2:	e7de      	b.n	8005db2 <Button_rutine+0x5a>
		if(pressed){
 8005df4:	b121      	cbz	r1, 8005e00 <Button_rutine+0xa8>
			var->time_stamp = GetTimeMs();
 8005df6:	f7fa fce7 	bl	80007c8 <HAL_GetTick>
			var->state = 6;
 8005dfa:	2306      	movs	r3, #6
			var->time_stamp = GetTimeMs();
 8005dfc:	6028      	str	r0, [r5, #0]
			var->state = 6;
 8005dfe:	e7bf      	b.n	8005d80 <Button_rutine+0x28>
			if(GetTimeMs() - var->time_stamp > BUT_DOUBLE){
 8005e00:	f7fa fce2 	bl	80007c8 <HAL_GetTick>
 8005e04:	682b      	ldr	r3, [r5, #0]
 8005e06:	1ac0      	subs	r0, r0, r3
 8005e08:	28c8      	cmp	r0, #200	; 0xc8
 8005e0a:	d9b3      	bls.n	8005d74 <Button_rutine+0x1c>
		var->state = 0;
 8005e0c:	2000      	movs	r0, #0
 8005e0e:	e7c5      	b.n	8005d9c <Button_rutine+0x44>
		if (pressed){
 8005e10:	b161      	cbz	r1, 8005e2c <Button_rutine+0xd4>
			if(GetTimeMs() - var->time_stamp > BUT_DEBOUNSE){
 8005e12:	f7fa fcd9 	bl	80007c8 <HAL_GetTick>
 8005e16:	682b      	ldr	r3, [r5, #0]
 8005e18:	1ac0      	subs	r0, r0, r3
 8005e1a:	2801      	cmp	r0, #1
 8005e1c:	d9aa      	bls.n	8005d74 <Button_rutine+0x1c>
				var->time_stamp = GetTimeMs();
 8005e1e:	f7fa fcd3 	bl	80007c8 <HAL_GetTick>
				var->state = 7;
 8005e22:	2307      	movs	r3, #7
				var->time_stamp = GetTimeMs();
 8005e24:	6028      	str	r0, [r5, #0]
				var->state = 7;
 8005e26:	80ab      	strh	r3, [r5, #4]
			button_state = 2;
 8005e28:	2002      	movs	r0, #2
 8005e2a:	e7c2      	b.n	8005db2 <Button_rutine+0x5a>
			var->state = 5;
 8005e2c:	2305      	movs	r3, #5
 8005e2e:	e7a7      	b.n	8005d80 <Button_rutine+0x28>
		if (pressed){
 8005e30:	2900      	cmp	r1, #0
 8005e32:	d1b6      	bne.n	8005da2 <Button_rutine+0x4a>
			var->time_stamp = GetTimeMs();
 8005e34:	f7fa fcc8 	bl	80007c8 <HAL_GetTick>
			var->state = 8;
 8005e38:	2308      	movs	r3, #8
			var->time_stamp = GetTimeMs();
 8005e3a:	6028      	str	r0, [r5, #0]
			var->state = 8;
 8005e3c:	e7a0      	b.n	8005d80 <Button_rutine+0x28>
				var->time_stamp = GetTimeMs();
 8005e3e:	f7fa fcc3 	bl	80007c8 <HAL_GetTick>
				var->state = 3;
 8005e42:	2303      	movs	r3, #3
				var->time_stamp = GetTimeMs();
 8005e44:	6028      	str	r0, [r5, #0]
				var->state = 3;
 8005e46:	80ab      	strh	r3, [r5, #4]
				button_state = LONG_PRESSED;
 8005e48:	2004      	movs	r0, #4
 8005e4a:	e7b2      	b.n	8005db2 <Button_rutine+0x5a>
		if(pressed){
 8005e4c:	b109      	cbz	r1, 8005e52 <Button_rutine+0xfa>
			var->state = 7;
 8005e4e:	2307      	movs	r3, #7
 8005e50:	e796      	b.n	8005d80 <Button_rutine+0x28>
			if(GetTimeMs() - var->time_stamp > BUT_DEBOUNSE){
 8005e52:	f7fa fcb9 	bl	80007c8 <HAL_GetTick>
 8005e56:	682b      	ldr	r3, [r5, #0]
 8005e58:	1ac0      	subs	r0, r0, r3
 8005e5a:	2801      	cmp	r0, #1
 8005e5c:	d98a      	bls.n	8005d74 <Button_rutine+0x1c>
				var->time_stamp = GetTimeMs();
 8005e5e:	f7fa fcb3 	bl	80007c8 <HAL_GetTick>
				var->state = 0;
 8005e62:	80ac      	strh	r4, [r5, #4]
				var->time_stamp = GetTimeMs();
 8005e64:	6028      	str	r0, [r5, #0]
				button_state = DOUBLE_CLICKED;
 8005e66:	2005      	movs	r0, #5
 8005e68:	e7a3      	b.n	8005db2 <Button_rutine+0x5a>
	...

08005e6c <MX_CAN_Init>:

CAN_HandleTypeDef hcan;

/* CAN init function */
void MX_CAN_Init(void)
{
 8005e6c:	b508      	push	{r3, lr}

  hcan.Instance = CAN1;
  hcan.Init.Prescaler = 16;
 8005e6e:	2310      	movs	r3, #16
  hcan.Instance = CAN1;
 8005e70:	4809      	ldr	r0, [pc, #36]	; (8005e98 <MX_CAN_Init+0x2c>)
  hcan.Init.Prescaler = 16;
 8005e72:	4a0a      	ldr	r2, [pc, #40]	; (8005e9c <MX_CAN_Init+0x30>)
 8005e74:	e9c0 2300 	strd	r2, r3, [r0]
  hcan.Init.Mode = CAN_MODE_NORMAL;
 8005e78:	2300      	movs	r3, #0
  hcan.Init.SyncJumpWidth = CAN_SJW_1TQ;
  hcan.Init.TimeSeg1 = CAN_BS1_1TQ;
  hcan.Init.TimeSeg2 = CAN_BS2_1TQ;
  hcan.Init.TimeTriggeredMode = DISABLE;
 8005e7a:	6183      	str	r3, [r0, #24]
  hcan.Init.AutoBusOff = DISABLE;
  hcan.Init.AutoWakeUp = DISABLE;
  hcan.Init.AutoRetransmission = DISABLE;
  hcan.Init.ReceiveFifoLocked = DISABLE;
 8005e7c:	8383      	strh	r3, [r0, #28]
  hcan.Init.SyncJumpWidth = CAN_SJW_1TQ;
 8005e7e:	e9c0 3302 	strd	r3, r3, [r0, #8]
  hcan.Init.TimeSeg2 = CAN_BS2_1TQ;
 8005e82:	e9c0 3304 	strd	r3, r3, [r0, #16]
  hcan.Init.TransmitFifoPriority = DISABLE;
  if (HAL_CAN_Init(&hcan) != HAL_OK)
 8005e86:	f7fa fcb7 	bl	80007f8 <HAL_CAN_Init>
 8005e8a:	b118      	cbz	r0, 8005e94 <MX_CAN_Init+0x28>
  {
    Error_Handler();
  }

}
 8005e8c:	e8bd 4008 	ldmia.w	sp!, {r3, lr}
    Error_Handler();
 8005e90:	f001 ba7e 	b.w	8007390 <Error_Handler>
}
 8005e94:	bd08      	pop	{r3, pc}
 8005e96:	bf00      	nop
 8005e98:	20001a5c 	.word	0x20001a5c
 8005e9c:	40006400 	.word	0x40006400

08005ea0 <HAL_CAN_MspInit>:

void HAL_CAN_MspInit(CAN_HandleTypeDef* canHandle)
{
 8005ea0:	b510      	push	{r4, lr}
 8005ea2:	4604      	mov	r4, r0
 8005ea4:	b086      	sub	sp, #24

  GPIO_InitTypeDef GPIO_InitStruct = {0};
 8005ea6:	2210      	movs	r2, #16
 8005ea8:	2100      	movs	r1, #0
 8005eaa:	a802      	add	r0, sp, #8
 8005eac:	f001 fe42 	bl	8007b34 <memset>
  if(canHandle->Instance==CAN1)
 8005eb0:	6822      	ldr	r2, [r4, #0]
 8005eb2:	4b1f      	ldr	r3, [pc, #124]	; (8005f30 <HAL_CAN_MspInit+0x90>)
 8005eb4:	429a      	cmp	r2, r3
 8005eb6:	d139      	bne.n	8005f2c <HAL_CAN_MspInit+0x8c>
  {
  /* USER CODE BEGIN CAN1_MspInit 0 */

  /* USER CODE END CAN1_MspInit 0 */
    /* CAN1 clock enable */
    __HAL_RCC_CAN1_CLK_ENABLE();
 8005eb8:	f503 33d6 	add.w	r3, r3, #109568	; 0x1ac00
 8005ebc:	69da      	ldr	r2, [r3, #28]
    /**CAN GPIO Configuration
    PB8     ------> CAN_RX
    PB9     ------> CAN_TX
    */
    GPIO_InitStruct.Pin = GPIO_PIN_8;
    GPIO_InitStruct.Mode = GPIO_MODE_INPUT;
 8005ebe:	2400      	movs	r4, #0
    __HAL_RCC_CAN1_CLK_ENABLE();
 8005ec0:	f042 7200 	orr.w	r2, r2, #33554432	; 0x2000000
 8005ec4:	61da      	str	r2, [r3, #28]
 8005ec6:	69da      	ldr	r2, [r3, #28]
    GPIO_InitStruct.Pull = GPIO_NOPULL;
    HAL_GPIO_Init(GPIOB, &GPIO_InitStruct);
 8005ec8:	481a      	ldr	r0, [pc, #104]	; (8005f34 <HAL_CAN_MspInit+0x94>)
    __HAL_RCC_CAN1_CLK_ENABLE();
 8005eca:	f002 7200 	and.w	r2, r2, #33554432	; 0x2000000
 8005ece:	9200      	str	r2, [sp, #0]
 8005ed0:	9a00      	ldr	r2, [sp, #0]
    __HAL_RCC_GPIOB_CLK_ENABLE();
 8005ed2:	699a      	ldr	r2, [r3, #24]
    HAL_GPIO_Init(GPIOB, &GPIO_InitStruct);
 8005ed4:	a902      	add	r1, sp, #8
    __HAL_RCC_GPIOB_CLK_ENABLE();
 8005ed6:	f042 0208 	orr.w	r2, r2, #8
 8005eda:	619a      	str	r2, [r3, #24]
 8005edc:	699b      	ldr	r3, [r3, #24]
    GPIO_InitStruct.Pull = GPIO_NOPULL;
 8005ede:	9404      	str	r4, [sp, #16]
    __HAL_RCC_GPIOB_CLK_ENABLE();
 8005ee0:	f003 0308 	and.w	r3, r3, #8
 8005ee4:	9301      	str	r3, [sp, #4]
 8005ee6:	9b01      	ldr	r3, [sp, #4]
    GPIO_InitStruct.Mode = GPIO_MODE_INPUT;
 8005ee8:	f44f 7380 	mov.w	r3, #256	; 0x100
 8005eec:	e9cd 3402 	strd	r3, r4, [sp, #8]
    HAL_GPIO_Init(GPIOB, &GPIO_InitStruct);
 8005ef0:	f7fb f9c0 	bl	8001274 <HAL_GPIO_Init>

    GPIO_InitStruct.Pin = GPIO_PIN_9;
    GPIO_InitStruct.Mode = GPIO_MODE_AF_PP;
 8005ef4:	f44f 7200 	mov.w	r2, #512	; 0x200
 8005ef8:	2302      	movs	r3, #2
 8005efa:	e9cd 2302 	strd	r2, r3, [sp, #8]
    GPIO_InitStruct.Speed = GPIO_SPEED_FREQ_HIGH;
 8005efe:	2303      	movs	r3, #3
    HAL_GPIO_Init(GPIOB, &GPIO_InitStruct);
 8005f00:	480c      	ldr	r0, [pc, #48]	; (8005f34 <HAL_CAN_MspInit+0x94>)
 8005f02:	a902      	add	r1, sp, #8
    GPIO_InitStruct.Speed = GPIO_SPEED_FREQ_HIGH;
 8005f04:	9305      	str	r3, [sp, #20]
    HAL_GPIO_Init(GPIOB, &GPIO_InitStruct);
 8005f06:	f7fb f9b5 	bl	8001274 <HAL_GPIO_Init>

    __HAL_AFIO_REMAP_CAN1_2();
 8005f0a:	4a0b      	ldr	r2, [pc, #44]	; (8005f38 <HAL_CAN_MspInit+0x98>)

    /* CAN1 interrupt Init */
    HAL_NVIC_SetPriority(USB_LP_CAN1_RX0_IRQn, 0, 0);
 8005f0c:	2014      	movs	r0, #20
    __HAL_AFIO_REMAP_CAN1_2();
 8005f0e:	6853      	ldr	r3, [r2, #4]
    HAL_NVIC_SetPriority(USB_LP_CAN1_RX0_IRQn, 0, 0);
 8005f10:	4621      	mov	r1, r4
    __HAL_AFIO_REMAP_CAN1_2();
 8005f12:	f423 43c0 	bic.w	r3, r3, #24576	; 0x6000
 8005f16:	f043 63e0 	orr.w	r3, r3, #117440512	; 0x7000000
 8005f1a:	f443 4380 	orr.w	r3, r3, #16384	; 0x4000
 8005f1e:	6053      	str	r3, [r2, #4]
    HAL_NVIC_SetPriority(USB_LP_CAN1_RX0_IRQn, 0, 0);
 8005f20:	4622      	mov	r2, r4
 8005f22:	f7fa ffd3 	bl	8000ecc <HAL_NVIC_SetPriority>
    HAL_NVIC_EnableIRQ(USB_LP_CAN1_RX0_IRQn);
 8005f26:	2014      	movs	r0, #20
 8005f28:	f7fb f802 	bl	8000f30 <HAL_NVIC_EnableIRQ>
  /* USER CODE BEGIN CAN1_MspInit 1 */

  /* USER CODE END CAN1_MspInit 1 */
  }
}
 8005f2c:	b006      	add	sp, #24
 8005f2e:	bd10      	pop	{r4, pc}
 8005f30:	40006400 	.word	0x40006400
 8005f34:	40010c00 	.word	0x40010c00
 8005f38:	40010000 	.word	0x40010000

08005f3c <HAL_CAN_MspDeInit>:

void HAL_CAN_MspDeInit(CAN_HandleTypeDef* canHandle)
{
 8005f3c:	b508      	push	{r3, lr}

  if(canHandle->Instance==CAN1)
 8005f3e:	6802      	ldr	r2, [r0, #0]
 8005f40:	4b09      	ldr	r3, [pc, #36]	; (8005f68 <HAL_CAN_MspDeInit+0x2c>)
 8005f42:	429a      	cmp	r2, r3
 8005f44:	d10e      	bne.n	8005f64 <HAL_CAN_MspDeInit+0x28>
  {
  /* USER CODE BEGIN CAN1_MspDeInit 0 */

  /* USER CODE END CAN1_MspDeInit 0 */
    /* Peripheral clock disable */
    __HAL_RCC_CAN1_CLK_DISABLE();
 8005f46:	4a09      	ldr	r2, [pc, #36]	; (8005f6c <HAL_CAN_MspDeInit+0x30>)

    /**CAN GPIO Configuration
    PB8     ------> CAN_RX
    PB9     ------> CAN_TX
    */
    HAL_GPIO_DeInit(GPIOB, GPIO_PIN_8|GPIO_PIN_9);
 8005f48:	4809      	ldr	r0, [pc, #36]	; (8005f70 <HAL_CAN_MspDeInit+0x34>)
    __HAL_RCC_CAN1_CLK_DISABLE();
 8005f4a:	69d3      	ldr	r3, [r2, #28]
    HAL_GPIO_DeInit(GPIOB, GPIO_PIN_8|GPIO_PIN_9);
 8005f4c:	f44f 7140 	mov.w	r1, #768	; 0x300
    __HAL_RCC_CAN1_CLK_DISABLE();
 8005f50:	f023 7300 	bic.w	r3, r3, #33554432	; 0x2000000
 8005f54:	61d3      	str	r3, [r2, #28]
    HAL_GPIO_DeInit(GPIOB, GPIO_PIN_8|GPIO_PIN_9);
 8005f56:	f7fb fa69 	bl	800142c <HAL_GPIO_DeInit>
    HAL_NVIC_DisableIRQ(USB_LP_CAN1_RX0_IRQn);
  /* USER CODE BEGIN CAN1_MspDeInit 1 */

  /* USER CODE END CAN1_MspDeInit 1 */
  }
}
 8005f5a:	e8bd 4008 	ldmia.w	sp!, {r3, lr}
    HAL_NVIC_DisableIRQ(USB_LP_CAN1_RX0_IRQn);
 8005f5e:	2014      	movs	r0, #20
 8005f60:	f7fa bff4 	b.w	8000f4c <HAL_NVIC_DisableIRQ>
}
 8005f64:	bd08      	pop	{r3, pc}
 8005f66:	bf00      	nop
 8005f68:	40006400 	.word	0x40006400
 8005f6c:	40021000 	.word	0x40021000
 8005f70:	40010c00 	.word	0x40010c00

08005f74 <MX_DMA_Init>:
  */
void MX_DMA_Init(void)
{

  /* DMA controller clock enable */
  __HAL_RCC_DMA1_CLK_ENABLE();
 8005f74:	4b12      	ldr	r3, [pc, #72]	; (8005fc0 <MX_DMA_Init+0x4c>)
{
 8005f76:	b507      	push	{r0, r1, r2, lr}
  __HAL_RCC_DMA1_CLK_ENABLE();
 8005f78:	695a      	ldr	r2, [r3, #20]

  /* DMA interrupt init */
  /* DMA1_Channel2_IRQn interrupt configuration */
  HAL_NVIC_SetPriority(DMA1_Channel2_IRQn, 2, 0);
 8005f7a:	2102      	movs	r1, #2
  __HAL_RCC_DMA1_CLK_ENABLE();
 8005f7c:	f042 0201 	orr.w	r2, r2, #1
 8005f80:	615a      	str	r2, [r3, #20]
 8005f82:	695b      	ldr	r3, [r3, #20]
  HAL_NVIC_SetPriority(DMA1_Channel2_IRQn, 2, 0);
 8005f84:	2200      	movs	r2, #0
  __HAL_RCC_DMA1_CLK_ENABLE();
 8005f86:	f003 0301 	and.w	r3, r3, #1
 8005f8a:	9301      	str	r3, [sp, #4]
  HAL_NVIC_SetPriority(DMA1_Channel2_IRQn, 2, 0);
 8005f8c:	200c      	movs	r0, #12
  __HAL_RCC_DMA1_CLK_ENABLE();
 8005f8e:	9b01      	ldr	r3, [sp, #4]
  HAL_NVIC_SetPriority(DMA1_Channel2_IRQn, 2, 0);
 8005f90:	f7fa ff9c 	bl	8000ecc <HAL_NVIC_SetPriority>
  HAL_NVIC_EnableIRQ(DMA1_Channel2_IRQn);
 8005f94:	200c      	movs	r0, #12
 8005f96:	f7fa ffcb 	bl	8000f30 <HAL_NVIC_EnableIRQ>
  /* DMA1_Channel4_IRQn interrupt configuration */
  HAL_NVIC_SetPriority(DMA1_Channel4_IRQn, 2, 0);
 8005f9a:	2200      	movs	r2, #0
 8005f9c:	2102      	movs	r1, #2
 8005f9e:	200e      	movs	r0, #14
 8005fa0:	f7fa ff94 	bl	8000ecc <HAL_NVIC_SetPriority>
  HAL_NVIC_EnableIRQ(DMA1_Channel4_IRQn);
 8005fa4:	200e      	movs	r0, #14
 8005fa6:	f7fa ffc3 	bl	8000f30 <HAL_NVIC_EnableIRQ>
  /* DMA1_Channel7_IRQn interrupt configuration */
  HAL_NVIC_SetPriority(DMA1_Channel7_IRQn, 2, 0);
 8005faa:	2200      	movs	r2, #0
 8005fac:	2102      	movs	r1, #2
 8005fae:	2011      	movs	r0, #17
 8005fb0:	f7fa ff8c 	bl	8000ecc <HAL_NVIC_SetPriority>
  HAL_NVIC_EnableIRQ(DMA1_Channel7_IRQn);
 8005fb4:	2011      	movs	r0, #17

}
 8005fb6:	b003      	add	sp, #12
 8005fb8:	f85d eb04 	ldr.w	lr, [sp], #4
  HAL_NVIC_EnableIRQ(DMA1_Channel7_IRQn);
 8005fbc:	f7fa bfb8 	b.w	8000f30 <HAL_NVIC_EnableIRQ>
 8005fc0:	40021000 	.word	0x40021000

08005fc4 <EEPROM_Write_disable>:
#define EEPROM_READ		0x03
#define EEPROM_WRITE	0x02


HAL_StatusTypeDef EEPROM_Write_disable(SPI_HandleTypeDef *hspi, uint32_t Timeout)
{
 8005fc4:	b573      	push	{r0, r1, r4, r5, r6, lr}
	  //uint32_t tickstart = 0U;
	  HAL_StatusTypeDef errorcode = HAL_OK;
	  uint8_t request[1];
	  //tickstart = HAL_GetTick();
	  request[0] = EEPROM_WRDI;
 8005fc6:	2304      	movs	r3, #4
{
 8005fc8:	4604      	mov	r4, r0
 8005fca:	460d      	mov	r5, r1

	  HAL_GPIO_WritePin(EEPROM_CS_GPIO_Port, EEPROM_CS_Pin, GPIO_PIN_RESET);
 8005fcc:	4e0c      	ldr	r6, [pc, #48]	; (8006000 <EEPROM_Write_disable+0x3c>)
 8005fce:	2200      	movs	r2, #0
 8005fd0:	4630      	mov	r0, r6
 8005fd2:	f44f 5180 	mov.w	r1, #4096	; 0x1000
	  request[0] = EEPROM_WRDI;
 8005fd6:	f88d 3004 	strb.w	r3, [sp, #4]
	  HAL_GPIO_WritePin(EEPROM_CS_GPIO_Port, EEPROM_CS_Pin, GPIO_PIN_RESET);
 8005fda:	f7fb fa9b 	bl	8001514 <HAL_GPIO_WritePin>
	  errorcode = HAL_SPI_Transmit(hspi, request, 1, Timeout);
 8005fde:	462b      	mov	r3, r5
 8005fe0:	a901      	add	r1, sp, #4
 8005fe2:	2201      	movs	r2, #1
 8005fe4:	4620      	mov	r0, r4
 8005fe6:	f7fb ff68 	bl	8001eba <HAL_SPI_Transmit>
 8005fea:	4604      	mov	r4, r0
	  HAL_GPIO_WritePin(EEPROM_CS_GPIO_Port, EEPROM_CS_Pin, GPIO_PIN_SET);
 8005fec:	2201      	movs	r2, #1
 8005fee:	4630      	mov	r0, r6
 8005ff0:	f44f 5180 	mov.w	r1, #4096	; 0x1000
 8005ff4:	f7fb fa8e 	bl	8001514 <HAL_GPIO_WritePin>
	  return errorcode;
}
 8005ff8:	4620      	mov	r0, r4
 8005ffa:	b002      	add	sp, #8
 8005ffc:	bd70      	pop	{r4, r5, r6, pc}
 8005ffe:	bf00      	nop
 8006000:	40010c00 	.word	0x40010c00

08006004 <EEPROM_Wait_ready>:

HAL_StatusTypeDef EEPROM_Wait_ready(SPI_HandleTypeDef *hspi, uint32_t Timeout)
{
 8006004:	b5f7      	push	{r0, r1, r2, r4, r5, r6, r7, lr}
 8006006:	460d      	mov	r5, r1
 8006008:	4606      	mov	r6, r0
	  uint32_t tickstart = 0U;
	  HAL_StatusTypeDef errorcode = HAL_OK;
	  uint8_t request[1];
	  tickstart = HAL_GetTick();
 800600a:	f7fa fbdd 	bl	80007c8 <HAL_GetTick>
	  request[0] = EEPROM_RDSR;
 800600e:	2305      	movs	r3, #5

	  HAL_GPIO_WritePin(EEPROM_CS_GPIO_Port, EEPROM_CS_Pin, GPIO_PIN_RESET);
 8006010:	2200      	movs	r2, #0
 8006012:	f44f 5180 	mov.w	r1, #4096	; 0x1000
	  tickstart = HAL_GetTick();
 8006016:	4607      	mov	r7, r0
	  HAL_GPIO_WritePin(EEPROM_CS_GPIO_Port, EEPROM_CS_Pin, GPIO_PIN_RESET);
 8006018:	4814      	ldr	r0, [pc, #80]	; (800606c <EEPROM_Wait_ready+0x68>)
	  request[0] = EEPROM_RDSR;
 800601a:	f88d 3004 	strb.w	r3, [sp, #4]
	  HAL_GPIO_WritePin(EEPROM_CS_GPIO_Port, EEPROM_CS_Pin, GPIO_PIN_RESET);
 800601e:	f7fb fa79 	bl	8001514 <HAL_GPIO_WritePin>
	  errorcode = HAL_SPI_Transmit(hspi, request, 1, Timeout);
 8006022:	462b      	mov	r3, r5
 8006024:	2201      	movs	r2, #1
 8006026:	4630      	mov	r0, r6
 8006028:	a901      	add	r1, sp, #4
 800602a:	f7fb ff46 	bl	8001eba <HAL_SPI_Transmit>

	  if(errorcode != HAL_OK)
 800602e:	4604      	mov	r4, r0
 8006030:	b180      	cbz	r0, 8006054 <EEPROM_Wait_ready+0x50>
		{
			return HAL_BUSY;
		}
	  }while(request[0] & 0x03);

	  HAL_GPIO_WritePin(EEPROM_CS_GPIO_Port, EEPROM_CS_Pin, GPIO_PIN_SET);
 8006032:	2201      	movs	r2, #1
 8006034:	f44f 5180 	mov.w	r1, #4096	; 0x1000
 8006038:	480c      	ldr	r0, [pc, #48]	; (800606c <EEPROM_Wait_ready+0x68>)
 800603a:	f7fb fa6b 	bl	8001514 <HAL_GPIO_WritePin>
	  return HAL_OK;
 800603e:	e012      	b.n	8006066 <EEPROM_Wait_ready+0x62>
		if(errorcode == HAL_BUSY || ((HAL_GetTick()-tickstart) >=  Timeout))
 8006040:	f7fa fbc2 	bl	80007c8 <HAL_GetTick>
 8006044:	1bc0      	subs	r0, r0, r7
 8006046:	42a8      	cmp	r0, r5
 8006048:	d20c      	bcs.n	8006064 <EEPROM_Wait_ready+0x60>
	  }while(request[0] & 0x03);
 800604a:	f89d 4004 	ldrb.w	r4, [sp, #4]
 800604e:	f014 0403 	ands.w	r4, r4, #3
 8006052:	d0ee      	beq.n	8006032 <EEPROM_Wait_ready+0x2e>
		errorcode = HAL_SPI_Receive(hspi, request, 1, Timeout);
 8006054:	462b      	mov	r3, r5
 8006056:	2201      	movs	r2, #1
 8006058:	4630      	mov	r0, r6
 800605a:	a901      	add	r1, sp, #4
 800605c:	f7fc f8c1 	bl	80021e2 <HAL_SPI_Receive>
		if(errorcode == HAL_BUSY || ((HAL_GetTick()-tickstart) >=  Timeout))
 8006060:	2802      	cmp	r0, #2
 8006062:	d1ed      	bne.n	8006040 <EEPROM_Wait_ready+0x3c>
			return HAL_BUSY;
 8006064:	2402      	movs	r4, #2
}
 8006066:	4620      	mov	r0, r4
 8006068:	b003      	add	sp, #12
 800606a:	bdf0      	pop	{r4, r5, r6, r7, pc}
 800606c:	40010c00 	.word	0x40010c00

08006070 <EEPROM_Read>:



HAL_StatusTypeDef EEPROM_Read(SPI_HandleTypeDef *hspi, uint16_t address, uint8_t *pData, uint16_t Size)
{
 8006070:	e92d 41f3 	stmdb	sp!, {r0, r1, r4, r5, r6, r7, r8, lr}
	HAL_StatusTypeDef errorcode = HAL_OK;
	uint8_t request[3];
	request[0] = EEPROM_READ;
 8006074:	f04f 0803 	mov.w	r8, #3
	request[1] = address >> 8;
	request[2] = address & 0xFF;
 8006078:	f88d 1006 	strb.w	r1, [sp, #6]
{
 800607c:	4605      	mov	r5, r0
 800607e:	461f      	mov	r7, r3

	errorcode = EEPROM_Wait_ready(&hspi2, 500);
 8006080:	4816      	ldr	r0, [pc, #88]	; (80060dc <EEPROM_Read+0x6c>)
	request[1] = address >> 8;
 8006082:	0a0b      	lsrs	r3, r1, #8
	errorcode = EEPROM_Wait_ready(&hspi2, 500);
 8006084:	f44f 71fa 	mov.w	r1, #500	; 0x1f4
{
 8006088:	4616      	mov	r6, r2
	request[0] = EEPROM_READ;
 800608a:	f88d 8004 	strb.w	r8, [sp, #4]
	request[1] = address >> 8;
 800608e:	f88d 3005 	strb.w	r3, [sp, #5]
	errorcode = EEPROM_Wait_ready(&hspi2, 500);
 8006092:	f7ff ffb7 	bl	8006004 <EEPROM_Wait_ready>
	if(errorcode != HAL_OK) return errorcode;
 8006096:	4604      	mov	r4, r0
 8006098:	b998      	cbnz	r0, 80060c2 <EEPROM_Read+0x52>

	HAL_GPIO_WritePin(EEPROM_CS_GPIO_Port, EEPROM_CS_Pin, GPIO_PIN_RESET);
 800609a:	4602      	mov	r2, r0
 800609c:	f44f 5180 	mov.w	r1, #4096	; 0x1000
 80060a0:	480f      	ldr	r0, [pc, #60]	; (80060e0 <EEPROM_Read+0x70>)
 80060a2:	f7fb fa37 	bl	8001514 <HAL_GPIO_WritePin>
	errorcode = HAL_SPI_Transmit(hspi, request, 3, 100);
 80060a6:	2364      	movs	r3, #100	; 0x64
 80060a8:	4642      	mov	r2, r8
 80060aa:	4628      	mov	r0, r5
 80060ac:	a901      	add	r1, sp, #4
 80060ae:	f7fb ff04 	bl	8001eba <HAL_SPI_Transmit>
	if(errorcode != HAL_OK)
 80060b2:	4604      	mov	r4, r0
 80060b4:	b148      	cbz	r0, 80060ca <EEPROM_Read+0x5a>
		HAL_GPIO_WritePin(EEPROM_CS_GPIO_Port, EEPROM_CS_Pin, GPIO_PIN_SET);
		return errorcode;
	}

	errorcode = HAL_SPI_Receive(hspi, pData, Size, 100);
	HAL_GPIO_WritePin(EEPROM_CS_GPIO_Port, EEPROM_CS_Pin, GPIO_PIN_SET);
 80060b6:	2201      	movs	r2, #1
 80060b8:	f44f 5180 	mov.w	r1, #4096	; 0x1000
 80060bc:	4808      	ldr	r0, [pc, #32]	; (80060e0 <EEPROM_Read+0x70>)
 80060be:	f7fb fa29 	bl	8001514 <HAL_GPIO_WritePin>
	return errorcode;
}
 80060c2:	4620      	mov	r0, r4
 80060c4:	b002      	add	sp, #8
 80060c6:	e8bd 81f0 	ldmia.w	sp!, {r4, r5, r6, r7, r8, pc}
	errorcode = HAL_SPI_Receive(hspi, pData, Size, 100);
 80060ca:	2364      	movs	r3, #100	; 0x64
 80060cc:	463a      	mov	r2, r7
 80060ce:	4631      	mov	r1, r6
 80060d0:	4628      	mov	r0, r5
 80060d2:	f7fc f886 	bl	80021e2 <HAL_SPI_Receive>
 80060d6:	4604      	mov	r4, r0
 80060d8:	e7ed      	b.n	80060b6 <EEPROM_Read+0x46>
 80060da:	bf00      	nop
 80060dc:	20002dbc 	.word	0x20002dbc
 80060e0:	40010c00 	.word	0x40010c00

080060e4 <EEPROM_Write>:


HAL_StatusTypeDef EEPROM_Write(SPI_HandleTypeDef *hspi, uint16_t address, uint8_t *pData, uint16_t Size)
{
 80060e4:	e92d 4ff0 	stmdb	sp!, {r4, r5, r6, r7, r8, r9, sl, fp, lr}
 80060e8:	461e      	mov	r6, r3
	HAL_StatusTypeDef errorcode = HAL_OK;
	uint8_t request[35];
	volatile uint16_t sended_bytes = 0;
 80060ea:	2300      	movs	r3, #0
{
 80060ec:	4607      	mov	r7, r0
 80060ee:	460d      	mov	r5, r1
 80060f0:	4691      	mov	r9, r2
 80060f2:	b08b      	sub	sp, #44	; 0x2c
	volatile uint8_t address_in_page = 0;

	do
	{
		errorcode = EEPROM_Wait_ready(&hspi2, 500);
 80060f4:	f8df a0f4 	ldr.w	sl, [pc, #244]	; 80061ec <EEPROM_Write+0x108>
		if(errorcode != HAL_OK) return errorcode;

		request[0] = EEPROM_WREN;

		HAL_GPIO_WritePin(EEPROM_CS_GPIO_Port, EEPROM_CS_Pin, GPIO_PIN_RESET);
 80060f8:	f8df 80f4 	ldr.w	r8, [pc, #244]	; 80061f0 <EEPROM_Write+0x10c>
	volatile uint16_t sended_bytes = 0;
 80060fc:	f8ad 3002 	strh.w	r3, [sp, #2]
	volatile uint8_t address_in_page = 0;
 8006100:	f88d 3001 	strb.w	r3, [sp, #1]
		errorcode = EEPROM_Wait_ready(&hspi2, 500);
 8006104:	f44f 71fa 	mov.w	r1, #500	; 0x1f4
 8006108:	4650      	mov	r0, sl
 800610a:	f7ff ff7b 	bl	8006004 <EEPROM_Wait_ready>
		if(errorcode != HAL_OK) return errorcode;
 800610e:	4604      	mov	r4, r0
 8006110:	2800      	cmp	r0, #0
 8006112:	d161      	bne.n	80061d8 <EEPROM_Write+0xf4>
		request[0] = EEPROM_WREN;
 8006114:	2306      	movs	r3, #6
		HAL_GPIO_WritePin(EEPROM_CS_GPIO_Port, EEPROM_CS_Pin, GPIO_PIN_RESET);
 8006116:	4602      	mov	r2, r0
 8006118:	f44f 5180 	mov.w	r1, #4096	; 0x1000
 800611c:	4640      	mov	r0, r8
		request[0] = EEPROM_WREN;
 800611e:	f88d 3004 	strb.w	r3, [sp, #4]
		HAL_GPIO_WritePin(EEPROM_CS_GPIO_Port, EEPROM_CS_Pin, GPIO_PIN_RESET);
 8006122:	f7fb f9f7 	bl	8001514 <HAL_GPIO_WritePin>
		errorcode = HAL_SPI_Transmit(hspi, request, 1, 100);
 8006126:	2201      	movs	r2, #1
 8006128:	a901      	add	r1, sp, #4
 800612a:	2364      	movs	r3, #100	; 0x64
 800612c:	4638      	mov	r0, r7
 800612e:	f7fb fec4 	bl	8001eba <HAL_SPI_Transmit>
 8006132:	4683      	mov	fp, r0
 8006134:	4604      	mov	r4, r0
		HAL_GPIO_WritePin(EEPROM_CS_GPIO_Port, EEPROM_CS_Pin, GPIO_PIN_SET);
 8006136:	2201      	movs	r2, #1
 8006138:	f44f 5180 	mov.w	r1, #4096	; 0x1000
 800613c:	4640      	mov	r0, r8
 800613e:	f7fb f9e9 	bl	8001514 <HAL_GPIO_WritePin>
		if(errorcode != HAL_OK) return errorcode;
 8006142:	f1bb 0f00 	cmp.w	fp, #0
 8006146:	d147      	bne.n	80061d8 <EEPROM_Write+0xf4>

		address_in_page = 0;

		request[0] = EEPROM_WRITE;
 8006148:	2302      	movs	r3, #2
		address_in_page = 0;
 800614a:	f88d b001 	strb.w	fp, [sp, #1]
		request[1] = (address + sended_bytes) >> 8;
 800614e:	f8bd 4002 	ldrh.w	r4, [sp, #2]
		request[0] = EEPROM_WRITE;
 8006152:	f88d 3004 	strb.w	r3, [sp, #4]
		request[1] = (address + sended_bytes) >> 8;
 8006156:	b2a4      	uxth	r4, r4
		request[2] = (address + sended_bytes) & 0xFF;
 8006158:	f8bd 3002 	ldrh.w	r3, [sp, #2]
		request[1] = (address + sended_bytes) >> 8;
 800615c:	442c      	add	r4, r5
 800615e:	1224      	asrs	r4, r4, #8
		request[2] = (address + sended_bytes) & 0xFF;
 8006160:	442b      	add	r3, r5
		request[1] = (address + sended_bytes) >> 8;
 8006162:	f88d 4005 	strb.w	r4, [sp, #5]
		request[2] = (address + sended_bytes) & 0xFF;
 8006166:	f88d 3006 	strb.w	r3, [sp, #6]

		while((address_in_page < 32) && (sended_bytes < Size))
 800616a:	f89d 3001 	ldrb.w	r3, [sp, #1]
 800616e:	2b1f      	cmp	r3, #31
 8006170:	d81c      	bhi.n	80061ac <EEPROM_Write+0xc8>
 8006172:	f8bd 3002 	ldrh.w	r3, [sp, #2]
 8006176:	b29b      	uxth	r3, r3
 8006178:	42b3      	cmp	r3, r6
 800617a:	d217      	bcs.n	80061ac <EEPROM_Write+0xc8>
		{
			request[3 + address_in_page++] = pData[sended_bytes++];
 800617c:	f8bd 2002 	ldrh.w	r2, [sp, #2]
 8006180:	b292      	uxth	r2, r2
 8006182:	1c53      	adds	r3, r2, #1
 8006184:	b29b      	uxth	r3, r3
 8006186:	f8ad 3002 	strh.w	r3, [sp, #2]
 800618a:	f89d 3001 	ldrb.w	r3, [sp, #1]
 800618e:	f819 2002 	ldrb.w	r2, [r9, r2]
 8006192:	1c59      	adds	r1, r3, #1
 8006194:	b2c9      	uxtb	r1, r1
 8006196:	f88d 1001 	strb.w	r1, [sp, #1]
 800619a:	a90a      	add	r1, sp, #40	; 0x28
 800619c:	440b      	add	r3, r1
 800619e:	f803 2c21 	strb.w	r2, [r3, #-33]
			if((address + sended_bytes) % 32 == 0) break;
 80061a2:	f8bd 3002 	ldrh.w	r3, [sp, #2]
 80061a6:	442b      	add	r3, r5
 80061a8:	06db      	lsls	r3, r3, #27
 80061aa:	d1de      	bne.n	800616a <EEPROM_Write+0x86>
		}
		HAL_GPIO_WritePin(EEPROM_CS_GPIO_Port, EEPROM_CS_Pin, GPIO_PIN_RESET);
 80061ac:	2200      	movs	r2, #0
 80061ae:	f44f 5180 	mov.w	r1, #4096	; 0x1000
 80061b2:	4640      	mov	r0, r8
 80061b4:	f7fb f9ae 	bl	8001514 <HAL_GPIO_WritePin>
		errorcode = HAL_SPI_Transmit(hspi, request, 3 + address_in_page, 100);
 80061b8:	f89d 2001 	ldrb.w	r2, [sp, #1]
 80061bc:	a901      	add	r1, sp, #4
 80061be:	3203      	adds	r2, #3
 80061c0:	2364      	movs	r3, #100	; 0x64
 80061c2:	4638      	mov	r0, r7
 80061c4:	f7fb fe79 	bl	8001eba <HAL_SPI_Transmit>
 80061c8:	4604      	mov	r4, r0
		HAL_GPIO_WritePin(EEPROM_CS_GPIO_Port, EEPROM_CS_Pin, GPIO_PIN_SET);
 80061ca:	2201      	movs	r2, #1
 80061cc:	f44f 5180 	mov.w	r1, #4096	; 0x1000
 80061d0:	4640      	mov	r0, r8
 80061d2:	f7fb f99f 	bl	8001514 <HAL_GPIO_WritePin>
		if(errorcode != HAL_OK) return errorcode;
 80061d6:	b11c      	cbz	r4, 80061e0 <EEPROM_Write+0xfc>
	}
	while(sended_bytes < Size);

	return errorcode;
}
 80061d8:	4620      	mov	r0, r4
 80061da:	b00b      	add	sp, #44	; 0x2c
 80061dc:	e8bd 8ff0 	ldmia.w	sp!, {r4, r5, r6, r7, r8, r9, sl, fp, pc}
	while(sended_bytes < Size);
 80061e0:	f8bd 3002 	ldrh.w	r3, [sp, #2]
 80061e4:	b29b      	uxth	r3, r3
 80061e6:	42b3      	cmp	r3, r6
 80061e8:	d38c      	bcc.n	8006104 <EEPROM_Write+0x20>
 80061ea:	e7f5      	b.n	80061d8 <EEPROM_Write+0xf4>
 80061ec:	20002dbc 	.word	0x20002dbc
 80061f0:	40010c00 	.word	0x40010c00

080061f4 <MX_FATFS_Init>:
/* USER CODE BEGIN Variables */

/* USER CODE END Variables */

void MX_FATFS_Init(void)
{
 80061f4:	b508      	push	{r3, lr}
  /*## FatFS: Link the USER driver ###########################*/
  retUSER = FATFS_LinkDriver(&USER_Driver, USERPath);
 80061f6:	4903      	ldr	r1, [pc, #12]	; (8006204 <MX_FATFS_Init+0x10>)
 80061f8:	4803      	ldr	r0, [pc, #12]	; (8006208 <MX_FATFS_Init+0x14>)
 80061fa:	f7fd fd97 	bl	8003d2c <FATFS_LinkDriver>
 80061fe:	4b03      	ldr	r3, [pc, #12]	; (800620c <MX_FATFS_Init+0x18>)
 8006200:	7018      	strb	r0, [r3, #0]

  /* USER CODE BEGIN Init */
  /* additional user code for init */
  /* USER CODE END Init */
}
 8006202:	bd08      	pop	{r3, pc}
 8006204:	20001a84 	.word	0x20001a84
 8006208:	20000030 	.word	0x20000030
 800620c:	20001a88 	.word	0x20001a88

08006210 <get_fattime>:
DWORD get_fattime(void)
{
  /* USER CODE BEGIN get_fattime */
  return 0;
  /* USER CODE END get_fattime */
}
 8006210:	2000      	movs	r0, #0
 8006212:	4770      	bx	lr

08006214 <SPI_TxBuffer>:
}

/* SPI transmit buffer */
static void SPI_TxBuffer(uint8_t *buffer, uint16_t len)
{
	while(!__HAL_SPI_GET_FLAG(HSPI_SDCARD, SPI_FLAG_TXE));
 8006214:	4b05      	ldr	r3, [pc, #20]	; (800622c <SPI_TxBuffer+0x18>)
{
 8006216:	460a      	mov	r2, r1
	while(!__HAL_SPI_GET_FLAG(HSPI_SDCARD, SPI_FLAG_TXE));
 8006218:	6819      	ldr	r1, [r3, #0]
 800621a:	688b      	ldr	r3, [r1, #8]
 800621c:	079b      	lsls	r3, r3, #30
 800621e:	d5fc      	bpl.n	800621a <SPI_TxBuffer+0x6>
	HAL_SPI_Transmit(HSPI_SDCARD, buffer, len, SPI_TIMEOUT);
 8006220:	4601      	mov	r1, r0
 8006222:	2364      	movs	r3, #100	; 0x64
 8006224:	4801      	ldr	r0, [pc, #4]	; (800622c <SPI_TxBuffer+0x18>)
 8006226:	f7fb be48 	b.w	8001eba <HAL_SPI_Transmit>
 800622a:	bf00      	nop
 800622c:	20002e14 	.word	0x20002e14

08006230 <SPI_TxByte>:
{
 8006230:	b507      	push	{r0, r1, r2, lr}
	while(!__HAL_SPI_GET_FLAG(HSPI_SDCARD, SPI_FLAG_TXE));
 8006232:	4b08      	ldr	r3, [pc, #32]	; (8006254 <SPI_TxByte+0x24>)
{
 8006234:	f88d 0007 	strb.w	r0, [sp, #7]
	while(!__HAL_SPI_GET_FLAG(HSPI_SDCARD, SPI_FLAG_TXE));
 8006238:	681a      	ldr	r2, [r3, #0]
 800623a:	6893      	ldr	r3, [r2, #8]
 800623c:	079b      	lsls	r3, r3, #30
 800623e:	d5fc      	bpl.n	800623a <SPI_TxByte+0xa>
	HAL_SPI_Transmit(HSPI_SDCARD, &data, 1, SPI_TIMEOUT);
 8006240:	2364      	movs	r3, #100	; 0x64
 8006242:	2201      	movs	r2, #1
 8006244:	f10d 0107 	add.w	r1, sp, #7
 8006248:	4802      	ldr	r0, [pc, #8]	; (8006254 <SPI_TxByte+0x24>)
 800624a:	f7fb fe36 	bl	8001eba <HAL_SPI_Transmit>
}
 800624e:	b003      	add	sp, #12
 8006250:	f85d fb04 	ldr.w	pc, [sp], #4
 8006254:	20002e14 	.word	0x20002e14

08006258 <SELECT>:
	HAL_GPIO_WritePin(SD_CS_PORT, SD_CS_PIN, GPIO_PIN_RESET);
 8006258:	2200      	movs	r2, #0
 800625a:	2110      	movs	r1, #16
{
 800625c:	b508      	push	{r3, lr}
	HAL_GPIO_WritePin(SD_CS_PORT, SD_CS_PIN, GPIO_PIN_RESET);
 800625e:	4804      	ldr	r0, [pc, #16]	; (8006270 <SELECT+0x18>)
 8006260:	f7fb f958 	bl	8001514 <HAL_GPIO_WritePin>
	__asm volatile ("NOP");
 8006264:	bf00      	nop
	__asm volatile ("NOP");
 8006266:	bf00      	nop
	__asm volatile ("NOP");
 8006268:	bf00      	nop
	__asm volatile ("NOP");
 800626a:	bf00      	nop
}
 800626c:	bd08      	pop	{r3, pc}
 800626e:	bf00      	nop
 8006270:	40010800 	.word	0x40010800

08006274 <DESELECT>:
	HAL_GPIO_WritePin(SD_CS_PORT, SD_CS_PIN, GPIO_PIN_SET);
 8006274:	2201      	movs	r2, #1
 8006276:	2110      	movs	r1, #16
 8006278:	4801      	ldr	r0, [pc, #4]	; (8006280 <DESELECT+0xc>)
 800627a:	f7fb b94b 	b.w	8001514 <HAL_GPIO_WritePin>
 800627e:	bf00      	nop
 8006280:	40010800 	.word	0x40010800

08006284 <SPI_RxByte>:
}

/* SPI receive a byte */
static uint8_t SPI_RxByte(void)
{
 8006284:	b51f      	push	{r0, r1, r2, r3, r4, lr}
	uint8_t dummy, data;
	dummy = 0xFF;
 8006286:	23ff      	movs	r3, #255	; 0xff
 8006288:	f88d 300e 	strb.w	r3, [sp, #14]

	while(!__HAL_SPI_GET_FLAG(HSPI_SDCARD, SPI_FLAG_TXE));
 800628c:	4b09      	ldr	r3, [pc, #36]	; (80062b4 <SPI_RxByte+0x30>)
 800628e:	681a      	ldr	r2, [r3, #0]
 8006290:	6893      	ldr	r3, [r2, #8]
 8006292:	079b      	lsls	r3, r3, #30
 8006294:	d5fc      	bpl.n	8006290 <SPI_RxByte+0xc>
	HAL_SPI_TransmitReceive(HSPI_SDCARD, &dummy, &data, 1, SPI_TIMEOUT);
 8006296:	2364      	movs	r3, #100	; 0x64
 8006298:	f10d 020f 	add.w	r2, sp, #15
 800629c:	9300      	str	r3, [sp, #0]
 800629e:	f10d 010e 	add.w	r1, sp, #14
 80062a2:	2301      	movs	r3, #1
 80062a4:	4803      	ldr	r0, [pc, #12]	; (80062b4 <SPI_RxByte+0x30>)
 80062a6:	f7fb fead 	bl	8002004 <HAL_SPI_TransmitReceive>

	return data;
}
 80062aa:	f89d 000f 	ldrb.w	r0, [sp, #15]
 80062ae:	b005      	add	sp, #20
 80062b0:	f85d fb04 	ldr.w	pc, [sp], #4
 80062b4:	20002e14 	.word	0x20002e14

080062b8 <SD_PowerOn>:
	return res;
}

/* power on */
static void SD_PowerOn(void) 
{
 80062b8:	b513      	push	{r0, r1, r4, lr}
	uint8_t args[6];
	uint32_t cnt = 0x1FFF;

	/* transmit bytes to wake up */
	DESELECT();
 80062ba:	f7ff ffdb 	bl	8006274 <DESELECT>
 80062be:	240a      	movs	r4, #10
	for(int i = 0; i < 10; i++)
	{
		SPI_TxByte(0xFF);
 80062c0:	20ff      	movs	r0, #255	; 0xff
 80062c2:	f7ff ffb5 	bl	8006230 <SPI_TxByte>
	for(int i = 0; i < 10; i++)
 80062c6:	3c01      	subs	r4, #1
 80062c8:	d1fa      	bne.n	80062c0 <SD_PowerOn+0x8>
	}

	/* slave select */
	SELECT();
 80062ca:	f7ff ffc5 	bl	8006258 <SELECT>

	/* make idle state */
	args[0] = CMD0;		/* CMD0:GO_IDLE_STATE */
 80062ce:	2340      	movs	r3, #64	; 0x40
 80062d0:	9300      	str	r3, [sp, #0]
	args[1] = 0;
	args[2] = 0;
	args[3] = 0;
	args[4] = 0;
 80062d2:	f44f 4315 	mov.w	r3, #38144	; 0x9500
	args[5] = 0x95;		/* CRC */

	SPI_TxBuffer(args, sizeof(args));
 80062d6:	2106      	movs	r1, #6
 80062d8:	4668      	mov	r0, sp
	args[4] = 0;
 80062da:	f8ad 3004 	strh.w	r3, [sp, #4]

	/* wait response */
	while ((SPI_RxByte() != 0x01) && cnt)
 80062de:	f44f 5400 	mov.w	r4, #8192	; 0x2000
	SPI_TxBuffer(args, sizeof(args));
 80062e2:	f7ff ff97 	bl	8006214 <SPI_TxBuffer>
	while ((SPI_RxByte() != 0x01) && cnt)
 80062e6:	f7ff ffcd 	bl	8006284 <SPI_RxByte>
 80062ea:	2801      	cmp	r0, #1
 80062ec:	d001      	beq.n	80062f2 <SD_PowerOn+0x3a>
 80062ee:	3c01      	subs	r4, #1
 80062f0:	d1f9      	bne.n	80062e6 <SD_PowerOn+0x2e>
	{
		cnt--;
	}

	DESELECT();
 80062f2:	f7ff ffbf 	bl	8006274 <DESELECT>
	SPI_TxByte(0XFF);
 80062f6:	20ff      	movs	r0, #255	; 0xff
 80062f8:	f7ff ff9a 	bl	8006230 <SPI_TxByte>

	PowerFlag = 1;
 80062fc:	2201      	movs	r2, #1
 80062fe:	4b02      	ldr	r3, [pc, #8]	; (8006308 <SD_PowerOn+0x50>)
 8006300:	701a      	strb	r2, [r3, #0]
}
 8006302:	b002      	add	sp, #8
 8006304:	bd10      	pop	{r4, pc}
 8006306:	bf00      	nop
 8006308:	20000111 	.word	0x20000111

0800630c <SD_ReadyWait>:
	Timer2 = 500;
 800630c:	f44f 72fa 	mov.w	r2, #500	; 0x1f4
{
 8006310:	b510      	push	{r4, lr}
	Timer2 = 500;
 8006312:	4c05      	ldr	r4, [pc, #20]	; (8006328 <SD_ReadyWait+0x1c>)
 8006314:	8022      	strh	r2, [r4, #0]
		res = SPI_RxByte();
 8006316:	f7ff ffb5 	bl	8006284 <SPI_RxByte>
	} while ((res != 0xFF) && Timer2);
 800631a:	28ff      	cmp	r0, #255	; 0xff
 800631c:	d003      	beq.n	8006326 <SD_ReadyWait+0x1a>
 800631e:	8823      	ldrh	r3, [r4, #0]
 8006320:	b29b      	uxth	r3, r3
 8006322:	2b00      	cmp	r3, #0
 8006324:	d1f7      	bne.n	8006316 <SD_ReadyWait+0xa>
}
 8006326:	bd10      	pop	{r4, pc}
 8006328:	20002e6c 	.word	0x20002e6c

0800632c <SD_SendCmd>:
}
#endif /* _USE_WRITE */

/* transmit command */
static BYTE SD_SendCmd(BYTE cmd, uint32_t arg)
{
 800632c:	b538      	push	{r3, r4, r5, lr}
 800632e:	4604      	mov	r4, r0
 8006330:	460d      	mov	r5, r1
	uint8_t crc, res;

	/* wait SD ready */
	if (SD_ReadyWait() != 0xFF) return 0xFF;
 8006332:	f7ff ffeb 	bl	800630c <SD_ReadyWait>
 8006336:	28ff      	cmp	r0, #255	; 0xff
 8006338:	d128      	bne.n	800638c <SD_SendCmd+0x60>

	/* transmit command */
	SPI_TxByte(cmd); 					/* Command */
 800633a:	4620      	mov	r0, r4
 800633c:	f7ff ff78 	bl	8006230 <SPI_TxByte>
	SPI_TxByte((uint8_t)(arg >> 24)); 	/* Argument[31..24] */
 8006340:	0e28      	lsrs	r0, r5, #24
 8006342:	f7ff ff75 	bl	8006230 <SPI_TxByte>
	SPI_TxByte((uint8_t)(arg >> 16)); 	/* Argument[23..16] */
 8006346:	f3c5 4007 	ubfx	r0, r5, #16, #8
 800634a:	f7ff ff71 	bl	8006230 <SPI_TxByte>
	SPI_TxByte((uint8_t)(arg >> 8)); 	/* Argument[15..8] */
 800634e:	f3c5 2007 	ubfx	r0, r5, #8, #8
 8006352:	f7ff ff6d 	bl	8006230 <SPI_TxByte>
	SPI_TxByte((uint8_t)arg); 			/* Argument[7..0] */
 8006356:	b2e8      	uxtb	r0, r5
 8006358:	f7ff ff6a 	bl	8006230 <SPI_TxByte>

	/* prepare CRC */
	if(cmd == CMD0) crc = 0x95;	/* CRC for CMD0(0) */
 800635c:	2c40      	cmp	r4, #64	; 0x40
 800635e:	d013      	beq.n	8006388 <SD_SendCmd+0x5c>
	else if(cmd == CMD8) crc = 0x87;	/* CRC for CMD8(0x1AA) */
	else crc = 1;
 8006360:	2c48      	cmp	r4, #72	; 0x48
 8006362:	bf0c      	ite	eq
 8006364:	2087      	moveq	r0, #135	; 0x87
 8006366:	2001      	movne	r0, #1

	/* transmit CRC */
	SPI_TxByte(crc);
 8006368:	f7ff ff62 	bl	8006230 <SPI_TxByte>

	/* Skip a stuff byte when STOP_TRANSMISSION */
	if (cmd == CMD12) SPI_RxByte();
 800636c:	2c4c      	cmp	r4, #76	; 0x4c
 800636e:	d101      	bne.n	8006374 <SD_SendCmd+0x48>
 8006370:	f7ff ff88 	bl	8006284 <SPI_RxByte>
	else crc = 1;
 8006374:	240a      	movs	r4, #10

	/* receive response */
	uint8_t n = 10;
	do {
		res = SPI_RxByte();
 8006376:	f7ff ff85 	bl	8006284 <SPI_RxByte>
	} while ((res & 0x80) && --n);
 800637a:	0603      	lsls	r3, r0, #24
 800637c:	d503      	bpl.n	8006386 <SD_SendCmd+0x5a>
 800637e:	3c01      	subs	r4, #1
 8006380:	f014 04ff 	ands.w	r4, r4, #255	; 0xff
 8006384:	d1f7      	bne.n	8006376 <SD_SendCmd+0x4a>

	return res;
}
 8006386:	bd38      	pop	{r3, r4, r5, pc}
	if(cmd == CMD0) crc = 0x95;	/* CRC for CMD0(0) */
 8006388:	2095      	movs	r0, #149	; 0x95
 800638a:	e7ed      	b.n	8006368 <SD_SendCmd+0x3c>
	if (SD_ReadyWait() != 0xFF) return 0xFF;
 800638c:	20ff      	movs	r0, #255	; 0xff
 800638e:	e7fa      	b.n	8006386 <SD_SendCmd+0x5a>

08006390 <SD_RxDataBlock>:
	Timer1 = 200;
 8006390:	22c8      	movs	r2, #200	; 0xc8
{
 8006392:	b570      	push	{r4, r5, r6, lr}
 8006394:	4604      	mov	r4, r0
 8006396:	460d      	mov	r5, r1
	Timer1 = 200;
 8006398:	4e0e      	ldr	r6, [pc, #56]	; (80063d4 <SD_RxDataBlock+0x44>)
 800639a:	8032      	strh	r2, [r6, #0]
		token = SPI_RxByte();
 800639c:	f7ff ff72 	bl	8006284 <SPI_RxByte>
	} while((token == 0xFF) && Timer1);
 80063a0:	28ff      	cmp	r0, #255	; 0xff
 80063a2:	d104      	bne.n	80063ae <SD_RxDataBlock+0x1e>
 80063a4:	8830      	ldrh	r0, [r6, #0]
 80063a6:	b280      	uxth	r0, r0
 80063a8:	2800      	cmp	r0, #0
 80063aa:	d1f7      	bne.n	800639c <SD_RxDataBlock+0xc>
}
 80063ac:	bd70      	pop	{r4, r5, r6, pc}
	if(token != 0xFE) return FALSE;
 80063ae:	28fe      	cmp	r0, #254	; 0xfe
 80063b0:	d10d      	bne.n	80063ce <SD_RxDataBlock+0x3e>
 80063b2:	4425      	add	r5, r4
	while(len--)
 80063b4:	42ac      	cmp	r4, r5
 80063b6:	d105      	bne.n	80063c4 <SD_RxDataBlock+0x34>
	SPI_RxByte();
 80063b8:	f7ff ff64 	bl	8006284 <SPI_RxByte>
	SPI_RxByte();
 80063bc:	f7ff ff62 	bl	8006284 <SPI_RxByte>
 80063c0:	2001      	movs	r0, #1
 80063c2:	e7f3      	b.n	80063ac <SD_RxDataBlock+0x1c>
	*buff = SPI_RxByte();
 80063c4:	f7ff ff5e 	bl	8006284 <SPI_RxByte>
 80063c8:	f804 0b01 	strb.w	r0, [r4], #1
}
 80063cc:	e7f2      	b.n	80063b4 <SD_RxDataBlock+0x24>
	if(token != 0xFE) return FALSE;
 80063ce:	2000      	movs	r0, #0
 80063d0:	e7ec      	b.n	80063ac <SD_RxDataBlock+0x1c>
 80063d2:	bf00      	nop
 80063d4:	20002e6d 	.word	0x20002e6d

080063d8 <SD_TxDataBlock>:
{
 80063d8:	b538      	push	{r3, r4, r5, lr}
 80063da:	4605      	mov	r5, r0
 80063dc:	460c      	mov	r4, r1
	if (SD_ReadyWait() != 0xFF) return FALSE;
 80063de:	f7ff ff95 	bl	800630c <SD_ReadyWait>
 80063e2:	28ff      	cmp	r0, #255	; 0xff
 80063e4:	d001      	beq.n	80063ea <SD_TxDataBlock+0x12>
 80063e6:	2000      	movs	r0, #0
}
 80063e8:	bd38      	pop	{r3, r4, r5, pc}
	SPI_TxByte(token);
 80063ea:	4620      	mov	r0, r4
 80063ec:	f7ff ff20 	bl	8006230 <SPI_TxByte>
	if (token != 0xFD)
 80063f0:	2cfd      	cmp	r4, #253	; 0xfd
 80063f2:	d0f8      	beq.n	80063e6 <SD_TxDataBlock+0xe>
		SPI_TxBuffer((uint8_t*)buff, 512);
 80063f4:	f44f 7100 	mov.w	r1, #512	; 0x200
 80063f8:	4628      	mov	r0, r5
 80063fa:	f7ff ff0b 	bl	8006214 <SPI_TxBuffer>
		SPI_RxByte();
 80063fe:	2541      	movs	r5, #65	; 0x41
		SPI_RxByte();
 8006400:	f7ff ff40 	bl	8006284 <SPI_RxByte>
		SPI_RxByte();
 8006404:	f7ff ff3e 	bl	8006284 <SPI_RxByte>
			resp = SPI_RxByte();
 8006408:	f7ff ff3c 	bl	8006284 <SPI_RxByte>
			if ((resp & 0x1F) == 0x05) break;
 800640c:	f000 041f 	and.w	r4, r0, #31
 8006410:	2c05      	cmp	r4, #5
 8006412:	d003      	beq.n	800641c <SD_TxDataBlock+0x44>
		while (i <= 64)
 8006414:	3d01      	subs	r5, #1
 8006416:	f015 05ff 	ands.w	r5, r5, #255	; 0xff
 800641a:	d1f5      	bne.n	8006408 <SD_TxDataBlock+0x30>
		while (SPI_RxByte() == 0);
 800641c:	f7ff ff32 	bl	8006284 <SPI_RxByte>
 8006420:	2800      	cmp	r0, #0
 8006422:	d0fb      	beq.n	800641c <SD_TxDataBlock+0x44>
	if (SD_ReadyWait() != 0xFF) return FALSE;
 8006424:	1f63      	subs	r3, r4, #5
 8006426:	4258      	negs	r0, r3
 8006428:	4158      	adcs	r0, r3
 800642a:	e7dd      	b.n	80063e8 <SD_TxDataBlock+0x10>

0800642c <SD_disk_initialize>:
 * user_diskio.c functions
 **************************************/

/* initialize SD */
DSTATUS SD_disk_initialize(BYTE drv) 
{
 800642c:	e92d 41f3 	stmdb	sp!, {r0, r1, r4, r5, r6, r7, r8, lr}
	uint8_t n, type, ocr[4];

	/* single drive, drv should be 0 */
	if(drv) return STA_NOINIT;
 8006430:	2800      	cmp	r0, #0
 8006432:	f040 80a0 	bne.w	8006576 <SD_disk_initialize+0x14a>

	/* no disk */
	if(Stat & STA_NODISK) return Stat;
 8006436:	4b51      	ldr	r3, [pc, #324]	; (800657c <SD_disk_initialize+0x150>)
 8006438:	781e      	ldrb	r6, [r3, #0]
 800643a:	461f      	mov	r7, r3
 800643c:	f016 0602 	ands.w	r6, r6, #2
 8006440:	d004      	beq.n	800644c <SD_disk_initialize+0x20>
 8006442:	7818      	ldrb	r0, [r3, #0]
	{
		/* Initialization failed */
		SD_PowerOff();
	}

	return Stat;
 8006444:	b2c0      	uxtb	r0, r0
}
 8006446:	b002      	add	sp, #8
 8006448:	e8bd 81f0 	ldmia.w	sp!, {r4, r5, r6, r7, r8, pc}
	SD_PowerOn();
 800644c:	f7ff ff34 	bl	80062b8 <SD_PowerOn>
	SELECT();
 8006450:	f7ff ff02 	bl	8006258 <SELECT>
	if (SD_SendCmd(CMD0, 0) == 1)
 8006454:	4631      	mov	r1, r6
 8006456:	2040      	movs	r0, #64	; 0x40
 8006458:	f7ff ff68 	bl	800632c <SD_SendCmd>
 800645c:	2801      	cmp	r0, #1
 800645e:	4604      	mov	r4, r0
 8006460:	d17b      	bne.n	800655a <SD_disk_initialize+0x12e>
		Timer1 = 1000;
 8006462:	f44f 737a 	mov.w	r3, #1000	; 0x3e8
 8006466:	4d46      	ldr	r5, [pc, #280]	; (8006580 <SD_disk_initialize+0x154>)
		if (SD_SendCmd(CMD8, 0x1AA) == 1)
 8006468:	f44f 71d5 	mov.w	r1, #426	; 0x1aa
 800646c:	2048      	movs	r0, #72	; 0x48
		Timer1 = 1000;
 800646e:	802b      	strh	r3, [r5, #0]
		if (SD_SendCmd(CMD8, 0x1AA) == 1)
 8006470:	f7ff ff5c 	bl	800632c <SD_SendCmd>
 8006474:	2801      	cmp	r0, #1
 8006476:	d14c      	bne.n	8006512 <SD_disk_initialize+0xe6>
 8006478:	ae01      	add	r6, sp, #4
 800647a:	46b0      	mov	r8, r6
 800647c:	2404      	movs	r4, #4
				ocr[n] = SPI_RxByte();
 800647e:	f7ff ff01 	bl	8006284 <SPI_RxByte>
 8006482:	3c01      	subs	r4, #1
			for (n = 0; n < 4; n++)
 8006484:	f014 04ff 	ands.w	r4, r4, #255	; 0xff
				ocr[n] = SPI_RxByte();
 8006488:	f808 0b01 	strb.w	r0, [r8], #1
			for (n = 0; n < 4; n++)
 800648c:	d1f7      	bne.n	800647e <SD_disk_initialize+0x52>
			if (ocr[2] == 0x01 && ocr[3] == 0xAA)
 800648e:	f89d 3006 	ldrb.w	r3, [sp, #6]
 8006492:	2b01      	cmp	r3, #1
 8006494:	d161      	bne.n	800655a <SD_disk_initialize+0x12e>
 8006496:	f89d 3007 	ldrb.w	r3, [sp, #7]
 800649a:	2baa      	cmp	r3, #170	; 0xaa
 800649c:	d15d      	bne.n	800655a <SD_disk_initialize+0x12e>
					if (SD_SendCmd(CMD55, 0) <= 1 && SD_SendCmd(CMD41, 1UL << 30) == 0) break;
 800649e:	2100      	movs	r1, #0
 80064a0:	2077      	movs	r0, #119	; 0x77
 80064a2:	f7ff ff43 	bl	800632c <SD_SendCmd>
 80064a6:	2801      	cmp	r0, #1
 80064a8:	d92b      	bls.n	8006502 <SD_disk_initialize+0xd6>
				} while (Timer1);
 80064aa:	882b      	ldrh	r3, [r5, #0]
 80064ac:	b29b      	uxth	r3, r3
 80064ae:	2b00      	cmp	r3, #0
 80064b0:	d1f5      	bne.n	800649e <SD_disk_initialize+0x72>
				if (Timer1 && SD_SendCmd(CMD58, 0) == 0)
 80064b2:	882b      	ldrh	r3, [r5, #0]
 80064b4:	b29b      	uxth	r3, r3
 80064b6:	2b00      	cmp	r3, #0
 80064b8:	d04f      	beq.n	800655a <SD_disk_initialize+0x12e>
 80064ba:	2100      	movs	r1, #0
 80064bc:	207a      	movs	r0, #122	; 0x7a
 80064be:	f7ff ff35 	bl	800632c <SD_SendCmd>
 80064c2:	2800      	cmp	r0, #0
 80064c4:	d149      	bne.n	800655a <SD_disk_initialize+0x12e>
 80064c6:	2404      	movs	r4, #4
						ocr[n] = SPI_RxByte();
 80064c8:	f7ff fedc 	bl	8006284 <SPI_RxByte>
 80064cc:	3c01      	subs	r4, #1
					for (n = 0; n < 4; n++)
 80064ce:	f014 04ff 	ands.w	r4, r4, #255	; 0xff
						ocr[n] = SPI_RxByte();
 80064d2:	f806 0b01 	strb.w	r0, [r6], #1
					for (n = 0; n < 4; n++)
 80064d6:	d1f7      	bne.n	80064c8 <SD_disk_initialize+0x9c>
					type = (ocr[0] & 0x40) ? CT_SD2 | CT_BLOCK : CT_SD2;
 80064d8:	f89d 3004 	ldrb.w	r3, [sp, #4]
 80064dc:	f013 0f40 	tst.w	r3, #64	; 0x40
 80064e0:	bf14      	ite	ne
 80064e2:	240c      	movne	r4, #12
 80064e4:	2404      	moveq	r4, #4
	CardType = type;
 80064e6:	4b27      	ldr	r3, [pc, #156]	; (8006584 <SD_disk_initialize+0x158>)
 80064e8:	701c      	strb	r4, [r3, #0]
	DESELECT();
 80064ea:	f7ff fec3 	bl	8006274 <DESELECT>
	SPI_RxByte();
 80064ee:	f7ff fec9 	bl	8006284 <SPI_RxByte>
	if (type)
 80064f2:	2c00      	cmp	r4, #0
 80064f4:	d03c      	beq.n	8006570 <SD_disk_initialize+0x144>
		Stat &= ~STA_NOINIT;
 80064f6:	783b      	ldrb	r3, [r7, #0]
 80064f8:	f003 03fe 	and.w	r3, r3, #254	; 0xfe
 80064fc:	703b      	strb	r3, [r7, #0]
	return Stat;
 80064fe:	7838      	ldrb	r0, [r7, #0]
 8006500:	e7a0      	b.n	8006444 <SD_disk_initialize+0x18>
					if (SD_SendCmd(CMD55, 0) <= 1 && SD_SendCmd(CMD41, 1UL << 30) == 0) break;
 8006502:	f04f 4180 	mov.w	r1, #1073741824	; 0x40000000
 8006506:	2069      	movs	r0, #105	; 0x69
 8006508:	f7ff ff10 	bl	800632c <SD_SendCmd>
 800650c:	2800      	cmp	r0, #0
 800650e:	d1cc      	bne.n	80064aa <SD_disk_initialize+0x7e>
 8006510:	e7cf      	b.n	80064b2 <SD_disk_initialize+0x86>
			type = (SD_SendCmd(CMD55, 0) <= 1 && SD_SendCmd(CMD41, 0) <= 1) ? CT_SD1 : CT_MMC;
 8006512:	4631      	mov	r1, r6
 8006514:	2077      	movs	r0, #119	; 0x77
 8006516:	f7ff ff09 	bl	800632c <SD_SendCmd>
 800651a:	2801      	cmp	r0, #1
 800651c:	d806      	bhi.n	800652c <SD_disk_initialize+0x100>
 800651e:	4631      	mov	r1, r6
 8006520:	2069      	movs	r0, #105	; 0x69
 8006522:	f7ff ff03 	bl	800632c <SD_SendCmd>
 8006526:	2801      	cmp	r0, #1
 8006528:	bf98      	it	ls
 800652a:	2402      	movls	r4, #2
				if (type == CT_SD1)
 800652c:	2c02      	cmp	r4, #2
					if (SD_SendCmd(CMD55, 0) <= 1 && SD_SendCmd(CMD41, 0) == 0) break; /* ACMD41 */
 800652e:	f04f 0100 	mov.w	r1, #0
				if (type == CT_SD1)
 8006532:	d11b      	bne.n	800656c <SD_disk_initialize+0x140>
					if (SD_SendCmd(CMD55, 0) <= 1 && SD_SendCmd(CMD41, 0) == 0) break; /* ACMD41 */
 8006534:	2077      	movs	r0, #119	; 0x77
 8006536:	f7ff fef9 	bl	800632c <SD_SendCmd>
 800653a:	2801      	cmp	r0, #1
 800653c:	d90f      	bls.n	800655e <SD_disk_initialize+0x132>
			} while (Timer1);
 800653e:	882b      	ldrh	r3, [r5, #0]
 8006540:	b29b      	uxth	r3, r3
 8006542:	2b00      	cmp	r3, #0
 8006544:	d1f2      	bne.n	800652c <SD_disk_initialize+0x100>
			if (!Timer1 || SD_SendCmd(CMD16, 512) != 0) type = 0;
 8006546:	882b      	ldrh	r3, [r5, #0]
 8006548:	b29b      	uxth	r3, r3
 800654a:	b133      	cbz	r3, 800655a <SD_disk_initialize+0x12e>
 800654c:	f44f 7100 	mov.w	r1, #512	; 0x200
 8006550:	2050      	movs	r0, #80	; 0x50
 8006552:	f7ff feeb 	bl	800632c <SD_SendCmd>
 8006556:	2800      	cmp	r0, #0
 8006558:	d0c5      	beq.n	80064e6 <SD_disk_initialize+0xba>
 800655a:	2400      	movs	r4, #0
 800655c:	e7c3      	b.n	80064e6 <SD_disk_initialize+0xba>
					if (SD_SendCmd(CMD55, 0) <= 1 && SD_SendCmd(CMD41, 0) == 0) break; /* ACMD41 */
 800655e:	2100      	movs	r1, #0
 8006560:	2069      	movs	r0, #105	; 0x69
					if (SD_SendCmd(CMD1, 0) == 0) break; /* CMD1 */
 8006562:	f7ff fee3 	bl	800632c <SD_SendCmd>
 8006566:	2800      	cmp	r0, #0
 8006568:	d1e9      	bne.n	800653e <SD_disk_initialize+0x112>
 800656a:	e7ec      	b.n	8006546 <SD_disk_initialize+0x11a>
 800656c:	2041      	movs	r0, #65	; 0x41
 800656e:	e7f8      	b.n	8006562 <SD_disk_initialize+0x136>
	PowerFlag = 0;
 8006570:	4b05      	ldr	r3, [pc, #20]	; (8006588 <SD_disk_initialize+0x15c>)
 8006572:	701c      	strb	r4, [r3, #0]
}
 8006574:	e7c3      	b.n	80064fe <SD_disk_initialize+0xd2>
	if(drv) return STA_NOINIT;
 8006576:	2001      	movs	r0, #1
 8006578:	e765      	b.n	8006446 <SD_disk_initialize+0x1a>
 800657a:	bf00      	nop
 800657c:	20000008 	.word	0x20000008
 8006580:	20002e6d 	.word	0x20002e6d
 8006584:	20000110 	.word	0x20000110
 8006588:	20000111 	.word	0x20000111

0800658c <SD_disk_status>:

/* return disk status */
DSTATUS SD_disk_status(BYTE drv) 
{
	if (drv) return STA_NOINIT;
 800658c:	b918      	cbnz	r0, 8006596 <SD_disk_status+0xa>
	return Stat;
 800658e:	4b03      	ldr	r3, [pc, #12]	; (800659c <SD_disk_status+0x10>)
 8006590:	7818      	ldrb	r0, [r3, #0]
 8006592:	b2c0      	uxtb	r0, r0
 8006594:	4770      	bx	lr
	if (drv) return STA_NOINIT;
 8006596:	2001      	movs	r0, #1
}
 8006598:	4770      	bx	lr
 800659a:	bf00      	nop
 800659c:	20000008 	.word	0x20000008

080065a0 <SD_disk_read>:

/* read sector */
DRESULT SD_disk_read(BYTE pdrv, BYTE* buff, DWORD sector, UINT count) 
{
 80065a0:	b570      	push	{r4, r5, r6, lr}
 80065a2:	460e      	mov	r6, r1
 80065a4:	4615      	mov	r5, r2
 80065a6:	461c      	mov	r4, r3
	/* pdrv should be 0 */
	if (pdrv || !count) return RES_PARERR;
 80065a8:	2800      	cmp	r0, #0
 80065aa:	d137      	bne.n	800661c <SD_disk_read+0x7c>
 80065ac:	2b00      	cmp	r3, #0
 80065ae:	d035      	beq.n	800661c <SD_disk_read+0x7c>

	/* no disk */
	if (Stat & STA_NOINIT) return RES_NOTRDY;
 80065b0:	4b1c      	ldr	r3, [pc, #112]	; (8006624 <SD_disk_read+0x84>)
 80065b2:	781b      	ldrb	r3, [r3, #0]
 80065b4:	07da      	lsls	r2, r3, #31
 80065b6:	d433      	bmi.n	8006620 <SD_disk_read+0x80>

	/* convert to byte address */
	if (!(CardType & CT_SD2)) sector *= 512;
 80065b8:	4b1b      	ldr	r3, [pc, #108]	; (8006628 <SD_disk_read+0x88>)
 80065ba:	781b      	ldrb	r3, [r3, #0]
 80065bc:	075b      	lsls	r3, r3, #29
 80065be:	bf58      	it	pl
 80065c0:	026d      	lslpl	r5, r5, #9

	SELECT();
 80065c2:	f7ff fe49 	bl	8006258 <SELECT>

	if (count == 1)
 80065c6:	2c01      	cmp	r4, #1
	{
		/* READ_SINGLE_BLOCK */
		if ((SD_SendCmd(CMD17, sector) == 0)/* && SD_RxDataBlock(buff, 512)*/) //count = 0;
 80065c8:	4629      	mov	r1, r5
	if (count == 1)
 80065ca:	d113      	bne.n	80065f4 <SD_disk_read+0x54>
		if ((SD_SendCmd(CMD17, sector) == 0)/* && SD_RxDataBlock(buff, 512)*/) //count = 0;
 80065cc:	2051      	movs	r0, #81	; 0x51
 80065ce:	f7ff fead 	bl	800632c <SD_SendCmd>
 80065d2:	b938      	cbnz	r0, 80065e4 <SD_disk_read+0x44>
			if(SD_RxDataBlock(buff, 512))
 80065d4:	f44f 7100 	mov.w	r1, #512	; 0x200
 80065d8:	4630      	mov	r0, r6
 80065da:	f7ff fed9 	bl	8006390 <SD_RxDataBlock>
 80065de:	fab0 f480 	clz	r4, r0
 80065e2:	0964      	lsrs	r4, r4, #5
			SD_SendCmd(CMD12, 0);
		}
	}

	/* Idle */
	DESELECT();
 80065e4:	f7ff fe46 	bl	8006274 <DESELECT>
	SPI_RxByte();
 80065e8:	f7ff fe4c 	bl	8006284 <SPI_RxByte>

	return count ? RES_ERROR : RES_OK;
 80065ec:	1e20      	subs	r0, r4, #0
 80065ee:	bf18      	it	ne
 80065f0:	2001      	movne	r0, #1
}
 80065f2:	bd70      	pop	{r4, r5, r6, pc}
		if (SD_SendCmd(CMD18, sector) == 0)
 80065f4:	2052      	movs	r0, #82	; 0x52
 80065f6:	f7ff fe99 	bl	800632c <SD_SendCmd>
 80065fa:	2800      	cmp	r0, #0
 80065fc:	d1f2      	bne.n	80065e4 <SD_disk_read+0x44>
				if (!SD_RxDataBlock(buff, 512)) break;
 80065fe:	f44f 7100 	mov.w	r1, #512	; 0x200
 8006602:	4630      	mov	r0, r6
 8006604:	f7ff fec4 	bl	8006390 <SD_RxDataBlock>
 8006608:	b118      	cbz	r0, 8006612 <SD_disk_read+0x72>
			} while (--count);
 800660a:	3c01      	subs	r4, #1
				buff += 512;
 800660c:	f506 7600 	add.w	r6, r6, #512	; 0x200
			} while (--count);
 8006610:	d1f5      	bne.n	80065fe <SD_disk_read+0x5e>
			SD_SendCmd(CMD12, 0);
 8006612:	2100      	movs	r1, #0
 8006614:	204c      	movs	r0, #76	; 0x4c
 8006616:	f7ff fe89 	bl	800632c <SD_SendCmd>
 800661a:	e7e3      	b.n	80065e4 <SD_disk_read+0x44>
	if (pdrv || !count) return RES_PARERR;
 800661c:	2004      	movs	r0, #4
 800661e:	e7e8      	b.n	80065f2 <SD_disk_read+0x52>
	if (Stat & STA_NOINIT) return RES_NOTRDY;
 8006620:	2003      	movs	r0, #3
 8006622:	e7e6      	b.n	80065f2 <SD_disk_read+0x52>
 8006624:	20000008 	.word	0x20000008
 8006628:	20000110 	.word	0x20000110

0800662c <SD_disk_write>:

/* write sector */
#if _USE_WRITE == 1
DRESULT SD_disk_write(BYTE pdrv, const BYTE* buff, DWORD sector, UINT count) 
{
 800662c:	b5f8      	push	{r3, r4, r5, r6, r7, lr}
 800662e:	460d      	mov	r5, r1
 8006630:	4616      	mov	r6, r2
 8006632:	461c      	mov	r4, r3
	/* pdrv should be 0 */
	if (pdrv || !count) return RES_PARERR;
 8006634:	2800      	cmp	r0, #0
 8006636:	d147      	bne.n	80066c8 <SD_disk_write+0x9c>
 8006638:	2b00      	cmp	r3, #0
 800663a:	d045      	beq.n	80066c8 <SD_disk_write+0x9c>

	/* no disk */
	if (Stat & STA_NOINIT) return RES_NOTRDY;
 800663c:	4b25      	ldr	r3, [pc, #148]	; (80066d4 <SD_disk_write+0xa8>)
 800663e:	781a      	ldrb	r2, [r3, #0]
 8006640:	07d0      	lsls	r0, r2, #31
 8006642:	d443      	bmi.n	80066cc <SD_disk_write+0xa0>

	/* write protection */
	if (Stat & STA_PROTECT) return RES_WRPRT;
 8006644:	781b      	ldrb	r3, [r3, #0]
 8006646:	0759      	lsls	r1, r3, #29
 8006648:	d442      	bmi.n	80066d0 <SD_disk_write+0xa4>

	/* convert to byte address */
	if (!(CardType & CT_SD2)) sector *= 512;
 800664a:	4f23      	ldr	r7, [pc, #140]	; (80066d8 <SD_disk_write+0xac>)
 800664c:	783a      	ldrb	r2, [r7, #0]
 800664e:	0752      	lsls	r2, r2, #29
 8006650:	bf58      	it	pl
 8006652:	0276      	lslpl	r6, r6, #9

	SELECT();
 8006654:	f7ff fe00 	bl	8006258 <SELECT>

	if (count == 1)
 8006658:	2c01      	cmp	r4, #1
 800665a:	d113      	bne.n	8006684 <SD_disk_write+0x58>
	{
		/* WRITE_BLOCK */
		if ((SD_SendCmd(CMD24, sector) == 0) && SD_TxDataBlock(buff, 0xFE))
 800665c:	4631      	mov	r1, r6
 800665e:	2058      	movs	r0, #88	; 0x58
 8006660:	f7ff fe64 	bl	800632c <SD_SendCmd>
 8006664:	bb70      	cbnz	r0, 80066c4 <SD_disk_write+0x98>
 8006666:	21fe      	movs	r1, #254	; 0xfe
 8006668:	4628      	mov	r0, r5
 800666a:	f7ff feb5 	bl	80063d8 <SD_TxDataBlock>
 800666e:	fab0 f480 	clz	r4, r0
 8006672:	0964      	lsrs	r4, r4, #5
			}
		}
	}

	/* Idle */
	DESELECT();
 8006674:	f7ff fdfe 	bl	8006274 <DESELECT>
	SPI_RxByte();
 8006678:	f7ff fe04 	bl	8006284 <SPI_RxByte>

	return count ? RES_ERROR : RES_OK;
 800667c:	1e20      	subs	r0, r4, #0
 800667e:	bf18      	it	ne
 8006680:	2001      	movne	r0, #1
}
 8006682:	bdf8      	pop	{r3, r4, r5, r6, r7, pc}
		if (CardType & CT_SD1)
 8006684:	783b      	ldrb	r3, [r7, #0]
 8006686:	079b      	lsls	r3, r3, #30
 8006688:	d507      	bpl.n	800669a <SD_disk_write+0x6e>
			SD_SendCmd(CMD55, 0);
 800668a:	2100      	movs	r1, #0
 800668c:	2077      	movs	r0, #119	; 0x77
 800668e:	f7ff fe4d 	bl	800632c <SD_SendCmd>
			SD_SendCmd(CMD23, count); /* ACMD23 */
 8006692:	4621      	mov	r1, r4
 8006694:	2057      	movs	r0, #87	; 0x57
 8006696:	f7ff fe49 	bl	800632c <SD_SendCmd>
		if (SD_SendCmd(CMD25, sector) == 0)
 800669a:	4631      	mov	r1, r6
 800669c:	2059      	movs	r0, #89	; 0x59
 800669e:	f7ff fe45 	bl	800632c <SD_SendCmd>
 80066a2:	2800      	cmp	r0, #0
 80066a4:	d1e6      	bne.n	8006674 <SD_disk_write+0x48>
				if(!SD_TxDataBlock(buff, 0xFC)) break;
 80066a6:	21fc      	movs	r1, #252	; 0xfc
 80066a8:	4628      	mov	r0, r5
 80066aa:	f7ff fe95 	bl	80063d8 <SD_TxDataBlock>
 80066ae:	b118      	cbz	r0, 80066b8 <SD_disk_write+0x8c>
			} while (--count);
 80066b0:	3c01      	subs	r4, #1
				buff += 512;
 80066b2:	f505 7500 	add.w	r5, r5, #512	; 0x200
			} while (--count);
 80066b6:	d1f6      	bne.n	80066a6 <SD_disk_write+0x7a>
			if(!SD_TxDataBlock(0, 0xFD))
 80066b8:	21fd      	movs	r1, #253	; 0xfd
 80066ba:	2000      	movs	r0, #0
 80066bc:	f7ff fe8c 	bl	80063d8 <SD_TxDataBlock>
 80066c0:	2800      	cmp	r0, #0
 80066c2:	d1d7      	bne.n	8006674 <SD_disk_write+0x48>
				count = 1;
 80066c4:	2401      	movs	r4, #1
 80066c6:	e7d5      	b.n	8006674 <SD_disk_write+0x48>
	if (pdrv || !count) return RES_PARERR;
 80066c8:	2004      	movs	r0, #4
 80066ca:	e7da      	b.n	8006682 <SD_disk_write+0x56>
	if (Stat & STA_NOINIT) return RES_NOTRDY;
 80066cc:	2003      	movs	r0, #3
 80066ce:	e7d8      	b.n	8006682 <SD_disk_write+0x56>
	if (Stat & STA_PROTECT) return RES_WRPRT;
 80066d0:	2002      	movs	r0, #2
 80066d2:	e7d6      	b.n	8006682 <SD_disk_write+0x56>
 80066d4:	20000008 	.word	0x20000008
 80066d8:	20000110 	.word	0x20000110

080066dc <SD_disk_ioctl>:
#endif /* _USE_WRITE */

/* ioctl */
DRESULT SD_disk_ioctl(BYTE drv, BYTE ctrl, void *buff) 
{
 80066dc:	b57f      	push	{r0, r1, r2, r3, r4, r5, r6, lr}
 80066de:	460e      	mov	r6, r1
 80066e0:	4615      	mov	r5, r2
	DRESULT res;
	uint8_t n, csd[16], *ptr = buff;
	WORD csize;

	/* pdrv should be 0 */
	if (drv) return RES_PARERR;
 80066e2:	4604      	mov	r4, r0
 80066e4:	2800      	cmp	r0, #0
 80066e6:	f040 8092 	bne.w	800680e <SD_disk_ioctl+0x132>
	res = RES_ERROR;

	if (ctrl == CTRL_POWER)
 80066ea:	2905      	cmp	r1, #5
 80066ec:	d113      	bne.n	8006716 <SD_disk_ioctl+0x3a>
	{
		switch (*ptr)
 80066ee:	7813      	ldrb	r3, [r2, #0]
 80066f0:	2b01      	cmp	r3, #1
 80066f2:	d009      	beq.n	8006708 <SD_disk_ioctl+0x2c>
 80066f4:	2b02      	cmp	r3, #2
 80066f6:	d00a      	beq.n	800670e <SD_disk_ioctl+0x32>
 80066f8:	2b00      	cmp	r3, #0
 80066fa:	f040 8088 	bne.w	800680e <SD_disk_ioctl+0x132>
	PowerFlag = 0;
 80066fe:	4b46      	ldr	r3, [pc, #280]	; (8006818 <SD_disk_ioctl+0x13c>)
 8006700:	7018      	strb	r0, [r3, #0]
		DESELECT();
		SPI_RxByte();
	}

	return res;
}
 8006702:	4620      	mov	r0, r4
 8006704:	b004      	add	sp, #16
 8006706:	bd70      	pop	{r4, r5, r6, pc}
			SD_PowerOn();		/* Power On */
 8006708:	f7ff fdd6 	bl	80062b8 <SD_PowerOn>
			break;
 800670c:	e7f9      	b.n	8006702 <SD_disk_ioctl+0x26>
	return PowerFlag;
 800670e:	4b42      	ldr	r3, [pc, #264]	; (8006818 <SD_disk_ioctl+0x13c>)
			*(ptr + 1) = SD_CheckPower();
 8006710:	781b      	ldrb	r3, [r3, #0]
 8006712:	7053      	strb	r3, [r2, #1]
			break;
 8006714:	e7f5      	b.n	8006702 <SD_disk_ioctl+0x26>
		if (Stat & STA_NOINIT) return RES_NOTRDY;
 8006716:	4b41      	ldr	r3, [pc, #260]	; (800681c <SD_disk_ioctl+0x140>)
 8006718:	7818      	ldrb	r0, [r3, #0]
 800671a:	f010 0401 	ands.w	r4, r0, #1
 800671e:	d178      	bne.n	8006812 <SD_disk_ioctl+0x136>
		SELECT();
 8006720:	f7ff fd9a 	bl	8006258 <SELECT>
		switch (ctrl)
 8006724:	2e0d      	cmp	r6, #13
 8006726:	d868      	bhi.n	80067fa <SD_disk_ioctl+0x11e>
 8006728:	e8df f006 	tbb	[pc, r6]
 800672c:	6746074a 	.word	0x6746074a
 8006730:	67676767 	.word	0x67676767
 8006734:	51676767 	.word	0x51676767
 8006738:	625f      	.short	0x625f
			if ((SD_SendCmd(CMD9, 0) == 0) && SD_RxDataBlock(csd, 16))
 800673a:	2100      	movs	r1, #0
 800673c:	2049      	movs	r0, #73	; 0x49
 800673e:	f7ff fdf5 	bl	800632c <SD_SendCmd>
 8006742:	4604      	mov	r4, r0
 8006744:	b128      	cbz	r0, 8006752 <SD_disk_ioctl+0x76>
	res = RES_ERROR;
 8006746:	2401      	movs	r4, #1
		DESELECT();
 8006748:	f7ff fd94 	bl	8006274 <DESELECT>
		SPI_RxByte();
 800674c:	f7ff fd9a 	bl	8006284 <SPI_RxByte>
 8006750:	e7d7      	b.n	8006702 <SD_disk_ioctl+0x26>
			if ((SD_SendCmd(CMD9, 0) == 0) && SD_RxDataBlock(csd, 16))
 8006752:	2110      	movs	r1, #16
 8006754:	4668      	mov	r0, sp
 8006756:	f7ff fe1b 	bl	8006390 <SD_RxDataBlock>
 800675a:	2800      	cmp	r0, #0
 800675c:	d0f3      	beq.n	8006746 <SD_disk_ioctl+0x6a>
				if ((csd[0] >> 6) == 1)
 800675e:	f89d 1000 	ldrb.w	r1, [sp]
 8006762:	f89d 3009 	ldrb.w	r3, [sp, #9]
 8006766:	0989      	lsrs	r1, r1, #6
 8006768:	2901      	cmp	r1, #1
 800676a:	f89d 2008 	ldrb.w	r2, [sp, #8]
 800676e:	d106      	bne.n	800677e <SD_disk_ioctl+0xa2>
					csize = csd[9] + ((WORD) csd[8] << 8) + 1;
 8006770:	3301      	adds	r3, #1
 8006772:	eb03 2202 	add.w	r2, r3, r2, lsl #8
					*(DWORD*) buff = (DWORD) csize << 10;
 8006776:	b292      	uxth	r2, r2
 8006778:	0292      	lsls	r2, r2, #10
 800677a:	602a      	str	r2, [r5, #0]
 800677c:	e7e4      	b.n	8006748 <SD_disk_ioctl+0x6c>
					csize = (csd[8] >> 6) + ((WORD) csd[7] << 2) + ((WORD) (csd[6] & 3) << 10) + 1;
 800677e:	f89d 1007 	ldrb.w	r1, [sp, #7]
 8006782:	0992      	lsrs	r2, r2, #6
 8006784:	eb02 0281 	add.w	r2, r2, r1, lsl #2
 8006788:	f89d 1006 	ldrb.w	r1, [sp, #6]
 800678c:	3201      	adds	r2, #1
 800678e:	0289      	lsls	r1, r1, #10
 8006790:	f401 6140 	and.w	r1, r1, #3072	; 0xc00
					*(DWORD*) buff = (DWORD) csize << (n - 9);
 8006794:	440a      	add	r2, r1
					n = (csd[5] & 15) + ((csd[10] & 128) >> 7) + ((csd[9] & 3) << 1) + 2;
 8006796:	f89d 1005 	ldrb.w	r1, [sp, #5]
 800679a:	f89d 000a 	ldrb.w	r0, [sp, #10]
 800679e:	f001 010f 	and.w	r1, r1, #15
 80067a2:	005b      	lsls	r3, r3, #1
 80067a4:	eb01 11d0 	add.w	r1, r1, r0, lsr #7
 80067a8:	f003 0306 	and.w	r3, r3, #6
					*(DWORD*) buff = (DWORD) csize << (n - 9);
 80067ac:	440b      	add	r3, r1
 80067ae:	3b07      	subs	r3, #7
 80067b0:	fa02 f303 	lsl.w	r3, r2, r3
 80067b4:	602b      	str	r3, [r5, #0]
 80067b6:	e7c7      	b.n	8006748 <SD_disk_ioctl+0x6c>
			*(WORD*) buff = 512;
 80067b8:	f44f 7300 	mov.w	r3, #512	; 0x200
 80067bc:	802b      	strh	r3, [r5, #0]
			break;
 80067be:	e7c3      	b.n	8006748 <SD_disk_ioctl+0x6c>
			if (SD_ReadyWait() == 0xFF) res = RES_OK;
 80067c0:	f7ff fda4 	bl	800630c <SD_ReadyWait>
	res = RES_ERROR;
 80067c4:	f1b0 04ff 	subs.w	r4, r0, #255	; 0xff
 80067c8:	bf18      	it	ne
 80067ca:	2401      	movne	r4, #1
 80067cc:	e7bc      	b.n	8006748 <SD_disk_ioctl+0x6c>
			if (SD_SendCmd(CMD9, 0) == 0 && SD_RxDataBlock(ptr, 16)) res = RES_OK;
 80067ce:	2100      	movs	r1, #0
 80067d0:	2049      	movs	r0, #73	; 0x49
			if (SD_SendCmd(CMD10, 0) == 0 && SD_RxDataBlock(ptr, 16)) res = RES_OK;
 80067d2:	f7ff fdab 	bl	800632c <SD_SendCmd>
 80067d6:	2800      	cmp	r0, #0
 80067d8:	d1b5      	bne.n	8006746 <SD_disk_ioctl+0x6a>
 80067da:	2110      	movs	r1, #16
 80067dc:	4628      	mov	r0, r5
 80067de:	f7ff fdd7 	bl	8006390 <SD_RxDataBlock>
	res = RES_ERROR;
 80067e2:	fab0 f480 	clz	r4, r0
 80067e6:	0964      	lsrs	r4, r4, #5
 80067e8:	e7ae      	b.n	8006748 <SD_disk_ioctl+0x6c>
			if (SD_SendCmd(CMD10, 0) == 0 && SD_RxDataBlock(ptr, 16)) res = RES_OK;
 80067ea:	2100      	movs	r1, #0
 80067ec:	204a      	movs	r0, #74	; 0x4a
 80067ee:	e7f0      	b.n	80067d2 <SD_disk_ioctl+0xf6>
			if (SD_SendCmd(CMD58, 0) == 0)
 80067f0:	2100      	movs	r1, #0
 80067f2:	207a      	movs	r0, #122	; 0x7a
 80067f4:	f7ff fd9a 	bl	800632c <SD_SendCmd>
 80067f8:	b108      	cbz	r0, 80067fe <SD_disk_ioctl+0x122>
		SELECT();
 80067fa:	2404      	movs	r4, #4
 80067fc:	e7a4      	b.n	8006748 <SD_disk_ioctl+0x6c>
 80067fe:	1d2c      	adds	r4, r5, #4
					*ptr++ = SPI_RxByte();
 8006800:	f7ff fd40 	bl	8006284 <SPI_RxByte>
 8006804:	f805 0b01 	strb.w	r0, [r5], #1
				for (n = 0; n < 4; n++)
 8006808:	42ac      	cmp	r4, r5
 800680a:	d1f9      	bne.n	8006800 <SD_disk_ioctl+0x124>
 800680c:	e7f5      	b.n	80067fa <SD_disk_ioctl+0x11e>
		switch (*ptr)
 800680e:	2404      	movs	r4, #4
 8006810:	e777      	b.n	8006702 <SD_disk_ioctl+0x26>
		if (Stat & STA_NOINIT) return RES_NOTRDY;
 8006812:	2403      	movs	r4, #3
 8006814:	e775      	b.n	8006702 <SD_disk_ioctl+0x26>
 8006816:	bf00      	nop
 8006818:	20000111 	.word	0x20000111
 800681c:	20000008 	.word	0x20000008

08006820 <MX_GPIO_Init>:
        * Output
        * EVENT_OUT
        * EXTI
*/
void MX_GPIO_Init(void)
{
 8006820:	e92d 47f0 	stmdb	sp!, {r4, r5, r6, r7, r8, r9, sl, lr}

  GPIO_InitTypeDef GPIO_InitStruct = {0};
 8006824:	f04f 0910 	mov.w	r9, #16
{
 8006828:	b088      	sub	sp, #32
  GPIO_InitTypeDef GPIO_InitStruct = {0};
 800682a:	464a      	mov	r2, r9
 800682c:	2100      	movs	r1, #0
 800682e:	eb0d 0009 	add.w	r0, sp, r9
 8006832:	f001 f97f 	bl	8007b34 <memset>

  /* GPIO Ports Clock Enable */
  __HAL_RCC_GPIOC_CLK_ENABLE();
 8006836:	4b4a      	ldr	r3, [pc, #296]	; (8006960 <MX_GPIO_Init+0x140>)
  __HAL_RCC_GPIOD_CLK_ENABLE();
  __HAL_RCC_GPIOA_CLK_ENABLE();
  __HAL_RCC_GPIOB_CLK_ENABLE();

  /*Configure GPIO pin Output Level */
  HAL_GPIO_WritePin(LED_GPIO_Port, LED_Pin, GPIO_PIN_RESET);
 8006838:	f8df a130 	ldr.w	sl, [pc, #304]	; 800696c <MX_GPIO_Init+0x14c>
  __HAL_RCC_GPIOC_CLK_ENABLE();
 800683c:	699a      	ldr	r2, [r3, #24]

  /*Configure GPIO pin Output Level */
  HAL_GPIO_WritePin(SPI1_CS_GPIO_Port, SPI1_CS_Pin, GPIO_PIN_SET);
 800683e:	4f49      	ldr	r7, [pc, #292]	; (8006964 <MX_GPIO_Init+0x144>)
  __HAL_RCC_GPIOC_CLK_ENABLE();
 8006840:	ea42 0209 	orr.w	r2, r2, r9
 8006844:	619a      	str	r2, [r3, #24]
 8006846:	699a      	ldr	r2, [r3, #24]

  /*Configure GPIO pin Output Level */
  HAL_GPIO_WritePin(EEPROM_CS_GPIO_Port, EEPROM_CS_Pin, GPIO_PIN_SET);
 8006848:	4d47      	ldr	r5, [pc, #284]	; (8006968 <MX_GPIO_Init+0x148>)
  __HAL_RCC_GPIOC_CLK_ENABLE();
 800684a:	ea02 0209 	and.w	r2, r2, r9
 800684e:	9200      	str	r2, [sp, #0]
 8006850:	9a00      	ldr	r2, [sp, #0]
  __HAL_RCC_GPIOD_CLK_ENABLE();
 8006852:	699a      	ldr	r2, [r3, #24]
  HAL_GPIO_WritePin(LED_GPIO_Port, LED_Pin, GPIO_PIN_RESET);
 8006854:	4650      	mov	r0, sl
  __HAL_RCC_GPIOD_CLK_ENABLE();
 8006856:	f042 0220 	orr.w	r2, r2, #32
 800685a:	619a      	str	r2, [r3, #24]
 800685c:	699a      	ldr	r2, [r3, #24]
  HAL_GPIO_WritePin(LED_GPIO_Port, LED_Pin, GPIO_PIN_RESET);
 800685e:	f44f 5100 	mov.w	r1, #8192	; 0x2000
  __HAL_RCC_GPIOD_CLK_ENABLE();
 8006862:	f002 0220 	and.w	r2, r2, #32
 8006866:	9201      	str	r2, [sp, #4]
 8006868:	9a01      	ldr	r2, [sp, #4]
  __HAL_RCC_GPIOA_CLK_ENABLE();
 800686a:	699a      	ldr	r2, [r3, #24]

  /*Configure GPIO pin : PtPin */
  GPIO_InitStruct.Pin = LED_Pin;
  GPIO_InitStruct.Mode = GPIO_MODE_OUTPUT_PP;
  GPIO_InitStruct.Pull = GPIO_NOPULL;
  GPIO_InitStruct.Speed = GPIO_SPEED_FREQ_HIGH;
 800686c:	2400      	movs	r4, #0
  __HAL_RCC_GPIOA_CLK_ENABLE();
 800686e:	f042 0204 	orr.w	r2, r2, #4
 8006872:	619a      	str	r2, [r3, #24]
 8006874:	699a      	ldr	r2, [r3, #24]
  GPIO_InitStruct.Mode = GPIO_MODE_OUTPUT_PP;
 8006876:	2601      	movs	r6, #1
  __HAL_RCC_GPIOA_CLK_ENABLE();
 8006878:	f002 0204 	and.w	r2, r2, #4
 800687c:	9202      	str	r2, [sp, #8]
 800687e:	9a02      	ldr	r2, [sp, #8]
  __HAL_RCC_GPIOB_CLK_ENABLE();
 8006880:	699a      	ldr	r2, [r3, #24]
  GPIO_InitStruct.Speed = GPIO_SPEED_FREQ_HIGH;
 8006882:	f04f 0803 	mov.w	r8, #3
  __HAL_RCC_GPIOB_CLK_ENABLE();
 8006886:	f042 0208 	orr.w	r2, r2, #8
 800688a:	619a      	str	r2, [r3, #24]
 800688c:	699b      	ldr	r3, [r3, #24]
  HAL_GPIO_WritePin(LED_GPIO_Port, LED_Pin, GPIO_PIN_RESET);
 800688e:	2200      	movs	r2, #0
  __HAL_RCC_GPIOB_CLK_ENABLE();
 8006890:	f003 0308 	and.w	r3, r3, #8
 8006894:	9303      	str	r3, [sp, #12]
 8006896:	9b03      	ldr	r3, [sp, #12]
  HAL_GPIO_WritePin(LED_GPIO_Port, LED_Pin, GPIO_PIN_RESET);
 8006898:	f7fa fe3c 	bl	8001514 <HAL_GPIO_WritePin>
  HAL_GPIO_WritePin(SPI1_CS_GPIO_Port, SPI1_CS_Pin, GPIO_PIN_SET);
 800689c:	4649      	mov	r1, r9
 800689e:	4638      	mov	r0, r7
 80068a0:	2201      	movs	r2, #1
 80068a2:	f7fa fe37 	bl	8001514 <HAL_GPIO_WritePin>
  HAL_GPIO_WritePin(EEPROM_CS_GPIO_Port, EEPROM_CS_Pin, GPIO_PIN_SET);
 80068a6:	4628      	mov	r0, r5
 80068a8:	2201      	movs	r2, #1
 80068aa:	f44f 5180 	mov.w	r1, #4096	; 0x1000
 80068ae:	f7fa fe31 	bl	8001514 <HAL_GPIO_WritePin>
  HAL_GPIO_WritePin(GPIOA, ERROR_LED_Pin|TX_LED_Pin, GPIO_PIN_RESET);
 80068b2:	4638      	mov	r0, r7
 80068b4:	2200      	movs	r2, #0
 80068b6:	f44f 4101 	mov.w	r1, #33024	; 0x8100
 80068ba:	f7fa fe2b 	bl	8001514 <HAL_GPIO_WritePin>
  HAL_GPIO_WritePin(GPIOB, RX_LED_Pin|LIN_EN_Pin|SW_CAN_EN_Pin|FT_CAN_EN_Pin
 80068be:	2200      	movs	r2, #0
 80068c0:	4628      	mov	r0, r5
 80068c2:	21f8      	movs	r1, #248	; 0xf8
 80068c4:	f7fa fe26 	bl	8001514 <HAL_GPIO_WritePin>
  GPIO_InitStruct.Mode = GPIO_MODE_OUTPUT_PP;
 80068c8:	f44f 5300 	mov.w	r3, #8192	; 0x2000
  HAL_GPIO_Init(LED_GPIO_Port, &GPIO_InitStruct);
 80068cc:	4650      	mov	r0, sl
 80068ce:	eb0d 0109 	add.w	r1, sp, r9
  GPIO_InitStruct.Mode = GPIO_MODE_OUTPUT_PP;
 80068d2:	e9cd 3604 	strd	r3, r6, [sp, #16]
  GPIO_InitStruct.Speed = GPIO_SPEED_FREQ_HIGH;
 80068d6:	e9cd 4806 	strd	r4, r8, [sp, #24]
  HAL_GPIO_Init(LED_GPIO_Port, &GPIO_InitStruct);
 80068da:	f7fa fccb 	bl	8001274 <HAL_GPIO_Init>
  /*Configure GPIO pin : PtPin */
  GPIO_InitStruct.Pin = SPI1_CS_Pin;
  GPIO_InitStruct.Mode = GPIO_MODE_OUTPUT_PP;
  GPIO_InitStruct.Pull = GPIO_NOPULL;
  GPIO_InitStruct.Speed = GPIO_SPEED_FREQ_HIGH;
  HAL_GPIO_Init(SPI1_CS_GPIO_Port, &GPIO_InitStruct);
 80068de:	4638      	mov	r0, r7
 80068e0:	eb0d 0109 	add.w	r1, sp, r9
  GPIO_InitStruct.Speed = GPIO_SPEED_FREQ_HIGH;
 80068e4:	e9cd 4806 	strd	r4, r8, [sp, #24]
  GPIO_InitStruct.Mode = GPIO_MODE_OUTPUT_PP;
 80068e8:	e9cd 9604 	strd	r9, r6, [sp, #16]
  HAL_GPIO_Init(SPI1_CS_GPIO_Port, &GPIO_InitStruct);
 80068ec:	f7fa fcc2 	bl	8001274 <HAL_GPIO_Init>

  /*Configure GPIO pins : PBPin PBPin */
  GPIO_InitStruct.Pin = MODE_SEL_Pin|BUTTON_Pin;
  GPIO_InitStruct.Mode = GPIO_MODE_INPUT;
  GPIO_InitStruct.Pull = GPIO_PULLUP;
  HAL_GPIO_Init(GPIOB, &GPIO_InitStruct);
 80068f0:	4628      	mov	r0, r5
 80068f2:	eb0d 0109 	add.w	r1, sp, r9
  GPIO_InitStruct.Mode = GPIO_MODE_INPUT;
 80068f6:	e9cd 8404 	strd	r8, r4, [sp, #16]
  GPIO_InitStruct.Pull = GPIO_PULLUP;
 80068fa:	9606      	str	r6, [sp, #24]
  HAL_GPIO_Init(GPIOB, &GPIO_InitStruct);
 80068fc:	f7fa fcba 	bl	8001274 <HAL_GPIO_Init>

  /*Configure GPIO pin : PtPin */
  GPIO_InitStruct.Pin = BOOT1_Pin;
 8006900:	2304      	movs	r3, #4
  GPIO_InitStruct.Mode = GPIO_MODE_INPUT;
  GPIO_InitStruct.Pull = GPIO_NOPULL;
  HAL_GPIO_Init(BOOT1_GPIO_Port, &GPIO_InitStruct);
 8006902:	4628      	mov	r0, r5
 8006904:	eb0d 0109 	add.w	r1, sp, r9
  GPIO_InitStruct.Mode = GPIO_MODE_INPUT;
 8006908:	e9cd 3404 	strd	r3, r4, [sp, #16]
  GPIO_InitStruct.Pull = GPIO_NOPULL;
 800690c:	9406      	str	r4, [sp, #24]
  HAL_GPIO_Init(BOOT1_GPIO_Port, &GPIO_InitStruct);
 800690e:	f7fa fcb1 	bl	8001274 <HAL_GPIO_Init>

  /*Configure GPIO pin : PtPin */
  GPIO_InitStruct.Pin = EEPROM_CS_Pin;
 8006912:	f44f 5380 	mov.w	r3, #4096	; 0x1000
  GPIO_InitStruct.Mode = GPIO_MODE_OUTPUT_PP;
  GPIO_InitStruct.Pull = GPIO_NOPULL;
  GPIO_InitStruct.Speed = GPIO_SPEED_FREQ_HIGH;
  HAL_GPIO_Init(EEPROM_CS_GPIO_Port, &GPIO_InitStruct);
 8006916:	4628      	mov	r0, r5
 8006918:	eb0d 0109 	add.w	r1, sp, r9
  GPIO_InitStruct.Mode = GPIO_MODE_OUTPUT_PP;
 800691c:	e9cd 3604 	strd	r3, r6, [sp, #16]
  GPIO_InitStruct.Speed = GPIO_SPEED_FREQ_HIGH;
 8006920:	e9cd 4806 	strd	r4, r8, [sp, #24]
  HAL_GPIO_Init(EEPROM_CS_GPIO_Port, &GPIO_InitStruct);
 8006924:	f7fa fca6 	bl	8001274 <HAL_GPIO_Init>

  /*Configure GPIO pins : PAPin PAPin */
  GPIO_InitStruct.Pin = ERROR_LED_Pin|TX_LED_Pin;
  GPIO_InitStruct.Mode = GPIO_MODE_OUTPUT_PP;
  GPIO_InitStruct.Pull = GPIO_NOPULL;
  GPIO_InitStruct.Speed = GPIO_SPEED_FREQ_LOW;
 8006928:	f04f 0802 	mov.w	r8, #2
  GPIO_InitStruct.Pin = ERROR_LED_Pin|TX_LED_Pin;
 800692c:	f44f 4301 	mov.w	r3, #33024	; 0x8100
  HAL_GPIO_Init(GPIOA, &GPIO_InitStruct);
 8006930:	4638      	mov	r0, r7
 8006932:	eb0d 0109 	add.w	r1, sp, r9
  GPIO_InitStruct.Mode = GPIO_MODE_OUTPUT_PP;
 8006936:	e9cd 3604 	strd	r3, r6, [sp, #16]
  GPIO_InitStruct.Pull = GPIO_NOPULL;
 800693a:	9406      	str	r4, [sp, #24]
  GPIO_InitStruct.Speed = GPIO_SPEED_FREQ_LOW;
 800693c:	f8cd 801c 	str.w	r8, [sp, #28]
  HAL_GPIO_Init(GPIOA, &GPIO_InitStruct);
 8006940:	f7fa fc98 	bl	8001274 <HAL_GPIO_Init>

  /*Configure GPIO pins : PBPin PBPin PBPin PBPin
                           PBPin */
  GPIO_InitStruct.Pin = RX_LED_Pin|LIN_EN_Pin|SW_CAN_EN_Pin|FT_CAN_EN_Pin
 8006944:	23f8      	movs	r3, #248	; 0xf8
                          |HS_CAN_EN_Pin;
  GPIO_InitStruct.Mode = GPIO_MODE_OUTPUT_PP;
  GPIO_InitStruct.Pull = GPIO_NOPULL;
  GPIO_InitStruct.Speed = GPIO_SPEED_FREQ_LOW;
  HAL_GPIO_Init(GPIOB, &GPIO_InitStruct);
 8006946:	4628      	mov	r0, r5
 8006948:	eb0d 0109 	add.w	r1, sp, r9
  GPIO_InitStruct.Mode = GPIO_MODE_OUTPUT_PP;
 800694c:	e9cd 3604 	strd	r3, r6, [sp, #16]
  GPIO_InitStruct.Speed = GPIO_SPEED_FREQ_LOW;
 8006950:	e9cd 4806 	strd	r4, r8, [sp, #24]
  HAL_GPIO_Init(GPIOB, &GPIO_InitStruct);
 8006954:	f7fa fc8e 	bl	8001274 <HAL_GPIO_Init>

}
 8006958:	b008      	add	sp, #32
 800695a:	e8bd 87f0 	ldmia.w	sp!, {r4, r5, r6, r7, r8, r9, sl, pc}
 800695e:	bf00      	nop
 8006960:	40021000 	.word	0x40021000
 8006964:	40010800 	.word	0x40010800
 8006968:	40010c00 	.word	0x40010c00
 800696c:	40011000 	.word	0x40011000

08006970 <UART_Check_Data_Ready>:
/* USER CODE BEGIN 0 */
uint8_t txt_hallo[] = "CAN temperature logger\r\n";
uint8_t timestamp[] = "1234567890";

void UART_Check_Data_Ready(void)
{
 8006970:	e92d 41f0 	stmdb	sp!, {r4, r5, r6, r7, r8, lr}
	if(uart_answ_ready == 1)
 8006974:	4d46      	ldr	r5, [pc, #280]	; (8006a90 <UART_Check_Data_Ready+0x120>)
 8006976:	782a      	ldrb	r2, [r5, #0]
 8006978:	2a01      	cmp	r2, #1
 800697a:	d11a      	bne.n	80069b2 <UART_Check_Data_Ready+0x42>
	{
		for(int i = 0; i < uart_tx_pointer; i++)
 800697c:	2200      	movs	r2, #0
 800697e:	4c45      	ldr	r4, [pc, #276]	; (8006a94 <UART_Check_Data_Ready+0x124>)
 8006980:	4845      	ldr	r0, [pc, #276]	; (8006a98 <UART_Check_Data_Ready+0x128>)
 8006982:	6826      	ldr	r6, [r4, #0]
 8006984:	4945      	ldr	r1, [pc, #276]	; (8006a9c <UART_Check_Data_Ready+0x12c>)
 8006986:	42b2      	cmp	r2, r6
 8006988:	d10d      	bne.n	80069a6 <UART_Check_Data_Ready+0x36>
		{
			uart_tx_bufer[i] = uart_tx_com_bufer[i];
		}
		HAL_UART_Transmit_DMA(huart_active, uart_tx_bufer, uart_tx_pointer);
 800698a:	4b45      	ldr	r3, [pc, #276]	; (8006aa0 <UART_Check_Data_Ready+0x130>)
 800698c:	4943      	ldr	r1, [pc, #268]	; (8006a9c <UART_Check_Data_Ready+0x12c>)
 800698e:	6818      	ldr	r0, [r3, #0]
 8006990:	b292      	uxth	r2, r2
 8006992:	f7fb fd89 	bl	80024a8 <HAL_UART_Transmit_DMA>
		uart_tx_pointer = 0;
 8006996:	2300      	movs	r3, #0
		uart_busy = 1;
 8006998:	2101      	movs	r1, #1
 800699a:	4a42      	ldr	r2, [pc, #264]	; (8006aa4 <UART_Check_Data_Ready+0x134>)
		uart_tx_pointer = 0;
 800699c:	6023      	str	r3, [r4, #0]
		uart_busy = 1;
 800699e:	7011      	strb	r1, [r2, #0]
		uart_answ_ready = 0;
 80069a0:	702b      	strb	r3, [r5, #0]
					uart_tx_pointer = 0;
					uart_busy = 1;
				}
	}

}
 80069a2:	e8bd 81f0 	ldmia.w	sp!, {r4, r5, r6, r7, r8, pc}
			uart_tx_bufer[i] = uart_tx_com_bufer[i];
 80069a6:	f810 3b01 	ldrb.w	r3, [r0], #1
		for(int i = 0; i < uart_tx_pointer; i++)
 80069aa:	3201      	adds	r2, #1
			uart_tx_bufer[i] = uart_tx_com_bufer[i];
 80069ac:	f801 3b01 	strb.w	r3, [r1], #1
		for(int i = 0; i < uart_tx_pointer; i++)
 80069b0:	e7e9      	b.n	8006986 <UART_Check_Data_Ready+0x16>
		if(conf.state == LAWICEL_CONNECT || conf.state == SAVVYCAN_CONNECT)
 80069b2:	4c3d      	ldr	r4, [pc, #244]	; (8006aa8 <UART_Check_Data_Ready+0x138>)
 80069b4:	7823      	ldrb	r3, [r4, #0]
 80069b6:	3b01      	subs	r3, #1
 80069b8:	2b01      	cmp	r3, #1
 80069ba:	d805      	bhi.n	80069c8 <UART_Check_Data_Ready+0x58>
			if(CAN_Buffer_pull() == HAL_OK)
 80069bc:	f7fd fb8c 	bl	80040d8 <CAN_Buffer_pull>
 80069c0:	b910      	cbnz	r0, 80069c8 <UART_Check_Data_Ready+0x58>
				uart_busy = 1;
 80069c2:	2201      	movs	r2, #1
 80069c4:	4b37      	ldr	r3, [pc, #220]	; (8006aa4 <UART_Check_Data_Ready+0x134>)
 80069c6:	701a      	strb	r2, [r3, #0]
		if(conf.script_print)
 80069c8:	7a63      	ldrb	r3, [r4, #9]
 80069ca:	2b00      	cmp	r3, #0
 80069cc:	d031      	beq.n	8006a32 <UART_Check_Data_Ready+0xc2>
			uart_tx_pointer = 0;
 80069ce:	2300      	movs	r3, #0
 80069d0:	4d30      	ldr	r5, [pc, #192]	; (8006a94 <UART_Check_Data_Ready+0x124>)
			for(conf.script_address = eeprom_settings.start_address_csript; conf.script_address < eeprom_settings.eeprom_size-2/*(eeprom_settings.start_address_csript + 128)*/; conf.script_address++)
 80069d2:	4e36      	ldr	r6, [pc, #216]	; (8006aac <UART_Check_Data_Ready+0x13c>)
			uart_tx_pointer = 0;
 80069d4:	602b      	str	r3, [r5, #0]
			for(conf.script_address = eeprom_settings.start_address_csript; conf.script_address < eeprom_settings.eeprom_size-2/*(eeprom_settings.start_address_csript + 128)*/; conf.script_address++)
 80069d6:	88f3      	ldrh	r3, [r6, #6]
				EEPROM_Read(&hspi2, conf.script_address, &uart_tx_bufer[uart_tx_pointer++], 1);
 80069d8:	4f30      	ldr	r7, [pc, #192]	; (8006a9c <UART_Check_Data_Ready+0x12c>)
 80069da:	f8df 80d8 	ldr.w	r8, [pc, #216]	; 8006ab4 <UART_Check_Data_Ready+0x144>
			for(conf.script_address = eeprom_settings.start_address_csript; conf.script_address < eeprom_settings.eeprom_size-2/*(eeprom_settings.start_address_csript + 128)*/; conf.script_address++)
 80069de:	8163      	strh	r3, [r4, #10]
 80069e0:	8873      	ldrh	r3, [r6, #2]
 80069e2:	8961      	ldrh	r1, [r4, #10]
 80069e4:	b29b      	uxth	r3, r3
 80069e6:	3b02      	subs	r3, #2
 80069e8:	4299      	cmp	r1, r3
 80069ea:	682a      	ldr	r2, [r5, #0]
 80069ec:	da0e      	bge.n	8006a0c <UART_Check_Data_Ready+0x9c>
				EEPROM_Read(&hspi2, conf.script_address, &uart_tx_bufer[uart_tx_pointer++], 1);
 80069ee:	1c53      	adds	r3, r2, #1
 80069f0:	602b      	str	r3, [r5, #0]
 80069f2:	443a      	add	r2, r7
 80069f4:	2301      	movs	r3, #1
 80069f6:	4640      	mov	r0, r8
 80069f8:	f7ff fb3a 	bl	8006070 <EEPROM_Read>
				if(uart_tx_bufer[uart_tx_pointer-1] == 0xFF)
 80069fc:	682b      	ldr	r3, [r5, #0]
 80069fe:	3b01      	subs	r3, #1
 8006a00:	5cfa      	ldrb	r2, [r7, r3]
 8006a02:	2aff      	cmp	r2, #255	; 0xff
 8006a04:	d125      	bne.n	8006a52 <UART_Check_Data_Ready+0xe2>
					uart_tx_pointer--;
 8006a06:	602b      	str	r3, [r5, #0]
					conf.script_print = false;
 8006a08:	2300      	movs	r3, #0
 8006a0a:	7263      	strb	r3, [r4, #9]
			if(conf.script_address >= eeprom_settings.eeprom_size-2)
 8006a0c:	8873      	ldrh	r3, [r6, #2]
 8006a0e:	8962      	ldrh	r2, [r4, #10]
 8006a10:	b29b      	uxth	r3, r3
 8006a12:	3b02      	subs	r3, #2
 8006a14:	429a      	cmp	r2, r3
				conf.script_print = false;
 8006a16:	bfa4      	itt	ge
 8006a18:	2300      	movge	r3, #0
 8006a1a:	7263      	strbge	r3, [r4, #9]
			HAL_UART_Transmit_DMA(huart_active, uart_tx_bufer, uart_tx_pointer);
 8006a1c:	4b20      	ldr	r3, [pc, #128]	; (8006aa0 <UART_Check_Data_Ready+0x130>)
 8006a1e:	882a      	ldrh	r2, [r5, #0]
 8006a20:	6818      	ldr	r0, [r3, #0]
 8006a22:	491e      	ldr	r1, [pc, #120]	; (8006a9c <UART_Check_Data_Ready+0x12c>)
 8006a24:	f7fb fd40 	bl	80024a8 <HAL_UART_Transmit_DMA>
			uart_tx_pointer = 0;
 8006a28:	2300      	movs	r3, #0
			uart_busy = 1;
 8006a2a:	2201      	movs	r2, #1
			uart_tx_pointer = 0;
 8006a2c:	602b      	str	r3, [r5, #0]
			uart_busy = 1;
 8006a2e:	4b1d      	ldr	r3, [pc, #116]	; (8006aa4 <UART_Check_Data_Ready+0x134>)
 8006a30:	701a      	strb	r2, [r3, #0]
		if(conf.help_print)
 8006a32:	7e63      	ldrb	r3, [r4, #25]
 8006a34:	2b00      	cmp	r3, #0
 8006a36:	d0b4      	beq.n	80069a2 <UART_Check_Data_Ready+0x32>
					uart_tx_pointer = 0;
 8006a38:	2300      	movs	r3, #0
					for(int i = conf.help_text_pointer; i < conf.help_text_pointer + 128; i++)
 8006a3a:	461a      	mov	r2, r3
					uart_tx_pointer = 0;
 8006a3c:	4d15      	ldr	r5, [pc, #84]	; (8006a94 <UART_Check_Data_Ready+0x124>)
					for(int i = conf.help_text_pointer; i < conf.help_text_pointer + 128; i++)
 8006a3e:	8b61      	ldrh	r1, [r4, #26]
 8006a40:	481b      	ldr	r0, [pc, #108]	; (8006ab0 <UART_Check_Data_Ready+0x140>)
 8006a42:	4f16      	ldr	r7, [pc, #88]	; (8006a9c <UART_Check_Data_Ready+0x12c>)
					uart_tx_pointer = 0;
 8006a44:	602b      	str	r3, [r5, #0]
					for(int i = conf.help_text_pointer; i < conf.help_text_pointer + 128; i++)
 8006a46:	4408      	add	r0, r1
 8006a48:	2a80      	cmp	r2, #128	; 0x80
 8006a4a:	d106      	bne.n	8006a5a <UART_Check_Data_Ready+0xea>
 8006a4c:	b17b      	cbz	r3, 8006a6e <UART_Check_Data_Ready+0xfe>
 8006a4e:	602a      	str	r2, [r5, #0]
 8006a50:	e00d      	b.n	8006a6e <UART_Check_Data_Ready+0xfe>
			for(conf.script_address = eeprom_settings.start_address_csript; conf.script_address < eeprom_settings.eeprom_size-2/*(eeprom_settings.start_address_csript + 128)*/; conf.script_address++)
 8006a52:	8963      	ldrh	r3, [r4, #10]
 8006a54:	3301      	adds	r3, #1
 8006a56:	8163      	strh	r3, [r4, #10]
 8006a58:	e7c2      	b.n	80069e0 <UART_Check_Data_Ready+0x70>
						uart_tx_bufer[uart_tx_pointer++] = help_text[i];
 8006a5a:	f810 6b01 	ldrb.w	r6, [r0], #1
 8006a5e:	2301      	movs	r3, #1
 8006a60:	f102 0c01 	add.w	ip, r2, #1
 8006a64:	f807 6b01 	strb.w	r6, [r7], #1
						if(help_text[i] == '\0')
 8006a68:	b97e      	cbnz	r6, 8006a8a <UART_Check_Data_Ready+0x11a>
							uart_tx_pointer--;
 8006a6a:	602a      	str	r2, [r5, #0]
							conf.help_print = false;
 8006a6c:	7666      	strb	r6, [r4, #25]
					HAL_UART_Transmit_DMA(huart_active, uart_tx_bufer, uart_tx_pointer);
 8006a6e:	4b0c      	ldr	r3, [pc, #48]	; (8006aa0 <UART_Check_Data_Ready+0x130>)
					conf.help_text_pointer += 128;
 8006a70:	3180      	adds	r1, #128	; 0x80
					HAL_UART_Transmit_DMA(huart_active, uart_tx_bufer, uart_tx_pointer);
 8006a72:	882a      	ldrh	r2, [r5, #0]
 8006a74:	6818      	ldr	r0, [r3, #0]
					conf.help_text_pointer += 128;
 8006a76:	8361      	strh	r1, [r4, #26]
					HAL_UART_Transmit_DMA(huart_active, uart_tx_bufer, uart_tx_pointer);
 8006a78:	4908      	ldr	r1, [pc, #32]	; (8006a9c <UART_Check_Data_Ready+0x12c>)
 8006a7a:	f7fb fd15 	bl	80024a8 <HAL_UART_Transmit_DMA>
					uart_tx_pointer = 0;
 8006a7e:	2300      	movs	r3, #0
					uart_busy = 1;
 8006a80:	2201      	movs	r2, #1
					uart_tx_pointer = 0;
 8006a82:	602b      	str	r3, [r5, #0]
					uart_busy = 1;
 8006a84:	4b07      	ldr	r3, [pc, #28]	; (8006aa4 <UART_Check_Data_Ready+0x134>)
 8006a86:	701a      	strb	r2, [r3, #0]
}
 8006a88:	e78b      	b.n	80069a2 <UART_Check_Data_Ready+0x32>
						uart_tx_bufer[uart_tx_pointer++] = help_text[i];
 8006a8a:	4662      	mov	r2, ip
 8006a8c:	e7dc      	b.n	8006a48 <UART_Check_Data_Ready+0xd8>
 8006a8e:	bf00      	nop
 8006a90:	20000145 	.word	0x20000145
 8006a94:	20000150 	.word	0x20000150
 8006a98:	20001f7c 	.word	0x20001f7c
 8006a9c:	200029eb 	.word	0x200029eb
 8006aa0:	20002af4 	.word	0x20002af4
 8006aa4:	20000146 	.word	0x20000146
 8006aa8:	20001f48 	.word	0x20001f48
 8006aac:	20000d28 	.word	0x20000d28
 8006ab0:	080084dc 	.word	0x080084dc
 8006ab4:	20002dbc 	.word	0x20002dbc

08006ab8 <HAL_UART_TxCpltCallback>:

void HAL_UART_TxCpltCallback(UART_HandleTypeDef *huart)
{
	uart_busy = 0;
 8006ab8:	2200      	movs	r2, #0
 8006aba:	4b02      	ldr	r3, [pc, #8]	; (8006ac4 <HAL_UART_TxCpltCallback+0xc>)
 8006abc:	701a      	strb	r2, [r3, #0]
	UART_Check_Data_Ready();
 8006abe:	f7ff bf57 	b.w	8006970 <UART_Check_Data_Ready>
 8006ac2:	bf00      	nop
 8006ac4:	20000146 	.word	0x20000146

08006ac8 <HAL_CAN_RxFifo1MsgPendingCallback>:
	//HAL_GPIO_WritePin(RX_LED_GPIO_Port, RX_LED_Pin, GPIO_PIN_RESET);
}

void HAL_CAN_RxFifo1MsgPendingCallback(CAN_HandleTypeDef *hcan)
{
 8006ac8:	b570      	push	{r4, r5, r6, lr}
	HAL_CAN_GetRxMessage(hcan, CAN_RX_FIFO1, &can_rx_buf[1].header, can_rx_buf[1].data_byte);
 8006aca:	4b1b      	ldr	r3, [pc, #108]	; (8006b38 <HAL_CAN_RxFifo1MsgPendingCallback+0x70>)
{
 8006acc:	b088      	sub	sp, #32
	HAL_CAN_GetRxMessage(hcan, CAN_RX_FIFO1, &can_rx_buf[1].header, can_rx_buf[1].data_byte);
 8006ace:	f1a3 021c 	sub.w	r2, r3, #28
 8006ad2:	2101      	movs	r1, #1
 8006ad4:	f7fa f838 	bl	8000b48 <HAL_CAN_GetRxMessage>
	can_rx_buf[1].timestamp = HAL_GetTick();
	can_rx_buf[1].bus = eeprom_settings.numBus;
	CAN_Buffer_Write_Data(can_rx_buf[1]);
 8006ad8:	466d      	mov	r5, sp
	can_rx_buf[1].timestamp = HAL_GetTick();
 8006ada:	f7f9 fe75 	bl	80007c8 <HAL_GetTick>
	can_rx_buf[1].bus = eeprom_settings.numBus;
 8006ade:	4b17      	ldr	r3, [pc, #92]	; (8006b3c <HAL_CAN_RxFifo1MsgPendingCallback+0x74>)
	can_rx_buf[1].timestamp = HAL_GetTick();
 8006ae0:	4c17      	ldr	r4, [pc, #92]	; (8006b40 <HAL_CAN_RxFifo1MsgPendingCallback+0x78>)
	can_rx_buf[1].bus = eeprom_settings.numBus;
 8006ae2:	7a1b      	ldrb	r3, [r3, #8]
	CAN_Buffer_Write_Data(can_rx_buf[1]);
 8006ae4:	f104 0640 	add.w	r6, r4, #64	; 0x40
	can_rx_buf[1].bus = eeprom_settings.numBus;
 8006ae8:	f884 3059 	strb.w	r3, [r4, #89]	; 0x59
	can_rx_buf[1].timestamp = HAL_GetTick();
 8006aec:	6320      	str	r0, [r4, #48]	; 0x30
	CAN_Buffer_Write_Data(can_rx_buf[1]);
 8006aee:	ce0f      	ldmia	r6!, {r0, r1, r2, r3}
 8006af0:	c50f      	stmia	r5!, {r0, r1, r2, r3}
 8006af2:	e896 000f 	ldmia.w	r6, {r0, r1, r2, r3}
 8006af6:	e885 000f 	stmia.w	r5, {r0, r1, r2, r3}
 8006afa:	3430      	adds	r4, #48	; 0x30
 8006afc:	e894 000f 	ldmia.w	r4, {r0, r1, r2, r3}
 8006b00:	f7fd f9a6 	bl	8003e50 <CAN_Buffer_Write_Data>
	if(conf.loger_run == true)
 8006b04:	4b0f      	ldr	r3, [pc, #60]	; (8006b44 <HAL_CAN_RxFifo1MsgPendingCallback+0x7c>)
 8006b06:	f893 302d 	ldrb.w	r3, [r3, #45]	; 0x2d
 8006b0a:	2b01      	cmp	r3, #1
 8006b0c:	d10c      	bne.n	8006b28 <HAL_CAN_RxFifo1MsgPendingCallback+0x60>
		CAN_Log_Buffer_Write_Data(can_rx_buf[1]);
 8006b0e:	466d      	mov	r5, sp
 8006b10:	f104 0610 	add.w	r6, r4, #16
 8006b14:	ce0f      	ldmia	r6!, {r0, r1, r2, r3}
 8006b16:	c50f      	stmia	r5!, {r0, r1, r2, r3}
 8006b18:	e896 000f 	ldmia.w	r6, {r0, r1, r2, r3}
 8006b1c:	e885 000f 	stmia.w	r5, {r0, r1, r2, r3}
 8006b20:	e894 000f 	ldmia.w	r4, {r0, r1, r2, r3}
 8006b24:	f7fd f9c2 	bl	8003eac <CAN_Log_Buffer_Write_Data>
	HAL_GPIO_WritePin(RX_LED_GPIO_Port, RX_LED_Pin, GPIO_PIN_SET);
 8006b28:	2201      	movs	r2, #1
 8006b2a:	2108      	movs	r1, #8
 8006b2c:	4806      	ldr	r0, [pc, #24]	; (8006b48 <HAL_CAN_RxFifo1MsgPendingCallback+0x80>)
}
 8006b2e:	b008      	add	sp, #32
 8006b30:	e8bd 4070 	ldmia.w	sp!, {r4, r5, r6, lr}
	HAL_GPIO_WritePin(RX_LED_GPIO_Port, RX_LED_Pin, GPIO_PIN_SET);
 8006b34:	f7fa bcee 	b.w	8001514 <HAL_GPIO_WritePin>
 8006b38:	20001f38 	.word	0x20001f38
 8006b3c:	20000d28 	.word	0x20000d28
 8006b40:	20001ee8 	.word	0x20001ee8
 8006b44:	20001f48 	.word	0x20001f48
 8006b48:	40010c00 	.word	0x40010c00

08006b4c <HAL_CAN_RxFifo0MsgPendingCallback>:

void HAL_CAN_RxFifo0MsgPendingCallback(CAN_HandleTypeDef *hcan)
{
 8006b4c:	b5f0      	push	{r4, r5, r6, r7, lr}
	if(HAL_CAN_GetRxMessage(hcan, CAN_RX_FIFO0, &can_rx_buf[0].header, can_rx_buf[0].data_byte) != HAL_OK) return;
 8006b4e:	4c1d      	ldr	r4, [pc, #116]	; (8006bc4 <HAL_CAN_RxFifo0MsgPendingCallback+0x78>)
{
 8006b50:	b089      	sub	sp, #36	; 0x24
	if(HAL_CAN_GetRxMessage(hcan, CAN_RX_FIFO0, &can_rx_buf[0].header, can_rx_buf[0].data_byte) != HAL_OK) return;
 8006b52:	4623      	mov	r3, r4
 8006b54:	2100      	movs	r1, #0
 8006b56:	f1a4 021c 	sub.w	r2, r4, #28
 8006b5a:	f7f9 fff5 	bl	8000b48 <HAL_CAN_GetRxMessage>
 8006b5e:	bb78      	cbnz	r0, 8006bc0 <HAL_CAN_RxFifo0MsgPendingCallback+0x74>
	can_rx_buf[0].timestamp = HAL_GetTick();
 8006b60:	f7f9 fe32 	bl	80007c8 <HAL_GetTick>
	can_rx_buf[0].bus = eeprom_settings.numBus;
	CAN_Buffer_Write_Data(can_rx_buf[0]);
 8006b64:	466e      	mov	r6, sp
	can_rx_buf[0].bus = eeprom_settings.numBus;
 8006b66:	4b18      	ldr	r3, [pc, #96]	; (8006bc8 <HAL_CAN_RxFifo0MsgPendingCallback+0x7c>)
	CAN_Buffer_Write_Data(can_rx_buf[0]);
 8006b68:	f1a4 0710 	sub.w	r7, r4, #16
	can_rx_buf[0].bus = eeprom_settings.numBus;
 8006b6c:	7a1b      	ldrb	r3, [r3, #8]
	can_rx_buf[0].timestamp = HAL_GetTick();
 8006b6e:	f844 0c20 	str.w	r0, [r4, #-32]
	can_rx_buf[0].bus = eeprom_settings.numBus;
 8006b72:	7263      	strb	r3, [r4, #9]
	CAN_Buffer_Write_Data(can_rx_buf[0]);
 8006b74:	cf0f      	ldmia	r7!, {r0, r1, r2, r3}
 8006b76:	c60f      	stmia	r6!, {r0, r1, r2, r3}
 8006b78:	e894 000f 	ldmia.w	r4, {r0, r1, r2, r3}
 8006b7c:	e886 000f 	stmia.w	r6, {r0, r1, r2, r3}
	can_rx_buf[0].timestamp = HAL_GetTick();
 8006b80:	f1a4 0520 	sub.w	r5, r4, #32
	CAN_Buffer_Write_Data(can_rx_buf[0]);
 8006b84:	e895 000f 	ldmia.w	r5, {r0, r1, r2, r3}
 8006b88:	f7fd f962 	bl	8003e50 <CAN_Buffer_Write_Data>
	if(conf.loger_run == true)
 8006b8c:	4b0f      	ldr	r3, [pc, #60]	; (8006bcc <HAL_CAN_RxFifo0MsgPendingCallback+0x80>)
 8006b8e:	f893 302d 	ldrb.w	r3, [r3, #45]	; 0x2d
 8006b92:	2b01      	cmp	r3, #1
 8006b94:	d10c      	bne.n	8006bb0 <HAL_CAN_RxFifo0MsgPendingCallback+0x64>
		CAN_Log_Buffer_Write_Data(can_rx_buf[0]);
 8006b96:	466e      	mov	r6, sp
 8006b98:	f105 0710 	add.w	r7, r5, #16
 8006b9c:	cf0f      	ldmia	r7!, {r0, r1, r2, r3}
 8006b9e:	c60f      	stmia	r6!, {r0, r1, r2, r3}
 8006ba0:	e894 000f 	ldmia.w	r4, {r0, r1, r2, r3}
 8006ba4:	e886 000f 	stmia.w	r6, {r0, r1, r2, r3}
 8006ba8:	e895 000f 	ldmia.w	r5, {r0, r1, r2, r3}
 8006bac:	f7fd f97e 	bl	8003eac <CAN_Log_Buffer_Write_Data>
	HAL_GPIO_WritePin(RX_LED_GPIO_Port, RX_LED_Pin, GPIO_PIN_SET);
 8006bb0:	2201      	movs	r2, #1
 8006bb2:	2108      	movs	r1, #8
 8006bb4:	4806      	ldr	r0, [pc, #24]	; (8006bd0 <HAL_CAN_RxFifo0MsgPendingCallback+0x84>)
}
 8006bb6:	b009      	add	sp, #36	; 0x24
 8006bb8:	e8bd 40f0 	ldmia.w	sp!, {r4, r5, r6, r7, lr}
	HAL_GPIO_WritePin(RX_LED_GPIO_Port, RX_LED_Pin, GPIO_PIN_SET);
 8006bbc:	f7fa bcaa 	b.w	8001514 <HAL_GPIO_WritePin>
}
 8006bc0:	b009      	add	sp, #36	; 0x24
 8006bc2:	bdf0      	pop	{r4, r5, r6, r7, pc}
 8006bc4:	20001f08 	.word	0x20001f08
 8006bc8:	20000d28 	.word	0x20000d28
 8006bcc:	20001f48 	.word	0x20001f48
 8006bd0:	40010c00 	.word	0x40010c00

08006bd4 <HAL_CAN_RxFifo0FullCallback>:

void HAL_CAN_RxFifo0FullCallback(CAN_HandleTypeDef *hcan)
{
	HAL_CAN_RxFifo0MsgPendingCallback(hcan);
 8006bd4:	f7ff bfba 	b.w	8006b4c <HAL_CAN_RxFifo0MsgPendingCallback>

08006bd8 <HAL_CAN_RxFifo1FullCallback>:
}

void HAL_CAN_RxFifo1FullCallback(CAN_HandleTypeDef *hcan)
{
	HAL_CAN_RxFifo1MsgPendingCallback(hcan);
 8006bd8:	f7ff bf76 	b.w	8006ac8 <HAL_CAN_RxFifo1MsgPendingCallback>

08006bdc <HAL_CAN_ErrorCallback>:
}

void HAL_CAN_ErrorCallback(CAN_HandleTypeDef *hcan)
{
	HAL_GPIO_WritePin(ERROR_LED_GPIO_Port, ERROR_LED_Pin, GPIO_PIN_SET);
 8006bdc:	2201      	movs	r2, #1
 8006bde:	f44f 7180 	mov.w	r1, #256	; 0x100
 8006be2:	4801      	ldr	r0, [pc, #4]	; (8006be8 <HAL_CAN_ErrorCallback+0xc>)
 8006be4:	f7fa bc96 	b.w	8001514 <HAL_GPIO_WritePin>
 8006be8:	40010800 	.word	0x40010800

08006bec <Save_to_File>:
	return;
}

HAL_StatusTypeDef Save_to_File(uint8_t * buf, uint32_t len)
{
 8006bec:	b513      	push	{r0, r1, r4, lr}
	unsigned int bw;
	fresult = f_write(&fil, buf, len, &bw);
 8006bee:	460a      	mov	r2, r1
 8006bf0:	ab01      	add	r3, sp, #4
{
 8006bf2:	460c      	mov	r4, r1
	fresult = f_write(&fil, buf, len, &bw);
 8006bf4:	4601      	mov	r1, r0
 8006bf6:	4807      	ldr	r0, [pc, #28]	; (8006c14 <Save_to_File+0x28>)
 8006bf8:	f7fc fe1f 	bl	800383a <f_write>
 8006bfc:	4b06      	ldr	r3, [pc, #24]	; (8006c18 <Save_to_File+0x2c>)
 8006bfe:	7018      	strb	r0, [r3, #0]
	if(fresult == FR_OK && bw == len) return HAL_OK;
 8006c00:	b928      	cbnz	r0, 8006c0e <Save_to_File+0x22>
	else return HAL_ERROR;
 8006c02:	9801      	ldr	r0, [sp, #4]
 8006c04:	1b00      	subs	r0, r0, r4
 8006c06:	bf18      	it	ne
 8006c08:	2001      	movne	r0, #1
}
 8006c0a:	b002      	add	sp, #8
 8006c0c:	bd10      	pop	{r4, pc}
	else return HAL_ERROR;
 8006c0e:	2001      	movs	r0, #1
 8006c10:	e7fb      	b.n	8006c0a <Save_to_File+0x1e>
 8006c12:	bf00      	nop
 8006c14:	20002afc 	.word	0x20002afc
 8006c18:	20000119 	.word	0x20000119

08006c1c <SystemClock_Config>:
/**
  * @brief System Clock Configuration
  * @retval None
  */
void SystemClock_Config(void)
{
 8006c1c:	b570      	push	{r4, r5, r6, lr}
  RCC_OscInitTypeDef RCC_OscInitStruct = {0};
  RCC_ClkInitTypeDef RCC_ClkInitStruct = {0};
 8006c1e:	2214      	movs	r2, #20
  RCC_OscInitTypeDef RCC_OscInitStruct = {0};
 8006c20:	2400      	movs	r4, #0
{
 8006c22:	b094      	sub	sp, #80	; 0x50
  RCC_ClkInitTypeDef RCC_ClkInitStruct = {0};
 8006c24:	4621      	mov	r1, r4
 8006c26:	eb0d 0002 	add.w	r0, sp, r2
  RCC_OscInitTypeDef RCC_OscInitStruct = {0};
 8006c2a:	e9cd 440f 	strd	r4, r4, [sp, #60]	; 0x3c
  RCC_ClkInitTypeDef RCC_ClkInitStruct = {0};
 8006c2e:	f000 ff81 	bl	8007b34 <memset>
  RCC_PeriphCLKInitTypeDef PeriphClkInit = {0};
 8006c32:	4621      	mov	r1, r4
 8006c34:	2210      	movs	r2, #16
 8006c36:	a801      	add	r0, sp, #4
 8006c38:	f000 ff7c 	bl	8007b34 <memset>
  RCC_OscInitStruct.OscillatorType = RCC_OSCILLATORTYPE_HSE|RCC_OSCILLATORTYPE_LSE;
  RCC_OscInitStruct.HSEState = RCC_HSE_ON;
  RCC_OscInitStruct.HSEPredivValue = RCC_HSE_PREDIV_DIV1;
  RCC_OscInitStruct.LSEState = RCC_LSE_ON;
  RCC_OscInitStruct.HSIState = RCC_HSI_ON;
  RCC_OscInitStruct.PLL.PLLState = RCC_PLL_ON;
 8006c3c:	2602      	movs	r6, #2
  RCC_OscInitStruct.HSEState = RCC_HSE_ON;
 8006c3e:	2205      	movs	r2, #5
 8006c40:	f44f 3380 	mov.w	r3, #65536	; 0x10000
  RCC_OscInitStruct.LSEState = RCC_LSE_ON;
 8006c44:	2501      	movs	r5, #1
  RCC_OscInitStruct.HSEState = RCC_HSE_ON;
 8006c46:	e9cd 230a 	strd	r2, r3, [sp, #40]	; 0x28
  RCC_OscInitStruct.PLL.PLLSource = RCC_PLLSOURCE_HSE;
 8006c4a:	e9cd 6311 	strd	r6, r3, [sp, #68]	; 0x44
  RCC_OscInitStruct.PLL.PLLMUL = RCC_PLL_MUL9;
 8006c4e:	f44f 13e0 	mov.w	r3, #1835008	; 0x1c0000
  if (HAL_RCC_OscConfig(&RCC_OscInitStruct) != HAL_OK)
 8006c52:	a80a      	add	r0, sp, #40	; 0x28
  RCC_OscInitStruct.PLL.PLLMUL = RCC_PLL_MUL9;
 8006c54:	9313      	str	r3, [sp, #76]	; 0x4c
  RCC_OscInitStruct.HSIState = RCC_HSI_ON;
 8006c56:	e9cd 550d 	strd	r5, r5, [sp, #52]	; 0x34
  RCC_OscInitStruct.HSEPredivValue = RCC_HSE_PREDIV_DIV1;
 8006c5a:	940c      	str	r4, [sp, #48]	; 0x30
  if (HAL_RCC_OscConfig(&RCC_OscInitStruct) != HAL_OK)
 8006c5c:	f7fa fc6c 	bl	8001538 <HAL_RCC_OscConfig>
  {
    Error_Handler();
  }
  /** Initializes the CPU, AHB and APB buses clocks
  */
  RCC_ClkInitStruct.ClockType = RCC_CLOCKTYPE_HCLK|RCC_CLOCKTYPE_SYSCLK
 8006c60:	230f      	movs	r3, #15
                              |RCC_CLOCKTYPE_PCLK1|RCC_CLOCKTYPE_PCLK2;
  RCC_ClkInitStruct.SYSCLKSource = RCC_SYSCLKSOURCE_PLLCLK;
 8006c62:	e9cd 3605 	strd	r3, r6, [sp, #20]
  RCC_ClkInitStruct.AHBCLKDivider = RCC_SYSCLK_DIV1;
  RCC_ClkInitStruct.APB1CLKDivider = RCC_HCLK_DIV2;
 8006c66:	f44f 6380 	mov.w	r3, #1024	; 0x400
  RCC_ClkInitStruct.APB2CLKDivider = RCC_HCLK_DIV1;

  if (HAL_RCC_ClockConfig(&RCC_ClkInitStruct, FLASH_LATENCY_2) != HAL_OK)
 8006c6a:	4631      	mov	r1, r6
 8006c6c:	a805      	add	r0, sp, #20
  RCC_ClkInitStruct.APB2CLKDivider = RCC_HCLK_DIV1;
 8006c6e:	e9cd 3408 	strd	r3, r4, [sp, #32]
  RCC_ClkInitStruct.AHBCLKDivider = RCC_SYSCLK_DIV1;
 8006c72:	9407      	str	r4, [sp, #28]
  if (HAL_RCC_ClockConfig(&RCC_ClkInitStruct, FLASH_LATENCY_2) != HAL_OK)
 8006c74:	f7fa fe36 	bl	80018e4 <HAL_RCC_ClockConfig>
  {
    Error_Handler();
  }
  PeriphClkInit.PeriphClockSelection = RCC_PERIPHCLK_RTC;
  PeriphClkInit.RTCClockSelection = RCC_RTCCLKSOURCE_LSE;
 8006c78:	f44f 7380 	mov.w	r3, #256	; 0x100
  if (HAL_RCCEx_PeriphCLKConfig(&PeriphClkInit) != HAL_OK)
 8006c7c:	a801      	add	r0, sp, #4
  PeriphClkInit.PeriphClockSelection = RCC_PERIPHCLK_RTC;
 8006c7e:	9501      	str	r5, [sp, #4]
  PeriphClkInit.RTCClockSelection = RCC_RTCCLKSOURCE_LSE;
 8006c80:	9302      	str	r3, [sp, #8]
  if (HAL_RCCEx_PeriphCLKConfig(&PeriphClkInit) != HAL_OK)
 8006c82:	f7fa feeb 	bl	8001a5c <HAL_RCCEx_PeriphCLKConfig>
  {
    Error_Handler();
  }
}
 8006c86:	b014      	add	sp, #80	; 0x50
 8006c88:	bd70      	pop	{r4, r5, r6, pc}
	...

08006c8c <main>:
{
 8006c8c:	e92d 4ff0 	stmdb	sp!, {r4, r5, r6, r7, r8, r9, sl, fp, lr}
 8006c90:	b089      	sub	sp, #36	; 0x24
	CAN_Buffer_Init();
 8006c92:	f7fd f84f 	bl	8003d34 <CAN_Buffer_Init>
  huart_active = &huart3;
 8006c96:	4e96      	ldr	r6, [pc, #600]	; (8006ef0 <main+0x264>)
  HAL_Init();
 8006c98:	f7f9 fd78 	bl	800078c <HAL_Init>
  huart_active = &huart3;
 8006c9c:	4b95      	ldr	r3, [pc, #596]	; (8006ef4 <main+0x268>)
  huart_lin = &huart1;
 8006c9e:	4a96      	ldr	r2, [pc, #600]	; (8006ef8 <main+0x26c>)
  huart_active = &huart3;
 8006ca0:	601e      	str	r6, [r3, #0]
  huart_lin = &huart1;
 8006ca2:	4b96      	ldr	r3, [pc, #600]	; (8006efc <main+0x270>)
  EEPROM_Read(&hspi2, EEPROM_SETINGS_ADDR, (uint8_t*)&eeprom_settings, sizeof(eeprom_settings));
 8006ca4:	4c96      	ldr	r4, [pc, #600]	; (8006f00 <main+0x274>)
  huart_lin = &huart1;
 8006ca6:	601a      	str	r2, [r3, #0]
  SystemClock_Config();
 8006ca8:	f7ff ffb8 	bl	8006c1c <SystemClock_Config>
  MX_GPIO_Init();
 8006cac:	f7ff fdb8 	bl	8006820 <MX_GPIO_Init>
  MX_DMA_Init();
 8006cb0:	f7ff f960 	bl	8005f74 <MX_DMA_Init>
  MX_RTC_Init();
 8006cb4:	f000 fb6e 	bl	8007394 <MX_RTC_Init>
  MX_USART3_UART_Init();
 8006cb8:	f000 fd88 	bl	80077cc <MX_USART3_UART_Init>
  MX_USART2_UART_Init();
 8006cbc:	f000 fd6a 	bl	8007794 <MX_USART2_UART_Init>
  MX_USART1_UART_Init();
 8006cc0:	f000 fd4e 	bl	8007760 <MX_USART1_UART_Init>
  MX_CAN_Init();
 8006cc4:	f7ff f8d2 	bl	8005e6c <MX_CAN_Init>
  MX_SPI2_Init();
 8006cc8:	f000 fbba 	bl	8007440 <MX_SPI2_Init>
  MX_FATFS_Init();
 8006ccc:	f7ff fa92 	bl	80061f4 <MX_FATFS_Init>
  MX_SPI1_Init();
 8006cd0:	f000 fb94 	bl	80073fc <MX_SPI1_Init>
  HAL_Delay(100);
 8006cd4:	2064      	movs	r0, #100	; 0x64
 8006cd6:	f7f9 fd7d 	bl	80007d4 <HAL_Delay>
  EEPROM_Write_disable(&hspi2, 1000);
 8006cda:	f44f 717a 	mov.w	r1, #1000	; 0x3e8
 8006cde:	4889      	ldr	r0, [pc, #548]	; (8006f04 <main+0x278>)
 8006ce0:	f7ff f970 	bl	8005fc4 <EEPROM_Write_disable>
  volatile boolean first = false;
 8006ce4:	2100      	movs	r1, #0
  EEPROM_Read(&hspi2, EEPROM_SETINGS_ADDR, (uint8_t*)&eeprom_settings, sizeof(eeprom_settings));
 8006ce6:	2368      	movs	r3, #104	; 0x68
 8006ce8:	4622      	mov	r2, r4
 8006cea:	4886      	ldr	r0, [pc, #536]	; (8006f04 <main+0x278>)
  volatile boolean first = false;
 8006cec:	f88d 101e 	strb.w	r1, [sp, #30]
  EEPROM_Read(&hspi2, EEPROM_SETINGS_ADDR, (uint8_t*)&eeprom_settings, sizeof(eeprom_settings));
 8006cf0:	f7ff f9be 	bl	8006070 <EEPROM_Read>
  if(eeprom_settings.version == 0xFFFF || eeprom_settings.version < EEPROM_VERSION) {eeprom_settings.version = EEPROM_VERSION; first = true;}
 8006cf4:	f64f 72ff 	movw	r2, #65535	; 0xffff
 8006cf8:	8823      	ldrh	r3, [r4, #0]
 8006cfa:	b29b      	uxth	r3, r3
 8006cfc:	4293      	cmp	r3, r2
 8006cfe:	d002      	beq.n	8006d06 <main+0x7a>
 8006d00:	8823      	ldrh	r3, [r4, #0]
 8006d02:	b29b      	uxth	r3, r3
 8006d04:	b91b      	cbnz	r3, 8006d0e <main+0x82>
 8006d06:	2301      	movs	r3, #1
 8006d08:	8023      	strh	r3, [r4, #0]
 8006d0a:	f88d 301e 	strb.w	r3, [sp, #30]
  if(eeprom_settings.eeprom_size == 0xFFFF) {eeprom_settings.eeprom_size = EEPROM_SIZE; first = true;}
 8006d0e:	f64f 72ff 	movw	r2, #65535	; 0xffff
 8006d12:	8863      	ldrh	r3, [r4, #2]
	  if(eeprom_settings.CAN_mode[i] == 0xFFFFFFFF) {eeprom_settings.CAN_mode[i] = CAN_MODE_SILENT; first = true;}
 8006d14:	f04f 4100 	mov.w	r1, #2147483648	; 0x80000000
  if(eeprom_settings.eeprom_size == 0xFFFF) {eeprom_settings.eeprom_size = EEPROM_SIZE; first = true;}
 8006d18:	b29b      	uxth	r3, r3
 8006d1a:	4293      	cmp	r3, r2
 8006d1c:	bf01      	itttt	eq
 8006d1e:	f44f 5300 	moveq.w	r3, #8192	; 0x2000
 8006d22:	8063      	strheq	r3, [r4, #2]
 8006d24:	2301      	moveq	r3, #1
 8006d26:	f88d 301e 	strbeq.w	r3, [sp, #30]
  if(eeprom_settings.number_of_busses == 0xFF) {eeprom_settings.number_of_busses = 4; first = true;}
 8006d2a:	7923      	ldrb	r3, [r4, #4]
  if(eeprom_settings.start_address_csript == 0xFFFF) {eeprom_settings.start_address_csript = EEPROM_SCRIPT_ADDR; first = true;}
 8006d2c:	f64f 72ff 	movw	r2, #65535	; 0xffff
  if(eeprom_settings.number_of_busses == 0xFF) {eeprom_settings.number_of_busses = 4; first = true;}
 8006d30:	2bff      	cmp	r3, #255	; 0xff
 8006d32:	bf01      	itttt	eq
 8006d34:	2304      	moveq	r3, #4
 8006d36:	7123      	strbeq	r3, [r4, #4]
 8006d38:	2301      	moveq	r3, #1
 8006d3a:	f88d 301e 	strbeq.w	r3, [sp, #30]
  if(eeprom_settings.start_address_csript == 0xFFFF) {eeprom_settings.start_address_csript = EEPROM_SCRIPT_ADDR; first = true;}
 8006d3e:	88e3      	ldrh	r3, [r4, #6]
	  if(eeprom_settings.CAN_mode[i] == 0xFFFFFFFF) {eeprom_settings.CAN_mode[i] = CAN_MODE_SILENT; first = true;}
 8006d40:	2001      	movs	r0, #1
  if(eeprom_settings.start_address_csript == 0xFFFF) {eeprom_settings.start_address_csript = EEPROM_SCRIPT_ADDR; first = true;}
 8006d42:	b29b      	uxth	r3, r3
 8006d44:	4293      	cmp	r3, r2
 8006d46:	bf01      	itttt	eq
 8006d48:	f44f 7380 	moveq.w	r3, #256	; 0x100
 8006d4c:	80e3      	strheq	r3, [r4, #6]
 8006d4e:	2301      	moveq	r3, #1
 8006d50:	f88d 301e 	strbeq.w	r3, [sp, #30]
  if(eeprom_settings.numBus == 0xFF) {eeprom_settings.numBus = 0; first = true;}
 8006d54:	7a23      	ldrb	r3, [r4, #8]
 8006d56:	2bff      	cmp	r3, #255	; 0xff
 8006d58:	bf01      	itttt	eq
 8006d5a:	2300      	moveq	r3, #0
 8006d5c:	7223      	strbeq	r3, [r4, #8]
 8006d5e:	2301      	moveq	r3, #1
 8006d60:	f88d 301e 	strbeq.w	r3, [sp, #30]
  if(eeprom_settings.CAN_Speed[0] == 0xFFFFFFFF) {eeprom_settings.CAN_Speed[0] = 500000; first = true;}
 8006d64:	68e3      	ldr	r3, [r4, #12]
 8006d66:	3301      	adds	r3, #1
 8006d68:	bf01      	itttt	eq
 8006d6a:	4b67      	ldreq	r3, [pc, #412]	; (8006f08 <main+0x27c>)
 8006d6c:	60e3      	streq	r3, [r4, #12]
 8006d6e:	2301      	moveq	r3, #1
 8006d70:	f88d 301e 	strbeq.w	r3, [sp, #30]
  if(eeprom_settings.CAN_Speed[1] == 0xFFFFFFFF) {eeprom_settings.CAN_Speed[1] = 125000; first = true;}
 8006d74:	6923      	ldr	r3, [r4, #16]
 8006d76:	3301      	adds	r3, #1
 8006d78:	bf01      	itttt	eq
 8006d7a:	4b64      	ldreq	r3, [pc, #400]	; (8006f0c <main+0x280>)
 8006d7c:	6123      	streq	r3, [r4, #16]
 8006d7e:	2301      	moveq	r3, #1
 8006d80:	f88d 301e 	strbeq.w	r3, [sp, #30]
  if(eeprom_settings.CAN_Speed[2] == 0xFFFFFFFF) {eeprom_settings.CAN_Speed[2] = 33333; first = true;}
 8006d84:	6963      	ldr	r3, [r4, #20]
 8006d86:	3301      	adds	r3, #1
 8006d88:	bf01      	itttt	eq
 8006d8a:	f248 2335 	movweq	r3, #33333	; 0x8235
 8006d8e:	6163      	streq	r3, [r4, #20]
 8006d90:	2301      	moveq	r3, #1
 8006d92:	f88d 301e 	strbeq.w	r3, [sp, #30]
  if(eeprom_settings.CAN_Speed[3] == 0xFFFFFFFF) {eeprom_settings.CAN_Speed[3] = 10417; first = true;}
 8006d96:	69a3      	ldr	r3, [r4, #24]
 8006d98:	3301      	adds	r3, #1
 8006d9a:	bf01      	itttt	eq
 8006d9c:	f642 03b1 	movweq	r3, #10417	; 0x28b1
 8006da0:	61a3      	streq	r3, [r4, #24]
 8006da2:	2301      	moveq	r3, #1
 8006da4:	f88d 301e 	strbeq.w	r3, [sp, #30]
{
 8006da8:	2300      	movs	r3, #0
	  if(eeprom_settings.CAN_mode[i] == 0xFFFFFFFF) {eeprom_settings.CAN_mode[i] = CAN_MODE_SILENT; first = true;}
 8006daa:	f103 020c 	add.w	r2, r3, #12
 8006dae:	eb04 0282 	add.w	r2, r4, r2, lsl #2
 8006db2:	6855      	ldr	r5, [r2, #4]
  for(int i=0; i<4;i++)
 8006db4:	3301      	adds	r3, #1
	  if(eeprom_settings.CAN_mode[i] == 0xFFFFFFFF) {eeprom_settings.CAN_mode[i] = CAN_MODE_SILENT; first = true;}
 8006db6:	3501      	adds	r5, #1
 8006db8:	bf04      	itt	eq
 8006dba:	6051      	streq	r1, [r2, #4]
 8006dbc:	f88d 001e 	strbeq.w	r0, [sp, #30]
  for(int i=0; i<4;i++)
 8006dc0:	2b04      	cmp	r3, #4
 8006dc2:	d1f2      	bne.n	8006daa <main+0x11e>
  if(eeprom_settings.UART_Speed == 0xFFFF) {eeprom_settings.UART_Speed = 115200; first = true;}
 8006dc4:	f64f 73ff 	movw	r3, #65535	; 0xffff
 8006dc8:	6de2      	ldr	r2, [r4, #92]	; 0x5c
 8006dca:	429a      	cmp	r2, r3
 8006dcc:	bf01      	itttt	eq
 8006dce:	f44f 33e1 	moveq.w	r3, #115200	; 0x1c200
 8006dd2:	65e3      	streq	r3, [r4, #92]	; 0x5c
 8006dd4:	2301      	moveq	r3, #1
 8006dd6:	f88d 301e 	strbeq.w	r3, [sp, #30]
  if(eeprom_settings.fileOutputType > 10) {eeprom_settings.fileOutputType = CRTD_FILE; first = true;}
 8006dda:	f894 3064 	ldrb.w	r3, [r4, #100]	; 0x64
 8006dde:	2b0a      	cmp	r3, #10
 8006de0:	bf81      	itttt	hi
 8006de2:	2303      	movhi	r3, #3
 8006de4:	f884 3064 	strbhi.w	r3, [r4, #100]	; 0x64
 8006de8:	2301      	movhi	r3, #1
 8006dea:	f88d 301e 	strbhi.w	r3, [sp, #30]
  if(eeprom_settings.SD_autoconnect > 10) {eeprom_settings.SD_autoconnect = 0; first = true;}
 8006dee:	f894 3065 	ldrb.w	r3, [r4, #101]	; 0x65
 8006df2:	2b0a      	cmp	r3, #10
 8006df4:	bf81      	itttt	hi
 8006df6:	2300      	movhi	r3, #0
 8006df8:	f884 3065 	strbhi.w	r3, [r4, #101]	; 0x65
 8006dfc:	2301      	movhi	r3, #1
 8006dfe:	f88d 301e 	strbhi.w	r3, [sp, #30]
  if(first == true) EEPROM_Write(&hspi2, EEPROM_SETINGS_ADDR, (uint8_t*)&eeprom_settings, sizeof(eeprom_settings));
 8006e02:	f89d 301e 	ldrb.w	r3, [sp, #30]
 8006e06:	2b01      	cmp	r3, #1
 8006e08:	d105      	bne.n	8006e16 <main+0x18a>
 8006e0a:	2368      	movs	r3, #104	; 0x68
 8006e0c:	2100      	movs	r1, #0
 8006e0e:	4a3c      	ldr	r2, [pc, #240]	; (8006f00 <main+0x274>)
 8006e10:	483c      	ldr	r0, [pc, #240]	; (8006f04 <main+0x278>)
 8006e12:	f7ff f967 	bl	80060e4 <EEPROM_Write>
  if(HAL_GPIO_ReadPin(BOOT1_GPIO_Port, BOOT1_Pin) == 1)
 8006e16:	2104      	movs	r1, #4
 8006e18:	483d      	ldr	r0, [pc, #244]	; (8006f10 <main+0x284>)
 8006e1a:	f7fa fb75 	bl	8001508 <HAL_GPIO_ReadPin>
 8006e1e:	2801      	cmp	r0, #1
 8006e20:	d102      	bne.n	8006e28 <main+0x19c>
	  huart3.Init.BaudRate = (eeprom_settings.UART_Speed > 0 && eeprom_settings.UART_Speed < 10000000) ? eeprom_settings.UART_Speed : 115200;
 8006e22:	f44f 33e1 	mov.w	r3, #115200	; 0x1c200
 8006e26:	e007      	b.n	8006e38 <main+0x1ac>
 8006e28:	6de3      	ldr	r3, [r4, #92]	; 0x5c
 8006e2a:	2b00      	cmp	r3, #0
 8006e2c:	d0f9      	beq.n	8006e22 <main+0x196>
 8006e2e:	6de2      	ldr	r2, [r4, #92]	; 0x5c
 8006e30:	4b38      	ldr	r3, [pc, #224]	; (8006f14 <main+0x288>)
 8006e32:	429a      	cmp	r2, r3
 8006e34:	d2f5      	bcs.n	8006e22 <main+0x196>
 8006e36:	6de3      	ldr	r3, [r4, #92]	; 0x5c
  HAL_UART_Init(&huart3);
 8006e38:	482d      	ldr	r0, [pc, #180]	; (8006ef0 <main+0x264>)
	  huart3.Init.BaudRate = (eeprom_settings.UART_Speed > 0 && eeprom_settings.UART_Speed < 10000000) ? eeprom_settings.UART_Speed : 115200;
 8006e3a:	6073      	str	r3, [r6, #4]
  HAL_UART_Init(&huart3);
 8006e3c:	f7fb fab2 	bl	80023a4 <HAL_UART_Init>
  if(eeprom_settings.SD_autoconnect == 1)
 8006e40:	f894 3065 	ldrb.w	r3, [r4, #101]	; 0x65
 8006e44:	4d34      	ldr	r5, [pc, #208]	; (8006f18 <main+0x28c>)
 8006e46:	2b01      	cmp	r3, #1
 8006e48:	fa5f f883 	uxtb.w	r8, r3
 8006e4c:	d17b      	bne.n	8006f46 <main+0x2ba>
		fresult = f_mount(&fs, "0:", 1);
 8006e4e:	4642      	mov	r2, r8
 8006e50:	4932      	ldr	r1, [pc, #200]	; (8006f1c <main+0x290>)
 8006e52:	4833      	ldr	r0, [pc, #204]	; (8006f20 <main+0x294>)
 8006e54:	f7fc fb34 	bl	80034c0 <f_mount>
 8006e58:	4f32      	ldr	r7, [pc, #200]	; (8006f24 <main+0x298>)
 8006e5a:	7038      	strb	r0, [r7, #0]
		if(fresult == FR_OK)
 8006e5c:	2800      	cmp	r0, #0
 8006e5e:	f040 80c7 	bne.w	8006ff0 <main+0x364>
			fresult = f_open(&fil, "script.txt", FA_READ);
 8006e62:	4642      	mov	r2, r8
 8006e64:	4930      	ldr	r1, [pc, #192]	; (8006f28 <main+0x29c>)
 8006e66:	4831      	ldr	r0, [pc, #196]	; (8006f2c <main+0x2a0>)
			conf.sd_card_avalible = true;
 8006e68:	f885 802c 	strb.w	r8, [r5, #44]	; 0x2c
			fresult = f_open(&fil, "script.txt", FA_READ);
 8006e6c:	f7fc fb5e 	bl	800352c <f_open>
 8006e70:	7038      	strb	r0, [r7, #0]
			if(fresult == FR_OK)
 8006e72:	2800      	cmp	r0, #0
 8006e74:	d167      	bne.n	8006f46 <main+0x2ba>
					if(f_gets((char*)script_read_buf, sizeof(script_read_buf), &fil) != 0)
 8006e76:	f8df 80bc 	ldr.w	r8, [pc, #188]	; 8006f34 <main+0x2a8>
							if(script_read_buf[i] == ' ' || script_read_buf[i] == '#' || script_read_buf[i] == '\r')
 8006e7a:	4f2d      	ldr	r7, [pc, #180]	; (8006f30 <main+0x2a4>)
					if(f_gets((char*)script_read_buf, sizeof(script_read_buf), &fil) != 0)
 8006e7c:	f44f 6180 	mov.w	r1, #1024	; 0x400
 8006e80:	4a2a      	ldr	r2, [pc, #168]	; (8006f2c <main+0x2a0>)
 8006e82:	482c      	ldr	r0, [pc, #176]	; (8006f34 <main+0x2a8>)
 8006e84:	f7fc ff0b 	bl	8003c9e <f_gets>
 8006e88:	2800      	cmp	r0, #0
 8006e8a:	d055      	beq.n	8006f38 <main+0x2ac>
						uint8_t str_len = strlen((char*)script_read_buf);
 8006e8c:	4640      	mov	r0, r8
 8006e8e:	f7f9 f95d 	bl	800014c <strlen>
						for(int i = 0; i < str_len; i++)
 8006e92:	2200      	movs	r2, #0
 8006e94:	f8df c09c 	ldr.w	ip, [pc, #156]	; 8006f34 <main+0x2a8>
 8006e98:	b2c1      	uxtb	r1, r0
 8006e9a:	4291      	cmp	r1, r2
 8006e9c:	dd0e      	ble.n	8006ebc <main+0x230>
							if(script_read_buf[i] == ' ' || script_read_buf[i] == '#' || script_read_buf[i] == '\r')
 8006e9e:	f81c 3b01 	ldrb.w	r3, [ip], #1
 8006ea2:	1c50      	adds	r0, r2, #1
 8006ea4:	3b0d      	subs	r3, #13
 8006ea6:	b2db      	uxtb	r3, r3
 8006ea8:	2b16      	cmp	r3, #22
 8006eaa:	d816      	bhi.n	8006eda <main+0x24e>
 8006eac:	fa27 f303 	lsr.w	r3, r7, r3
 8006eb0:	07db      	lsls	r3, r3, #31
 8006eb2:	d512      	bpl.n	8006eda <main+0x24e>
								script_read_buf[i] = '\r';
 8006eb4:	230d      	movs	r3, #13
								str_len = i + 1;
 8006eb6:	b2c1      	uxtb	r1, r0
								script_read_buf[i] = '\r';
 8006eb8:	f808 3002 	strb.w	r3, [r8, r2]
						if(script_read_buf[str_len-1] == '\n') script_read_buf[str_len-1] = '\r';
 8006ebc:	1e4a      	subs	r2, r1, #1
 8006ebe:	f818 3002 	ldrb.w	r3, [r8, r2]
 8006ec2:	468c      	mov	ip, r1
 8006ec4:	2b0a      	cmp	r3, #10
 8006ec6:	d10a      	bne.n	8006ede <main+0x252>
 8006ec8:	230d      	movs	r3, #13
 8006eca:	f808 3002 	strb.w	r3, [r8, r2]
						if(str_len > 1)
 8006ece:	2901      	cmp	r1, #1
 8006ed0:	d9d4      	bls.n	8006e7c <main+0x1f0>
							copy_script(script_read_buf, str_len);
 8006ed2:	4640      	mov	r0, r8
 8006ed4:	f7fd fa7a 	bl	80043cc <copy_script>
 8006ed8:	e7d0      	b.n	8006e7c <main+0x1f0>
						for(int i = 0; i < str_len; i++)
 8006eda:	4602      	mov	r2, r0
 8006edc:	e7dd      	b.n	8006e9a <main+0x20e>
						else if(script_read_buf[str_len-1] != '\r') script_read_buf[str_len++] = '\r';
 8006ede:	2b0d      	cmp	r3, #13
 8006ee0:	bf1f      	itttt	ne
 8006ee2:	230d      	movne	r3, #13
 8006ee4:	3101      	addne	r1, #1
 8006ee6:	b2c9      	uxtbne	r1, r1
 8006ee8:	f808 300c 	strbne.w	r3, [r8, ip]
 8006eec:	e7ef      	b.n	8006ece <main+0x242>
 8006eee:	bf00      	nop
 8006ef0:	20002e70 	.word	0x20002e70
 8006ef4:	20002af4 	.word	0x20002af4
 8006ef8:	20002f7c 	.word	0x20002f7c
 8006efc:	20002af8 	.word	0x20002af8
 8006f00:	20000d28 	.word	0x20000d28
 8006f04:	20002dbc 	.word	0x20002dbc
 8006f08:	0007a120 	.word	0x0007a120
 8006f0c:	0001e848 	.word	0x0001e848
 8006f10:	40010c00 	.word	0x40010c00
 8006f14:	00989680 	.word	0x00989680
 8006f18:	20001f48 	.word	0x20001f48
 8006f1c:	080084d9 	.word	0x080084d9
 8006f20:	20001f9c 	.word	0x20001f9c
 8006f24:	20000119 	.word	0x20000119
 8006f28:	080089d3 	.word	0x080089d3
 8006f2c:	20002afc 	.word	0x20002afc
 8006f30:	00480001 	.word	0x00480001
 8006f34:	200025eb 	.word	0x200025eb
						script_read_buf[0] = 0xFF;
 8006f38:	23ff      	movs	r3, #255	; 0xff
						copy_script(script_read_buf, 1);
 8006f3a:	2101      	movs	r1, #1
 8006f3c:	48bd      	ldr	r0, [pc, #756]	; (8007234 <main+0x5a8>)
						script_read_buf[0] = 0xFF;
 8006f3e:	f888 3000 	strb.w	r3, [r8]
						copy_script(script_read_buf, 1);
 8006f42:	f7fd fa43 	bl	80043cc <copy_script>
  conf.script_run = true;
 8006f46:	2301      	movs	r3, #1
  conf.script_address = eeprom_settings.start_address_csript;
 8006f48:	88e2      	ldrh	r2, [r4, #6]
  conf.script_run = true;
 8006f4a:	722b      	strb	r3, [r5, #8]
  conf.script_address = eeprom_settings.start_address_csript;
 8006f4c:	816a      	strh	r2, [r5, #10]
  conf.scpipt_saving = false;
 8006f4e:	2300      	movs	r3, #0
  conf.script_loop_address = 0xFFFF;
 8006f50:	f64f 72ff 	movw	r2, #65535	; 0xffff
  SetFilterCAN(0,0,CAN_FILTERMODE_IDMASK,0);
 8006f54:	4619      	mov	r1, r3
 8006f56:	4618      	mov	r0, r3
  conf.script_loop_address = 0xFFFF;
 8006f58:	81aa      	strh	r2, [r5, #12]
  SetFilterCAN(0,0,CAN_FILTERMODE_IDMASK,0);
 8006f5a:	461a      	mov	r2, r3
  conf.scpipt_saving = false;
 8006f5c:	71eb      	strb	r3, [r5, #7]
  SetFilterCAN(0,0,CAN_FILTERMODE_IDMASK,0);
 8006f5e:	f7fd f9dd 	bl	800431c <SetFilterCAN>
  Change_CAN_channel();
 8006f62:	f7fd faf7 	bl	8004554 <Change_CAN_channel>
  __HAL_UART_ENABLE_IT(&huart3, UART_IT_ERR);
 8006f66:	6833      	ldr	r3, [r6, #0]
			if(HAL_GetTick() - time_stamp_SAVE >= LOG_FILE_SAVE_TIMEOUT
 8006f68:	4fb3      	ldr	r7, [pc, #716]	; (8007238 <main+0x5ac>)
  __HAL_UART_ENABLE_IT(&huart3, UART_IT_ERR);
 8006f6a:	695a      	ldr	r2, [r3, #20]
		if(HAL_GPIO_ReadPin(TX_LED_GPIO_Port, TX_LED_Pin) == GPIO_PIN_SET)
 8006f6c:	4eb3      	ldr	r6, [pc, #716]	; (800723c <main+0x5b0>)
  __HAL_UART_ENABLE_IT(&huart3, UART_IT_ERR);
 8006f6e:	f042 0201 	orr.w	r2, r2, #1
 8006f72:	615a      	str	r2, [r3, #20]
  __HAL_UART_ENABLE_IT(&huart3, UART_IT_RXNE);
 8006f74:	68da      	ldr	r2, [r3, #12]
 8006f76:	f042 0220 	orr.w	r2, r2, #32
 8006f7a:	60da      	str	r2, [r3, #12]
	  while(uart_rx_pointer_r != uart_rx_pointer_w) // Buffer UART RX reading
 8006f7c:	4ab0      	ldr	r2, [pc, #704]	; (8007240 <main+0x5b4>)
 8006f7e:	49b1      	ldr	r1, [pc, #708]	; (8007244 <main+0x5b8>)
 8006f80:	6813      	ldr	r3, [r2, #0]
 8006f82:	6809      	ldr	r1, [r1, #0]
 8006f84:	428b      	cmp	r3, r1
 8006f86:	d13c      	bne.n	8007002 <main+0x376>
	  if(conf.script_run == true)
 8006f88:	7a2b      	ldrb	r3, [r5, #8]
 8006f8a:	2b01      	cmp	r3, #1
 8006f8c:	f040 814f 	bne.w	800722e <main+0x5a2>
		  if(conf.script_delay_active && HAL_GetTick() - conf.script_timestamp < conf.script_delay)
 8006f90:	7e2b      	ldrb	r3, [r5, #24]
 8006f92:	2b00      	cmp	r3, #0
 8006f94:	d13e      	bne.n	8007014 <main+0x388>
			  conf.script_delay_active = false;
 8006f96:	f04f 0800 	mov.w	r8, #0
			  EEPROM_Read(&hspi2, conf.script_address, &in_byte, 1);
 8006f9a:	f10d 021f 	add.w	r2, sp, #31
 8006f9e:	2301      	movs	r3, #1
 8006fa0:	8969      	ldrh	r1, [r5, #10]
 8006fa2:	48a9      	ldr	r0, [pc, #676]	; (8007248 <main+0x5bc>)
			  conf.script_delay_active = false;
 8006fa4:	f885 8018 	strb.w	r8, [r5, #24]
			  EEPROM_Read(&hspi2, conf.script_address, &in_byte, 1);
 8006fa8:	f7ff f862 	bl	8006070 <EEPROM_Read>
			  if(in_byte == CR)
 8006fac:	f89d 201f 	ldrb.w	r2, [sp, #31]
 8006fb0:	f8df 92c4 	ldr.w	r9, [pc, #708]	; 8007278 <main+0x5ec>
 8006fb4:	2a0d      	cmp	r2, #13
 8006fb6:	f040 8114 	bne.w	80071e2 <main+0x556>
				  exec_usb_cmd(script_buf);
 8006fba:	f8df a2b8 	ldr.w	sl, [pc, #696]	; 8007274 <main+0x5e8>
 8006fbe:	4650      	mov	r0, sl
 8006fc0:	f7fd fc7a 	bl	80048b8 <exec_usb_cmd>
				  for(;script_buf_pointer > 0; script_buf_pointer--)
 8006fc4:	4642      	mov	r2, r8
					  script_buf[script_buf_pointer] = 0;
 8006fc6:	4641      	mov	r1, r8
 8006fc8:	f899 3000 	ldrb.w	r3, [r9]
 8006fcc:	4453      	add	r3, sl
				  for(;script_buf_pointer > 0; script_buf_pointer--)
 8006fce:	459a      	cmp	sl, r3
 8006fd0:	f040 8100 	bne.w	80071d4 <main+0x548>
 8006fd4:	b112      	cbz	r2, 8006fdc <main+0x350>
 8006fd6:	2300      	movs	r3, #0
 8006fd8:	f889 3000 	strb.w	r3, [r9]
				  if(conf.script_address < eeprom_settings.eeprom_size-1) conf.script_address++;
 8006fdc:	8863      	ldrh	r3, [r4, #2]
 8006fde:	896a      	ldrh	r2, [r5, #10]
 8006fe0:	b29b      	uxth	r3, r3
 8006fe2:	3b01      	subs	r3, #1
 8006fe4:	429a      	cmp	r2, r3
 8006fe6:	f280 80f9 	bge.w	80071dc <main+0x550>
 8006fea:	3201      	adds	r2, #1
 8006fec:	816a      	strh	r2, [r5, #10]
 8006fee:	e018      	b.n	8007022 <main+0x396>
			f_mount(0, "0:", 1);
 8006ff0:	4642      	mov	r2, r8
 8006ff2:	2000      	movs	r0, #0
 8006ff4:	4995      	ldr	r1, [pc, #596]	; (800724c <main+0x5c0>)
 8006ff6:	f7fc fa63 	bl	80034c0 <f_mount>
			disk.is_initialized[0] = 0; // Reset flag of initialized
 8006ffa:	2200      	movs	r2, #0
 8006ffc:	4b94      	ldr	r3, [pc, #592]	; (8007250 <main+0x5c4>)
 8006ffe:	701a      	strb	r2, [r3, #0]
 8007000:	e7a1      	b.n	8006f46 <main+0x2ba>
		  uart_rx_pointer_r = (uart_rx_pointer_r + 1) & 1023;
 8007002:	3301      	adds	r3, #1
 8007004:	f3c3 0309 	ubfx	r3, r3, #0, #10
 8007008:	6013      	str	r3, [r2, #0]
		  Check_Command(uart_rx_bufer[uart_rx_pointer_r]);
 800700a:	4a92      	ldr	r2, [pc, #584]	; (8007254 <main+0x5c8>)
 800700c:	5cd0      	ldrb	r0, [r2, r3]
 800700e:	f7fe fa1b 	bl	8005448 <Check_Command>
 8007012:	e7b3      	b.n	8006f7c <main+0x2f0>
		  if(conf.script_delay_active && HAL_GetTick() - conf.script_timestamp < conf.script_delay)
 8007014:	f7f9 fbd8 	bl	80007c8 <HAL_GetTick>
 8007018:	692b      	ldr	r3, [r5, #16]
 800701a:	1ac0      	subs	r0, r0, r3
 800701c:	696b      	ldr	r3, [r5, #20]
 800701e:	4298      	cmp	r0, r3
 8007020:	d2b9      	bcs.n	8006f96 <main+0x30a>
		if(HAL_GetTick() - time_stamp_UART >= 20 && uart_busy == 0)
 8007022:	f7f9 fbd1 	bl	80007c8 <HAL_GetTick>
 8007026:	f8df 8254 	ldr.w	r8, [pc, #596]	; 800727c <main+0x5f0>
 800702a:	e9d8 3200 	ldrd	r3, r2, [r8]
 800702e:	1ac3      	subs	r3, r0, r3
 8007030:	9300      	str	r3, [sp, #0]
 8007032:	eb62 0342 	sbc.w	r3, r2, r2, lsl #1
 8007036:	9301      	str	r3, [sp, #4]
 8007038:	e9dd 2300 	ldrd	r2, r3, [sp]
 800703c:	2b00      	cmp	r3, #0
 800703e:	bf08      	it	eq
 8007040:	2a14      	cmpeq	r2, #20
 8007042:	d30a      	bcc.n	800705a <main+0x3ce>
 8007044:	4b84      	ldr	r3, [pc, #528]	; (8007258 <main+0x5cc>)
 8007046:	781b      	ldrb	r3, [r3, #0]
 8007048:	f003 09ff 	and.w	r9, r3, #255	; 0xff
 800704c:	b92b      	cbnz	r3, 800705a <main+0x3ce>
			time_stamp_UART = HAL_GetTick();
 800704e:	f7f9 fbbb 	bl	80007c8 <HAL_GetTick>
 8007052:	e9c8 0900 	strd	r0, r9, [r8]
			UART_Check_Data_Ready();
 8007056:	f7ff fc8b 	bl	8006970 <UART_Check_Data_Ready>
		if(HAL_GetTick() - time_stamp_LED >= 500)
 800705a:	f7f9 fbb5 	bl	80007c8 <HAL_GetTick>
 800705e:	f8df 8220 	ldr.w	r8, [pc, #544]	; 8007280 <main+0x5f4>
 8007062:	e9d8 3200 	ldrd	r3, r2, [r8]
 8007066:	1ac3      	subs	r3, r0, r3
 8007068:	9302      	str	r3, [sp, #8]
 800706a:	eb62 0342 	sbc.w	r3, r2, r2, lsl #1
 800706e:	9303      	str	r3, [sp, #12]
 8007070:	e9dd 2302 	ldrd	r2, r3, [sp, #8]
 8007074:	2b00      	cmp	r3, #0
 8007076:	bf08      	it	eq
 8007078:	f5b2 7ffa 	cmpeq.w	r2, #500	; 0x1f4
 800707c:	d30b      	bcc.n	8007096 <main+0x40a>
			time_stamp_LED = HAL_GetTick();
 800707e:	f7f9 fba3 	bl	80007c8 <HAL_GetTick>
 8007082:	2300      	movs	r3, #0
 8007084:	f8c8 0000 	str.w	r0, [r8]
			HAL_GPIO_TogglePin(LED_GPIO_Port, LED_Pin);
 8007088:	f44f 5100 	mov.w	r1, #8192	; 0x2000
 800708c:	4873      	ldr	r0, [pc, #460]	; (800725c <main+0x5d0>)
			time_stamp_LED = HAL_GetTick();
 800708e:	f8c8 3004 	str.w	r3, [r8, #4]
			HAL_GPIO_TogglePin(LED_GPIO_Port, LED_Pin);
 8007092:	f7fa fa44 	bl	800151e <HAL_GPIO_TogglePin>
		if(conf.sd_card_avalible == true)
 8007096:	f895 302c 	ldrb.w	r3, [r5, #44]	; 0x2c
 800709a:	2b01      	cmp	r3, #1
 800709c:	d142      	bne.n	8007124 <main+0x498>
			buff_stat = CAN_Log_Buffer_pull();
 800709e:	f7fd f909 	bl	80042b4 <CAN_Log_Buffer_pull>
 80070a2:	4680      	mov	r8, r0
			if(HAL_GetTick() - time_stamp_SAVE >= LOG_FILE_SAVE_TIMEOUT
 80070a4:	f7f9 fb90 	bl	80007c8 <HAL_GetTick>
 80070a8:	e9d7 3200 	ldrd	r3, r2, [r7]
 80070ac:	1ac3      	subs	r3, r0, r3
 80070ae:	9304      	str	r3, [sp, #16]
 80070b0:	eb62 0342 	sbc.w	r3, r2, r2, lsl #1
 80070b4:	9305      	str	r3, [sp, #20]
 80070b6:	2300      	movs	r3, #0
 80070b8:	e9dd 0104 	ldrd	r0, r1, [sp, #16]
 80070bc:	f64e 225f 	movw	r2, #59999	; 0xea5f
 80070c0:	428b      	cmp	r3, r1
 80070c2:	bf08      	it	eq
 80070c4:	4282      	cmpeq	r2, r0
 80070c6:	d30d      	bcc.n	80070e4 <main+0x458>
					|| ((conf.state == IDLE_ST || conf.loger_run == false) && buff_stat == HAL_BUSY)
 80070c8:	782b      	ldrb	r3, [r5, #0]
 80070ca:	b113      	cbz	r3, 80070d2 <main+0x446>
 80070cc:	f895 302d 	ldrb.w	r3, [r5, #45]	; 0x2d
 80070d0:	b913      	cbnz	r3, 80070d8 <main+0x44c>
 80070d2:	f1b8 0f02 	cmp.w	r8, #2
 80070d6:	d005      	beq.n	80070e4 <main+0x458>
					|| conf.fileOutputType != eeprom_settings.fileOutputType)
 80070d8:	f894 3064 	ldrb.w	r3, [r4, #100]	; 0x64
 80070dc:	f895 2031 	ldrb.w	r2, [r5, #49]	; 0x31
 80070e0:	429a      	cmp	r2, r3
 80070e2:	d01f      	beq.n	8007124 <main+0x498>
				time_stamp_SAVE = HAL_GetTick();
 80070e4:	f7f9 fb70 	bl	80007c8 <HAL_GetTick>
 80070e8:	2300      	movs	r3, #0
 80070ea:	607b      	str	r3, [r7, #4]
				if(f_size(&fil) != 0 || conf.fileOutputType != eeprom_settings.fileOutputType) // TODO save new format check
 80070ec:	4b5c      	ldr	r3, [pc, #368]	; (8007260 <main+0x5d4>)
				time_stamp_SAVE = HAL_GetTick();
 80070ee:	6038      	str	r0, [r7, #0]
				if(f_size(&fil) != 0 || conf.fileOutputType != eeprom_settings.fileOutputType) // TODO save new format check
 80070f0:	f8d3 320c 	ldr.w	r3, [r3, #524]	; 0x20c
 80070f4:	b92b      	cbnz	r3, 8007102 <main+0x476>
 80070f6:	f894 3064 	ldrb.w	r3, [r4, #100]	; 0x64
 80070fa:	f895 2031 	ldrb.w	r2, [r5, #49]	; 0x31
 80070fe:	429a      	cmp	r2, r3
 8007100:	d010      	beq.n	8007124 <main+0x498>
					fresult = f_close(&fil);
 8007102:	4857      	ldr	r0, [pc, #348]	; (8007260 <main+0x5d4>)
 8007104:	f7fc fce3 	bl	8003ace <f_close>
 8007108:	4b56      	ldr	r3, [pc, #344]	; (8007264 <main+0x5d8>)
 800710a:	f8df 8158 	ldr.w	r8, [pc, #344]	; 8007264 <main+0x5d8>
 800710e:	7018      	strb	r0, [r3, #0]
					if(conf.loger_run == true)
 8007110:	f895 302d 	ldrb.w	r3, [r5, #45]	; 0x2d
 8007114:	2b01      	cmp	r3, #1
 8007116:	f000 80c1 	beq.w	800729c <main+0x610>
					if(fresult != FR_OK) conf.sd_card_avalible = false; //TODO flex. All errors disable card
 800711a:	4b52      	ldr	r3, [pc, #328]	; (8007264 <main+0x5d8>)
 800711c:	781b      	ldrb	r3, [r3, #0]
 800711e:	2b00      	cmp	r3, #0
 8007120:	f040 80ef 	bne.w	8007302 <main+0x676>
		if(Button_rutine(&button_var, HAL_GPIO_ReadPin(BUTTON_GPIO_Port, BUTTON_Pin) == 1) == DOUBLE_CLICKED)
 8007124:	2102      	movs	r1, #2
 8007126:	4850      	ldr	r0, [pc, #320]	; (8007268 <main+0x5dc>)
 8007128:	f7fa f9ee 	bl	8001508 <HAL_GPIO_ReadPin>
 800712c:	1e43      	subs	r3, r0, #1
 800712e:	4259      	negs	r1, r3
 8007130:	4159      	adcs	r1, r3
 8007132:	484e      	ldr	r0, [pc, #312]	; (800726c <main+0x5e0>)
 8007134:	f7fe fe10 	bl	8005d58 <Button_rutine>
 8007138:	2805      	cmp	r0, #5
 800713a:	d101      	bne.n	8007140 <main+0x4b4>
			Next_CAN_channel();
 800713c:	f7fe fcaa 	bl	8005a94 <Next_CAN_channel>
		if(HAL_GPIO_ReadPin(RX_LED_GPIO_Port, RX_LED_Pin) == GPIO_PIN_SET)
 8007140:	2108      	movs	r1, #8
 8007142:	4849      	ldr	r0, [pc, #292]	; (8007268 <main+0x5dc>)
 8007144:	f7fa f9e0 	bl	8001508 <HAL_GPIO_ReadPin>
 8007148:	2801      	cmp	r0, #1
 800714a:	d10e      	bne.n	800716a <main+0x4de>
			if(rx_led_z1 == 0)
 800714c:	f8df 9134 	ldr.w	r9, [pc, #308]	; 8007284 <main+0x5f8>
 8007150:	f8df 8134 	ldr.w	r8, [pc, #308]	; 8007288 <main+0x5fc>
 8007154:	f899 3000 	ldrb.w	r3, [r9]
 8007158:	2b00      	cmp	r3, #0
 800715a:	f040 80d6 	bne.w	800730a <main+0x67e>
				rx_led_z1 = 1;
 800715e:	f889 0000 	strb.w	r0, [r9]
				rx_led_ts = HAL_GetTick();
 8007162:	f7f9 fb31 	bl	80007c8 <HAL_GetTick>
 8007166:	f8c8 0000 	str.w	r0, [r8]
		if(HAL_GPIO_ReadPin(TX_LED_GPIO_Port, TX_LED_Pin) == GPIO_PIN_SET)
 800716a:	f44f 4100 	mov.w	r1, #32768	; 0x8000
 800716e:	4630      	mov	r0, r6
 8007170:	f7fa f9ca 	bl	8001508 <HAL_GPIO_ReadPin>
 8007174:	2801      	cmp	r0, #1
 8007176:	d10e      	bne.n	8007196 <main+0x50a>
			if(tx_led_z1 == 0)
 8007178:	f8df 9110 	ldr.w	r9, [pc, #272]	; 800728c <main+0x600>
 800717c:	f8df 8110 	ldr.w	r8, [pc, #272]	; 8007290 <main+0x604>
 8007180:	f899 3000 	ldrb.w	r3, [r9]
 8007184:	2b00      	cmp	r3, #0
 8007186:	f040 80d1 	bne.w	800732c <main+0x6a0>
				tx_led_z1 = 1;
 800718a:	f889 0000 	strb.w	r0, [r9]
				tx_led_ts = HAL_GetTick();
 800718e:	f7f9 fb1b 	bl	80007c8 <HAL_GetTick>
 8007192:	f8c8 0000 	str.w	r0, [r8]
		if(HAL_GPIO_ReadPin(ERROR_LED_GPIO_Port, ERROR_LED_Pin) == GPIO_PIN_SET)
 8007196:	f44f 7180 	mov.w	r1, #256	; 0x100
 800719a:	4630      	mov	r0, r6
 800719c:	f7fa f9b4 	bl	8001508 <HAL_GPIO_ReadPin>
 80071a0:	2801      	cmp	r0, #1
 80071a2:	4682      	mov	sl, r0
 80071a4:	f47f aeea 	bne.w	8006f7c <main+0x2f0>
			if(HAL_CAN_GetError(&hcan) == HAL_CAN_ERROR_BOF) break;
 80071a8:	4831      	ldr	r0, [pc, #196]	; (8007270 <main+0x5e4>)
 80071aa:	f7f9 fe6b 	bl	8000e84 <HAL_CAN_GetError>
 80071ae:	2804      	cmp	r0, #4
 80071b0:	f000 80e4 	beq.w	800737c <main+0x6f0>
			if(error_led_z1 == 0)
 80071b4:	f8df 90dc 	ldr.w	r9, [pc, #220]	; 8007294 <main+0x608>
 80071b8:	f8df 80dc 	ldr.w	r8, [pc, #220]	; 8007298 <main+0x60c>
 80071bc:	f899 3000 	ldrb.w	r3, [r9]
 80071c0:	2b00      	cmp	r3, #0
 80071c2:	f040 80c5 	bne.w	8007350 <main+0x6c4>
				error_led_z1 = 1;
 80071c6:	f889 a000 	strb.w	sl, [r9]
				error_led_ts = HAL_GetTick();
 80071ca:	f7f9 fafd 	bl	80007c8 <HAL_GetTick>
 80071ce:	f8c8 0000 	str.w	r0, [r8]
 80071d2:	e6d3      	b.n	8006f7c <main+0x2f0>
					  script_buf[script_buf_pointer] = 0;
 80071d4:	2201      	movs	r2, #1
 80071d6:	f803 1901 	strb.w	r1, [r3], #-1
				  for(;script_buf_pointer > 0; script_buf_pointer--)
 80071da:	e6f8      	b.n	8006fce <main+0x342>
				  else conf.script_run = false;
 80071dc:	2300      	movs	r3, #0
 80071de:	722b      	strb	r3, [r5, #8]
 80071e0:	e71f      	b.n	8007022 <main+0x396>
			  else if(in_byte == 0xFF)
 80071e2:	2aff      	cmp	r2, #255	; 0xff
 80071e4:	d110      	bne.n	8007208 <main+0x57c>
				  if(conf.script_loop_address >= eeprom_settings.start_address_csript && conf.script_loop_address != 0xFFFF)
 80071e6:	88e2      	ldrh	r2, [r4, #6]
 80071e8:	89ab      	ldrh	r3, [r5, #12]
 80071ea:	b292      	uxth	r2, r2
 80071ec:	4293      	cmp	r3, r2
				  script_buf_pointer = 0;
 80071ee:	f889 8000 	strb.w	r8, [r9]
				  if(conf.script_loop_address >= eeprom_settings.start_address_csript && conf.script_loop_address != 0xFFFF)
 80071f2:	d305      	bcc.n	8007200 <main+0x574>
 80071f4:	f64f 72ff 	movw	r2, #65535	; 0xffff
 80071f8:	4293      	cmp	r3, r2
 80071fa:	d001      	beq.n	8007200 <main+0x574>
					  conf.script_address = eeprom_settings.start_address_csript;
 80071fc:	816b      	strh	r3, [r5, #10]
					  script_buf_pointer = 0;
 80071fe:	e710      	b.n	8007022 <main+0x396>
					  conf.script_run = false;
 8007200:	2300      	movs	r3, #0
 8007202:	722b      	strb	r3, [r5, #8]
					  conf.script_address = eeprom_settings.start_address_csript;
 8007204:	88e3      	ldrh	r3, [r4, #6]
 8007206:	e7f9      	b.n	80071fc <main+0x570>
				  script_buf[script_buf_pointer] = in_byte;
 8007208:	f899 3000 	ldrb.w	r3, [r9]
 800720c:	4919      	ldr	r1, [pc, #100]	; (8007274 <main+0x5e8>)
 800720e:	54ca      	strb	r2, [r1, r3]
				  if(conf.script_address < (eeprom_settings.eeprom_size-1) && script_buf_pointer < CMD_BUFFER_LENGTH) conf.script_address++;
 8007210:	8862      	ldrh	r2, [r4, #2]
 8007212:	8969      	ldrh	r1, [r5, #10]
 8007214:	b292      	uxth	r2, r2
				  script_buf_pointer++;
 8007216:	3301      	adds	r3, #1
				  if(conf.script_address < (eeprom_settings.eeprom_size-1) && script_buf_pointer < CMD_BUFFER_LENGTH) conf.script_address++;
 8007218:	3a01      	subs	r2, #1
				  script_buf_pointer++;
 800721a:	b2db      	uxtb	r3, r3
				  if(conf.script_address < (eeprom_settings.eeprom_size-1) && script_buf_pointer < CMD_BUFFER_LENGTH) conf.script_address++;
 800721c:	4291      	cmp	r1, r2
				  script_buf_pointer++;
 800721e:	f889 3000 	strb.w	r3, [r9]
				  if(conf.script_address < (eeprom_settings.eeprom_size-1) && script_buf_pointer < CMD_BUFFER_LENGTH) conf.script_address++;
 8007222:	dadb      	bge.n	80071dc <main+0x550>
 8007224:	2b1d      	cmp	r3, #29
 8007226:	d8d9      	bhi.n	80071dc <main+0x550>
 8007228:	3101      	adds	r1, #1
 800722a:	8169      	strh	r1, [r5, #10]
 800722c:	e6f9      	b.n	8007022 <main+0x396>
		  conf.script_delay_active = false;
 800722e:	2300      	movs	r3, #0
 8007230:	762b      	strb	r3, [r5, #24]
 8007232:	e6f6      	b.n	8007022 <main+0x396>
 8007234:	200025eb 	.word	0x200025eb
 8007238:	20000130 	.word	0x20000130
 800723c:	40010800 	.word	0x40010800
 8007240:	20000148 	.word	0x20000148
 8007244:	2000014c 	.word	0x2000014c
 8007248:	20002dbc 	.word	0x20002dbc
 800724c:	080084d9 	.word	0x080084d9
 8007250:	200000e4 	.word	0x200000e4
 8007254:	200021cc 	.word	0x200021cc
 8007258:	20000146 	.word	0x20000146
 800725c:	40011000 	.word	0x40011000
 8007260:	20002afc 	.word	0x20002afc
 8007264:	20000119 	.word	0x20000119
 8007268:	40010c00 	.word	0x40010c00
 800726c:	20002aec 	.word	0x20002aec
 8007270:	20001a5c 	.word	0x20001a5c
 8007274:	200025cc 	.word	0x200025cc
 8007278:	20000121 	.word	0x20000121
 800727c:	20000138 	.word	0x20000138
 8007280:	20000128 	.word	0x20000128
 8007284:	20000120 	.word	0x20000120
 8007288:	2000011c 	.word	0x2000011c
 800728c:	20000144 	.word	0x20000144
 8007290:	20000140 	.word	0x20000140
 8007294:	20000118 	.word	0x20000118
 8007298:	20000114 	.word	0x20000114
						conf.fileOutputType = eeprom_settings.fileOutputType;
 800729c:	f894 3064 	ldrb.w	r3, [r4, #100]	; 0x64
							  Generate_Next_FileName(filename, pathname);
 80072a0:	f8df a0e0 	ldr.w	sl, [pc, #224]	; 8007384 <main+0x6f8>
 80072a4:	f8df 90e0 	ldr.w	r9, [pc, #224]	; 8007388 <main+0x6fc>
							  fresult = f_open(&fil, (const TCHAR*)filename, FA_WRITE | FA_CREATE_NEW | FA_CREATE_ALWAYS);
 80072a8:	f8df b0e0 	ldr.w	fp, [pc, #224]	; 800738c <main+0x700>
						conf.fileOutputType = eeprom_settings.fileOutputType;
 80072ac:	f885 3031 	strb.w	r3, [r5, #49]	; 0x31
							  Generate_Next_FileName(filename, pathname);
 80072b0:	4651      	mov	r1, sl
 80072b2:	4648      	mov	r0, r9
 80072b4:	f7fc fd48 	bl	8003d48 <Generate_Next_FileName>
							  fresult = f_open(&fil, (const TCHAR*)filename, FA_WRITE | FA_CREATE_NEW | FA_CREATE_ALWAYS);
 80072b8:	220e      	movs	r2, #14
 80072ba:	4649      	mov	r1, r9
 80072bc:	4658      	mov	r0, fp
 80072be:	f7fc f935 	bl	800352c <f_open>
							  if(fresult == FR_DENIED) // Full_directory
 80072c2:	2807      	cmp	r0, #7
							  fresult = f_open(&fil, (const TCHAR*)filename, FA_WRITE | FA_CREATE_NEW | FA_CREATE_ALWAYS);
 80072c4:	f888 0000 	strb.w	r0, [r8]
							  if(fresult == FR_DENIED) // Full_directory
 80072c8:	d116      	bne.n	80072f8 <main+0x66c>
						        		Generate_Next_Path(pathname);
 80072ca:	4650      	mov	r0, sl
 80072cc:	f7fc fd9c 	bl	8003e08 <Generate_Next_Path>
						        		fresult = f_mkdir((TCHAR*)pathname);
 80072d0:	4650      	mov	r0, sl
 80072d2:	f7fc fc0d 	bl	8003af0 <f_mkdir>
						        	while(fresult == FR_EXIST);
 80072d6:	2808      	cmp	r0, #8
						        		fresult = f_mkdir((TCHAR*)pathname);
 80072d8:	f888 0000 	strb.w	r0, [r8]
						        	while(fresult == FR_EXIST);
 80072dc:	d0f5      	beq.n	80072ca <main+0x63e>
						        	if(fresult != FR_OK) return ERROR;
 80072de:	2800      	cmp	r0, #0
 80072e0:	d148      	bne.n	8007374 <main+0x6e8>
						        	Generate_Next_FileName(filename, pathname);
 80072e2:	4651      	mov	r1, sl
 80072e4:	4648      	mov	r0, r9
 80072e6:	f7fc fd2f 	bl	8003d48 <Generate_Next_FileName>
						        	fresult = f_open(&fil, (const TCHAR*)filename, FA_WRITE | FA_CREATE_NEW | FA_CREATE_ALWAYS);
 80072ea:	220e      	movs	r2, #14
 80072ec:	4649      	mov	r1, r9
 80072ee:	4658      	mov	r0, fp
 80072f0:	f7fc f91c 	bl	800352c <f_open>
 80072f4:	f888 0000 	strb.w	r0, [r8]
						  while(fresult == FR_EXIST);
 80072f8:	f898 2000 	ldrb.w	r2, [r8]
 80072fc:	2a08      	cmp	r2, #8
 80072fe:	d0d7      	beq.n	80072b0 <main+0x624>
 8007300:	e70b      	b.n	800711a <main+0x48e>
					if(fresult != FR_OK) conf.sd_card_avalible = false; //TODO flex. All errors disable card
 8007302:	2300      	movs	r3, #0
 8007304:	f885 302c 	strb.w	r3, [r5, #44]	; 0x2c
 8007308:	e70c      	b.n	8007124 <main+0x498>
			else if(HAL_GetTick() - rx_led_ts > 3)
 800730a:	f7f9 fa5d 	bl	80007c8 <HAL_GetTick>
 800730e:	f8d8 3000 	ldr.w	r3, [r8]
 8007312:	1ac0      	subs	r0, r0, r3
 8007314:	2803      	cmp	r0, #3
 8007316:	f67f af28 	bls.w	800716a <main+0x4de>
				HAL_GPIO_WritePin(RX_LED_GPIO_Port, RX_LED_Pin, GPIO_PIN_RESET);
 800731a:	2200      	movs	r2, #0
 800731c:	2108      	movs	r1, #8
 800731e:	4818      	ldr	r0, [pc, #96]	; (8007380 <main+0x6f4>)
 8007320:	f7fa f8f8 	bl	8001514 <HAL_GPIO_WritePin>
				rx_led_z1 = 0;
 8007324:	2300      	movs	r3, #0
 8007326:	f889 3000 	strb.w	r3, [r9]
 800732a:	e71a      	b.n	8007162 <main+0x4d6>
			else if(HAL_GetTick() - tx_led_ts > 3)
 800732c:	f7f9 fa4c 	bl	80007c8 <HAL_GetTick>
 8007330:	f8d8 3000 	ldr.w	r3, [r8]
 8007334:	1ac0      	subs	r0, r0, r3
 8007336:	2803      	cmp	r0, #3
 8007338:	f67f af2d 	bls.w	8007196 <main+0x50a>
				HAL_GPIO_WritePin(TX_LED_GPIO_Port, TX_LED_Pin, GPIO_PIN_RESET);
 800733c:	2200      	movs	r2, #0
 800733e:	f44f 4100 	mov.w	r1, #32768	; 0x8000
 8007342:	4630      	mov	r0, r6
 8007344:	f7fa f8e6 	bl	8001514 <HAL_GPIO_WritePin>
				tx_led_z1 = 0;
 8007348:	2300      	movs	r3, #0
 800734a:	f889 3000 	strb.w	r3, [r9]
 800734e:	e722      	b.n	8007196 <main+0x50a>
			else if(HAL_GetTick() - error_led_ts > 100)
 8007350:	f7f9 fa3a 	bl	80007c8 <HAL_GetTick>
 8007354:	f8d8 3000 	ldr.w	r3, [r8]
 8007358:	1ac0      	subs	r0, r0, r3
 800735a:	2864      	cmp	r0, #100	; 0x64
 800735c:	f67f ae0e 	bls.w	8006f7c <main+0x2f0>
				HAL_GPIO_WritePin(ERROR_LED_GPIO_Port, ERROR_LED_Pin, GPIO_PIN_RESET);
 8007360:	2200      	movs	r2, #0
 8007362:	f44f 7180 	mov.w	r1, #256	; 0x100
 8007366:	4630      	mov	r0, r6
 8007368:	f7fa f8d4 	bl	8001514 <HAL_GPIO_WritePin>
				error_led_z1 = 0;
 800736c:	2300      	movs	r3, #0
 800736e:	f889 3000 	strb.w	r3, [r9]
 8007372:	e603      	b.n	8006f7c <main+0x2f0>
						        	if(fresult != FR_OK) return ERROR;
 8007374:	2007      	movs	r0, #7
}
 8007376:	b009      	add	sp, #36	; 0x24
 8007378:	e8bd 8ff0 	ldmia.w	sp!, {r4, r5, r6, r7, r8, r9, sl, fp, pc}
 800737c:	2000      	movs	r0, #0
 800737e:	e7fa      	b.n	8007376 <main+0x6ea>
 8007380:	40010c00 	.word	0x40010c00
 8007384:	20000020 	.word	0x20000020
 8007388:	20000009 	.word	0x20000009
 800738c:	20002afc 	.word	0x20002afc

08007390 <Error_Handler>:
{
  /* USER CODE BEGIN Error_Handler_Debug */
  /* User can add his own implementation to report the HAL error return state */

  /* USER CODE END Error_Handler_Debug */
}
 8007390:	4770      	bx	lr
	...

08007394 <MX_RTC_Init>:

RTC_HandleTypeDef hrtc;

/* RTC init function */
void MX_RTC_Init(void)
{
 8007394:	b508      	push	{r3, lr}

  /** Initialize RTC Only
  */
  hrtc.Instance = RTC;
  hrtc.Init.AsynchPrediv = RTC_AUTO_1_SECOND;
 8007396:	f04f 33ff 	mov.w	r3, #4294967295
  hrtc.Instance = RTC;
 800739a:	4807      	ldr	r0, [pc, #28]	; (80073b8 <MX_RTC_Init+0x24>)
  hrtc.Init.AsynchPrediv = RTC_AUTO_1_SECOND;
 800739c:	4a07      	ldr	r2, [pc, #28]	; (80073bc <MX_RTC_Init+0x28>)
 800739e:	e9c0 2300 	strd	r2, r3, [r0]
  hrtc.Init.OutPut = RTC_OUTPUTSOURCE_ALARM;
 80073a2:	f44f 7380 	mov.w	r3, #256	; 0x100
 80073a6:	6083      	str	r3, [r0, #8]
  if (HAL_RTC_Init(&hrtc) != HAL_OK)
 80073a8:	f7fa fc8e 	bl	8001cc8 <HAL_RTC_Init>
 80073ac:	b118      	cbz	r0, 80073b6 <MX_RTC_Init+0x22>
  {
    Error_Handler();
  }

}
 80073ae:	e8bd 4008 	ldmia.w	sp!, {r3, lr}
    Error_Handler();
 80073b2:	f7ff bfed 	b.w	8007390 <Error_Handler>
}
 80073b6:	bd08      	pop	{r3, pc}
 80073b8:	20002da8 	.word	0x20002da8
 80073bc:	40002800 	.word	0x40002800

080073c0 <HAL_RTC_MspInit>:

void HAL_RTC_MspInit(RTC_HandleTypeDef* rtcHandle)
{
 80073c0:	b507      	push	{r0, r1, r2, lr}

  if(rtcHandle->Instance==RTC)
 80073c2:	4b0b      	ldr	r3, [pc, #44]	; (80073f0 <HAL_RTC_MspInit+0x30>)
 80073c4:	6802      	ldr	r2, [r0, #0]
 80073c6:	429a      	cmp	r2, r3
 80073c8:	d10e      	bne.n	80073e8 <HAL_RTC_MspInit+0x28>
  {
  /* USER CODE BEGIN RTC_MspInit 0 */

  /* USER CODE END RTC_MspInit 0 */
    HAL_PWR_EnableBkUpAccess();
 80073ca:	f7fa f8af 	bl	800152c <HAL_PWR_EnableBkUpAccess>
    /* Enable BKP CLK enable for backup registers */
    __HAL_RCC_BKP_CLK_ENABLE();
 80073ce:	4b09      	ldr	r3, [pc, #36]	; (80073f4 <HAL_RTC_MspInit+0x34>)
 80073d0:	69da      	ldr	r2, [r3, #28]
 80073d2:	f042 6200 	orr.w	r2, r2, #134217728	; 0x8000000
 80073d6:	61da      	str	r2, [r3, #28]
    /* RTC clock enable */
    __HAL_RCC_RTC_ENABLE();
 80073d8:	2201      	movs	r2, #1
    __HAL_RCC_BKP_CLK_ENABLE();
 80073da:	69db      	ldr	r3, [r3, #28]
 80073dc:	f003 6300 	and.w	r3, r3, #134217728	; 0x8000000
 80073e0:	9301      	str	r3, [sp, #4]
 80073e2:	9b01      	ldr	r3, [sp, #4]
    __HAL_RCC_RTC_ENABLE();
 80073e4:	4b04      	ldr	r3, [pc, #16]	; (80073f8 <HAL_RTC_MspInit+0x38>)
 80073e6:	601a      	str	r2, [r3, #0]
  /* USER CODE BEGIN RTC_MspInit 1 */

  /* USER CODE END RTC_MspInit 1 */
  }
}
 80073e8:	b003      	add	sp, #12
 80073ea:	f85d fb04 	ldr.w	pc, [sp], #4
 80073ee:	bf00      	nop
 80073f0:	40002800 	.word	0x40002800
 80073f4:	40021000 	.word	0x40021000
 80073f8:	4242043c 	.word	0x4242043c

080073fc <MX_SPI1_Init>:
SPI_HandleTypeDef hspi1;
SPI_HandleTypeDef hspi2;

/* SPI1 init function */
void MX_SPI1_Init(void)
{
 80073fc:	b508      	push	{r3, lr}

  hspi1.Instance = SPI1;
  hspi1.Init.Mode = SPI_MODE_MASTER;
 80073fe:	f44f 7382 	mov.w	r3, #260	; 0x104
  hspi1.Instance = SPI1;
 8007402:	480d      	ldr	r0, [pc, #52]	; (8007438 <MX_SPI1_Init+0x3c>)
  hspi1.Init.Mode = SPI_MODE_MASTER;
 8007404:	4a0d      	ldr	r2, [pc, #52]	; (800743c <MX_SPI1_Init+0x40>)
  hspi1.Init.Direction = SPI_DIRECTION_2LINES;
  hspi1.Init.DataSize = SPI_DATASIZE_8BIT;
  hspi1.Init.CLKPolarity = SPI_POLARITY_LOW;
  hspi1.Init.CLKPhase = SPI_PHASE_1EDGE;
  hspi1.Init.NSS = SPI_NSS_SOFT;
  hspi1.Init.BaudRatePrescaler = SPI_BAUDRATEPRESCALER_32;
 8007406:	f44f 7100 	mov.w	r1, #512	; 0x200
  hspi1.Init.Mode = SPI_MODE_MASTER;
 800740a:	e9c0 2300 	strd	r2, r3, [r0]
  hspi1.Init.Direction = SPI_DIRECTION_2LINES;
 800740e:	2300      	movs	r3, #0
  hspi1.Init.BaudRatePrescaler = SPI_BAUDRATEPRESCALER_32;
 8007410:	2220      	movs	r2, #32
  hspi1.Init.DataSize = SPI_DATASIZE_8BIT;
 8007412:	e9c0 3302 	strd	r3, r3, [r0, #8]
  hspi1.Init.CLKPhase = SPI_PHASE_1EDGE;
 8007416:	e9c0 3304 	strd	r3, r3, [r0, #16]
  hspi1.Init.FirstBit = SPI_FIRSTBIT_MSB;
  hspi1.Init.TIMode = SPI_TIMODE_DISABLE;
 800741a:	e9c0 3308 	strd	r3, r3, [r0, #32]
  hspi1.Init.CRCCalculation = SPI_CRCCALCULATION_DISABLE;
 800741e:	6283      	str	r3, [r0, #40]	; 0x28
  hspi1.Init.CRCPolynomial = 10;
 8007420:	230a      	movs	r3, #10
  hspi1.Init.BaudRatePrescaler = SPI_BAUDRATEPRESCALER_32;
 8007422:	e9c0 1206 	strd	r1, r2, [r0, #24]
  hspi1.Init.CRCPolynomial = 10;
 8007426:	62c3      	str	r3, [r0, #44]	; 0x2c
  if (HAL_SPI_Init(&hspi1) != HAL_OK)
 8007428:	f7fa fd0c 	bl	8001e44 <HAL_SPI_Init>
 800742c:	b118      	cbz	r0, 8007436 <MX_SPI1_Init+0x3a>
  {
    Error_Handler();
  }

}
 800742e:	e8bd 4008 	ldmia.w	sp!, {r3, lr}
    Error_Handler();
 8007432:	f7ff bfad 	b.w	8007390 <Error_Handler>
}
 8007436:	bd08      	pop	{r3, pc}
 8007438:	20002e14 	.word	0x20002e14
 800743c:	40013000 	.word	0x40013000

08007440 <MX_SPI2_Init>:
/* SPI2 init function */
void MX_SPI2_Init(void)
{
 8007440:	b508      	push	{r3, lr}

  hspi2.Instance = SPI2;
  hspi2.Init.Mode = SPI_MODE_MASTER;
 8007442:	f44f 7382 	mov.w	r3, #260	; 0x104
  hspi2.Instance = SPI2;
 8007446:	480d      	ldr	r0, [pc, #52]	; (800747c <MX_SPI2_Init+0x3c>)
  hspi2.Init.Mode = SPI_MODE_MASTER;
 8007448:	4a0d      	ldr	r2, [pc, #52]	; (8007480 <MX_SPI2_Init+0x40>)
  hspi2.Init.Direction = SPI_DIRECTION_2LINES;
  hspi2.Init.DataSize = SPI_DATASIZE_8BIT;
  hspi2.Init.CLKPolarity = SPI_POLARITY_LOW;
  hspi2.Init.CLKPhase = SPI_PHASE_1EDGE;
  hspi2.Init.NSS = SPI_NSS_SOFT;
  hspi2.Init.BaudRatePrescaler = SPI_BAUDRATEPRESCALER_64;
 800744a:	f44f 7100 	mov.w	r1, #512	; 0x200
  hspi2.Init.Mode = SPI_MODE_MASTER;
 800744e:	e9c0 2300 	strd	r2, r3, [r0]
  hspi2.Init.Direction = SPI_DIRECTION_2LINES;
 8007452:	2300      	movs	r3, #0
  hspi2.Init.BaudRatePrescaler = SPI_BAUDRATEPRESCALER_64;
 8007454:	2228      	movs	r2, #40	; 0x28
  hspi2.Init.DataSize = SPI_DATASIZE_8BIT;
 8007456:	e9c0 3302 	strd	r3, r3, [r0, #8]
  hspi2.Init.CLKPhase = SPI_PHASE_1EDGE;
 800745a:	e9c0 3304 	strd	r3, r3, [r0, #16]
  hspi2.Init.FirstBit = SPI_FIRSTBIT_MSB;
  hspi2.Init.TIMode = SPI_TIMODE_DISABLE;
 800745e:	e9c0 3308 	strd	r3, r3, [r0, #32]
  hspi2.Init.CRCCalculation = SPI_CRCCALCULATION_DISABLE;
 8007462:	6283      	str	r3, [r0, #40]	; 0x28
  hspi2.Init.CRCPolynomial = 10;
 8007464:	230a      	movs	r3, #10
  hspi2.Init.BaudRatePrescaler = SPI_BAUDRATEPRESCALER_64;
 8007466:	e9c0 1206 	strd	r1, r2, [r0, #24]
  hspi2.Init.CRCPolynomial = 10;
 800746a:	62c3      	str	r3, [r0, #44]	; 0x2c
  if (HAL_SPI_Init(&hspi2) != HAL_OK)
 800746c:	f7fa fcea 	bl	8001e44 <HAL_SPI_Init>
 8007470:	b118      	cbz	r0, 800747a <MX_SPI2_Init+0x3a>
  {
    Error_Handler();
  }

}
 8007472:	e8bd 4008 	ldmia.w	sp!, {r3, lr}
    Error_Handler();
 8007476:	f7ff bf8b 	b.w	8007390 <Error_Handler>
}
 800747a:	bd08      	pop	{r3, pc}
 800747c:	20002dbc 	.word	0x20002dbc
 8007480:	40003800 	.word	0x40003800

08007484 <HAL_SPI_MspInit>:

void HAL_SPI_MspInit(SPI_HandleTypeDef* spiHandle)
{

  GPIO_InitTypeDef GPIO_InitStruct = {0};
 8007484:	2210      	movs	r2, #16
{
 8007486:	b510      	push	{r4, lr}
 8007488:	4604      	mov	r4, r0
 800748a:	b088      	sub	sp, #32
  GPIO_InitTypeDef GPIO_InitStruct = {0};
 800748c:	eb0d 0002 	add.w	r0, sp, r2
 8007490:	2100      	movs	r1, #0
 8007492:	f000 fb4f 	bl	8007b34 <memset>
  if(spiHandle->Instance==SPI1)
 8007496:	6823      	ldr	r3, [r4, #0]
 8007498:	4a2a      	ldr	r2, [pc, #168]	; (8007544 <HAL_SPI_MspInit+0xc0>)
 800749a:	4293      	cmp	r3, r2
 800749c:	d127      	bne.n	80074ee <HAL_SPI_MspInit+0x6a>
  {
  /* USER CODE BEGIN SPI1_MspInit 0 */

  /* USER CODE END SPI1_MspInit 0 */
    /* SPI1 clock enable */
    __HAL_RCC_SPI1_CLK_ENABLE();
 800749e:	4b2a      	ldr	r3, [pc, #168]	; (8007548 <HAL_SPI_MspInit+0xc4>)
    PA5     ------> SPI1_SCK
    PA6     ------> SPI1_MISO
    PA7     ------> SPI1_MOSI
    */
    GPIO_InitStruct.Pin = GPIO_PIN_5|GPIO_PIN_7;
    GPIO_InitStruct.Mode = GPIO_MODE_AF_PP;
 80074a0:	20a0      	movs	r0, #160	; 0xa0
    __HAL_RCC_SPI1_CLK_ENABLE();
 80074a2:	699a      	ldr	r2, [r3, #24]
    GPIO_InitStruct.Speed = GPIO_SPEED_FREQ_HIGH;
    HAL_GPIO_Init(GPIOA, &GPIO_InitStruct);
 80074a4:	a904      	add	r1, sp, #16
    __HAL_RCC_SPI1_CLK_ENABLE();
 80074a6:	f442 5280 	orr.w	r2, r2, #4096	; 0x1000
 80074aa:	619a      	str	r2, [r3, #24]
 80074ac:	699a      	ldr	r2, [r3, #24]

    GPIO_InitStruct.Pin = GPIO_PIN_6;
    GPIO_InitStruct.Mode = GPIO_MODE_INPUT;
 80074ae:	2440      	movs	r4, #64	; 0x40
    __HAL_RCC_SPI1_CLK_ENABLE();
 80074b0:	f402 5280 	and.w	r2, r2, #4096	; 0x1000
 80074b4:	9200      	str	r2, [sp, #0]
 80074b6:	9a00      	ldr	r2, [sp, #0]
    __HAL_RCC_GPIOA_CLK_ENABLE();
 80074b8:	699a      	ldr	r2, [r3, #24]
 80074ba:	f042 0204 	orr.w	r2, r2, #4
 80074be:	619a      	str	r2, [r3, #24]
 80074c0:	699b      	ldr	r3, [r3, #24]
 80074c2:	f003 0304 	and.w	r3, r3, #4
 80074c6:	9301      	str	r3, [sp, #4]
 80074c8:	9b01      	ldr	r3, [sp, #4]
    GPIO_InitStruct.Mode = GPIO_MODE_AF_PP;
 80074ca:	2302      	movs	r3, #2
 80074cc:	e9cd 0304 	strd	r0, r3, [sp, #16]
    GPIO_InitStruct.Speed = GPIO_SPEED_FREQ_HIGH;
 80074d0:	2303      	movs	r3, #3
    HAL_GPIO_Init(GPIOA, &GPIO_InitStruct);
 80074d2:	481e      	ldr	r0, [pc, #120]	; (800754c <HAL_SPI_MspInit+0xc8>)
    GPIO_InitStruct.Speed = GPIO_SPEED_FREQ_HIGH;
 80074d4:	9307      	str	r3, [sp, #28]
    HAL_GPIO_Init(GPIOA, &GPIO_InitStruct);
 80074d6:	f7f9 fecd 	bl	8001274 <HAL_GPIO_Init>
    GPIO_InitStruct.Mode = GPIO_MODE_INPUT;
 80074da:	2300      	movs	r3, #0
 80074dc:	e9cd 4304 	strd	r4, r3, [sp, #16]
    GPIO_InitStruct.Pull = GPIO_NOPULL;
    HAL_GPIO_Init(GPIOA, &GPIO_InitStruct);
 80074e0:	481a      	ldr	r0, [pc, #104]	; (800754c <HAL_SPI_MspInit+0xc8>)
    GPIO_InitStruct.Pull = GPIO_NOPULL;
 80074e2:	9306      	str	r3, [sp, #24]
    HAL_GPIO_Init(GPIOA, &GPIO_InitStruct);
 80074e4:	a904      	add	r1, sp, #16
    HAL_GPIO_Init(GPIOB, &GPIO_InitStruct);

    GPIO_InitStruct.Pin = GPIO_PIN_14;
    GPIO_InitStruct.Mode = GPIO_MODE_INPUT;
    GPIO_InitStruct.Pull = GPIO_NOPULL;
    HAL_GPIO_Init(GPIOB, &GPIO_InitStruct);
 80074e6:	f7f9 fec5 	bl	8001274 <HAL_GPIO_Init>

  /* USER CODE BEGIN SPI2_MspInit 1 */

  /* USER CODE END SPI2_MspInit 1 */
  }
}
 80074ea:	b008      	add	sp, #32
 80074ec:	bd10      	pop	{r4, pc}
  else if(spiHandle->Instance==SPI2)
 80074ee:	4a18      	ldr	r2, [pc, #96]	; (8007550 <HAL_SPI_MspInit+0xcc>)
 80074f0:	4293      	cmp	r3, r2
 80074f2:	d1fa      	bne.n	80074ea <HAL_SPI_MspInit+0x66>
    __HAL_RCC_SPI2_CLK_ENABLE();
 80074f4:	4b14      	ldr	r3, [pc, #80]	; (8007548 <HAL_SPI_MspInit+0xc4>)
    HAL_GPIO_Init(GPIOB, &GPIO_InitStruct);
 80074f6:	4817      	ldr	r0, [pc, #92]	; (8007554 <HAL_SPI_MspInit+0xd0>)
    __HAL_RCC_SPI2_CLK_ENABLE();
 80074f8:	69da      	ldr	r2, [r3, #28]
    HAL_GPIO_Init(GPIOB, &GPIO_InitStruct);
 80074fa:	a904      	add	r1, sp, #16
    __HAL_RCC_SPI2_CLK_ENABLE();
 80074fc:	f442 4280 	orr.w	r2, r2, #16384	; 0x4000
 8007500:	61da      	str	r2, [r3, #28]
 8007502:	69da      	ldr	r2, [r3, #28]
 8007504:	f402 4280 	and.w	r2, r2, #16384	; 0x4000
 8007508:	9202      	str	r2, [sp, #8]
 800750a:	9a02      	ldr	r2, [sp, #8]
    __HAL_RCC_GPIOB_CLK_ENABLE();
 800750c:	699a      	ldr	r2, [r3, #24]
 800750e:	f042 0208 	orr.w	r2, r2, #8
 8007512:	619a      	str	r2, [r3, #24]
 8007514:	699b      	ldr	r3, [r3, #24]
    GPIO_InitStruct.Mode = GPIO_MODE_AF_PP;
 8007516:	f44f 4220 	mov.w	r2, #40960	; 0xa000
    __HAL_RCC_GPIOB_CLK_ENABLE();
 800751a:	f003 0308 	and.w	r3, r3, #8
 800751e:	9303      	str	r3, [sp, #12]
 8007520:	9b03      	ldr	r3, [sp, #12]
    GPIO_InitStruct.Mode = GPIO_MODE_AF_PP;
 8007522:	2302      	movs	r3, #2
 8007524:	e9cd 2304 	strd	r2, r3, [sp, #16]
    GPIO_InitStruct.Speed = GPIO_SPEED_FREQ_HIGH;
 8007528:	2303      	movs	r3, #3
 800752a:	9307      	str	r3, [sp, #28]
    HAL_GPIO_Init(GPIOB, &GPIO_InitStruct);
 800752c:	f7f9 fea2 	bl	8001274 <HAL_GPIO_Init>
    GPIO_InitStruct.Mode = GPIO_MODE_INPUT;
 8007530:	f44f 4180 	mov.w	r1, #16384	; 0x4000
 8007534:	2300      	movs	r3, #0
    HAL_GPIO_Init(GPIOB, &GPIO_InitStruct);
 8007536:	4807      	ldr	r0, [pc, #28]	; (8007554 <HAL_SPI_MspInit+0xd0>)
    GPIO_InitStruct.Mode = GPIO_MODE_INPUT;
 8007538:	e9cd 1304 	strd	r1, r3, [sp, #16]
    GPIO_InitStruct.Pull = GPIO_NOPULL;
 800753c:	9306      	str	r3, [sp, #24]
    HAL_GPIO_Init(GPIOB, &GPIO_InitStruct);
 800753e:	a904      	add	r1, sp, #16
 8007540:	e7d1      	b.n	80074e6 <HAL_SPI_MspInit+0x62>
 8007542:	bf00      	nop
 8007544:	40013000 	.word	0x40013000
 8007548:	40021000 	.word	0x40021000
 800754c:	40010800 	.word	0x40010800
 8007550:	40003800 	.word	0x40003800
 8007554:	40010c00 	.word	0x40010c00

08007558 <HAL_MspInit>:
{
  /* USER CODE BEGIN MspInit 0 */

  /* USER CODE END MspInit 0 */

  __HAL_RCC_AFIO_CLK_ENABLE();
 8007558:	4b0e      	ldr	r3, [pc, #56]	; (8007594 <HAL_MspInit+0x3c>)
{
 800755a:	b082      	sub	sp, #8
  __HAL_RCC_AFIO_CLK_ENABLE();
 800755c:	699a      	ldr	r2, [r3, #24]
 800755e:	f042 0201 	orr.w	r2, r2, #1
 8007562:	619a      	str	r2, [r3, #24]
 8007564:	699a      	ldr	r2, [r3, #24]
 8007566:	f002 0201 	and.w	r2, r2, #1
 800756a:	9200      	str	r2, [sp, #0]
 800756c:	9a00      	ldr	r2, [sp, #0]
  __HAL_RCC_PWR_CLK_ENABLE();
 800756e:	69da      	ldr	r2, [r3, #28]
 8007570:	f042 5280 	orr.w	r2, r2, #268435456	; 0x10000000
 8007574:	61da      	str	r2, [r3, #28]
 8007576:	69db      	ldr	r3, [r3, #28]

  /* System interrupt init*/

  /** NOJTAG: JTAG-DP Disabled and SW-DP Enabled
  */
  __HAL_AFIO_REMAP_SWJ_NOJTAG();
 8007578:	4a07      	ldr	r2, [pc, #28]	; (8007598 <HAL_MspInit+0x40>)
  __HAL_RCC_PWR_CLK_ENABLE();
 800757a:	f003 5380 	and.w	r3, r3, #268435456	; 0x10000000
 800757e:	9301      	str	r3, [sp, #4]
 8007580:	9b01      	ldr	r3, [sp, #4]
  __HAL_AFIO_REMAP_SWJ_NOJTAG();
 8007582:	6853      	ldr	r3, [r2, #4]
 8007584:	f023 63e0 	bic.w	r3, r3, #117440512	; 0x7000000
 8007588:	f043 7300 	orr.w	r3, r3, #33554432	; 0x2000000
 800758c:	6053      	str	r3, [r2, #4]

  /* USER CODE BEGIN MspInit 1 */

  /* USER CODE END MspInit 1 */
}
 800758e:	b002      	add	sp, #8
 8007590:	4770      	bx	lr
 8007592:	bf00      	nop
 8007594:	40021000 	.word	0x40021000
 8007598:	40010000 	.word	0x40010000

0800759c <NMI_Handler>:

  /* USER CODE END NonMaskableInt_IRQn 0 */
  /* USER CODE BEGIN NonMaskableInt_IRQn 1 */

  /* USER CODE END NonMaskableInt_IRQn 1 */
}
 800759c:	4770      	bx	lr

0800759e <HardFault_Handler>:
void HardFault_Handler(void)
{
  /* USER CODE BEGIN HardFault_IRQn 0 */

  /* USER CODE END HardFault_IRQn 0 */
  while (1)
 800759e:	e7fe      	b.n	800759e <HardFault_Handler>

080075a0 <MemManage_Handler>:
void MemManage_Handler(void)
{
  /* USER CODE BEGIN MemoryManagement_IRQn 0 */

  /* USER CODE END MemoryManagement_IRQn 0 */
  while (1)
 80075a0:	e7fe      	b.n	80075a0 <MemManage_Handler>

080075a2 <BusFault_Handler>:
void BusFault_Handler(void)
{
  /* USER CODE BEGIN BusFault_IRQn 0 */

  /* USER CODE END BusFault_IRQn 0 */
  while (1)
 80075a2:	e7fe      	b.n	80075a2 <BusFault_Handler>

080075a4 <UsageFault_Handler>:
void UsageFault_Handler(void)
{
  /* USER CODE BEGIN UsageFault_IRQn 0 */

  /* USER CODE END UsageFault_IRQn 0 */
  while (1)
 80075a4:	e7fe      	b.n	80075a4 <UsageFault_Handler>

080075a6 <SVC_Handler>:
 80075a6:	4770      	bx	lr

080075a8 <DebugMon_Handler>:
 80075a8:	4770      	bx	lr

080075aa <PendSV_Handler>:
 80075aa:	4770      	bx	lr

080075ac <SysTick_Handler>:
  * @brief This function handles System tick timer.
  */
void SysTick_Handler(void)
{
  /* USER CODE BEGIN SysTick_IRQn 0 */
	FatFsCnt++;
 80075ac:	4a0c      	ldr	r2, [pc, #48]	; (80075e0 <SysTick_Handler+0x34>)
 80075ae:	7813      	ldrb	r3, [r2, #0]
 80075b0:	3301      	adds	r3, #1
 80075b2:	b2db      	uxtb	r3, r3
 80075b4:	7013      	strb	r3, [r2, #0]
	if(FatFsCnt >= 10)
 80075b6:	7813      	ldrb	r3, [r2, #0]
 80075b8:	2b09      	cmp	r3, #9
 80075ba:	d90f      	bls.n	80075dc <SysTick_Handler+0x30>
	{
		FatFsCnt = 0;
 80075bc:	2300      	movs	r3, #0
 80075be:	7013      	strb	r3, [r2, #0]
		if(Timer1 > 0)
 80075c0:	4a08      	ldr	r2, [pc, #32]	; (80075e4 <SysTick_Handler+0x38>)
 80075c2:	7813      	ldrb	r3, [r2, #0]
 80075c4:	b11b      	cbz	r3, 80075ce <SysTick_Handler+0x22>
			Timer1--;
 80075c6:	7813      	ldrb	r3, [r2, #0]
 80075c8:	3b01      	subs	r3, #1
 80075ca:	b2db      	uxtb	r3, r3
 80075cc:	7013      	strb	r3, [r2, #0]

		if(Timer2 > 0)
 80075ce:	4a06      	ldr	r2, [pc, #24]	; (80075e8 <SysTick_Handler+0x3c>)
 80075d0:	7813      	ldrb	r3, [r2, #0]
 80075d2:	b11b      	cbz	r3, 80075dc <SysTick_Handler+0x30>
			Timer2--;
 80075d4:	7813      	ldrb	r3, [r2, #0]
 80075d6:	3b01      	subs	r3, #1
 80075d8:	b2db      	uxtb	r3, r3
 80075da:	7013      	strb	r3, [r2, #0]
	}
  /* USER CODE END SysTick_IRQn 0 */
  HAL_IncTick();
 80075dc:	f7f9 b8e8 	b.w	80007b0 <HAL_IncTick>
 80075e0:	20000154 	.word	0x20000154
 80075e4:	20002e6d 	.word	0x20002e6d
 80075e8:	20002e6c 	.word	0x20002e6c

080075ec <DMA1_Channel2_IRQHandler>:
void DMA1_Channel2_IRQHandler(void)
{
  /* USER CODE BEGIN DMA1_Channel2_IRQn 0 */

  /* USER CODE END DMA1_Channel2_IRQn 0 */
  HAL_DMA_IRQHandler(&hdma_usart3_tx);
 80075ec:	4801      	ldr	r0, [pc, #4]	; (80075f4 <DMA1_Channel2_IRQHandler+0x8>)
 80075ee:	f7f9 bdaf 	b.w	8001150 <HAL_DMA_IRQHandler>
 80075f2:	bf00      	nop
 80075f4:	20002eb0 	.word	0x20002eb0

080075f8 <DMA1_Channel4_IRQHandler>:
void DMA1_Channel4_IRQHandler(void)
{
  /* USER CODE BEGIN DMA1_Channel4_IRQn 0 */

  /* USER CODE END DMA1_Channel4_IRQn 0 */
  HAL_DMA_IRQHandler(&hdma_usart1_tx);
 80075f8:	4801      	ldr	r0, [pc, #4]	; (8007600 <DMA1_Channel4_IRQHandler+0x8>)
 80075fa:	f7f9 bda9 	b.w	8001150 <HAL_DMA_IRQHandler>
 80075fe:	bf00      	nop
 8007600:	20002ef4 	.word	0x20002ef4

08007604 <DMA1_Channel7_IRQHandler>:
void DMA1_Channel7_IRQHandler(void)
{
  /* USER CODE BEGIN DMA1_Channel7_IRQn 0 */

  /* USER CODE END DMA1_Channel7_IRQn 0 */
  HAL_DMA_IRQHandler(&hdma_usart2_tx);
 8007604:	4801      	ldr	r0, [pc, #4]	; (800760c <DMA1_Channel7_IRQHandler+0x8>)
 8007606:	f7f9 bda3 	b.w	8001150 <HAL_DMA_IRQHandler>
 800760a:	bf00      	nop
 800760c:	20002f38 	.word	0x20002f38

08007610 <USB_LP_CAN1_RX0_IRQHandler>:
void USB_LP_CAN1_RX0_IRQHandler(void)
{
  /* USER CODE BEGIN USB_LP_CAN1_RX0_IRQn 0 */

  /* USER CODE END USB_LP_CAN1_RX0_IRQn 0 */
  HAL_CAN_IRQHandler(&hcan);
 8007610:	4801      	ldr	r0, [pc, #4]	; (8007618 <USB_LP_CAN1_RX0_IRQHandler+0x8>)
 8007612:	f7f9 bb26 	b.w	8000c62 <HAL_CAN_IRQHandler>
 8007616:	bf00      	nop
 8007618:	20001a5c 	.word	0x20001a5c

0800761c <USART1_IRQHandler>:
  /* USER CODE BEGIN USART1_IRQn 0 */
//  recieve LIN message
	uint32_t errorflags = 0x00U;


	if(USART1->SR & (uint32_t)USART_SR_IDLE) // Idle detect
 800761c:	4b14      	ldr	r3, [pc, #80]	; (8007670 <USART1_IRQHandler+0x54>)
 800761e:	681a      	ldr	r2, [r3, #0]
 8007620:	06d2      	lsls	r2, r2, #27
 8007622:	d504      	bpl.n	800762e <USART1_IRQHandler+0x12>
	{
		uart_rx_char = USART1->DR; // Lost char
 8007624:	685a      	ldr	r2, [r3, #4]
 8007626:	4b13      	ldr	r3, [pc, #76]	; (8007674 <USART1_IRQHandler+0x58>)
 8007628:	701a      	strb	r2, [r3, #0]
//			can_msg_t temp_msg;
//			temp_msg = Parse_LIN_msg(buffer, byte_cnt-1);
//			CAN_Buffer_Write_Data(temp_msg);
//			CAN_Log_Buffer_Write_Data(temp_msg);
//		}
		lin_idle_detect();
 800762a:	f7fe bb03 	b.w	8005c34 <lin_idle_detect>
		return;
	}
	if(USART1->SR & (uint32_t)USART_SR_LBD) // Break detect
 800762e:	681a      	ldr	r2, [r3, #0]
 8007630:	f412 7f80 	tst.w	r2, #256	; 0x100
//			can_msg_t temp_msg;
//			temp_msg = Parse_LIN_msg(buffer, byte_cnt-1);
//			CAN_Buffer_Write_Data(temp_msg);
//			CAN_Log_Buffer_Write_Data(temp_msg);
//		}
		USART1->SR &= ~(uint32_t)USART_SR_LBD;
 8007634:	681a      	ldr	r2, [r3, #0]
	if(USART1->SR & (uint32_t)USART_SR_LBD) // Break detect
 8007636:	d007      	beq.n	8007648 <USART1_IRQHandler+0x2c>
		USART1->SR &= ~(uint32_t)USART_SR_LBD;
 8007638:	f422 7280 	bic.w	r2, r2, #256	; 0x100
 800763c:	601a      	str	r2, [r3, #0]
		uart_rx_char = USART1->DR; // Lost char
 800763e:	685a      	ldr	r2, [r3, #4]
 8007640:	4b0c      	ldr	r3, [pc, #48]	; (8007674 <USART1_IRQHandler+0x58>)
 8007642:	701a      	strb	r2, [r3, #0]
//		byte_cnt = 0;
//		buffer[0] = buffer[1] = buffer[2] = buffer[3] = buffer[4] = buffer[5] = buffer[6] = buffer[7] = buffer[8] = 0;
		lin_break_detect();
 8007644:	f7fe bade 	b.w	8005c04 <lin_break_detect>
		return;
	}
	/* If no error occurs */
	errorflags = (USART1->SR & (uint32_t)(USART_SR_PE | USART_SR_FE | USART_SR_ORE | USART_SR_NE));
	if(errorflags == 0)
 8007648:	0710      	lsls	r0, r2, #28
 800764a:	d109      	bne.n	8007660 <USART1_IRQHandler+0x44>
	{
		/* UART in mode Receiver -------------------------------------------------*/
		if(((USART1->SR & USART_SR_RXNE) != 0)
 800764c:	681a      	ldr	r2, [r3, #0]
 800764e:	0691      	lsls	r1, r2, #26
 8007650:	d50b      	bpl.n	800766a <USART1_IRQHandler+0x4e>
				&& ((USART1->CR1 & USART_CR1_RXNEIE) != 0))
 8007652:	68da      	ldr	r2, [r3, #12]
 8007654:	0692      	lsls	r2, r2, #26
 8007656:	d508      	bpl.n	800766a <USART1_IRQHandler+0x4e>
		{
			lin_byte_received(USART1->DR);
 8007658:	6858      	ldr	r0, [r3, #4]
 800765a:	b2c0      	uxtb	r0, r0
 800765c:	f7fe bb52 	b.w	8005d04 <lin_byte_received>
			return;
		}
	}
	else
	{
		uart_rx_char = USART1->DR; // Lost char
 8007660:	685a      	ldr	r2, [r3, #4]
 8007662:	4b04      	ldr	r3, [pc, #16]	; (8007674 <USART1_IRQHandler+0x58>)
 8007664:	701a      	strb	r2, [r3, #0]
		lin_fault_detect();
 8007666:	f7fe baf1 	b.w	8005c4c <lin_fault_detect>
//		byte_cnt = 0xFF;
		return;
	}

  /* USER CODE END USART1_IRQn 0 */
  HAL_UART_IRQHandler(&huart1);
 800766a:	4803      	ldr	r0, [pc, #12]	; (8007678 <USART1_IRQHandler+0x5c>)
 800766c:	f7fa bfd4 	b.w	8002618 <HAL_UART_IRQHandler>
 8007670:	40013800 	.word	0x40013800
 8007674:	200025ea 	.word	0x200025ea
 8007678:	20002f7c 	.word	0x20002f7c

0800767c <USART2_IRQHandler>:
void USART2_IRQHandler(void)
{
  /* USER CODE BEGIN USART2_IRQn 0 */

  /* USER CODE END USART2_IRQn 0 */
  HAL_UART_IRQHandler(&huart2);
 800767c:	4801      	ldr	r0, [pc, #4]	; (8007684 <USART2_IRQHandler+0x8>)
 800767e:	f7fa bfcb 	b.w	8002618 <HAL_UART_IRQHandler>
 8007682:	bf00      	nop
 8007684:	20002fbc 	.word	0x20002fbc

08007688 <USART3_IRQHandler>:
{
  /* USER CODE BEGIN USART3_IRQn 0 */

	uint32_t errorflags = 0x00U;
	/* If no error occurs */
	errorflags = (USART3->SR & (uint32_t)(USART_SR_PE | USART_SR_FE | USART_SR_ORE | USART_SR_NE));
 8007688:	4a0f      	ldr	r2, [pc, #60]	; (80076c8 <USART3_IRQHandler+0x40>)
 800768a:	6813      	ldr	r3, [r2, #0]
	if(errorflags == 0)
 800768c:	0718      	lsls	r0, r3, #28
 800768e:	d10e      	bne.n	80076ae <USART3_IRQHandler+0x26>
	{
		/* UART in mode Receiver -------------------------------------------------*/
		if(((USART3->SR & USART_SR_RXNE) != 0) && ((USART3->CR1 & USART_CR1_RXNEIE) != 0))
 8007690:	6813      	ldr	r3, [r2, #0]
 8007692:	0699      	lsls	r1, r3, #26
 8007694:	d514      	bpl.n	80076c0 <USART3_IRQHandler+0x38>
 8007696:	68d3      	ldr	r3, [r2, #12]
 8007698:	069b      	lsls	r3, r3, #26
 800769a:	d511      	bpl.n	80076c0 <USART3_IRQHandler+0x38>
		{
			//UART_Receive_IT(huart);
			if(((uart_rx_pointer_w + 1) & 1023) == uart_rx_pointer_r)
 800769c:	490b      	ldr	r1, [pc, #44]	; (80076cc <USART3_IRQHandler+0x44>)
 800769e:	480c      	ldr	r0, [pc, #48]	; (80076d0 <USART3_IRQHandler+0x48>)
 80076a0:	680b      	ldr	r3, [r1, #0]
 80076a2:	6800      	ldr	r0, [r0, #0]
 80076a4:	3301      	adds	r3, #1
 80076a6:	f3c3 0309 	ubfx	r3, r3, #0, #10
 80076aa:	4283      	cmp	r3, r0
 80076ac:	d103      	bne.n	80076b6 <USART3_IRQHandler+0x2e>
			return;
		}
	}
	else
	{
		uart_rx_char = USART3->DR; // Lost char
 80076ae:	6852      	ldr	r2, [r2, #4]
 80076b0:	4b08      	ldr	r3, [pc, #32]	; (80076d4 <USART3_IRQHandler+0x4c>)
 80076b2:	701a      	strb	r2, [r3, #0]
  /* USER CODE END USART3_IRQn 0 */
  HAL_UART_IRQHandler(&huart3);
  /* USER CODE BEGIN USART3_IRQn 1 */

  /* USER CODE END USART3_IRQn 1 */
}
 80076b4:	4770      	bx	lr
			uart_rx_pointer_w = (uart_rx_pointer_w + 1) & 1023;
 80076b6:	600b      	str	r3, [r1, #0]
			uart_rx_bufer[uart_rx_pointer_w] = USART3->DR;
 80076b8:	6851      	ldr	r1, [r2, #4]
 80076ba:	4a07      	ldr	r2, [pc, #28]	; (80076d8 <USART3_IRQHandler+0x50>)
 80076bc:	54d1      	strb	r1, [r2, r3]
			return;
 80076be:	4770      	bx	lr
  HAL_UART_IRQHandler(&huart3);
 80076c0:	4806      	ldr	r0, [pc, #24]	; (80076dc <USART3_IRQHandler+0x54>)
 80076c2:	f7fa bfa9 	b.w	8002618 <HAL_UART_IRQHandler>
 80076c6:	bf00      	nop
 80076c8:	40004800 	.word	0x40004800
 80076cc:	2000014c 	.word	0x2000014c
 80076d0:	20000148 	.word	0x20000148
 80076d4:	200025ea 	.word	0x200025ea
 80076d8:	200021cc 	.word	0x200021cc
 80076dc:	20002e70 	.word	0x20002e70

080076e0 <_sbrk>:
	}
	return len;
}

caddr_t _sbrk(int incr)
{
 80076e0:	b508      	push	{r3, lr}
	extern char end asm("end");
	static char *heap_end;
	char *prev_heap_end;

	if (heap_end == 0)
 80076e2:	4b0a      	ldr	r3, [pc, #40]	; (800770c <_sbrk+0x2c>)
{
 80076e4:	4602      	mov	r2, r0
	if (heap_end == 0)
 80076e6:	6819      	ldr	r1, [r3, #0]
 80076e8:	b909      	cbnz	r1, 80076ee <_sbrk+0xe>
		heap_end = &end;
 80076ea:	4909      	ldr	r1, [pc, #36]	; (8007710 <_sbrk+0x30>)
 80076ec:	6019      	str	r1, [r3, #0]

	prev_heap_end = heap_end;
	if (heap_end + incr > stack_ptr)
 80076ee:	4669      	mov	r1, sp
	prev_heap_end = heap_end;
 80076f0:	6818      	ldr	r0, [r3, #0]
	if (heap_end + incr > stack_ptr)
 80076f2:	4402      	add	r2, r0
 80076f4:	428a      	cmp	r2, r1
 80076f6:	d906      	bls.n	8007706 <_sbrk+0x26>
	{
//		write(1, "Heap and stack collision\n", 25);
//		abort();
		errno = ENOMEM;
 80076f8:	f000 f9f2 	bl	8007ae0 <__errno>
 80076fc:	230c      	movs	r3, #12
 80076fe:	6003      	str	r3, [r0, #0]
		return (caddr_t) -1;
 8007700:	f04f 30ff 	mov.w	r0, #4294967295
	}

	heap_end += incr;

	return (caddr_t) prev_heap_end;
}
 8007704:	bd08      	pop	{r3, pc}
	heap_end += incr;
 8007706:	601a      	str	r2, [r3, #0]
	return (caddr_t) prev_heap_end;
 8007708:	e7fc      	b.n	8007704 <_sbrk+0x24>
 800770a:	bf00      	nop
 800770c:	20000158 	.word	0x20000158
 8007710:	2000300c 	.word	0x2000300c

08007714 <SystemInit>:
  */
void SystemInit (void)
{
  /* Reset the RCC clock configuration to the default reset state(for debug purpose) */
  /* Set HSION bit */
  RCC->CR |= 0x00000001U;
 8007714:	4b0f      	ldr	r3, [pc, #60]	; (8007754 <SystemInit+0x40>)
 8007716:	681a      	ldr	r2, [r3, #0]
 8007718:	f042 0201 	orr.w	r2, r2, #1
 800771c:	601a      	str	r2, [r3, #0]

  /* Reset SW, HPRE, PPRE1, PPRE2, ADCPRE and MCO bits */
#if !defined(STM32F105xC) && !defined(STM32F107xC)
  RCC->CFGR &= 0xF8FF0000U;
 800771e:	6859      	ldr	r1, [r3, #4]
 8007720:	4a0d      	ldr	r2, [pc, #52]	; (8007758 <SystemInit+0x44>)
 8007722:	400a      	ands	r2, r1
 8007724:	605a      	str	r2, [r3, #4]
#else
  RCC->CFGR &= 0xF0FF0000U;
#endif /* STM32F105xC */   
  
  /* Reset HSEON, CSSON and PLLON bits */
  RCC->CR &= 0xFEF6FFFFU;
 8007726:	681a      	ldr	r2, [r3, #0]
 8007728:	f022 7284 	bic.w	r2, r2, #17301504	; 0x1080000
 800772c:	f422 3280 	bic.w	r2, r2, #65536	; 0x10000
 8007730:	601a      	str	r2, [r3, #0]

  /* Reset HSEBYP bit */
  RCC->CR &= 0xFFFBFFFFU;
 8007732:	681a      	ldr	r2, [r3, #0]
 8007734:	f422 2280 	bic.w	r2, r2, #262144	; 0x40000
 8007738:	601a      	str	r2, [r3, #0]

  /* Reset PLLSRC, PLLXTPRE, PLLMUL and USBPRE/OTGFSPRE bits */
  RCC->CFGR &= 0xFF80FFFFU;
 800773a:	685a      	ldr	r2, [r3, #4]
 800773c:	f422 02fe 	bic.w	r2, r2, #8323072	; 0x7f0000
 8007740:	605a      	str	r2, [r3, #4]

  /* Reset CFGR2 register */
  RCC->CFGR2 = 0x00000000U;      
#else
  /* Disable all interrupts and clear pending bits  */
  RCC->CIR = 0x009F0000U;
 8007742:	f44f 021f 	mov.w	r2, #10420224	; 0x9f0000
 8007746:	609a      	str	r2, [r3, #8]
#endif 

#ifdef VECT_TAB_SRAM
  SCB->VTOR = SRAM_BASE | VECT_TAB_OFFSET; /* Vector Table Relocation in Internal SRAM. */
#else
  SCB->VTOR = FLASH_BASE | VECT_TAB_OFFSET; /* Vector Table Relocation in Internal FLASH. */
 8007748:	f04f 6200 	mov.w	r2, #134217728	; 0x8000000
 800774c:	4b03      	ldr	r3, [pc, #12]	; (800775c <SystemInit+0x48>)
 800774e:	609a      	str	r2, [r3, #8]
#endif 
}
 8007750:	4770      	bx	lr
 8007752:	bf00      	nop
 8007754:	40021000 	.word	0x40021000
 8007758:	f8ff0000 	.word	0xf8ff0000
 800775c:	e000ed00 	.word	0xe000ed00

08007760 <MX_USART1_UART_Init>:
DMA_HandleTypeDef hdma_usart3_tx;

/* USART1 init function */

void MX_USART1_UART_Init(void)
{
 8007760:	b508      	push	{r3, lr}

  huart1.Instance = USART1;
  huart1.Init.BaudRate = 9600;
 8007762:	f44f 5316 	mov.w	r3, #9600	; 0x2580
  huart1.Instance = USART1;
 8007766:	4809      	ldr	r0, [pc, #36]	; (800778c <MX_USART1_UART_Init+0x2c>)
  huart1.Init.BaudRate = 9600;
 8007768:	4a09      	ldr	r2, [pc, #36]	; (8007790 <MX_USART1_UART_Init+0x30>)
  huart1.Init.WordLength = UART_WORDLENGTH_8B;
 800776a:	2100      	movs	r1, #0
  huart1.Init.BaudRate = 9600;
 800776c:	e9c0 2300 	strd	r2, r3, [r0]
  huart1.Init.StopBits = UART_STOPBITS_1;
  huart1.Init.Parity = UART_PARITY_NONE;
  huart1.Init.Mode = UART_MODE_TX_RX;
 8007770:	230c      	movs	r3, #12
  huart1.Init.StopBits = UART_STOPBITS_1;
 8007772:	e9c0 1102 	strd	r1, r1, [r0, #8]
  huart1.Init.HwFlowCtl = UART_HWCONTROL_NONE;
 8007776:	e9c0 3105 	strd	r3, r1, [r0, #20]
  huart1.Init.Parity = UART_PARITY_NONE;
 800777a:	6101      	str	r1, [r0, #16]
  if (HAL_LIN_Init(&huart1, UART_LINBREAKDETECTLENGTH_10B) != HAL_OK)
 800777c:	f7fa fe40 	bl	8002400 <HAL_LIN_Init>
 8007780:	b118      	cbz	r0, 800778a <MX_USART1_UART_Init+0x2a>
  {
    Error_Handler();
  }

}
 8007782:	e8bd 4008 	ldmia.w	sp!, {r3, lr}
    Error_Handler();
 8007786:	f7ff be03 	b.w	8007390 <Error_Handler>
}
 800778a:	bd08      	pop	{r3, pc}
 800778c:	20002f7c 	.word	0x20002f7c
 8007790:	40013800 	.word	0x40013800

08007794 <MX_USART2_UART_Init>:
/* USART2 init function */

void MX_USART2_UART_Init(void)
{
 8007794:	b508      	push	{r3, lr}

  huart2.Instance = USART2;
  huart2.Init.BaudRate = 115200;
 8007796:	f44f 33e1 	mov.w	r3, #115200	; 0x1c200
  huart2.Instance = USART2;
 800779a:	480a      	ldr	r0, [pc, #40]	; (80077c4 <MX_USART2_UART_Init+0x30>)
  huart2.Init.BaudRate = 115200;
 800779c:	4a0a      	ldr	r2, [pc, #40]	; (80077c8 <MX_USART2_UART_Init+0x34>)
 800779e:	e9c0 2300 	strd	r2, r3, [r0]
  huart2.Init.WordLength = UART_WORDLENGTH_8B;
 80077a2:	2300      	movs	r3, #0
  huart2.Init.StopBits = UART_STOPBITS_1;
  huart2.Init.Parity = UART_PARITY_NONE;
  huart2.Init.Mode = UART_MODE_TX_RX;
 80077a4:	220c      	movs	r2, #12
  huart2.Init.StopBits = UART_STOPBITS_1;
 80077a6:	e9c0 3302 	strd	r3, r3, [r0, #8]
  huart2.Init.HwFlowCtl = UART_HWCONTROL_NONE;
 80077aa:	e9c0 2305 	strd	r2, r3, [r0, #20]
  huart2.Init.Parity = UART_PARITY_NONE;
 80077ae:	6103      	str	r3, [r0, #16]
  huart2.Init.OverSampling = UART_OVERSAMPLING_16;
 80077b0:	61c3      	str	r3, [r0, #28]
  if (HAL_UART_Init(&huart2) != HAL_OK)
 80077b2:	f7fa fdf7 	bl	80023a4 <HAL_UART_Init>
 80077b6:	b118      	cbz	r0, 80077c0 <MX_USART2_UART_Init+0x2c>
  {
    Error_Handler();
  }

}
 80077b8:	e8bd 4008 	ldmia.w	sp!, {r3, lr}
    Error_Handler();
 80077bc:	f7ff bde8 	b.w	8007390 <Error_Handler>
}
 80077c0:	bd08      	pop	{r3, pc}
 80077c2:	bf00      	nop
 80077c4:	20002fbc 	.word	0x20002fbc
 80077c8:	40004400 	.word	0x40004400

080077cc <MX_USART3_UART_Init>:
/* USART3 init function */

void MX_USART3_UART_Init(void)
{
 80077cc:	b508      	push	{r3, lr}

  huart3.Instance = USART3;
  huart3.Init.BaudRate = 115200;
 80077ce:	f44f 33e1 	mov.w	r3, #115200	; 0x1c200
  huart3.Instance = USART3;
 80077d2:	480a      	ldr	r0, [pc, #40]	; (80077fc <MX_USART3_UART_Init+0x30>)
  huart3.Init.BaudRate = 115200;
 80077d4:	4a0a      	ldr	r2, [pc, #40]	; (8007800 <MX_USART3_UART_Init+0x34>)
 80077d6:	e9c0 2300 	strd	r2, r3, [r0]
  huart3.Init.WordLength = UART_WORDLENGTH_8B;
 80077da:	2300      	movs	r3, #0
  huart3.Init.StopBits = UART_STOPBITS_1;
  huart3.Init.Parity = UART_PARITY_NONE;
  huart3.Init.Mode = UART_MODE_TX_RX;
 80077dc:	220c      	movs	r2, #12
  huart3.Init.StopBits = UART_STOPBITS_1;
 80077de:	e9c0 3302 	strd	r3, r3, [r0, #8]
  huart3.Init.HwFlowCtl = UART_HWCONTROL_NONE;
 80077e2:	e9c0 2305 	strd	r2, r3, [r0, #20]
  huart3.Init.Parity = UART_PARITY_NONE;
 80077e6:	6103      	str	r3, [r0, #16]
  huart3.Init.OverSampling = UART_OVERSAMPLING_16;
 80077e8:	61c3      	str	r3, [r0, #28]
  if (HAL_UART_Init(&huart3) != HAL_OK)
 80077ea:	f7fa fddb 	bl	80023a4 <HAL_UART_Init>
 80077ee:	b118      	cbz	r0, 80077f8 <MX_USART3_UART_Init+0x2c>
  {
    Error_Handler();
  }

}
 80077f0:	e8bd 4008 	ldmia.w	sp!, {r3, lr}
    Error_Handler();
 80077f4:	f7ff bdcc 	b.w	8007390 <Error_Handler>
}
 80077f8:	bd08      	pop	{r3, pc}
 80077fa:	bf00      	nop
 80077fc:	20002e70 	.word	0x20002e70
 8007800:	40004800 	.word	0x40004800

08007804 <HAL_UART_MspInit>:

void HAL_UART_MspInit(UART_HandleTypeDef* uartHandle)
{
 8007804:	b5f0      	push	{r4, r5, r6, r7, lr}

  GPIO_InitTypeDef GPIO_InitStruct = {0};
 8007806:	2710      	movs	r7, #16
{
 8007808:	4605      	mov	r5, r0
 800780a:	b08b      	sub	sp, #44	; 0x2c
  GPIO_InitTypeDef GPIO_InitStruct = {0};
 800780c:	463a      	mov	r2, r7
 800780e:	2100      	movs	r1, #0
 8007810:	a806      	add	r0, sp, #24
 8007812:	f000 f98f 	bl	8007b34 <memset>
  if(uartHandle->Instance==USART1)
 8007816:	682b      	ldr	r3, [r5, #0]
 8007818:	4a68      	ldr	r2, [pc, #416]	; (80079bc <HAL_UART_MspInit+0x1b8>)
 800781a:	4293      	cmp	r3, r2
 800781c:	d145      	bne.n	80078aa <HAL_UART_MspInit+0xa6>
  {
  /* USER CODE BEGIN USART1_MspInit 0 */

  /* USER CODE END USART1_MspInit 0 */
    /* USART1 clock enable */
    __HAL_RCC_USART1_CLK_ENABLE();
 800781e:	4b68      	ldr	r3, [pc, #416]	; (80079c0 <HAL_UART_MspInit+0x1bc>)
    /**USART1 GPIO Configuration
    PA9     ------> USART1_TX
    PA10     ------> USART1_RX
    */
    GPIO_InitStruct.Pin = LIN_TX_Pin;
    GPIO_InitStruct.Mode = GPIO_MODE_AF_PP;
 8007820:	f44f 7000 	mov.w	r0, #512	; 0x200
    __HAL_RCC_USART1_CLK_ENABLE();
 8007824:	699a      	ldr	r2, [r3, #24]
    GPIO_InitStruct.Speed = GPIO_SPEED_FREQ_HIGH;
    HAL_GPIO_Init(LIN_TX_GPIO_Port, &GPIO_InitStruct);
 8007826:	a906      	add	r1, sp, #24
    __HAL_RCC_USART1_CLK_ENABLE();
 8007828:	f442 4280 	orr.w	r2, r2, #16384	; 0x4000
 800782c:	619a      	str	r2, [r3, #24]
 800782e:	699a      	ldr	r2, [r3, #24]

    GPIO_InitStruct.Pin = LIN_RX_Pin;
    GPIO_InitStruct.Mode = GPIO_MODE_INPUT;
 8007830:	2600      	movs	r6, #0
    __HAL_RCC_USART1_CLK_ENABLE();
 8007832:	f402 4280 	and.w	r2, r2, #16384	; 0x4000
 8007836:	9200      	str	r2, [sp, #0]
 8007838:	9a00      	ldr	r2, [sp, #0]
    __HAL_RCC_GPIOA_CLK_ENABLE();
 800783a:	699a      	ldr	r2, [r3, #24]
    GPIO_InitStruct.Pull = GPIO_PULLUP;
    HAL_GPIO_Init(LIN_RX_GPIO_Port, &GPIO_InitStruct);

    /* USART1 DMA Init */
    /* USART1_TX Init */
    hdma_usart1_tx.Instance = DMA1_Channel4;
 800783c:	4c61      	ldr	r4, [pc, #388]	; (80079c4 <HAL_UART_MspInit+0x1c0>)
    __HAL_RCC_GPIOA_CLK_ENABLE();
 800783e:	f042 0204 	orr.w	r2, r2, #4
 8007842:	619a      	str	r2, [r3, #24]
 8007844:	699b      	ldr	r3, [r3, #24]
 8007846:	f003 0304 	and.w	r3, r3, #4
 800784a:	9301      	str	r3, [sp, #4]
 800784c:	9b01      	ldr	r3, [sp, #4]
    GPIO_InitStruct.Mode = GPIO_MODE_AF_PP;
 800784e:	2302      	movs	r3, #2
 8007850:	e9cd 0306 	strd	r0, r3, [sp, #24]
    GPIO_InitStruct.Speed = GPIO_SPEED_FREQ_HIGH;
 8007854:	2303      	movs	r3, #3
    HAL_GPIO_Init(LIN_TX_GPIO_Port, &GPIO_InitStruct);
 8007856:	485c      	ldr	r0, [pc, #368]	; (80079c8 <HAL_UART_MspInit+0x1c4>)
    GPIO_InitStruct.Speed = GPIO_SPEED_FREQ_HIGH;
 8007858:	9309      	str	r3, [sp, #36]	; 0x24
    HAL_GPIO_Init(LIN_TX_GPIO_Port, &GPIO_InitStruct);
 800785a:	f7f9 fd0b 	bl	8001274 <HAL_GPIO_Init>
    GPIO_InitStruct.Mode = GPIO_MODE_INPUT;
 800785e:	f44f 6380 	mov.w	r3, #1024	; 0x400
 8007862:	e9cd 3606 	strd	r3, r6, [sp, #24]
    GPIO_InitStruct.Pull = GPIO_PULLUP;
 8007866:	2301      	movs	r3, #1
    HAL_GPIO_Init(LIN_RX_GPIO_Port, &GPIO_InitStruct);
 8007868:	4857      	ldr	r0, [pc, #348]	; (80079c8 <HAL_UART_MspInit+0x1c4>)
 800786a:	a906      	add	r1, sp, #24
    GPIO_InitStruct.Pull = GPIO_PULLUP;
 800786c:	9308      	str	r3, [sp, #32]
    HAL_GPIO_Init(LIN_RX_GPIO_Port, &GPIO_InitStruct);
 800786e:	f7f9 fd01 	bl	8001274 <HAL_GPIO_Init>
    hdma_usart1_tx.Instance = DMA1_Channel4;
 8007872:	4b56      	ldr	r3, [pc, #344]	; (80079cc <HAL_UART_MspInit+0x1c8>)
    hdma_usart1_tx.Init.MemInc = DMA_MINC_ENABLE;
    hdma_usart1_tx.Init.PeriphDataAlignment = DMA_PDATAALIGN_BYTE;
    hdma_usart1_tx.Init.MemDataAlignment = DMA_MDATAALIGN_BYTE;
    hdma_usart1_tx.Init.Mode = DMA_NORMAL;
    hdma_usart1_tx.Init.Priority = DMA_PRIORITY_LOW;
    if (HAL_DMA_Init(&hdma_usart1_tx) != HAL_OK)
 8007874:	4620      	mov	r0, r4
    hdma_usart1_tx.Init.Direction = DMA_MEMORY_TO_PERIPH;
 8007876:	e9c4 3700 	strd	r3, r7, [r4]
    hdma_usart1_tx.Init.MemInc = DMA_MINC_ENABLE;
 800787a:	2380      	movs	r3, #128	; 0x80
    hdma_usart1_tx.Init.Mode = DMA_NORMAL;
 800787c:	e9c4 6605 	strd	r6, r6, [r4, #20]
    hdma_usart1_tx.Init.PeriphDataAlignment = DMA_PDATAALIGN_BYTE;
 8007880:	e9c4 3603 	strd	r3, r6, [r4, #12]
    hdma_usart1_tx.Init.PeriphInc = DMA_PINC_DISABLE;
 8007884:	60a6      	str	r6, [r4, #8]
    hdma_usart1_tx.Init.Priority = DMA_PRIORITY_LOW;
 8007886:	61e6      	str	r6, [r4, #28]
    if (HAL_DMA_Init(&hdma_usart1_tx) != HAL_OK)
 8007888:	f7f9 fb8a 	bl	8000fa0 <HAL_DMA_Init>
 800788c:	b108      	cbz	r0, 8007892 <HAL_UART_MspInit+0x8e>
    {
      Error_Handler();
 800788e:	f7ff fd7f 	bl	8007390 <Error_Handler>
    }

    __HAL_LINKDMA(uartHandle,hdmatx,hdma_usart1_tx);

    /* USART1 interrupt Init */
    HAL_NVIC_SetPriority(USART1_IRQn, 1, 0);
 8007892:	2025      	movs	r0, #37	; 0x25
 8007894:	2200      	movs	r2, #0
 8007896:	2101      	movs	r1, #1
    __HAL_LINKDMA(uartHandle,hdmatx,hdma_usart1_tx);
 8007898:	632c      	str	r4, [r5, #48]	; 0x30
 800789a:	6265      	str	r5, [r4, #36]	; 0x24
    HAL_NVIC_SetPriority(USART1_IRQn, 1, 0);
 800789c:	f7f9 fb16 	bl	8000ecc <HAL_NVIC_SetPriority>
    HAL_NVIC_EnableIRQ(USART1_IRQn);
 80078a0:	2025      	movs	r0, #37	; 0x25

    __HAL_LINKDMA(uartHandle,hdmatx,hdma_usart3_tx);

    /* USART3 interrupt Init */
    HAL_NVIC_SetPriority(USART3_IRQn, 1, 0);
    HAL_NVIC_EnableIRQ(USART3_IRQn);
 80078a2:	f7f9 fb45 	bl	8000f30 <HAL_NVIC_EnableIRQ>
  /* USER CODE BEGIN USART3_MspInit 1 */

  /* USER CODE END USART3_MspInit 1 */
  }
}
 80078a6:	b00b      	add	sp, #44	; 0x2c
 80078a8:	bdf0      	pop	{r4, r5, r6, r7, pc}
  else if(uartHandle->Instance==USART2)
 80078aa:	4a49      	ldr	r2, [pc, #292]	; (80079d0 <HAL_UART_MspInit+0x1cc>)
 80078ac:	4293      	cmp	r3, r2
 80078ae:	d13f      	bne.n	8007930 <HAL_UART_MspInit+0x12c>
    __HAL_RCC_USART2_CLK_ENABLE();
 80078b0:	4b43      	ldr	r3, [pc, #268]	; (80079c0 <HAL_UART_MspInit+0x1bc>)
    GPIO_InitStruct.Mode = GPIO_MODE_AF_PP;
 80078b2:	2104      	movs	r1, #4
    __HAL_RCC_USART2_CLK_ENABLE();
 80078b4:	69da      	ldr	r2, [r3, #28]
    HAL_GPIO_Init(GPIOA, &GPIO_InitStruct);
 80078b6:	4844      	ldr	r0, [pc, #272]	; (80079c8 <HAL_UART_MspInit+0x1c4>)
    __HAL_RCC_USART2_CLK_ENABLE();
 80078b8:	f442 3200 	orr.w	r2, r2, #131072	; 0x20000
 80078bc:	61da      	str	r2, [r3, #28]
 80078be:	69da      	ldr	r2, [r3, #28]
    GPIO_InitStruct.Mode = GPIO_MODE_INPUT;
 80078c0:	2600      	movs	r6, #0
    __HAL_RCC_USART2_CLK_ENABLE();
 80078c2:	f402 3200 	and.w	r2, r2, #131072	; 0x20000
 80078c6:	9202      	str	r2, [sp, #8]
 80078c8:	9a02      	ldr	r2, [sp, #8]
    __HAL_RCC_GPIOA_CLK_ENABLE();
 80078ca:	699a      	ldr	r2, [r3, #24]
    hdma_usart2_tx.Instance = DMA1_Channel7;
 80078cc:	4c41      	ldr	r4, [pc, #260]	; (80079d4 <HAL_UART_MspInit+0x1d0>)
    __HAL_RCC_GPIOA_CLK_ENABLE();
 80078ce:	f042 0204 	orr.w	r2, r2, #4
 80078d2:	619a      	str	r2, [r3, #24]
 80078d4:	699b      	ldr	r3, [r3, #24]
 80078d6:	f003 0304 	and.w	r3, r3, #4
 80078da:	9303      	str	r3, [sp, #12]
 80078dc:	9b03      	ldr	r3, [sp, #12]
    GPIO_InitStruct.Mode = GPIO_MODE_AF_PP;
 80078de:	2302      	movs	r3, #2
 80078e0:	e9cd 1306 	strd	r1, r3, [sp, #24]
    GPIO_InitStruct.Speed = GPIO_SPEED_FREQ_HIGH;
 80078e4:	2303      	movs	r3, #3
    HAL_GPIO_Init(GPIOA, &GPIO_InitStruct);
 80078e6:	a906      	add	r1, sp, #24
    GPIO_InitStruct.Speed = GPIO_SPEED_FREQ_HIGH;
 80078e8:	9309      	str	r3, [sp, #36]	; 0x24
    HAL_GPIO_Init(GPIOA, &GPIO_InitStruct);
 80078ea:	f7f9 fcc3 	bl	8001274 <HAL_GPIO_Init>
    GPIO_InitStruct.Mode = GPIO_MODE_INPUT;
 80078ee:	2308      	movs	r3, #8
    HAL_GPIO_Init(GPIOA, &GPIO_InitStruct);
 80078f0:	4835      	ldr	r0, [pc, #212]	; (80079c8 <HAL_UART_MspInit+0x1c4>)
 80078f2:	a906      	add	r1, sp, #24
    GPIO_InitStruct.Mode = GPIO_MODE_INPUT;
 80078f4:	e9cd 3606 	strd	r3, r6, [sp, #24]
    GPIO_InitStruct.Pull = GPIO_NOPULL;
 80078f8:	9608      	str	r6, [sp, #32]
    HAL_GPIO_Init(GPIOA, &GPIO_InitStruct);
 80078fa:	f7f9 fcbb 	bl	8001274 <HAL_GPIO_Init>
    hdma_usart2_tx.Instance = DMA1_Channel7;
 80078fe:	4b36      	ldr	r3, [pc, #216]	; (80079d8 <HAL_UART_MspInit+0x1d4>)
    if (HAL_DMA_Init(&hdma_usart2_tx) != HAL_OK)
 8007900:	4620      	mov	r0, r4
    hdma_usart2_tx.Init.Direction = DMA_MEMORY_TO_PERIPH;
 8007902:	e9c4 3700 	strd	r3, r7, [r4]
    hdma_usart2_tx.Init.MemInc = DMA_MINC_ENABLE;
 8007906:	2380      	movs	r3, #128	; 0x80
    hdma_usart2_tx.Init.Mode = DMA_NORMAL;
 8007908:	e9c4 6605 	strd	r6, r6, [r4, #20]
    hdma_usart2_tx.Init.PeriphDataAlignment = DMA_PDATAALIGN_BYTE;
 800790c:	e9c4 3603 	strd	r3, r6, [r4, #12]
    hdma_usart2_tx.Init.PeriphInc = DMA_PINC_DISABLE;
 8007910:	60a6      	str	r6, [r4, #8]
    hdma_usart2_tx.Init.Priority = DMA_PRIORITY_LOW;
 8007912:	61e6      	str	r6, [r4, #28]
    if (HAL_DMA_Init(&hdma_usart2_tx) != HAL_OK)
 8007914:	f7f9 fb44 	bl	8000fa0 <HAL_DMA_Init>
 8007918:	b108      	cbz	r0, 800791e <HAL_UART_MspInit+0x11a>
      Error_Handler();
 800791a:	f7ff fd39 	bl	8007390 <Error_Handler>
    HAL_NVIC_SetPriority(USART2_IRQn, 1, 0);
 800791e:	2026      	movs	r0, #38	; 0x26
 8007920:	2200      	movs	r2, #0
 8007922:	2101      	movs	r1, #1
    __HAL_LINKDMA(uartHandle,hdmatx,hdma_usart2_tx);
 8007924:	632c      	str	r4, [r5, #48]	; 0x30
 8007926:	6265      	str	r5, [r4, #36]	; 0x24
    HAL_NVIC_SetPriority(USART2_IRQn, 1, 0);
 8007928:	f7f9 fad0 	bl	8000ecc <HAL_NVIC_SetPriority>
    HAL_NVIC_EnableIRQ(USART2_IRQn);
 800792c:	2026      	movs	r0, #38	; 0x26
 800792e:	e7b8      	b.n	80078a2 <HAL_UART_MspInit+0x9e>
  else if(uartHandle->Instance==USART3)
 8007930:	4a2a      	ldr	r2, [pc, #168]	; (80079dc <HAL_UART_MspInit+0x1d8>)
 8007932:	4293      	cmp	r3, r2
 8007934:	d1b7      	bne.n	80078a6 <HAL_UART_MspInit+0xa2>
    __HAL_RCC_USART3_CLK_ENABLE();
 8007936:	4b22      	ldr	r3, [pc, #136]	; (80079c0 <HAL_UART_MspInit+0x1bc>)
    HAL_GPIO_Init(USART3_TX_GPIO_Port, &GPIO_InitStruct);
 8007938:	4829      	ldr	r0, [pc, #164]	; (80079e0 <HAL_UART_MspInit+0x1dc>)
    __HAL_RCC_USART3_CLK_ENABLE();
 800793a:	69da      	ldr	r2, [r3, #28]
    HAL_GPIO_Init(USART3_TX_GPIO_Port, &GPIO_InitStruct);
 800793c:	a906      	add	r1, sp, #24
    __HAL_RCC_USART3_CLK_ENABLE();
 800793e:	f442 2280 	orr.w	r2, r2, #262144	; 0x40000
 8007942:	61da      	str	r2, [r3, #28]
 8007944:	69da      	ldr	r2, [r3, #28]
    GPIO_InitStruct.Mode = GPIO_MODE_INPUT;
 8007946:	2600      	movs	r6, #0
    __HAL_RCC_USART3_CLK_ENABLE();
 8007948:	f402 2280 	and.w	r2, r2, #262144	; 0x40000
 800794c:	9204      	str	r2, [sp, #16]
 800794e:	9a04      	ldr	r2, [sp, #16]
    __HAL_RCC_GPIOB_CLK_ENABLE();
 8007950:	699a      	ldr	r2, [r3, #24]
    hdma_usart3_tx.Instance = DMA1_Channel2;
 8007952:	4c24      	ldr	r4, [pc, #144]	; (80079e4 <HAL_UART_MspInit+0x1e0>)
    __HAL_RCC_GPIOB_CLK_ENABLE();
 8007954:	f042 0208 	orr.w	r2, r2, #8
 8007958:	619a      	str	r2, [r3, #24]
 800795a:	699b      	ldr	r3, [r3, #24]
    GPIO_InitStruct.Mode = GPIO_MODE_AF_PP;
 800795c:	f44f 6280 	mov.w	r2, #1024	; 0x400
    __HAL_RCC_GPIOB_CLK_ENABLE();
 8007960:	f003 0308 	and.w	r3, r3, #8
 8007964:	9305      	str	r3, [sp, #20]
 8007966:	9b05      	ldr	r3, [sp, #20]
    GPIO_InitStruct.Mode = GPIO_MODE_AF_PP;
 8007968:	2302      	movs	r3, #2
 800796a:	e9cd 2306 	strd	r2, r3, [sp, #24]
    GPIO_InitStruct.Speed = GPIO_SPEED_FREQ_HIGH;
 800796e:	2303      	movs	r3, #3
 8007970:	9309      	str	r3, [sp, #36]	; 0x24
    HAL_GPIO_Init(USART3_TX_GPIO_Port, &GPIO_InitStruct);
 8007972:	f7f9 fc7f 	bl	8001274 <HAL_GPIO_Init>
    GPIO_InitStruct.Mode = GPIO_MODE_INPUT;
 8007976:	f44f 6300 	mov.w	r3, #2048	; 0x800
    HAL_GPIO_Init(USART3_RX_GPIO_Port, &GPIO_InitStruct);
 800797a:	4819      	ldr	r0, [pc, #100]	; (80079e0 <HAL_UART_MspInit+0x1dc>)
 800797c:	a906      	add	r1, sp, #24
    GPIO_InitStruct.Mode = GPIO_MODE_INPUT;
 800797e:	e9cd 3606 	strd	r3, r6, [sp, #24]
    GPIO_InitStruct.Pull = GPIO_NOPULL;
 8007982:	9608      	str	r6, [sp, #32]
    HAL_GPIO_Init(USART3_RX_GPIO_Port, &GPIO_InitStruct);
 8007984:	f7f9 fc76 	bl	8001274 <HAL_GPIO_Init>
    hdma_usart3_tx.Instance = DMA1_Channel2;
 8007988:	4b17      	ldr	r3, [pc, #92]	; (80079e8 <HAL_UART_MspInit+0x1e4>)
    if (HAL_DMA_Init(&hdma_usart3_tx) != HAL_OK)
 800798a:	4620      	mov	r0, r4
    hdma_usart3_tx.Init.Direction = DMA_MEMORY_TO_PERIPH;
 800798c:	e9c4 3700 	strd	r3, r7, [r4]
    hdma_usart3_tx.Init.MemInc = DMA_MINC_ENABLE;
 8007990:	2380      	movs	r3, #128	; 0x80
    hdma_usart3_tx.Init.Mode = DMA_NORMAL;
 8007992:	e9c4 6605 	strd	r6, r6, [r4, #20]
    hdma_usart3_tx.Init.PeriphDataAlignment = DMA_PDATAALIGN_BYTE;
 8007996:	e9c4 3603 	strd	r3, r6, [r4, #12]
    hdma_usart3_tx.Init.PeriphInc = DMA_PINC_DISABLE;
 800799a:	60a6      	str	r6, [r4, #8]
    hdma_usart3_tx.Init.Priority = DMA_PRIORITY_LOW;
 800799c:	61e6      	str	r6, [r4, #28]
    if (HAL_DMA_Init(&hdma_usart3_tx) != HAL_OK)
 800799e:	f7f9 faff 	bl	8000fa0 <HAL_DMA_Init>
 80079a2:	b108      	cbz	r0, 80079a8 <HAL_UART_MspInit+0x1a4>
      Error_Handler();
 80079a4:	f7ff fcf4 	bl	8007390 <Error_Handler>
    HAL_NVIC_SetPriority(USART3_IRQn, 1, 0);
 80079a8:	2027      	movs	r0, #39	; 0x27
 80079aa:	2200      	movs	r2, #0
 80079ac:	2101      	movs	r1, #1
    __HAL_LINKDMA(uartHandle,hdmatx,hdma_usart3_tx);
 80079ae:	632c      	str	r4, [r5, #48]	; 0x30
 80079b0:	6265      	str	r5, [r4, #36]	; 0x24
    HAL_NVIC_SetPriority(USART3_IRQn, 1, 0);
 80079b2:	f7f9 fa8b 	bl	8000ecc <HAL_NVIC_SetPriority>
    HAL_NVIC_EnableIRQ(USART3_IRQn);
 80079b6:	2027      	movs	r0, #39	; 0x27
 80079b8:	e773      	b.n	80078a2 <HAL_UART_MspInit+0x9e>
 80079ba:	bf00      	nop
 80079bc:	40013800 	.word	0x40013800
 80079c0:	40021000 	.word	0x40021000
 80079c4:	20002ef4 	.word	0x20002ef4
 80079c8:	40010800 	.word	0x40010800
 80079cc:	40020044 	.word	0x40020044
 80079d0:	40004400 	.word	0x40004400
 80079d4:	20002f38 	.word	0x20002f38
 80079d8:	40020080 	.word	0x40020080
 80079dc:	40004800 	.word	0x40004800
 80079e0:	40010c00 	.word	0x40010c00
 80079e4:	20002eb0 	.word	0x20002eb0
 80079e8:	4002001c 	.word	0x4002001c

080079ec <HAL_UART_MspDeInit>:

void HAL_UART_MspDeInit(UART_HandleTypeDef* uartHandle)
{

  if(uartHandle->Instance==USART1)
 80079ec:	6803      	ldr	r3, [r0, #0]
 80079ee:	4a1f      	ldr	r2, [pc, #124]	; (8007a6c <HAL_UART_MspDeInit+0x80>)
{
 80079f0:	b510      	push	{r4, lr}
  if(uartHandle->Instance==USART1)
 80079f2:	4293      	cmp	r3, r2
{
 80079f4:	4604      	mov	r4, r0
  if(uartHandle->Instance==USART1)
 80079f6:	d112      	bne.n	8007a1e <HAL_UART_MspDeInit+0x32>
  {
  /* USER CODE BEGIN USART1_MspDeInit 0 */

  /* USER CODE END USART1_MspDeInit 0 */
    /* Peripheral clock disable */
    __HAL_RCC_USART1_CLK_DISABLE();
 80079f8:	f502 4258 	add.w	r2, r2, #55296	; 0xd800
 80079fc:	6993      	ldr	r3, [r2, #24]

    /**USART1 GPIO Configuration
    PA9     ------> USART1_TX
    PA10     ------> USART1_RX
    */
    HAL_GPIO_DeInit(GPIOA, LIN_TX_Pin|LIN_RX_Pin);
 80079fe:	f44f 61c0 	mov.w	r1, #1536	; 0x600
    __HAL_RCC_USART1_CLK_DISABLE();
 8007a02:	f423 4380 	bic.w	r3, r3, #16384	; 0x4000
    HAL_GPIO_DeInit(GPIOA, LIN_TX_Pin|LIN_RX_Pin);
 8007a06:	481a      	ldr	r0, [pc, #104]	; (8007a70 <HAL_UART_MspDeInit+0x84>)
    __HAL_RCC_USART1_CLK_DISABLE();
 8007a08:	6193      	str	r3, [r2, #24]
    HAL_GPIO_DeInit(GPIOA, LIN_TX_Pin|LIN_RX_Pin);
 8007a0a:	f7f9 fd0f 	bl	800142c <HAL_GPIO_DeInit>

    /* USART1 DMA DeInit */
    HAL_DMA_DeInit(uartHandle->hdmatx);
 8007a0e:	6b20      	ldr	r0, [r4, #48]	; 0x30
 8007a10:	f7f9 faf4 	bl	8000ffc <HAL_DMA_DeInit>

    /* USART1 interrupt Deinit */
    HAL_NVIC_DisableIRQ(USART1_IRQn);
 8007a14:	2025      	movs	r0, #37	; 0x25
    HAL_NVIC_DisableIRQ(USART3_IRQn);
  /* USER CODE BEGIN USART3_MspDeInit 1 */

  /* USER CODE END USART3_MspDeInit 1 */
  }
}
 8007a16:	e8bd 4010 	ldmia.w	sp!, {r4, lr}
    HAL_NVIC_DisableIRQ(USART3_IRQn);
 8007a1a:	f7f9 ba97 	b.w	8000f4c <HAL_NVIC_DisableIRQ>
  else if(uartHandle->Instance==USART2)
 8007a1e:	4a15      	ldr	r2, [pc, #84]	; (8007a74 <HAL_UART_MspDeInit+0x88>)
 8007a20:	4293      	cmp	r3, r2
 8007a22:	d10e      	bne.n	8007a42 <HAL_UART_MspDeInit+0x56>
    __HAL_RCC_USART2_CLK_DISABLE();
 8007a24:	f502 32e6 	add.w	r2, r2, #117760	; 0x1cc00
 8007a28:	69d3      	ldr	r3, [r2, #28]
    HAL_GPIO_DeInit(GPIOA, GPIO_PIN_2|GPIO_PIN_3);
 8007a2a:	210c      	movs	r1, #12
    __HAL_RCC_USART2_CLK_DISABLE();
 8007a2c:	f423 3300 	bic.w	r3, r3, #131072	; 0x20000
    HAL_GPIO_DeInit(GPIOA, GPIO_PIN_2|GPIO_PIN_3);
 8007a30:	480f      	ldr	r0, [pc, #60]	; (8007a70 <HAL_UART_MspDeInit+0x84>)
    __HAL_RCC_USART2_CLK_DISABLE();
 8007a32:	61d3      	str	r3, [r2, #28]
    HAL_GPIO_DeInit(GPIOA, GPIO_PIN_2|GPIO_PIN_3);
 8007a34:	f7f9 fcfa 	bl	800142c <HAL_GPIO_DeInit>
    HAL_DMA_DeInit(uartHandle->hdmatx);
 8007a38:	6b20      	ldr	r0, [r4, #48]	; 0x30
 8007a3a:	f7f9 fadf 	bl	8000ffc <HAL_DMA_DeInit>
    HAL_NVIC_DisableIRQ(USART2_IRQn);
 8007a3e:	2026      	movs	r0, #38	; 0x26
 8007a40:	e7e9      	b.n	8007a16 <HAL_UART_MspDeInit+0x2a>
  else if(uartHandle->Instance==USART3)
 8007a42:	4a0d      	ldr	r2, [pc, #52]	; (8007a78 <HAL_UART_MspDeInit+0x8c>)
 8007a44:	4293      	cmp	r3, r2
 8007a46:	d10f      	bne.n	8007a68 <HAL_UART_MspDeInit+0x7c>
    __HAL_RCC_USART3_CLK_DISABLE();
 8007a48:	f502 32e4 	add.w	r2, r2, #116736	; 0x1c800
 8007a4c:	69d3      	ldr	r3, [r2, #28]
    HAL_GPIO_DeInit(GPIOB, USART3_TX_Pin|USART3_RX_Pin);
 8007a4e:	f44f 6140 	mov.w	r1, #3072	; 0xc00
    __HAL_RCC_USART3_CLK_DISABLE();
 8007a52:	f423 2380 	bic.w	r3, r3, #262144	; 0x40000
    HAL_GPIO_DeInit(GPIOB, USART3_TX_Pin|USART3_RX_Pin);
 8007a56:	4809      	ldr	r0, [pc, #36]	; (8007a7c <HAL_UART_MspDeInit+0x90>)
    __HAL_RCC_USART3_CLK_DISABLE();
 8007a58:	61d3      	str	r3, [r2, #28]
    HAL_GPIO_DeInit(GPIOB, USART3_TX_Pin|USART3_RX_Pin);
 8007a5a:	f7f9 fce7 	bl	800142c <HAL_GPIO_DeInit>
    HAL_DMA_DeInit(uartHandle->hdmatx);
 8007a5e:	6b20      	ldr	r0, [r4, #48]	; 0x30
 8007a60:	f7f9 facc 	bl	8000ffc <HAL_DMA_DeInit>
    HAL_NVIC_DisableIRQ(USART3_IRQn);
 8007a64:	2027      	movs	r0, #39	; 0x27
 8007a66:	e7d6      	b.n	8007a16 <HAL_UART_MspDeInit+0x2a>
}
 8007a68:	bd10      	pop	{r4, pc}
 8007a6a:	bf00      	nop
 8007a6c:	40013800 	.word	0x40013800
 8007a70:	40010800 	.word	0x40010800
 8007a74:	40004400 	.word	0x40004400
 8007a78:	40004800 	.word	0x40004800
 8007a7c:	40010c00 	.word	0x40010c00

08007a80 <USER_initialize>:
DSTATUS USER_initialize (
	BYTE pdrv           /* Physical drive nmuber to identify the drive */
)
{
  /* USER CODE BEGIN INIT */
	return SD_disk_initialize (pdrv);
 8007a80:	f7fe bcd4 	b.w	800642c <SD_disk_initialize>

08007a84 <USER_status>:
DSTATUS USER_status (
	BYTE pdrv       /* Physical drive number to identify the drive */
)
{
  /* USER CODE BEGIN STATUS */
	return SD_disk_status (pdrv);
 8007a84:	f7fe bd82 	b.w	800658c <SD_disk_status>

08007a88 <USER_read>:
	DWORD sector,   /* Sector address in LBA */
	UINT count      /* Number of sectors to read */
)
{
  /* USER CODE BEGIN READ */
	return SD_disk_read (pdrv, buff, sector, count);;
 8007a88:	f7fe bd8a 	b.w	80065a0 <SD_disk_read>

08007a8c <USER_write>:
	UINT count          /* Number of sectors to write */
)
{
  /* USER CODE BEGIN WRITE */
  /* USER CODE HERE */
	return SD_disk_write (pdrv, buff, sector, count);
 8007a8c:	f7fe bdce 	b.w	800662c <SD_disk_write>

08007a90 <USER_ioctl>:
	BYTE cmd,       /* Control code */
	void *buff      /* Buffer to send/receive control data */
)
{
  /* USER CODE BEGIN IOCTL */
	return SD_disk_ioctl (pdrv, cmd, buff);
 8007a90:	f7fe be24 	b.w	80066dc <SD_disk_ioctl>

08007a94 <Reset_Handler>:
  .weak Reset_Handler
  .type Reset_Handler, %function
Reset_Handler:

/* Copy the data segment initializers from flash to SRAM */
  movs r1, #0
 8007a94:	2100      	movs	r1, #0
  b LoopCopyDataInit
 8007a96:	e003      	b.n	8007aa0 <LoopCopyDataInit>

08007a98 <CopyDataInit>:

CopyDataInit:
  ldr r3, =_sidata
 8007a98:	4b0b      	ldr	r3, [pc, #44]	; (8007ac8 <LoopFillZerobss+0x14>)
  ldr r3, [r3, r1]
 8007a9a:	585b      	ldr	r3, [r3, r1]
  str r3, [r0, r1]
 8007a9c:	5043      	str	r3, [r0, r1]
  adds r1, r1, #4
 8007a9e:	3104      	adds	r1, #4

08007aa0 <LoopCopyDataInit>:

LoopCopyDataInit:
  ldr r0, =_sdata
 8007aa0:	480a      	ldr	r0, [pc, #40]	; (8007acc <LoopFillZerobss+0x18>)
  ldr r3, =_edata
 8007aa2:	4b0b      	ldr	r3, [pc, #44]	; (8007ad0 <LoopFillZerobss+0x1c>)
  adds r2, r0, r1
 8007aa4:	1842      	adds	r2, r0, r1
  cmp r2, r3
 8007aa6:	429a      	cmp	r2, r3
  bcc CopyDataInit
 8007aa8:	d3f6      	bcc.n	8007a98 <CopyDataInit>
  ldr r2, =_sbss
 8007aaa:	4a0a      	ldr	r2, [pc, #40]	; (8007ad4 <LoopFillZerobss+0x20>)
  b LoopFillZerobss
 8007aac:	e002      	b.n	8007ab4 <LoopFillZerobss>

08007aae <FillZerobss>:
/* Zero fill the bss segment. */
FillZerobss:
  movs r3, #0
 8007aae:	2300      	movs	r3, #0
  str r3, [r2], #4
 8007ab0:	f842 3b04 	str.w	r3, [r2], #4

08007ab4 <LoopFillZerobss>:

LoopFillZerobss:
  ldr r3, = _ebss
 8007ab4:	4b08      	ldr	r3, [pc, #32]	; (8007ad8 <LoopFillZerobss+0x24>)
  cmp r2, r3
 8007ab6:	429a      	cmp	r2, r3
  bcc FillZerobss
 8007ab8:	d3f9      	bcc.n	8007aae <FillZerobss>

/* Call the clock system intitialization function.*/
    bl  SystemInit
 8007aba:	f7ff fe2b 	bl	8007714 <SystemInit>
/* Call static constructors */
    bl __libc_init_array
 8007abe:	f000 f815 	bl	8007aec <__libc_init_array>
/* Call the application's entry point.*/
  bl main
 8007ac2:	f7ff f8e3 	bl	8006c8c <main>
  bx lr
 8007ac6:	4770      	bx	lr
  ldr r3, =_sidata
 8007ac8:	08008a34 	.word	0x08008a34
  ldr r0, =_sdata
 8007acc:	20000000 	.word	0x20000000
  ldr r3, =_edata
 8007ad0:	200000a8 	.word	0x200000a8
  ldr r2, =_sbss
 8007ad4:	200000a8 	.word	0x200000a8
  ldr r3, = _ebss
 8007ad8:	2000300c 	.word	0x2000300c

08007adc <ADC1_2_IRQHandler>:
 * @retval : None
*/
    .section .text.Default_Handler,"ax",%progbits
Default_Handler:
Infinite_Loop:
  b Infinite_Loop
 8007adc:	e7fe      	b.n	8007adc <ADC1_2_IRQHandler>
	...

08007ae0 <__errno>:
 8007ae0:	4b01      	ldr	r3, [pc, #4]	; (8007ae8 <__errno+0x8>)
 8007ae2:	6818      	ldr	r0, [r3, #0]
 8007ae4:	4770      	bx	lr
 8007ae6:	bf00      	nop
 8007ae8:	20000044 	.word	0x20000044

08007aec <__libc_init_array>:
 8007aec:	b570      	push	{r4, r5, r6, lr}
 8007aee:	2600      	movs	r6, #0
 8007af0:	4d0c      	ldr	r5, [pc, #48]	; (8007b24 <__libc_init_array+0x38>)
 8007af2:	4c0d      	ldr	r4, [pc, #52]	; (8007b28 <__libc_init_array+0x3c>)
 8007af4:	1b64      	subs	r4, r4, r5
 8007af6:	10a4      	asrs	r4, r4, #2
 8007af8:	42a6      	cmp	r6, r4
 8007afa:	d109      	bne.n	8007b10 <__libc_init_array+0x24>
 8007afc:	f000 fc82 	bl	8008404 <_init>
 8007b00:	2600      	movs	r6, #0
 8007b02:	4d0a      	ldr	r5, [pc, #40]	; (8007b2c <__libc_init_array+0x40>)
 8007b04:	4c0a      	ldr	r4, [pc, #40]	; (8007b30 <__libc_init_array+0x44>)
 8007b06:	1b64      	subs	r4, r4, r5
 8007b08:	10a4      	asrs	r4, r4, #2
 8007b0a:	42a6      	cmp	r6, r4
 8007b0c:	d105      	bne.n	8007b1a <__libc_init_array+0x2e>
 8007b0e:	bd70      	pop	{r4, r5, r6, pc}
 8007b10:	f855 3b04 	ldr.w	r3, [r5], #4
 8007b14:	4798      	blx	r3
 8007b16:	3601      	adds	r6, #1
 8007b18:	e7ee      	b.n	8007af8 <__libc_init_array+0xc>
 8007b1a:	f855 3b04 	ldr.w	r3, [r5], #4
 8007b1e:	4798      	blx	r3
 8007b20:	3601      	adds	r6, #1
 8007b22:	e7f2      	b.n	8007b0a <__libc_init_array+0x1e>
 8007b24:	08008a2c 	.word	0x08008a2c
 8007b28:	08008a2c 	.word	0x08008a2c
 8007b2c:	08008a2c 	.word	0x08008a2c
 8007b30:	08008a30 	.word	0x08008a30

08007b34 <memset>:
 8007b34:	4603      	mov	r3, r0
 8007b36:	4402      	add	r2, r0
 8007b38:	4293      	cmp	r3, r2
 8007b3a:	d100      	bne.n	8007b3e <memset+0xa>
 8007b3c:	4770      	bx	lr
 8007b3e:	f803 1b01 	strb.w	r1, [r3], #1
 8007b42:	e7f9      	b.n	8007b38 <memset+0x4>

08007b44 <siprintf>:
 8007b44:	b40e      	push	{r1, r2, r3}
 8007b46:	f06f 4100 	mvn.w	r1, #2147483648	; 0x80000000
 8007b4a:	b500      	push	{lr}
 8007b4c:	b09c      	sub	sp, #112	; 0x70
 8007b4e:	ab1d      	add	r3, sp, #116	; 0x74
 8007b50:	9002      	str	r0, [sp, #8]
 8007b52:	9006      	str	r0, [sp, #24]
 8007b54:	9107      	str	r1, [sp, #28]
 8007b56:	9104      	str	r1, [sp, #16]
 8007b58:	4808      	ldr	r0, [pc, #32]	; (8007b7c <siprintf+0x38>)
 8007b5a:	4909      	ldr	r1, [pc, #36]	; (8007b80 <siprintf+0x3c>)
 8007b5c:	f853 2b04 	ldr.w	r2, [r3], #4
 8007b60:	9105      	str	r1, [sp, #20]
 8007b62:	6800      	ldr	r0, [r0, #0]
 8007b64:	a902      	add	r1, sp, #8
 8007b66:	9301      	str	r3, [sp, #4]
 8007b68:	f000 f868 	bl	8007c3c <_svfiprintf_r>
 8007b6c:	2200      	movs	r2, #0
 8007b6e:	9b02      	ldr	r3, [sp, #8]
 8007b70:	701a      	strb	r2, [r3, #0]
 8007b72:	b01c      	add	sp, #112	; 0x70
 8007b74:	f85d eb04 	ldr.w	lr, [sp], #4
 8007b78:	b003      	add	sp, #12
 8007b7a:	4770      	bx	lr
 8007b7c:	20000044 	.word	0x20000044
 8007b80:	ffff0208 	.word	0xffff0208

08007b84 <__ssputs_r>:
 8007b84:	e92d 47f0 	stmdb	sp!, {r4, r5, r6, r7, r8, r9, sl, lr}
 8007b88:	688e      	ldr	r6, [r1, #8]
 8007b8a:	4682      	mov	sl, r0
 8007b8c:	429e      	cmp	r6, r3
 8007b8e:	460c      	mov	r4, r1
 8007b90:	4690      	mov	r8, r2
 8007b92:	461f      	mov	r7, r3
 8007b94:	d838      	bhi.n	8007c08 <__ssputs_r+0x84>
 8007b96:	898a      	ldrh	r2, [r1, #12]
 8007b98:	f412 6f90 	tst.w	r2, #1152	; 0x480
 8007b9c:	d032      	beq.n	8007c04 <__ssputs_r+0x80>
 8007b9e:	6825      	ldr	r5, [r4, #0]
 8007ba0:	6909      	ldr	r1, [r1, #16]
 8007ba2:	3301      	adds	r3, #1
 8007ba4:	eba5 0901 	sub.w	r9, r5, r1
 8007ba8:	6965      	ldr	r5, [r4, #20]
 8007baa:	444b      	add	r3, r9
 8007bac:	eb05 0545 	add.w	r5, r5, r5, lsl #1
 8007bb0:	eb05 75d5 	add.w	r5, r5, r5, lsr #31
 8007bb4:	106d      	asrs	r5, r5, #1
 8007bb6:	429d      	cmp	r5, r3
 8007bb8:	bf38      	it	cc
 8007bba:	461d      	movcc	r5, r3
 8007bbc:	0553      	lsls	r3, r2, #21
 8007bbe:	d531      	bpl.n	8007c24 <__ssputs_r+0xa0>
 8007bc0:	4629      	mov	r1, r5
 8007bc2:	f000 fb53 	bl	800826c <_malloc_r>
 8007bc6:	4606      	mov	r6, r0
 8007bc8:	b950      	cbnz	r0, 8007be0 <__ssputs_r+0x5c>
 8007bca:	230c      	movs	r3, #12
 8007bcc:	f04f 30ff 	mov.w	r0, #4294967295
 8007bd0:	f8ca 3000 	str.w	r3, [sl]
 8007bd4:	89a3      	ldrh	r3, [r4, #12]
 8007bd6:	f043 0340 	orr.w	r3, r3, #64	; 0x40
 8007bda:	81a3      	strh	r3, [r4, #12]
 8007bdc:	e8bd 87f0 	ldmia.w	sp!, {r4, r5, r6, r7, r8, r9, sl, pc}
 8007be0:	464a      	mov	r2, r9
 8007be2:	6921      	ldr	r1, [r4, #16]
 8007be4:	f000 face 	bl	8008184 <memcpy>
 8007be8:	89a3      	ldrh	r3, [r4, #12]
 8007bea:	f423 6390 	bic.w	r3, r3, #1152	; 0x480
 8007bee:	f043 0380 	orr.w	r3, r3, #128	; 0x80
 8007bf2:	81a3      	strh	r3, [r4, #12]
 8007bf4:	6126      	str	r6, [r4, #16]
 8007bf6:	444e      	add	r6, r9
 8007bf8:	6026      	str	r6, [r4, #0]
 8007bfa:	463e      	mov	r6, r7
 8007bfc:	6165      	str	r5, [r4, #20]
 8007bfe:	eba5 0509 	sub.w	r5, r5, r9
 8007c02:	60a5      	str	r5, [r4, #8]
 8007c04:	42be      	cmp	r6, r7
 8007c06:	d900      	bls.n	8007c0a <__ssputs_r+0x86>
 8007c08:	463e      	mov	r6, r7
 8007c0a:	4632      	mov	r2, r6
 8007c0c:	4641      	mov	r1, r8
 8007c0e:	6820      	ldr	r0, [r4, #0]
 8007c10:	f000 fac6 	bl	80081a0 <memmove>
 8007c14:	68a3      	ldr	r3, [r4, #8]
 8007c16:	6822      	ldr	r2, [r4, #0]
 8007c18:	1b9b      	subs	r3, r3, r6
 8007c1a:	4432      	add	r2, r6
 8007c1c:	2000      	movs	r0, #0
 8007c1e:	60a3      	str	r3, [r4, #8]
 8007c20:	6022      	str	r2, [r4, #0]
 8007c22:	e7db      	b.n	8007bdc <__ssputs_r+0x58>
 8007c24:	462a      	mov	r2, r5
 8007c26:	f000 fb7b 	bl	8008320 <_realloc_r>
 8007c2a:	4606      	mov	r6, r0
 8007c2c:	2800      	cmp	r0, #0
 8007c2e:	d1e1      	bne.n	8007bf4 <__ssputs_r+0x70>
 8007c30:	4650      	mov	r0, sl
 8007c32:	6921      	ldr	r1, [r4, #16]
 8007c34:	f000 face 	bl	80081d4 <_free_r>
 8007c38:	e7c7      	b.n	8007bca <__ssputs_r+0x46>
	...

08007c3c <_svfiprintf_r>:
 8007c3c:	e92d 4ff0 	stmdb	sp!, {r4, r5, r6, r7, r8, r9, sl, fp, lr}
 8007c40:	4698      	mov	r8, r3
 8007c42:	898b      	ldrh	r3, [r1, #12]
 8007c44:	4607      	mov	r7, r0
 8007c46:	061b      	lsls	r3, r3, #24
 8007c48:	460d      	mov	r5, r1
 8007c4a:	4614      	mov	r4, r2
 8007c4c:	b09d      	sub	sp, #116	; 0x74
 8007c4e:	d50e      	bpl.n	8007c6e <_svfiprintf_r+0x32>
 8007c50:	690b      	ldr	r3, [r1, #16]
 8007c52:	b963      	cbnz	r3, 8007c6e <_svfiprintf_r+0x32>
 8007c54:	2140      	movs	r1, #64	; 0x40
 8007c56:	f000 fb09 	bl	800826c <_malloc_r>
 8007c5a:	6028      	str	r0, [r5, #0]
 8007c5c:	6128      	str	r0, [r5, #16]
 8007c5e:	b920      	cbnz	r0, 8007c6a <_svfiprintf_r+0x2e>
 8007c60:	230c      	movs	r3, #12
 8007c62:	603b      	str	r3, [r7, #0]
 8007c64:	f04f 30ff 	mov.w	r0, #4294967295
 8007c68:	e0d1      	b.n	8007e0e <_svfiprintf_r+0x1d2>
 8007c6a:	2340      	movs	r3, #64	; 0x40
 8007c6c:	616b      	str	r3, [r5, #20]
 8007c6e:	2300      	movs	r3, #0
 8007c70:	9309      	str	r3, [sp, #36]	; 0x24
 8007c72:	2320      	movs	r3, #32
 8007c74:	f88d 3029 	strb.w	r3, [sp, #41]	; 0x29
 8007c78:	2330      	movs	r3, #48	; 0x30
 8007c7a:	f04f 0901 	mov.w	r9, #1
 8007c7e:	f8cd 800c 	str.w	r8, [sp, #12]
 8007c82:	f8df 81a4 	ldr.w	r8, [pc, #420]	; 8007e28 <_svfiprintf_r+0x1ec>
 8007c86:	f88d 302a 	strb.w	r3, [sp, #42]	; 0x2a
 8007c8a:	4623      	mov	r3, r4
 8007c8c:	469a      	mov	sl, r3
 8007c8e:	f813 2b01 	ldrb.w	r2, [r3], #1
 8007c92:	b10a      	cbz	r2, 8007c98 <_svfiprintf_r+0x5c>
 8007c94:	2a25      	cmp	r2, #37	; 0x25
 8007c96:	d1f9      	bne.n	8007c8c <_svfiprintf_r+0x50>
 8007c98:	ebba 0b04 	subs.w	fp, sl, r4
 8007c9c:	d00b      	beq.n	8007cb6 <_svfiprintf_r+0x7a>
 8007c9e:	465b      	mov	r3, fp
 8007ca0:	4622      	mov	r2, r4
 8007ca2:	4629      	mov	r1, r5
 8007ca4:	4638      	mov	r0, r7
 8007ca6:	f7ff ff6d 	bl	8007b84 <__ssputs_r>
 8007caa:	3001      	adds	r0, #1
 8007cac:	f000 80aa 	beq.w	8007e04 <_svfiprintf_r+0x1c8>
 8007cb0:	9a09      	ldr	r2, [sp, #36]	; 0x24
 8007cb2:	445a      	add	r2, fp
 8007cb4:	9209      	str	r2, [sp, #36]	; 0x24
 8007cb6:	f89a 3000 	ldrb.w	r3, [sl]
 8007cba:	2b00      	cmp	r3, #0
 8007cbc:	f000 80a2 	beq.w	8007e04 <_svfiprintf_r+0x1c8>
 8007cc0:	2300      	movs	r3, #0
 8007cc2:	f04f 32ff 	mov.w	r2, #4294967295
 8007cc6:	e9cd 2305 	strd	r2, r3, [sp, #20]
 8007cca:	f10a 0a01 	add.w	sl, sl, #1
 8007cce:	9304      	str	r3, [sp, #16]
 8007cd0:	9307      	str	r3, [sp, #28]
 8007cd2:	f88d 3053 	strb.w	r3, [sp, #83]	; 0x53
 8007cd6:	931a      	str	r3, [sp, #104]	; 0x68
 8007cd8:	4654      	mov	r4, sl
 8007cda:	2205      	movs	r2, #5
 8007cdc:	f814 1b01 	ldrb.w	r1, [r4], #1
 8007ce0:	4851      	ldr	r0, [pc, #324]	; (8007e28 <_svfiprintf_r+0x1ec>)
 8007ce2:	f000 fa41 	bl	8008168 <memchr>
 8007ce6:	9a04      	ldr	r2, [sp, #16]
 8007ce8:	b9d8      	cbnz	r0, 8007d22 <_svfiprintf_r+0xe6>
 8007cea:	06d0      	lsls	r0, r2, #27
 8007cec:	bf44      	itt	mi
 8007cee:	2320      	movmi	r3, #32
 8007cf0:	f88d 3053 	strbmi.w	r3, [sp, #83]	; 0x53
 8007cf4:	0711      	lsls	r1, r2, #28
 8007cf6:	bf44      	itt	mi
 8007cf8:	232b      	movmi	r3, #43	; 0x2b
 8007cfa:	f88d 3053 	strbmi.w	r3, [sp, #83]	; 0x53
 8007cfe:	f89a 3000 	ldrb.w	r3, [sl]
 8007d02:	2b2a      	cmp	r3, #42	; 0x2a
 8007d04:	d015      	beq.n	8007d32 <_svfiprintf_r+0xf6>
 8007d06:	4654      	mov	r4, sl
 8007d08:	2000      	movs	r0, #0
 8007d0a:	f04f 0c0a 	mov.w	ip, #10
 8007d0e:	9a07      	ldr	r2, [sp, #28]
 8007d10:	4621      	mov	r1, r4
 8007d12:	f811 3b01 	ldrb.w	r3, [r1], #1
 8007d16:	3b30      	subs	r3, #48	; 0x30
 8007d18:	2b09      	cmp	r3, #9
 8007d1a:	d94e      	bls.n	8007dba <_svfiprintf_r+0x17e>
 8007d1c:	b1b0      	cbz	r0, 8007d4c <_svfiprintf_r+0x110>
 8007d1e:	9207      	str	r2, [sp, #28]
 8007d20:	e014      	b.n	8007d4c <_svfiprintf_r+0x110>
 8007d22:	eba0 0308 	sub.w	r3, r0, r8
 8007d26:	fa09 f303 	lsl.w	r3, r9, r3
 8007d2a:	4313      	orrs	r3, r2
 8007d2c:	46a2      	mov	sl, r4
 8007d2e:	9304      	str	r3, [sp, #16]
 8007d30:	e7d2      	b.n	8007cd8 <_svfiprintf_r+0x9c>
 8007d32:	9b03      	ldr	r3, [sp, #12]
 8007d34:	1d19      	adds	r1, r3, #4
 8007d36:	681b      	ldr	r3, [r3, #0]
 8007d38:	9103      	str	r1, [sp, #12]
 8007d3a:	2b00      	cmp	r3, #0
 8007d3c:	bfbb      	ittet	lt
 8007d3e:	425b      	neglt	r3, r3
 8007d40:	f042 0202 	orrlt.w	r2, r2, #2
 8007d44:	9307      	strge	r3, [sp, #28]
 8007d46:	9307      	strlt	r3, [sp, #28]
 8007d48:	bfb8      	it	lt
 8007d4a:	9204      	strlt	r2, [sp, #16]
 8007d4c:	7823      	ldrb	r3, [r4, #0]
 8007d4e:	2b2e      	cmp	r3, #46	; 0x2e
 8007d50:	d10c      	bne.n	8007d6c <_svfiprintf_r+0x130>
 8007d52:	7863      	ldrb	r3, [r4, #1]
 8007d54:	2b2a      	cmp	r3, #42	; 0x2a
 8007d56:	d135      	bne.n	8007dc4 <_svfiprintf_r+0x188>
 8007d58:	9b03      	ldr	r3, [sp, #12]
 8007d5a:	3402      	adds	r4, #2
 8007d5c:	1d1a      	adds	r2, r3, #4
 8007d5e:	681b      	ldr	r3, [r3, #0]
 8007d60:	9203      	str	r2, [sp, #12]
 8007d62:	2b00      	cmp	r3, #0
 8007d64:	bfb8      	it	lt
 8007d66:	f04f 33ff 	movlt.w	r3, #4294967295
 8007d6a:	9305      	str	r3, [sp, #20]
 8007d6c:	f8df a0c8 	ldr.w	sl, [pc, #200]	; 8007e38 <_svfiprintf_r+0x1fc>
 8007d70:	2203      	movs	r2, #3
 8007d72:	4650      	mov	r0, sl
 8007d74:	7821      	ldrb	r1, [r4, #0]
 8007d76:	f000 f9f7 	bl	8008168 <memchr>
 8007d7a:	b140      	cbz	r0, 8007d8e <_svfiprintf_r+0x152>
 8007d7c:	2340      	movs	r3, #64	; 0x40
 8007d7e:	eba0 000a 	sub.w	r0, r0, sl
 8007d82:	fa03 f000 	lsl.w	r0, r3, r0
 8007d86:	9b04      	ldr	r3, [sp, #16]
 8007d88:	3401      	adds	r4, #1
 8007d8a:	4303      	orrs	r3, r0
 8007d8c:	9304      	str	r3, [sp, #16]
 8007d8e:	f814 1b01 	ldrb.w	r1, [r4], #1
 8007d92:	2206      	movs	r2, #6
 8007d94:	4825      	ldr	r0, [pc, #148]	; (8007e2c <_svfiprintf_r+0x1f0>)
 8007d96:	f88d 1028 	strb.w	r1, [sp, #40]	; 0x28
 8007d9a:	f000 f9e5 	bl	8008168 <memchr>
 8007d9e:	2800      	cmp	r0, #0
 8007da0:	d038      	beq.n	8007e14 <_svfiprintf_r+0x1d8>
 8007da2:	4b23      	ldr	r3, [pc, #140]	; (8007e30 <_svfiprintf_r+0x1f4>)
 8007da4:	bb1b      	cbnz	r3, 8007dee <_svfiprintf_r+0x1b2>
 8007da6:	9b03      	ldr	r3, [sp, #12]
 8007da8:	3307      	adds	r3, #7
 8007daa:	f023 0307 	bic.w	r3, r3, #7
 8007dae:	3308      	adds	r3, #8
 8007db0:	9303      	str	r3, [sp, #12]
 8007db2:	9b09      	ldr	r3, [sp, #36]	; 0x24
 8007db4:	4433      	add	r3, r6
 8007db6:	9309      	str	r3, [sp, #36]	; 0x24
 8007db8:	e767      	b.n	8007c8a <_svfiprintf_r+0x4e>
 8007dba:	460c      	mov	r4, r1
 8007dbc:	2001      	movs	r0, #1
 8007dbe:	fb0c 3202 	mla	r2, ip, r2, r3
 8007dc2:	e7a5      	b.n	8007d10 <_svfiprintf_r+0xd4>
 8007dc4:	2300      	movs	r3, #0
 8007dc6:	f04f 0c0a 	mov.w	ip, #10
 8007dca:	4619      	mov	r1, r3
 8007dcc:	3401      	adds	r4, #1
 8007dce:	9305      	str	r3, [sp, #20]
 8007dd0:	4620      	mov	r0, r4
 8007dd2:	f810 2b01 	ldrb.w	r2, [r0], #1
 8007dd6:	3a30      	subs	r2, #48	; 0x30
 8007dd8:	2a09      	cmp	r2, #9
 8007dda:	d903      	bls.n	8007de4 <_svfiprintf_r+0x1a8>
 8007ddc:	2b00      	cmp	r3, #0
 8007dde:	d0c5      	beq.n	8007d6c <_svfiprintf_r+0x130>
 8007de0:	9105      	str	r1, [sp, #20]
 8007de2:	e7c3      	b.n	8007d6c <_svfiprintf_r+0x130>
 8007de4:	4604      	mov	r4, r0
 8007de6:	2301      	movs	r3, #1
 8007de8:	fb0c 2101 	mla	r1, ip, r1, r2
 8007dec:	e7f0      	b.n	8007dd0 <_svfiprintf_r+0x194>
 8007dee:	ab03      	add	r3, sp, #12
 8007df0:	9300      	str	r3, [sp, #0]
 8007df2:	462a      	mov	r2, r5
 8007df4:	4638      	mov	r0, r7
 8007df6:	4b0f      	ldr	r3, [pc, #60]	; (8007e34 <_svfiprintf_r+0x1f8>)
 8007df8:	a904      	add	r1, sp, #16
 8007dfa:	f3af 8000 	nop.w
 8007dfe:	1c42      	adds	r2, r0, #1
 8007e00:	4606      	mov	r6, r0
 8007e02:	d1d6      	bne.n	8007db2 <_svfiprintf_r+0x176>
 8007e04:	89ab      	ldrh	r3, [r5, #12]
 8007e06:	065b      	lsls	r3, r3, #25
 8007e08:	f53f af2c 	bmi.w	8007c64 <_svfiprintf_r+0x28>
 8007e0c:	9809      	ldr	r0, [sp, #36]	; 0x24
 8007e0e:	b01d      	add	sp, #116	; 0x74
 8007e10:	e8bd 8ff0 	ldmia.w	sp!, {r4, r5, r6, r7, r8, r9, sl, fp, pc}
 8007e14:	ab03      	add	r3, sp, #12
 8007e16:	9300      	str	r3, [sp, #0]
 8007e18:	462a      	mov	r2, r5
 8007e1a:	4638      	mov	r0, r7
 8007e1c:	4b05      	ldr	r3, [pc, #20]	; (8007e34 <_svfiprintf_r+0x1f8>)
 8007e1e:	a904      	add	r1, sp, #16
 8007e20:	f000 f87c 	bl	8007f1c <_printf_i>
 8007e24:	e7eb      	b.n	8007dfe <_svfiprintf_r+0x1c2>
 8007e26:	bf00      	nop
 8007e28:	080089f6 	.word	0x080089f6
 8007e2c:	08008a00 	.word	0x08008a00
 8007e30:	00000000 	.word	0x00000000
 8007e34:	08007b85 	.word	0x08007b85
 8007e38:	080089fc 	.word	0x080089fc

08007e3c <_printf_common>:
 8007e3c:	e92d 47f0 	stmdb	sp!, {r4, r5, r6, r7, r8, r9, sl, lr}
 8007e40:	4616      	mov	r6, r2
 8007e42:	4699      	mov	r9, r3
 8007e44:	688a      	ldr	r2, [r1, #8]
 8007e46:	690b      	ldr	r3, [r1, #16]
 8007e48:	4607      	mov	r7, r0
 8007e4a:	4293      	cmp	r3, r2
 8007e4c:	bfb8      	it	lt
 8007e4e:	4613      	movlt	r3, r2
 8007e50:	6033      	str	r3, [r6, #0]
 8007e52:	f891 2043 	ldrb.w	r2, [r1, #67]	; 0x43
 8007e56:	460c      	mov	r4, r1
 8007e58:	f8dd 8020 	ldr.w	r8, [sp, #32]
 8007e5c:	b10a      	cbz	r2, 8007e62 <_printf_common+0x26>
 8007e5e:	3301      	adds	r3, #1
 8007e60:	6033      	str	r3, [r6, #0]
 8007e62:	6823      	ldr	r3, [r4, #0]
 8007e64:	0699      	lsls	r1, r3, #26
 8007e66:	bf42      	ittt	mi
 8007e68:	6833      	ldrmi	r3, [r6, #0]
 8007e6a:	3302      	addmi	r3, #2
 8007e6c:	6033      	strmi	r3, [r6, #0]
 8007e6e:	6825      	ldr	r5, [r4, #0]
 8007e70:	f015 0506 	ands.w	r5, r5, #6
 8007e74:	d106      	bne.n	8007e84 <_printf_common+0x48>
 8007e76:	f104 0a19 	add.w	sl, r4, #25
 8007e7a:	68e3      	ldr	r3, [r4, #12]
 8007e7c:	6832      	ldr	r2, [r6, #0]
 8007e7e:	1a9b      	subs	r3, r3, r2
 8007e80:	42ab      	cmp	r3, r5
 8007e82:	dc28      	bgt.n	8007ed6 <_printf_common+0x9a>
 8007e84:	f894 2043 	ldrb.w	r2, [r4, #67]	; 0x43
 8007e88:	1e13      	subs	r3, r2, #0
 8007e8a:	6822      	ldr	r2, [r4, #0]
 8007e8c:	bf18      	it	ne
 8007e8e:	2301      	movne	r3, #1
 8007e90:	0692      	lsls	r2, r2, #26
 8007e92:	d42d      	bmi.n	8007ef0 <_printf_common+0xb4>
 8007e94:	4649      	mov	r1, r9
 8007e96:	4638      	mov	r0, r7
 8007e98:	f104 0243 	add.w	r2, r4, #67	; 0x43
 8007e9c:	47c0      	blx	r8
 8007e9e:	3001      	adds	r0, #1
 8007ea0:	d020      	beq.n	8007ee4 <_printf_common+0xa8>
 8007ea2:	6823      	ldr	r3, [r4, #0]
 8007ea4:	68e5      	ldr	r5, [r4, #12]
 8007ea6:	f003 0306 	and.w	r3, r3, #6
 8007eaa:	2b04      	cmp	r3, #4
 8007eac:	bf18      	it	ne
 8007eae:	2500      	movne	r5, #0
 8007eb0:	6832      	ldr	r2, [r6, #0]
 8007eb2:	f04f 0600 	mov.w	r6, #0
 8007eb6:	68a3      	ldr	r3, [r4, #8]
 8007eb8:	bf08      	it	eq
 8007eba:	1aad      	subeq	r5, r5, r2
 8007ebc:	6922      	ldr	r2, [r4, #16]
 8007ebe:	bf08      	it	eq
 8007ec0:	ea25 75e5 	biceq.w	r5, r5, r5, asr #31
 8007ec4:	4293      	cmp	r3, r2
 8007ec6:	bfc4      	itt	gt
 8007ec8:	1a9b      	subgt	r3, r3, r2
 8007eca:	18ed      	addgt	r5, r5, r3
 8007ecc:	341a      	adds	r4, #26
 8007ece:	42b5      	cmp	r5, r6
 8007ed0:	d11a      	bne.n	8007f08 <_printf_common+0xcc>
 8007ed2:	2000      	movs	r0, #0
 8007ed4:	e008      	b.n	8007ee8 <_printf_common+0xac>
 8007ed6:	2301      	movs	r3, #1
 8007ed8:	4652      	mov	r2, sl
 8007eda:	4649      	mov	r1, r9
 8007edc:	4638      	mov	r0, r7
 8007ede:	47c0      	blx	r8
 8007ee0:	3001      	adds	r0, #1
 8007ee2:	d103      	bne.n	8007eec <_printf_common+0xb0>
 8007ee4:	f04f 30ff 	mov.w	r0, #4294967295
 8007ee8:	e8bd 87f0 	ldmia.w	sp!, {r4, r5, r6, r7, r8, r9, sl, pc}
 8007eec:	3501      	adds	r5, #1
 8007eee:	e7c4      	b.n	8007e7a <_printf_common+0x3e>
 8007ef0:	2030      	movs	r0, #48	; 0x30
 8007ef2:	18e1      	adds	r1, r4, r3
 8007ef4:	f881 0043 	strb.w	r0, [r1, #67]	; 0x43
 8007ef8:	1c5a      	adds	r2, r3, #1
 8007efa:	f894 1045 	ldrb.w	r1, [r4, #69]	; 0x45
 8007efe:	4422      	add	r2, r4
 8007f00:	3302      	adds	r3, #2
 8007f02:	f882 1043 	strb.w	r1, [r2, #67]	; 0x43
 8007f06:	e7c5      	b.n	8007e94 <_printf_common+0x58>
 8007f08:	2301      	movs	r3, #1
 8007f0a:	4622      	mov	r2, r4
 8007f0c:	4649      	mov	r1, r9
 8007f0e:	4638      	mov	r0, r7
 8007f10:	47c0      	blx	r8
 8007f12:	3001      	adds	r0, #1
 8007f14:	d0e6      	beq.n	8007ee4 <_printf_common+0xa8>
 8007f16:	3601      	adds	r6, #1
 8007f18:	e7d9      	b.n	8007ece <_printf_common+0x92>
	...

08007f1c <_printf_i>:
 8007f1c:	e92d 47ff 	stmdb	sp!, {r0, r1, r2, r3, r4, r5, r6, r7, r8, r9, sl, lr}
 8007f20:	460c      	mov	r4, r1
 8007f22:	7e27      	ldrb	r7, [r4, #24]
 8007f24:	4691      	mov	r9, r2
 8007f26:	2f78      	cmp	r7, #120	; 0x78
 8007f28:	4680      	mov	r8, r0
 8007f2a:	469a      	mov	sl, r3
 8007f2c:	990c      	ldr	r1, [sp, #48]	; 0x30
 8007f2e:	f104 0243 	add.w	r2, r4, #67	; 0x43
 8007f32:	d807      	bhi.n	8007f44 <_printf_i+0x28>
 8007f34:	2f62      	cmp	r7, #98	; 0x62
 8007f36:	d80a      	bhi.n	8007f4e <_printf_i+0x32>
 8007f38:	2f00      	cmp	r7, #0
 8007f3a:	f000 80d9 	beq.w	80080f0 <_printf_i+0x1d4>
 8007f3e:	2f58      	cmp	r7, #88	; 0x58
 8007f40:	f000 80a4 	beq.w	800808c <_printf_i+0x170>
 8007f44:	f104 0642 	add.w	r6, r4, #66	; 0x42
 8007f48:	f884 7042 	strb.w	r7, [r4, #66]	; 0x42
 8007f4c:	e03a      	b.n	8007fc4 <_printf_i+0xa8>
 8007f4e:	f1a7 0363 	sub.w	r3, r7, #99	; 0x63
 8007f52:	2b15      	cmp	r3, #21
 8007f54:	d8f6      	bhi.n	8007f44 <_printf_i+0x28>
 8007f56:	a001      	add	r0, pc, #4	; (adr r0, 8007f5c <_printf_i+0x40>)
 8007f58:	f850 f023 	ldr.w	pc, [r0, r3, lsl #2]
 8007f5c:	08007fb5 	.word	0x08007fb5
 8007f60:	08007fc9 	.word	0x08007fc9
 8007f64:	08007f45 	.word	0x08007f45
 8007f68:	08007f45 	.word	0x08007f45
 8007f6c:	08007f45 	.word	0x08007f45
 8007f70:	08007f45 	.word	0x08007f45
 8007f74:	08007fc9 	.word	0x08007fc9
 8007f78:	08007f45 	.word	0x08007f45
 8007f7c:	08007f45 	.word	0x08007f45
 8007f80:	08007f45 	.word	0x08007f45
 8007f84:	08007f45 	.word	0x08007f45
 8007f88:	080080d7 	.word	0x080080d7
 8007f8c:	08007ff9 	.word	0x08007ff9
 8007f90:	080080b9 	.word	0x080080b9
 8007f94:	08007f45 	.word	0x08007f45
 8007f98:	08007f45 	.word	0x08007f45
 8007f9c:	080080f9 	.word	0x080080f9
 8007fa0:	08007f45 	.word	0x08007f45
 8007fa4:	08007ff9 	.word	0x08007ff9
 8007fa8:	08007f45 	.word	0x08007f45
 8007fac:	08007f45 	.word	0x08007f45
 8007fb0:	080080c1 	.word	0x080080c1
 8007fb4:	680b      	ldr	r3, [r1, #0]
 8007fb6:	f104 0642 	add.w	r6, r4, #66	; 0x42
 8007fba:	1d1a      	adds	r2, r3, #4
 8007fbc:	681b      	ldr	r3, [r3, #0]
 8007fbe:	600a      	str	r2, [r1, #0]
 8007fc0:	f884 3042 	strb.w	r3, [r4, #66]	; 0x42
 8007fc4:	2301      	movs	r3, #1
 8007fc6:	e0a4      	b.n	8008112 <_printf_i+0x1f6>
 8007fc8:	6825      	ldr	r5, [r4, #0]
 8007fca:	6808      	ldr	r0, [r1, #0]
 8007fcc:	062e      	lsls	r6, r5, #24
 8007fce:	f100 0304 	add.w	r3, r0, #4
 8007fd2:	d50a      	bpl.n	8007fea <_printf_i+0xce>
 8007fd4:	6805      	ldr	r5, [r0, #0]
 8007fd6:	600b      	str	r3, [r1, #0]
 8007fd8:	2d00      	cmp	r5, #0
 8007fda:	da03      	bge.n	8007fe4 <_printf_i+0xc8>
 8007fdc:	232d      	movs	r3, #45	; 0x2d
 8007fde:	426d      	negs	r5, r5
 8007fe0:	f884 3043 	strb.w	r3, [r4, #67]	; 0x43
 8007fe4:	230a      	movs	r3, #10
 8007fe6:	485e      	ldr	r0, [pc, #376]	; (8008160 <_printf_i+0x244>)
 8007fe8:	e019      	b.n	800801e <_printf_i+0x102>
 8007fea:	f015 0f40 	tst.w	r5, #64	; 0x40
 8007fee:	6805      	ldr	r5, [r0, #0]
 8007ff0:	600b      	str	r3, [r1, #0]
 8007ff2:	bf18      	it	ne
 8007ff4:	b22d      	sxthne	r5, r5
 8007ff6:	e7ef      	b.n	8007fd8 <_printf_i+0xbc>
 8007ff8:	680b      	ldr	r3, [r1, #0]
 8007ffa:	6825      	ldr	r5, [r4, #0]
 8007ffc:	1d18      	adds	r0, r3, #4
 8007ffe:	6008      	str	r0, [r1, #0]
 8008000:	0628      	lsls	r0, r5, #24
 8008002:	d501      	bpl.n	8008008 <_printf_i+0xec>
 8008004:	681d      	ldr	r5, [r3, #0]
 8008006:	e002      	b.n	800800e <_printf_i+0xf2>
 8008008:	0669      	lsls	r1, r5, #25
 800800a:	d5fb      	bpl.n	8008004 <_printf_i+0xe8>
 800800c:	881d      	ldrh	r5, [r3, #0]
 800800e:	2f6f      	cmp	r7, #111	; 0x6f
 8008010:	bf0c      	ite	eq
 8008012:	2308      	moveq	r3, #8
 8008014:	230a      	movne	r3, #10
 8008016:	4852      	ldr	r0, [pc, #328]	; (8008160 <_printf_i+0x244>)
 8008018:	2100      	movs	r1, #0
 800801a:	f884 1043 	strb.w	r1, [r4, #67]	; 0x43
 800801e:	6866      	ldr	r6, [r4, #4]
 8008020:	2e00      	cmp	r6, #0
 8008022:	bfa8      	it	ge
 8008024:	6821      	ldrge	r1, [r4, #0]
 8008026:	60a6      	str	r6, [r4, #8]
 8008028:	bfa4      	itt	ge
 800802a:	f021 0104 	bicge.w	r1, r1, #4
 800802e:	6021      	strge	r1, [r4, #0]
 8008030:	b90d      	cbnz	r5, 8008036 <_printf_i+0x11a>
 8008032:	2e00      	cmp	r6, #0
 8008034:	d04d      	beq.n	80080d2 <_printf_i+0x1b6>
 8008036:	4616      	mov	r6, r2
 8008038:	fbb5 f1f3 	udiv	r1, r5, r3
 800803c:	fb03 5711 	mls	r7, r3, r1, r5
 8008040:	5dc7      	ldrb	r7, [r0, r7]
 8008042:	f806 7d01 	strb.w	r7, [r6, #-1]!
 8008046:	462f      	mov	r7, r5
 8008048:	42bb      	cmp	r3, r7
 800804a:	460d      	mov	r5, r1
 800804c:	d9f4      	bls.n	8008038 <_printf_i+0x11c>
 800804e:	2b08      	cmp	r3, #8
 8008050:	d10b      	bne.n	800806a <_printf_i+0x14e>
 8008052:	6823      	ldr	r3, [r4, #0]
 8008054:	07df      	lsls	r7, r3, #31
 8008056:	d508      	bpl.n	800806a <_printf_i+0x14e>
 8008058:	6923      	ldr	r3, [r4, #16]
 800805a:	6861      	ldr	r1, [r4, #4]
 800805c:	4299      	cmp	r1, r3
 800805e:	bfde      	ittt	le
 8008060:	2330      	movle	r3, #48	; 0x30
 8008062:	f806 3c01 	strble.w	r3, [r6, #-1]
 8008066:	f106 36ff 	addle.w	r6, r6, #4294967295
 800806a:	1b92      	subs	r2, r2, r6
 800806c:	6122      	str	r2, [r4, #16]
 800806e:	464b      	mov	r3, r9
 8008070:	4621      	mov	r1, r4
 8008072:	4640      	mov	r0, r8
 8008074:	f8cd a000 	str.w	sl, [sp]
 8008078:	aa03      	add	r2, sp, #12
 800807a:	f7ff fedf 	bl	8007e3c <_printf_common>
 800807e:	3001      	adds	r0, #1
 8008080:	d14c      	bne.n	800811c <_printf_i+0x200>
 8008082:	f04f 30ff 	mov.w	r0, #4294967295
 8008086:	b004      	add	sp, #16
 8008088:	e8bd 87f0 	ldmia.w	sp!, {r4, r5, r6, r7, r8, r9, sl, pc}
 800808c:	4834      	ldr	r0, [pc, #208]	; (8008160 <_printf_i+0x244>)
 800808e:	f884 7045 	strb.w	r7, [r4, #69]	; 0x45
 8008092:	680e      	ldr	r6, [r1, #0]
 8008094:	6823      	ldr	r3, [r4, #0]
 8008096:	f856 5b04 	ldr.w	r5, [r6], #4
 800809a:	061f      	lsls	r7, r3, #24
 800809c:	600e      	str	r6, [r1, #0]
 800809e:	d514      	bpl.n	80080ca <_printf_i+0x1ae>
 80080a0:	07d9      	lsls	r1, r3, #31
 80080a2:	bf44      	itt	mi
 80080a4:	f043 0320 	orrmi.w	r3, r3, #32
 80080a8:	6023      	strmi	r3, [r4, #0]
 80080aa:	b91d      	cbnz	r5, 80080b4 <_printf_i+0x198>
 80080ac:	6823      	ldr	r3, [r4, #0]
 80080ae:	f023 0320 	bic.w	r3, r3, #32
 80080b2:	6023      	str	r3, [r4, #0]
 80080b4:	2310      	movs	r3, #16
 80080b6:	e7af      	b.n	8008018 <_printf_i+0xfc>
 80080b8:	6823      	ldr	r3, [r4, #0]
 80080ba:	f043 0320 	orr.w	r3, r3, #32
 80080be:	6023      	str	r3, [r4, #0]
 80080c0:	2378      	movs	r3, #120	; 0x78
 80080c2:	4828      	ldr	r0, [pc, #160]	; (8008164 <_printf_i+0x248>)
 80080c4:	f884 3045 	strb.w	r3, [r4, #69]	; 0x45
 80080c8:	e7e3      	b.n	8008092 <_printf_i+0x176>
 80080ca:	065e      	lsls	r6, r3, #25
 80080cc:	bf48      	it	mi
 80080ce:	b2ad      	uxthmi	r5, r5
 80080d0:	e7e6      	b.n	80080a0 <_printf_i+0x184>
 80080d2:	4616      	mov	r6, r2
 80080d4:	e7bb      	b.n	800804e <_printf_i+0x132>
 80080d6:	680b      	ldr	r3, [r1, #0]
 80080d8:	6826      	ldr	r6, [r4, #0]
 80080da:	1d1d      	adds	r5, r3, #4
 80080dc:	6960      	ldr	r0, [r4, #20]
 80080de:	600d      	str	r5, [r1, #0]
 80080e0:	0635      	lsls	r5, r6, #24
 80080e2:	681b      	ldr	r3, [r3, #0]
 80080e4:	d501      	bpl.n	80080ea <_printf_i+0x1ce>
 80080e6:	6018      	str	r0, [r3, #0]
 80080e8:	e002      	b.n	80080f0 <_printf_i+0x1d4>
 80080ea:	0671      	lsls	r1, r6, #25
 80080ec:	d5fb      	bpl.n	80080e6 <_printf_i+0x1ca>
 80080ee:	8018      	strh	r0, [r3, #0]
 80080f0:	2300      	movs	r3, #0
 80080f2:	4616      	mov	r6, r2
 80080f4:	6123      	str	r3, [r4, #16]
 80080f6:	e7ba      	b.n	800806e <_printf_i+0x152>
 80080f8:	680b      	ldr	r3, [r1, #0]
 80080fa:	1d1a      	adds	r2, r3, #4
 80080fc:	600a      	str	r2, [r1, #0]
 80080fe:	681e      	ldr	r6, [r3, #0]
 8008100:	2100      	movs	r1, #0
 8008102:	4630      	mov	r0, r6
 8008104:	6862      	ldr	r2, [r4, #4]
 8008106:	f000 f82f 	bl	8008168 <memchr>
 800810a:	b108      	cbz	r0, 8008110 <_printf_i+0x1f4>
 800810c:	1b80      	subs	r0, r0, r6
 800810e:	6060      	str	r0, [r4, #4]
 8008110:	6863      	ldr	r3, [r4, #4]
 8008112:	6123      	str	r3, [r4, #16]
 8008114:	2300      	movs	r3, #0
 8008116:	f884 3043 	strb.w	r3, [r4, #67]	; 0x43
 800811a:	e7a8      	b.n	800806e <_printf_i+0x152>
 800811c:	4632      	mov	r2, r6
 800811e:	4649      	mov	r1, r9
 8008120:	4640      	mov	r0, r8
 8008122:	6923      	ldr	r3, [r4, #16]
 8008124:	47d0      	blx	sl
 8008126:	3001      	adds	r0, #1
 8008128:	d0ab      	beq.n	8008082 <_printf_i+0x166>
 800812a:	6823      	ldr	r3, [r4, #0]
 800812c:	079b      	lsls	r3, r3, #30
 800812e:	d413      	bmi.n	8008158 <_printf_i+0x23c>
 8008130:	68e0      	ldr	r0, [r4, #12]
 8008132:	9b03      	ldr	r3, [sp, #12]
 8008134:	4298      	cmp	r0, r3
 8008136:	bfb8      	it	lt
 8008138:	4618      	movlt	r0, r3
 800813a:	e7a4      	b.n	8008086 <_printf_i+0x16a>
 800813c:	2301      	movs	r3, #1
 800813e:	4632      	mov	r2, r6
 8008140:	4649      	mov	r1, r9
 8008142:	4640      	mov	r0, r8
 8008144:	47d0      	blx	sl
 8008146:	3001      	adds	r0, #1
 8008148:	d09b      	beq.n	8008082 <_printf_i+0x166>
 800814a:	3501      	adds	r5, #1
 800814c:	68e3      	ldr	r3, [r4, #12]
 800814e:	9903      	ldr	r1, [sp, #12]
 8008150:	1a5b      	subs	r3, r3, r1
 8008152:	42ab      	cmp	r3, r5
 8008154:	dcf2      	bgt.n	800813c <_printf_i+0x220>
 8008156:	e7eb      	b.n	8008130 <_printf_i+0x214>
 8008158:	2500      	movs	r5, #0
 800815a:	f104 0619 	add.w	r6, r4, #25
 800815e:	e7f5      	b.n	800814c <_printf_i+0x230>
 8008160:	08008a07 	.word	0x08008a07
 8008164:	08008a18 	.word	0x08008a18

08008168 <memchr>:
 8008168:	4603      	mov	r3, r0
 800816a:	b510      	push	{r4, lr}
 800816c:	b2c9      	uxtb	r1, r1
 800816e:	4402      	add	r2, r0
 8008170:	4293      	cmp	r3, r2
 8008172:	4618      	mov	r0, r3
 8008174:	d101      	bne.n	800817a <memchr+0x12>
 8008176:	2000      	movs	r0, #0
 8008178:	e003      	b.n	8008182 <memchr+0x1a>
 800817a:	7804      	ldrb	r4, [r0, #0]
 800817c:	3301      	adds	r3, #1
 800817e:	428c      	cmp	r4, r1
 8008180:	d1f6      	bne.n	8008170 <memchr+0x8>
 8008182:	bd10      	pop	{r4, pc}

08008184 <memcpy>:
 8008184:	440a      	add	r2, r1
 8008186:	4291      	cmp	r1, r2
 8008188:	f100 33ff 	add.w	r3, r0, #4294967295
 800818c:	d100      	bne.n	8008190 <memcpy+0xc>
 800818e:	4770      	bx	lr
 8008190:	b510      	push	{r4, lr}
 8008192:	f811 4b01 	ldrb.w	r4, [r1], #1
 8008196:	4291      	cmp	r1, r2
 8008198:	f803 4f01 	strb.w	r4, [r3, #1]!
 800819c:	d1f9      	bne.n	8008192 <memcpy+0xe>
 800819e:	bd10      	pop	{r4, pc}

080081a0 <memmove>:
 80081a0:	4288      	cmp	r0, r1
 80081a2:	b510      	push	{r4, lr}
 80081a4:	eb01 0402 	add.w	r4, r1, r2
 80081a8:	d902      	bls.n	80081b0 <memmove+0x10>
 80081aa:	4284      	cmp	r4, r0
 80081ac:	4623      	mov	r3, r4
 80081ae:	d807      	bhi.n	80081c0 <memmove+0x20>
 80081b0:	1e43      	subs	r3, r0, #1
 80081b2:	42a1      	cmp	r1, r4
 80081b4:	d008      	beq.n	80081c8 <memmove+0x28>
 80081b6:	f811 2b01 	ldrb.w	r2, [r1], #1
 80081ba:	f803 2f01 	strb.w	r2, [r3, #1]!
 80081be:	e7f8      	b.n	80081b2 <memmove+0x12>
 80081c0:	4601      	mov	r1, r0
 80081c2:	4402      	add	r2, r0
 80081c4:	428a      	cmp	r2, r1
 80081c6:	d100      	bne.n	80081ca <memmove+0x2a>
 80081c8:	bd10      	pop	{r4, pc}
 80081ca:	f813 4d01 	ldrb.w	r4, [r3, #-1]!
 80081ce:	f802 4d01 	strb.w	r4, [r2, #-1]!
 80081d2:	e7f7      	b.n	80081c4 <memmove+0x24>

080081d4 <_free_r>:
 80081d4:	b538      	push	{r3, r4, r5, lr}
 80081d6:	4605      	mov	r5, r0
 80081d8:	2900      	cmp	r1, #0
 80081da:	d043      	beq.n	8008264 <_free_r+0x90>
 80081dc:	f851 3c04 	ldr.w	r3, [r1, #-4]
 80081e0:	1f0c      	subs	r4, r1, #4
 80081e2:	2b00      	cmp	r3, #0
 80081e4:	bfb8      	it	lt
 80081e6:	18e4      	addlt	r4, r4, r3
 80081e8:	f000 f8d0 	bl	800838c <__malloc_lock>
 80081ec:	4a1e      	ldr	r2, [pc, #120]	; (8008268 <_free_r+0x94>)
 80081ee:	6813      	ldr	r3, [r2, #0]
 80081f0:	4610      	mov	r0, r2
 80081f2:	b933      	cbnz	r3, 8008202 <_free_r+0x2e>
 80081f4:	6063      	str	r3, [r4, #4]
 80081f6:	6014      	str	r4, [r2, #0]
 80081f8:	4628      	mov	r0, r5
 80081fa:	e8bd 4038 	ldmia.w	sp!, {r3, r4, r5, lr}
 80081fe:	f000 b8cb 	b.w	8008398 <__malloc_unlock>
 8008202:	42a3      	cmp	r3, r4
 8008204:	d90a      	bls.n	800821c <_free_r+0x48>
 8008206:	6821      	ldr	r1, [r4, #0]
 8008208:	1862      	adds	r2, r4, r1
 800820a:	4293      	cmp	r3, r2
 800820c:	bf01      	itttt	eq
 800820e:	681a      	ldreq	r2, [r3, #0]
 8008210:	685b      	ldreq	r3, [r3, #4]
 8008212:	1852      	addeq	r2, r2, r1
 8008214:	6022      	streq	r2, [r4, #0]
 8008216:	6063      	str	r3, [r4, #4]
 8008218:	6004      	str	r4, [r0, #0]
 800821a:	e7ed      	b.n	80081f8 <_free_r+0x24>
 800821c:	461a      	mov	r2, r3
 800821e:	685b      	ldr	r3, [r3, #4]
 8008220:	b10b      	cbz	r3, 8008226 <_free_r+0x52>
 8008222:	42a3      	cmp	r3, r4
 8008224:	d9fa      	bls.n	800821c <_free_r+0x48>
 8008226:	6811      	ldr	r1, [r2, #0]
 8008228:	1850      	adds	r0, r2, r1
 800822a:	42a0      	cmp	r0, r4
 800822c:	d10b      	bne.n	8008246 <_free_r+0x72>
 800822e:	6820      	ldr	r0, [r4, #0]
 8008230:	4401      	add	r1, r0
 8008232:	1850      	adds	r0, r2, r1
 8008234:	4283      	cmp	r3, r0
 8008236:	6011      	str	r1, [r2, #0]
 8008238:	d1de      	bne.n	80081f8 <_free_r+0x24>
 800823a:	6818      	ldr	r0, [r3, #0]
 800823c:	685b      	ldr	r3, [r3, #4]
 800823e:	4401      	add	r1, r0
 8008240:	6011      	str	r1, [r2, #0]
 8008242:	6053      	str	r3, [r2, #4]
 8008244:	e7d8      	b.n	80081f8 <_free_r+0x24>
 8008246:	d902      	bls.n	800824e <_free_r+0x7a>
 8008248:	230c      	movs	r3, #12
 800824a:	602b      	str	r3, [r5, #0]
 800824c:	e7d4      	b.n	80081f8 <_free_r+0x24>
 800824e:	6820      	ldr	r0, [r4, #0]
 8008250:	1821      	adds	r1, r4, r0
 8008252:	428b      	cmp	r3, r1
 8008254:	bf01      	itttt	eq
 8008256:	6819      	ldreq	r1, [r3, #0]
 8008258:	685b      	ldreq	r3, [r3, #4]
 800825a:	1809      	addeq	r1, r1, r0
 800825c:	6021      	streq	r1, [r4, #0]
 800825e:	6063      	str	r3, [r4, #4]
 8008260:	6054      	str	r4, [r2, #4]
 8008262:	e7c9      	b.n	80081f8 <_free_r+0x24>
 8008264:	bd38      	pop	{r3, r4, r5, pc}
 8008266:	bf00      	nop
 8008268:	2000015c 	.word	0x2000015c

0800826c <_malloc_r>:
 800826c:	b5f8      	push	{r3, r4, r5, r6, r7, lr}
 800826e:	1ccd      	adds	r5, r1, #3
 8008270:	f025 0503 	bic.w	r5, r5, #3
 8008274:	3508      	adds	r5, #8
 8008276:	2d0c      	cmp	r5, #12
 8008278:	bf38      	it	cc
 800827a:	250c      	movcc	r5, #12
 800827c:	2d00      	cmp	r5, #0
 800827e:	4606      	mov	r6, r0
 8008280:	db01      	blt.n	8008286 <_malloc_r+0x1a>
 8008282:	42a9      	cmp	r1, r5
 8008284:	d903      	bls.n	800828e <_malloc_r+0x22>
 8008286:	230c      	movs	r3, #12
 8008288:	6033      	str	r3, [r6, #0]
 800828a:	2000      	movs	r0, #0
 800828c:	bdf8      	pop	{r3, r4, r5, r6, r7, pc}
 800828e:	f000 f87d 	bl	800838c <__malloc_lock>
 8008292:	4921      	ldr	r1, [pc, #132]	; (8008318 <_malloc_r+0xac>)
 8008294:	680a      	ldr	r2, [r1, #0]
 8008296:	4614      	mov	r4, r2
 8008298:	b99c      	cbnz	r4, 80082c2 <_malloc_r+0x56>
 800829a:	4f20      	ldr	r7, [pc, #128]	; (800831c <_malloc_r+0xb0>)
 800829c:	683b      	ldr	r3, [r7, #0]
 800829e:	b923      	cbnz	r3, 80082aa <_malloc_r+0x3e>
 80082a0:	4621      	mov	r1, r4
 80082a2:	4630      	mov	r0, r6
 80082a4:	f000 f862 	bl	800836c <_sbrk_r>
 80082a8:	6038      	str	r0, [r7, #0]
 80082aa:	4629      	mov	r1, r5
 80082ac:	4630      	mov	r0, r6
 80082ae:	f000 f85d 	bl	800836c <_sbrk_r>
 80082b2:	1c43      	adds	r3, r0, #1
 80082b4:	d123      	bne.n	80082fe <_malloc_r+0x92>
 80082b6:	230c      	movs	r3, #12
 80082b8:	4630      	mov	r0, r6
 80082ba:	6033      	str	r3, [r6, #0]
 80082bc:	f000 f86c 	bl	8008398 <__malloc_unlock>
 80082c0:	e7e3      	b.n	800828a <_malloc_r+0x1e>
 80082c2:	6823      	ldr	r3, [r4, #0]
 80082c4:	1b5b      	subs	r3, r3, r5
 80082c6:	d417      	bmi.n	80082f8 <_malloc_r+0x8c>
 80082c8:	2b0b      	cmp	r3, #11
 80082ca:	d903      	bls.n	80082d4 <_malloc_r+0x68>
 80082cc:	6023      	str	r3, [r4, #0]
 80082ce:	441c      	add	r4, r3
 80082d0:	6025      	str	r5, [r4, #0]
 80082d2:	e004      	b.n	80082de <_malloc_r+0x72>
 80082d4:	6863      	ldr	r3, [r4, #4]
 80082d6:	42a2      	cmp	r2, r4
 80082d8:	bf0c      	ite	eq
 80082da:	600b      	streq	r3, [r1, #0]
 80082dc:	6053      	strne	r3, [r2, #4]
 80082de:	4630      	mov	r0, r6
 80082e0:	f000 f85a 	bl	8008398 <__malloc_unlock>
 80082e4:	f104 000b 	add.w	r0, r4, #11
 80082e8:	1d23      	adds	r3, r4, #4
 80082ea:	f020 0007 	bic.w	r0, r0, #7
 80082ee:	1ac2      	subs	r2, r0, r3
 80082f0:	d0cc      	beq.n	800828c <_malloc_r+0x20>
 80082f2:	1a1b      	subs	r3, r3, r0
 80082f4:	50a3      	str	r3, [r4, r2]
 80082f6:	e7c9      	b.n	800828c <_malloc_r+0x20>
 80082f8:	4622      	mov	r2, r4
 80082fa:	6864      	ldr	r4, [r4, #4]
 80082fc:	e7cc      	b.n	8008298 <_malloc_r+0x2c>
 80082fe:	1cc4      	adds	r4, r0, #3
 8008300:	f024 0403 	bic.w	r4, r4, #3
 8008304:	42a0      	cmp	r0, r4
 8008306:	d0e3      	beq.n	80082d0 <_malloc_r+0x64>
 8008308:	1a21      	subs	r1, r4, r0
 800830a:	4630      	mov	r0, r6
 800830c:	f000 f82e 	bl	800836c <_sbrk_r>
 8008310:	3001      	adds	r0, #1
 8008312:	d1dd      	bne.n	80082d0 <_malloc_r+0x64>
 8008314:	e7cf      	b.n	80082b6 <_malloc_r+0x4a>
 8008316:	bf00      	nop
 8008318:	2000015c 	.word	0x2000015c
 800831c:	20000160 	.word	0x20000160

08008320 <_realloc_r>:
 8008320:	b5f8      	push	{r3, r4, r5, r6, r7, lr}
 8008322:	4607      	mov	r7, r0
 8008324:	4614      	mov	r4, r2
 8008326:	460e      	mov	r6, r1
 8008328:	b921      	cbnz	r1, 8008334 <_realloc_r+0x14>
 800832a:	4611      	mov	r1, r2
 800832c:	e8bd 40f8 	ldmia.w	sp!, {r3, r4, r5, r6, r7, lr}
 8008330:	f7ff bf9c 	b.w	800826c <_malloc_r>
 8008334:	b922      	cbnz	r2, 8008340 <_realloc_r+0x20>
 8008336:	f7ff ff4d 	bl	80081d4 <_free_r>
 800833a:	4625      	mov	r5, r4
 800833c:	4628      	mov	r0, r5
 800833e:	bdf8      	pop	{r3, r4, r5, r6, r7, pc}
 8008340:	f000 f830 	bl	80083a4 <_malloc_usable_size_r>
 8008344:	42a0      	cmp	r0, r4
 8008346:	d20f      	bcs.n	8008368 <_realloc_r+0x48>
 8008348:	4621      	mov	r1, r4
 800834a:	4638      	mov	r0, r7
 800834c:	f7ff ff8e 	bl	800826c <_malloc_r>
 8008350:	4605      	mov	r5, r0
 8008352:	2800      	cmp	r0, #0
 8008354:	d0f2      	beq.n	800833c <_realloc_r+0x1c>
 8008356:	4631      	mov	r1, r6
 8008358:	4622      	mov	r2, r4
 800835a:	f7ff ff13 	bl	8008184 <memcpy>
 800835e:	4631      	mov	r1, r6
 8008360:	4638      	mov	r0, r7
 8008362:	f7ff ff37 	bl	80081d4 <_free_r>
 8008366:	e7e9      	b.n	800833c <_realloc_r+0x1c>
 8008368:	4635      	mov	r5, r6
 800836a:	e7e7      	b.n	800833c <_realloc_r+0x1c>

0800836c <_sbrk_r>:
 800836c:	b538      	push	{r3, r4, r5, lr}
 800836e:	2300      	movs	r3, #0
 8008370:	4d05      	ldr	r5, [pc, #20]	; (8008388 <_sbrk_r+0x1c>)
 8008372:	4604      	mov	r4, r0
 8008374:	4608      	mov	r0, r1
 8008376:	602b      	str	r3, [r5, #0]
 8008378:	f7ff f9b2 	bl	80076e0 <_sbrk>
 800837c:	1c43      	adds	r3, r0, #1
 800837e:	d102      	bne.n	8008386 <_sbrk_r+0x1a>
 8008380:	682b      	ldr	r3, [r5, #0]
 8008382:	b103      	cbz	r3, 8008386 <_sbrk_r+0x1a>
 8008384:	6023      	str	r3, [r4, #0]
 8008386:	bd38      	pop	{r3, r4, r5, pc}
 8008388:	20002ffc 	.word	0x20002ffc

0800838c <__malloc_lock>:
 800838c:	4801      	ldr	r0, [pc, #4]	; (8008394 <__malloc_lock+0x8>)
 800838e:	f000 b811 	b.w	80083b4 <__retarget_lock_acquire_recursive>
 8008392:	bf00      	nop
 8008394:	20003004 	.word	0x20003004

08008398 <__malloc_unlock>:
 8008398:	4801      	ldr	r0, [pc, #4]	; (80083a0 <__malloc_unlock+0x8>)
 800839a:	f000 b80c 	b.w	80083b6 <__retarget_lock_release_recursive>
 800839e:	bf00      	nop
 80083a0:	20003004 	.word	0x20003004

080083a4 <_malloc_usable_size_r>:
 80083a4:	f851 3c04 	ldr.w	r3, [r1, #-4]
 80083a8:	1f18      	subs	r0, r3, #4
 80083aa:	2b00      	cmp	r3, #0
 80083ac:	bfbc      	itt	lt
 80083ae:	580b      	ldrlt	r3, [r1, r0]
 80083b0:	18c0      	addlt	r0, r0, r3
 80083b2:	4770      	bx	lr

080083b4 <__retarget_lock_acquire_recursive>:
 80083b4:	4770      	bx	lr

080083b6 <__retarget_lock_release_recursive>:
 80083b6:	4770      	bx	lr

080083b8 <roundf>:
 80083b8:	b508      	push	{r3, lr}
 80083ba:	f3c0 53c7 	ubfx	r3, r0, #23, #8
 80083be:	3b7f      	subs	r3, #127	; 0x7f
 80083c0:	2b16      	cmp	r3, #22
 80083c2:	4601      	mov	r1, r0
 80083c4:	4602      	mov	r2, r0
 80083c6:	dc14      	bgt.n	80083f2 <roundf+0x3a>
 80083c8:	2b00      	cmp	r3, #0
 80083ca:	da07      	bge.n	80083dc <roundf+0x24>
 80083cc:	3301      	adds	r3, #1
 80083ce:	f000 4100 	and.w	r1, r0, #2147483648	; 0x80000000
 80083d2:	d101      	bne.n	80083d8 <roundf+0x20>
 80083d4:	f041 517e 	orr.w	r1, r1, #1065353216	; 0x3f800000
 80083d8:	4608      	mov	r0, r1
 80083da:	bd08      	pop	{r3, pc}
 80083dc:	4808      	ldr	r0, [pc, #32]	; (8008400 <roundf+0x48>)
 80083de:	4118      	asrs	r0, r3
 80083e0:	4201      	tst	r1, r0
 80083e2:	d0f9      	beq.n	80083d8 <roundf+0x20>
 80083e4:	f44f 0180 	mov.w	r1, #4194304	; 0x400000
 80083e8:	4119      	asrs	r1, r3
 80083ea:	4411      	add	r1, r2
 80083ec:	ea21 0100 	bic.w	r1, r1, r0
 80083f0:	e7f2      	b.n	80083d8 <roundf+0x20>
 80083f2:	2b80      	cmp	r3, #128	; 0x80
 80083f4:	d1f0      	bne.n	80083d8 <roundf+0x20>
 80083f6:	f7f7 feb7 	bl	8000168 <__addsf3>
 80083fa:	4601      	mov	r1, r0
 80083fc:	e7ec      	b.n	80083d8 <roundf+0x20>
 80083fe:	bf00      	nop
 8008400:	007fffff 	.word	0x007fffff

08008404 <_init>:
 8008404:	b5f8      	push	{r3, r4, r5, r6, r7, lr}
 8008406:	bf00      	nop
 8008408:	bcf8      	pop	{r3, r4, r5, r6, r7}
 800840a:	bc08      	pop	{r3}
 800840c:	469e      	mov	lr, r3
 800840e:	4770      	bx	lr

08008410 <_fini>:
 8008410:	b5f8      	push	{r3, r4, r5, r6, r7, lr}
 8008412:	bf00      	nop
 8008414:	bcf8      	pop	{r3, r4, r5, r6, r7}
 8008416:	bc08      	pop	{r3}
 8008418:	469e      	mov	lr, r3
 800841a:	4770      	bx	lr
