
CAN_USB.elf:     file format elf32-littlearm

Sections:
Idx Name          Size      VMA       LMA       File off  Algn
  0 .isr_vector   0000010c  08000000  08000000  00010000  2**0
                  CONTENTS, ALLOC, LOAD, READONLY, DATA
  1 .text         00003a50  0800010c  0800010c  0001010c  2**2
                  CONTENTS, ALLOC, LOAD, READONLY, CODE
  2 .rodata       00000038  08003b5c  08003b5c  00013b5c  2**0
                  CONTENTS, ALLOC, LOAD, READONLY, DATA
  3 .init_array   00000004  08003b94  08003b94  00013b94  2**2
                  CONTENTS, ALLOC, LOAD, DATA
  4 .fini_array   00000004  08003b98  08003b98  00013b98  2**2
                  CONTENTS, ALLOC, LOAD, DATA
  5 .data         0000000c  20000000  08003b9c  00020000  2**2
                  CONTENTS, ALLOC, LOAD, DATA
  6 .bss          00001c44  20000010  08003ba8  00020010  2**3
                  ALLOC
  7 ._user_heap_stack 00000600  20001c54  08003ba8  00021c54  2**0
                  ALLOC
  8 .ARM.attributes 00000029  00000000  00000000  0002000c  2**0
                  CONTENTS, READONLY
  9 .debug_info   0001d16f  00000000  00000000  00020035  2**0
                  CONTENTS, READONLY, DEBUGGING
 10 .debug_abbrev 00003e2a  00000000  00000000  0003d1a4  2**0
                  CONTENTS, READONLY, DEBUGGING
 11 .debug_loc    000059eb  00000000  00000000  00040fce  2**0
                  CONTENTS, READONLY, DEBUGGING
 12 .debug_aranges 00000a10  00000000  00000000  000469c0  2**3
                  CONTENTS, READONLY, DEBUGGING
 13 .debug_ranges 00000de0  00000000  00000000  000473d0  2**3
                  CONTENTS, READONLY, DEBUGGING
 14 .debug_line   00007008  00000000  00000000  000481b0  2**0
                  CONTENTS, READONLY, DEBUGGING
 15 .debug_str    00003c7e  00000000  00000000  0004f1b8  2**0
                  CONTENTS, READONLY, DEBUGGING
 16 .comment      0000007c  00000000  00000000  00052e36  2**0
                  CONTENTS, READONLY
 17 .debug_frame  00001a34  00000000  00000000  00052eb4  2**2
                  CONTENTS, READONLY, DEBUGGING

Disassembly of section .text:

0800010c <__do_global_dtors_aux>:
 800010c:	b510      	push	{r4, lr}
 800010e:	4c05      	ldr	r4, [pc, #20]	; (8000124 <__do_global_dtors_aux+0x18>)
 8000110:	7823      	ldrb	r3, [r4, #0]
 8000112:	b933      	cbnz	r3, 8000122 <__do_global_dtors_aux+0x16>
 8000114:	4b04      	ldr	r3, [pc, #16]	; (8000128 <__do_global_dtors_aux+0x1c>)
 8000116:	b113      	cbz	r3, 800011e <__do_global_dtors_aux+0x12>
 8000118:	4804      	ldr	r0, [pc, #16]	; (800012c <__do_global_dtors_aux+0x20>)
 800011a:	f3af 8000 	nop.w
 800011e:	2301      	movs	r3, #1
 8000120:	7023      	strb	r3, [r4, #0]
 8000122:	bd10      	pop	{r4, pc}
 8000124:	20000010 	.word	0x20000010
 8000128:	00000000 	.word	0x00000000
 800012c:	08003b44 	.word	0x08003b44

08000130 <frame_dummy>:
 8000130:	b508      	push	{r3, lr}
 8000132:	4b03      	ldr	r3, [pc, #12]	; (8000140 <frame_dummy+0x10>)
 8000134:	b11b      	cbz	r3, 800013e <frame_dummy+0xe>
 8000136:	4903      	ldr	r1, [pc, #12]	; (8000144 <frame_dummy+0x14>)
 8000138:	4803      	ldr	r0, [pc, #12]	; (8000148 <frame_dummy+0x18>)
 800013a:	f3af 8000 	nop.w
 800013e:	bd08      	pop	{r3, pc}
 8000140:	00000000 	.word	0x00000000
 8000144:	20000014 	.word	0x20000014
 8000148:	08003b44 	.word	0x08003b44

0800014c <strlen>:
 800014c:	4603      	mov	r3, r0
 800014e:	f813 2b01 	ldrb.w	r2, [r3], #1
 8000152:	2a00      	cmp	r2, #0
 8000154:	d1fb      	bne.n	800014e <strlen+0x2>
 8000156:	1a18      	subs	r0, r3, r0
 8000158:	3801      	subs	r0, #1
 800015a:	4770      	bx	lr

0800015c <HAL_InitTick>:
  *       implementation  in user file.
  * @param TickPriority Tick interrupt priority.
  * @retval HAL status
  */
__weak HAL_StatusTypeDef HAL_InitTick(uint32_t TickPriority)
{
 800015c:	b538      	push	{r3, r4, r5, lr}
  /* Configure the SysTick to have interrupt in 1ms time basis*/
  if (HAL_SYSTICK_Config(SystemCoreClock / (1000U / uwTickFreq)) > 0U)
 800015e:	4b0e      	ldr	r3, [pc, #56]	; (8000198 <HAL_InitTick+0x3c>)
{
 8000160:	4605      	mov	r5, r0
  if (HAL_SYSTICK_Config(SystemCoreClock / (1000U / uwTickFreq)) > 0U)
 8000162:	7818      	ldrb	r0, [r3, #0]
 8000164:	f44f 737a 	mov.w	r3, #1000	; 0x3e8
 8000168:	fbb3 f3f0 	udiv	r3, r3, r0
 800016c:	4a0b      	ldr	r2, [pc, #44]	; (800019c <HAL_InitTick+0x40>)
 800016e:	6810      	ldr	r0, [r2, #0]
 8000170:	fbb0 f0f3 	udiv	r0, r0, r3
 8000174:	f000 fbfe 	bl	8000974 <HAL_SYSTICK_Config>
 8000178:	4604      	mov	r4, r0
 800017a:	b958      	cbnz	r0, 8000194 <HAL_InitTick+0x38>
  {
    return HAL_ERROR;
  }

  /* Configure the SysTick IRQ priority */
  if (TickPriority < (1UL << __NVIC_PRIO_BITS))
 800017c:	2d0f      	cmp	r5, #15
 800017e:	d809      	bhi.n	8000194 <HAL_InitTick+0x38>
  {
    HAL_NVIC_SetPriority(SysTick_IRQn, TickPriority, 0U);
 8000180:	4602      	mov	r2, r0
 8000182:	4629      	mov	r1, r5
 8000184:	f04f 30ff 	mov.w	r0, #4294967295
 8000188:	f000 fba6 	bl	80008d8 <HAL_NVIC_SetPriority>
    uwTickPrio = TickPriority;
 800018c:	4b04      	ldr	r3, [pc, #16]	; (80001a0 <HAL_InitTick+0x44>)
 800018e:	4620      	mov	r0, r4
 8000190:	601d      	str	r5, [r3, #0]
 8000192:	bd38      	pop	{r3, r4, r5, pc}
    return HAL_ERROR;
 8000194:	2001      	movs	r0, #1
    return HAL_ERROR;
  }

  /* Return function status */
  return HAL_OK;
}
 8000196:	bd38      	pop	{r3, r4, r5, pc}
 8000198:	20000000 	.word	0x20000000
 800019c:	20000008 	.word	0x20000008
 80001a0:	20000004 	.word	0x20000004

080001a4 <HAL_Init>:
  __HAL_FLASH_PREFETCH_BUFFER_ENABLE();
 80001a4:	4a07      	ldr	r2, [pc, #28]	; (80001c4 <HAL_Init+0x20>)
{
 80001a6:	b508      	push	{r3, lr}
  __HAL_FLASH_PREFETCH_BUFFER_ENABLE();
 80001a8:	6813      	ldr	r3, [r2, #0]
  HAL_NVIC_SetPriorityGrouping(NVIC_PRIORITYGROUP_4);
 80001aa:	2003      	movs	r0, #3
  __HAL_FLASH_PREFETCH_BUFFER_ENABLE();
 80001ac:	f043 0310 	orr.w	r3, r3, #16
 80001b0:	6013      	str	r3, [r2, #0]
  HAL_NVIC_SetPriorityGrouping(NVIC_PRIORITYGROUP_4);
 80001b2:	f000 fb7f 	bl	80008b4 <HAL_NVIC_SetPriorityGrouping>
  HAL_InitTick(TICK_INT_PRIORITY);
 80001b6:	2000      	movs	r0, #0
 80001b8:	f7ff ffd0 	bl	800015c <HAL_InitTick>
  HAL_MspInit();
 80001bc:	f003 fa64 	bl	8003688 <HAL_MspInit>
}
 80001c0:	2000      	movs	r0, #0
 80001c2:	bd08      	pop	{r3, pc}
 80001c4:	40022000 	.word	0x40022000

080001c8 <HAL_IncTick>:
  *      implementations in user file.
  * @retval None
  */
__weak void HAL_IncTick(void)
{
  uwTick += uwTickFreq;
 80001c8:	4a03      	ldr	r2, [pc, #12]	; (80001d8 <HAL_IncTick+0x10>)
 80001ca:	4b04      	ldr	r3, [pc, #16]	; (80001dc <HAL_IncTick+0x14>)
 80001cc:	6811      	ldr	r1, [r2, #0]
 80001ce:	781b      	ldrb	r3, [r3, #0]
 80001d0:	440b      	add	r3, r1
 80001d2:	6013      	str	r3, [r2, #0]
 80001d4:	4770      	bx	lr
 80001d6:	bf00      	nop
 80001d8:	2000007c 	.word	0x2000007c
 80001dc:	20000000 	.word	0x20000000

080001e0 <HAL_GetTick>:
  *       implementations in user file.
  * @retval tick value
  */
__weak uint32_t HAL_GetTick(void)
{
  return uwTick;
 80001e0:	4b01      	ldr	r3, [pc, #4]	; (80001e8 <HAL_GetTick+0x8>)
 80001e2:	6818      	ldr	r0, [r3, #0]
}
 80001e4:	4770      	bx	lr
 80001e6:	bf00      	nop
 80001e8:	2000007c 	.word	0x2000007c

080001ec <HAL_Delay>:
  *       implementations in user file.
  * @param Delay specifies the delay time length, in milliseconds.
  * @retval None
  */
__weak void HAL_Delay(uint32_t Delay)
{
 80001ec:	b538      	push	{r3, r4, r5, lr}
 80001ee:	4604      	mov	r4, r0
  uint32_t tickstart = HAL_GetTick();
 80001f0:	f7ff fff6 	bl	80001e0 <HAL_GetTick>
 80001f4:	4605      	mov	r5, r0
  uint32_t wait = Delay;

  /* Add a freq to guarantee minimum wait */
  if (wait < HAL_MAX_DELAY)
 80001f6:	1c63      	adds	r3, r4, #1
  {
    wait += (uint32_t)(uwTickFreq);
 80001f8:	bf1e      	ittt	ne
 80001fa:	4b04      	ldrne	r3, [pc, #16]	; (800020c <HAL_Delay+0x20>)
 80001fc:	781b      	ldrbne	r3, [r3, #0]
 80001fe:	18e4      	addne	r4, r4, r3
  }

  while ((HAL_GetTick() - tickstart) < wait)
 8000200:	f7ff ffee 	bl	80001e0 <HAL_GetTick>
 8000204:	1b40      	subs	r0, r0, r5
 8000206:	4284      	cmp	r4, r0
 8000208:	d8fa      	bhi.n	8000200 <HAL_Delay+0x14>
  {
  }
}
 800020a:	bd38      	pop	{r3, r4, r5, pc}
 800020c:	20000000 	.word	0x20000000

08000210 <HAL_CAN_Init>:
  * @param  hcan pointer to a CAN_HandleTypeDef structure that contains
  *         the configuration information for the specified CAN.
  * @retval HAL status
  */
HAL_StatusTypeDef HAL_CAN_Init(CAN_HandleTypeDef *hcan)
{
 8000210:	b538      	push	{r3, r4, r5, lr}
  uint32_t tickstart;

  /* Check CAN handle */
  if (hcan == NULL)
 8000212:	4604      	mov	r4, r0
 8000214:	2800      	cmp	r0, #0
 8000216:	d06e      	beq.n	80002f6 <HAL_CAN_Init+0xe6>
  assert_param(IS_CAN_SJW(hcan->Init.SyncJumpWidth));
  assert_param(IS_CAN_BS1(hcan->Init.TimeSeg1));
  assert_param(IS_CAN_BS2(hcan->Init.TimeSeg2));
  assert_param(IS_CAN_PRESCALER(hcan->Init.Prescaler));

  if (hcan->State == HAL_CAN_STATE_RESET)
 8000218:	f890 3020 	ldrb.w	r3, [r0, #32]
 800021c:	b90b      	cbnz	r3, 8000222 <HAL_CAN_Init+0x12>
  {
    /* Init the low level hardware: CLOCK, NVIC */
    HAL_CAN_MspInit(hcan);
 800021e:	f002 fe7b 	bl	8002f18 <HAL_CAN_MspInit>
  }

  /* Exit from sleep mode */
  CLEAR_BIT(hcan->Instance->MCR, CAN_MCR_SLEEP);
 8000222:	6822      	ldr	r2, [r4, #0]
 8000224:	6813      	ldr	r3, [r2, #0]
 8000226:	f023 0302 	bic.w	r3, r3, #2
 800022a:	6013      	str	r3, [r2, #0]

  /* Get tick */
  tickstart = HAL_GetTick();
 800022c:	f7ff ffd8 	bl	80001e0 <HAL_GetTick>
 8000230:	4605      	mov	r5, r0

  /* Check Sleep mode leave acknowledge */
  while ((hcan->Instance->MSR & CAN_MSR_SLAK) != 0U)
 8000232:	6823      	ldr	r3, [r4, #0]
 8000234:	685a      	ldr	r2, [r3, #4]
 8000236:	0791      	lsls	r1, r2, #30
 8000238:	d451      	bmi.n	80002de <HAL_CAN_Init+0xce>
      return HAL_ERROR;
    }
  }

  /* Request initialisation */
  SET_BIT(hcan->Instance->MCR, CAN_MCR_INRQ);
 800023a:	681a      	ldr	r2, [r3, #0]
 800023c:	f042 0201 	orr.w	r2, r2, #1
 8000240:	601a      	str	r2, [r3, #0]

  /* Get tick */
  tickstart = HAL_GetTick();
 8000242:	f7ff ffcd 	bl	80001e0 <HAL_GetTick>
 8000246:	4605      	mov	r5, r0

  /* Wait initialisation acknowledge */
  while ((hcan->Instance->MSR & CAN_MSR_INAK) == 0U)
 8000248:	6823      	ldr	r3, [r4, #0]
 800024a:	685a      	ldr	r2, [r3, #4]
 800024c:	07d2      	lsls	r2, r2, #31
 800024e:	d554      	bpl.n	80002fa <HAL_CAN_Init+0xea>
      return HAL_ERROR;
    }
  }

  /* Set the time triggered communication mode */
  if (hcan->Init.TimeTriggeredMode == ENABLE)
 8000250:	7e22      	ldrb	r2, [r4, #24]
                                            hcan->Init.TimeSeg1       |
                                            hcan->Init.TimeSeg2       |
                                            (hcan->Init.Prescaler - 1U)));

  /* Initialize the error code */
  hcan->ErrorCode = HAL_CAN_ERROR_NONE;
 8000252:	2000      	movs	r0, #0
  if (hcan->Init.TimeTriggeredMode == ENABLE)
 8000254:	2a01      	cmp	r2, #1
    SET_BIT(hcan->Instance->MCR, CAN_MCR_TTCM);
 8000256:	681a      	ldr	r2, [r3, #0]
 8000258:	bf0c      	ite	eq
 800025a:	f042 0280 	orreq.w	r2, r2, #128	; 0x80
    CLEAR_BIT(hcan->Instance->MCR, CAN_MCR_TTCM);
 800025e:	f022 0280 	bicne.w	r2, r2, #128	; 0x80
 8000262:	601a      	str	r2, [r3, #0]
  if (hcan->Init.AutoBusOff == ENABLE)
 8000264:	7e62      	ldrb	r2, [r4, #25]
 8000266:	2a01      	cmp	r2, #1
    SET_BIT(hcan->Instance->MCR, CAN_MCR_ABOM);
 8000268:	681a      	ldr	r2, [r3, #0]
 800026a:	bf0c      	ite	eq
 800026c:	f042 0240 	orreq.w	r2, r2, #64	; 0x40
    CLEAR_BIT(hcan->Instance->MCR, CAN_MCR_ABOM);
 8000270:	f022 0240 	bicne.w	r2, r2, #64	; 0x40
 8000274:	601a      	str	r2, [r3, #0]
  if (hcan->Init.AutoWakeUp == ENABLE)
 8000276:	7ea2      	ldrb	r2, [r4, #26]
 8000278:	2a01      	cmp	r2, #1
    SET_BIT(hcan->Instance->MCR, CAN_MCR_AWUM);
 800027a:	681a      	ldr	r2, [r3, #0]
 800027c:	bf0c      	ite	eq
 800027e:	f042 0220 	orreq.w	r2, r2, #32
    CLEAR_BIT(hcan->Instance->MCR, CAN_MCR_AWUM);
 8000282:	f022 0220 	bicne.w	r2, r2, #32
 8000286:	601a      	str	r2, [r3, #0]
  if (hcan->Init.AutoRetransmission == ENABLE)
 8000288:	7ee2      	ldrb	r2, [r4, #27]
 800028a:	2a01      	cmp	r2, #1
    CLEAR_BIT(hcan->Instance->MCR, CAN_MCR_NART);
 800028c:	681a      	ldr	r2, [r3, #0]
 800028e:	bf0c      	ite	eq
 8000290:	f022 0210 	biceq.w	r2, r2, #16
    SET_BIT(hcan->Instance->MCR, CAN_MCR_NART);
 8000294:	f042 0210 	orrne.w	r2, r2, #16
 8000298:	601a      	str	r2, [r3, #0]
  if (hcan->Init.ReceiveFifoLocked == ENABLE)
 800029a:	7f22      	ldrb	r2, [r4, #28]
 800029c:	2a01      	cmp	r2, #1
    SET_BIT(hcan->Instance->MCR, CAN_MCR_RFLM);
 800029e:	681a      	ldr	r2, [r3, #0]
 80002a0:	bf0c      	ite	eq
 80002a2:	f042 0208 	orreq.w	r2, r2, #8
    CLEAR_BIT(hcan->Instance->MCR, CAN_MCR_RFLM);
 80002a6:	f022 0208 	bicne.w	r2, r2, #8
 80002aa:	601a      	str	r2, [r3, #0]
  if (hcan->Init.TransmitFifoPriority == ENABLE)
 80002ac:	7f62      	ldrb	r2, [r4, #29]
 80002ae:	2a01      	cmp	r2, #1
    SET_BIT(hcan->Instance->MCR, CAN_MCR_TXFP);
 80002b0:	681a      	ldr	r2, [r3, #0]
 80002b2:	bf0c      	ite	eq
 80002b4:	f042 0204 	orreq.w	r2, r2, #4
    CLEAR_BIT(hcan->Instance->MCR, CAN_MCR_TXFP);
 80002b8:	f022 0204 	bicne.w	r2, r2, #4
 80002bc:	601a      	str	r2, [r3, #0]
  WRITE_REG(hcan->Instance->BTR, (uint32_t)(hcan->Init.Mode           |
 80002be:	68e1      	ldr	r1, [r4, #12]
 80002c0:	68a2      	ldr	r2, [r4, #8]
 80002c2:	430a      	orrs	r2, r1
 80002c4:	6921      	ldr	r1, [r4, #16]
 80002c6:	430a      	orrs	r2, r1
 80002c8:	6961      	ldr	r1, [r4, #20]
 80002ca:	430a      	orrs	r2, r1
 80002cc:	6861      	ldr	r1, [r4, #4]
 80002ce:	3901      	subs	r1, #1
 80002d0:	430a      	orrs	r2, r1
 80002d2:	61da      	str	r2, [r3, #28]

  /* Initialize the CAN state */
  hcan->State = HAL_CAN_STATE_READY;
 80002d4:	2301      	movs	r3, #1
  hcan->ErrorCode = HAL_CAN_ERROR_NONE;
 80002d6:	6260      	str	r0, [r4, #36]	; 0x24
  hcan->State = HAL_CAN_STATE_READY;
 80002d8:	f884 3020 	strb.w	r3, [r4, #32]

  /* Return function status */
  return HAL_OK;
 80002dc:	bd38      	pop	{r3, r4, r5, pc}
    if ((HAL_GetTick() - tickstart) > CAN_TIMEOUT_VALUE)
 80002de:	f7ff ff7f 	bl	80001e0 <HAL_GetTick>
 80002e2:	1b40      	subs	r0, r0, r5
 80002e4:	280a      	cmp	r0, #10
 80002e6:	d9a4      	bls.n	8000232 <HAL_CAN_Init+0x22>
      hcan->ErrorCode |= HAL_CAN_ERROR_TIMEOUT;
 80002e8:	6a63      	ldr	r3, [r4, #36]	; 0x24
 80002ea:	f443 3300 	orr.w	r3, r3, #131072	; 0x20000
 80002ee:	6263      	str	r3, [r4, #36]	; 0x24
      hcan->State = HAL_CAN_STATE_ERROR;
 80002f0:	2305      	movs	r3, #5
 80002f2:	f884 3020 	strb.w	r3, [r4, #32]
    return HAL_ERROR;
 80002f6:	2001      	movs	r0, #1
}
 80002f8:	bd38      	pop	{r3, r4, r5, pc}
    if ((HAL_GetTick() - tickstart) > CAN_TIMEOUT_VALUE)
 80002fa:	f7ff ff71 	bl	80001e0 <HAL_GetTick>
 80002fe:	1b40      	subs	r0, r0, r5
 8000300:	280a      	cmp	r0, #10
 8000302:	d9a1      	bls.n	8000248 <HAL_CAN_Init+0x38>
 8000304:	e7f0      	b.n	80002e8 <HAL_CAN_Init+0xd8>

08000306 <HAL_CAN_ConfigFilter>:
  */
HAL_StatusTypeDef HAL_CAN_ConfigFilter(CAN_HandleTypeDef *hcan, CAN_FilterTypeDef *sFilterConfig)
{
  uint32_t filternbrbitpos;
  CAN_TypeDef *can_ip = hcan->Instance;
  HAL_CAN_StateTypeDef state = hcan->State;
 8000306:	f890 3020 	ldrb.w	r3, [r0, #32]
{
 800030a:	b570      	push	{r4, r5, r6, lr}

  if ((state == HAL_CAN_STATE_READY) ||
 800030c:	3b01      	subs	r3, #1
 800030e:	2b01      	cmp	r3, #1
 8000310:	d85f      	bhi.n	80003d2 <HAL_CAN_ConfigFilter+0xcc>
    CLEAR_BIT(can_ip->FMR, CAN_FMR_CAN2SB);
    SET_BIT(can_ip->FMR, sFilterConfig->SlaveStartFilterBank << CAN_FMR_CAN2SB_Pos);

#endif
    /* Convert filter number into bit position */
    filternbrbitpos = (uint32_t)1 << (sFilterConfig->FilterBank & 0x1FU);
 8000312:	2401      	movs	r4, #1
  CAN_TypeDef *can_ip = hcan->Instance;
 8000314:	6803      	ldr	r3, [r0, #0]
    filternbrbitpos = (uint32_t)1 << (sFilterConfig->FilterBank & 0x1FU);
 8000316:	6948      	ldr	r0, [r1, #20]
    SET_BIT(can_ip->FMR, CAN_FMR_FINIT);
 8000318:	f8d3 2200 	ldr.w	r2, [r3, #512]	; 0x200
 800031c:	f042 0201 	orr.w	r2, r2, #1
 8000320:	f8c3 2200 	str.w	r2, [r3, #512]	; 0x200
    filternbrbitpos = (uint32_t)1 << (sFilterConfig->FilterBank & 0x1FU);
 8000324:	f000 021f 	and.w	r2, r0, #31
 8000328:	fa04 f202 	lsl.w	r2, r4, r2

    /* Filter Deactivation */
    CLEAR_BIT(can_ip->FA1R, filternbrbitpos);
 800032c:	43d4      	mvns	r4, r2
 800032e:	f8d3 521c 	ldr.w	r5, [r3, #540]	; 0x21c
 8000332:	4025      	ands	r5, r4
 8000334:	f8c3 521c 	str.w	r5, [r3, #540]	; 0x21c

    /* Filter Scale */
    if (sFilterConfig->FilterScale == CAN_FILTERSCALE_16BIT)
 8000338:	69cd      	ldr	r5, [r1, #28]
 800033a:	bb85      	cbnz	r5, 800039e <HAL_CAN_ConfigFilter+0x98>
    {
      /* 16-bit scale for the filter */
      CLEAR_BIT(can_ip->FS1R, filternbrbitpos);
 800033c:	f8d3 520c 	ldr.w	r5, [r3, #524]	; 0x20c

      /* First 16-bit identifier and First 16-bit mask */
      /* Or First 16-bit identifier and Second 16-bit identifier */
      can_ip->sFilterRegister[sFilterConfig->FilterBank].FR1 =
        ((0x0000FFFFU & (uint32_t)sFilterConfig->FilterMaskIdLow) << 16U) |
 8000340:	68ce      	ldr	r6, [r1, #12]
      CLEAR_BIT(can_ip->FS1R, filternbrbitpos);
 8000342:	4025      	ands	r5, r4
 8000344:	f8c3 520c 	str.w	r5, [r3, #524]	; 0x20c
        (0x0000FFFFU & (uint32_t)sFilterConfig->FilterIdLow);
 8000348:	888d      	ldrh	r5, [r1, #4]
 800034a:	eb03 00c0 	add.w	r0, r3, r0, lsl #3
        ((0x0000FFFFU & (uint32_t)sFilterConfig->FilterMaskIdLow) << 16U) |
 800034e:	ea45 4506 	orr.w	r5, r5, r6, lsl #16
      can_ip->sFilterRegister[sFilterConfig->FilterBank].FR1 =
 8000352:	f8c0 5240 	str.w	r5, [r0, #576]	; 0x240

      /* Second 16-bit identifier and Second 16-bit mask */
      /* Or Third 16-bit identifier and Fourth 16-bit identifier */
      can_ip->sFilterRegister[sFilterConfig->FilterBank].FR2 =
        ((0x0000FFFFU & (uint32_t)sFilterConfig->FilterMaskIdHigh) << 16U) |
 8000356:	688e      	ldr	r6, [r1, #8]
        (0x0000FFFFU & (uint32_t)sFilterConfig->FilterIdHigh);
 8000358:	880d      	ldrh	r5, [r1, #0]
        ((0x0000FFFFU & (uint32_t)sFilterConfig->FilterIdHigh) << 16U) |
        (0x0000FFFFU & (uint32_t)sFilterConfig->FilterIdLow);

      /* 32-bit mask or Second 32-bit identifier */
      can_ip->sFilterRegister[sFilterConfig->FilterBank].FR2 =
        ((0x0000FFFFU & (uint32_t)sFilterConfig->FilterMaskIdHigh) << 16U) |
 800035a:	ea45 4506 	orr.w	r5, r5, r6, lsl #16
      can_ip->sFilterRegister[sFilterConfig->FilterBank].FR2 =
 800035e:	f8c0 5244 	str.w	r5, [r0, #580]	; 0x244
        (0x0000FFFFU & (uint32_t)sFilterConfig->FilterMaskIdLow);
    }

    /* Filter Mode */
    if (sFilterConfig->FilterMode == CAN_FILTERMODE_IDMASK)
 8000362:	6988      	ldr	r0, [r1, #24]
 8000364:	bb68      	cbnz	r0, 80003c2 <HAL_CAN_ConfigFilter+0xbc>
    {
      /* Id/Mask mode for the filter*/
      CLEAR_BIT(can_ip->FM1R, filternbrbitpos);
 8000366:	f8d3 0204 	ldr.w	r0, [r3, #516]	; 0x204
 800036a:	4020      	ands	r0, r4
    }
    else /* CAN_FilterInitStruct->CAN_FilterMode == CAN_FilterMode_IdList */
    {
      /* Identifier list mode for the filter*/
      SET_BIT(can_ip->FM1R, filternbrbitpos);
 800036c:	f8c3 0204 	str.w	r0, [r3, #516]	; 0x204
    }

    /* Filter FIFO assignment */
    if (sFilterConfig->FilterFIFOAssignment == CAN_FILTER_FIFO0)
 8000370:	6908      	ldr	r0, [r1, #16]
 8000372:	bb50      	cbnz	r0, 80003ca <HAL_CAN_ConfigFilter+0xc4>
    {
      /* FIFO 0 assignation for the filter */
      CLEAR_BIT(can_ip->FFA1R, filternbrbitpos);
 8000374:	f8d3 0214 	ldr.w	r0, [r3, #532]	; 0x214
 8000378:	4020      	ands	r0, r4
    }
    else
    {
      /* FIFO 1 assignation for the filter */
      SET_BIT(can_ip->FFA1R, filternbrbitpos);
 800037a:	f8c3 0214 	str.w	r0, [r3, #532]	; 0x214
    }

    /* Filter activation */
    if (sFilterConfig->FilterActivation == CAN_FILTER_ENABLE)
 800037e:	6a09      	ldr	r1, [r1, #32]

    /* Leave the initialisation mode for the filter */
    CLEAR_BIT(can_ip->FMR, CAN_FMR_FINIT);

    /* Return function status */
    return HAL_OK;
 8000380:	2000      	movs	r0, #0
    if (sFilterConfig->FilterActivation == CAN_FILTER_ENABLE)
 8000382:	2901      	cmp	r1, #1
      SET_BIT(can_ip->FA1R, filternbrbitpos);
 8000384:	bf02      	ittt	eq
 8000386:	f8d3 121c 	ldreq.w	r1, [r3, #540]	; 0x21c
 800038a:	430a      	orreq	r2, r1
 800038c:	f8c3 221c 	streq.w	r2, [r3, #540]	; 0x21c
    CLEAR_BIT(can_ip->FMR, CAN_FMR_FINIT);
 8000390:	f8d3 2200 	ldr.w	r2, [r3, #512]	; 0x200
 8000394:	f022 0201 	bic.w	r2, r2, #1
 8000398:	f8c3 2200 	str.w	r2, [r3, #512]	; 0x200
    return HAL_OK;
 800039c:	bd70      	pop	{r4, r5, r6, pc}
    if (sFilterConfig->FilterScale == CAN_FILTERSCALE_32BIT)
 800039e:	2d01      	cmp	r5, #1
 80003a0:	d1df      	bne.n	8000362 <HAL_CAN_ConfigFilter+0x5c>
      SET_BIT(can_ip->FS1R, filternbrbitpos);
 80003a2:	f8d3 520c 	ldr.w	r5, [r3, #524]	; 0x20c
        ((0x0000FFFFU & (uint32_t)sFilterConfig->FilterIdHigh) << 16U) |
 80003a6:	680e      	ldr	r6, [r1, #0]
      SET_BIT(can_ip->FS1R, filternbrbitpos);
 80003a8:	4315      	orrs	r5, r2
 80003aa:	f8c3 520c 	str.w	r5, [r3, #524]	; 0x20c
        (0x0000FFFFU & (uint32_t)sFilterConfig->FilterIdLow);
 80003ae:	888d      	ldrh	r5, [r1, #4]
 80003b0:	eb03 00c0 	add.w	r0, r3, r0, lsl #3
        ((0x0000FFFFU & (uint32_t)sFilterConfig->FilterIdHigh) << 16U) |
 80003b4:	ea45 4506 	orr.w	r5, r5, r6, lsl #16
      can_ip->sFilterRegister[sFilterConfig->FilterBank].FR1 =
 80003b8:	f8c0 5240 	str.w	r5, [r0, #576]	; 0x240
        ((0x0000FFFFU & (uint32_t)sFilterConfig->FilterMaskIdHigh) << 16U) |
 80003bc:	688e      	ldr	r6, [r1, #8]
        (0x0000FFFFU & (uint32_t)sFilterConfig->FilterMaskIdLow);
 80003be:	898d      	ldrh	r5, [r1, #12]
 80003c0:	e7cb      	b.n	800035a <HAL_CAN_ConfigFilter+0x54>
      SET_BIT(can_ip->FM1R, filternbrbitpos);
 80003c2:	f8d3 0204 	ldr.w	r0, [r3, #516]	; 0x204
 80003c6:	4310      	orrs	r0, r2
 80003c8:	e7d0      	b.n	800036c <HAL_CAN_ConfigFilter+0x66>
      SET_BIT(can_ip->FFA1R, filternbrbitpos);
 80003ca:	f8d3 0214 	ldr.w	r0, [r3, #532]	; 0x214
 80003ce:	4310      	orrs	r0, r2
 80003d0:	e7d3      	b.n	800037a <HAL_CAN_ConfigFilter+0x74>
  }
  else
  {
    /* Update error code */
    hcan->ErrorCode |= HAL_CAN_ERROR_NOT_INITIALIZED;
 80003d2:	6a43      	ldr	r3, [r0, #36]	; 0x24
 80003d4:	f443 2380 	orr.w	r3, r3, #262144	; 0x40000
 80003d8:	6243      	str	r3, [r0, #36]	; 0x24

    return HAL_ERROR;
 80003da:	2001      	movs	r0, #1
  }
}
 80003dc:	bd70      	pop	{r4, r5, r6, pc}

080003de <HAL_CAN_Start>:
  * @param  hcan pointer to an CAN_HandleTypeDef structure that contains
  *         the configuration information for the specified CAN.
  * @retval HAL status
  */
HAL_StatusTypeDef HAL_CAN_Start(CAN_HandleTypeDef *hcan)
{
 80003de:	b538      	push	{r3, r4, r5, lr}
  uint32_t tickstart;

  if (hcan->State == HAL_CAN_STATE_READY)
 80003e0:	f890 3020 	ldrb.w	r3, [r0, #32]
{
 80003e4:	4604      	mov	r4, r0
  if (hcan->State == HAL_CAN_STATE_READY)
 80003e6:	2b01      	cmp	r3, #1
 80003e8:	d11f      	bne.n	800042a <HAL_CAN_Start+0x4c>
  {
    /* Change CAN peripheral state */
    hcan->State = HAL_CAN_STATE_LISTENING;
 80003ea:	2302      	movs	r3, #2

    /* Request leave initialisation */
    CLEAR_BIT(hcan->Instance->MCR, CAN_MCR_INRQ);
 80003ec:	6802      	ldr	r2, [r0, #0]
    hcan->State = HAL_CAN_STATE_LISTENING;
 80003ee:	f880 3020 	strb.w	r3, [r0, #32]
    CLEAR_BIT(hcan->Instance->MCR, CAN_MCR_INRQ);
 80003f2:	6813      	ldr	r3, [r2, #0]
 80003f4:	f023 0301 	bic.w	r3, r3, #1
 80003f8:	6013      	str	r3, [r2, #0]

    /* Get tick */
    tickstart = HAL_GetTick();
 80003fa:	f7ff fef1 	bl	80001e0 <HAL_GetTick>
 80003fe:	4605      	mov	r5, r0

    /* Wait the acknowledge */
    while ((hcan->Instance->MSR & CAN_MSR_INAK) != 0U)
 8000400:	6823      	ldr	r3, [r4, #0]
 8000402:	6858      	ldr	r0, [r3, #4]
 8000404:	f010 0001 	ands.w	r0, r0, #1
 8000408:	d101      	bne.n	800040e <HAL_CAN_Start+0x30>
        return HAL_ERROR;
      }
    }

    /* Reset the CAN ErrorCode */
    hcan->ErrorCode = HAL_CAN_ERROR_NONE;
 800040a:	6260      	str	r0, [r4, #36]	; 0x24

    /* Return function status */
    return HAL_OK;
 800040c:	bd38      	pop	{r3, r4, r5, pc}
      if ((HAL_GetTick() - tickstart) > CAN_TIMEOUT_VALUE)
 800040e:	f7ff fee7 	bl	80001e0 <HAL_GetTick>
 8000412:	1b40      	subs	r0, r0, r5
 8000414:	280a      	cmp	r0, #10
 8000416:	d9f3      	bls.n	8000400 <HAL_CAN_Start+0x22>
        hcan->ErrorCode |= HAL_CAN_ERROR_TIMEOUT;
 8000418:	6a63      	ldr	r3, [r4, #36]	; 0x24
 800041a:	f443 3300 	orr.w	r3, r3, #131072	; 0x20000
 800041e:	6263      	str	r3, [r4, #36]	; 0x24
        hcan->State = HAL_CAN_STATE_ERROR;
 8000420:	2305      	movs	r3, #5
 8000422:	f884 3020 	strb.w	r3, [r4, #32]
  else
  {
    /* Update error code */
    hcan->ErrorCode |= HAL_CAN_ERROR_NOT_READY;

    return HAL_ERROR;
 8000426:	2001      	movs	r0, #1
  }
}
 8000428:	bd38      	pop	{r3, r4, r5, pc}
    hcan->ErrorCode |= HAL_CAN_ERROR_NOT_READY;
 800042a:	6a43      	ldr	r3, [r0, #36]	; 0x24
 800042c:	f443 2300 	orr.w	r3, r3, #524288	; 0x80000
 8000430:	6243      	str	r3, [r0, #36]	; 0x24
 8000432:	e7f8      	b.n	8000426 <HAL_CAN_Start+0x48>

08000434 <HAL_CAN_Stop>:
  * @param  hcan pointer to an CAN_HandleTypeDef structure that contains
  *         the configuration information for the specified CAN.
  * @retval HAL status
  */
HAL_StatusTypeDef HAL_CAN_Stop(CAN_HandleTypeDef *hcan)
{
 8000434:	b538      	push	{r3, r4, r5, lr}
  uint32_t tickstart;

  if (hcan->State == HAL_CAN_STATE_LISTENING)
 8000436:	f890 3020 	ldrb.w	r3, [r0, #32]
{
 800043a:	4604      	mov	r4, r0
  if (hcan->State == HAL_CAN_STATE_LISTENING)
 800043c:	2b02      	cmp	r3, #2
 800043e:	d122      	bne.n	8000486 <HAL_CAN_Stop+0x52>
  {
    /* Request initialisation */
    SET_BIT(hcan->Instance->MCR, CAN_MCR_INRQ);
 8000440:	6802      	ldr	r2, [r0, #0]
 8000442:	6813      	ldr	r3, [r2, #0]
 8000444:	f043 0301 	orr.w	r3, r3, #1
 8000448:	6013      	str	r3, [r2, #0]

    /* Get tick */
    tickstart = HAL_GetTick();
 800044a:	f7ff fec9 	bl	80001e0 <HAL_GetTick>
 800044e:	4605      	mov	r5, r0

    /* Wait the acknowledge */
    while ((hcan->Instance->MSR & CAN_MSR_INAK) == 0U)
 8000450:	6823      	ldr	r3, [r4, #0]
 8000452:	685a      	ldr	r2, [r3, #4]
 8000454:	07d2      	lsls	r2, r2, #31
 8000456:	d508      	bpl.n	800046a <HAL_CAN_Stop+0x36>
        return HAL_ERROR;
      }
    }

    /* Exit from sleep mode */
    CLEAR_BIT(hcan->Instance->MCR, CAN_MCR_SLEEP);
 8000458:	681a      	ldr	r2, [r3, #0]

    /* Change CAN peripheral state */
    hcan->State = HAL_CAN_STATE_READY;

    /* Return function status */
    return HAL_OK;
 800045a:	2000      	movs	r0, #0
    CLEAR_BIT(hcan->Instance->MCR, CAN_MCR_SLEEP);
 800045c:	f022 0202 	bic.w	r2, r2, #2
 8000460:	601a      	str	r2, [r3, #0]
    hcan->State = HAL_CAN_STATE_READY;
 8000462:	2301      	movs	r3, #1
 8000464:	f884 3020 	strb.w	r3, [r4, #32]
    return HAL_OK;
 8000468:	bd38      	pop	{r3, r4, r5, pc}
      if ((HAL_GetTick() - tickstart) > CAN_TIMEOUT_VALUE)
 800046a:	f7ff feb9 	bl	80001e0 <HAL_GetTick>
 800046e:	1b40      	subs	r0, r0, r5
 8000470:	280a      	cmp	r0, #10
 8000472:	d9ed      	bls.n	8000450 <HAL_CAN_Stop+0x1c>
        hcan->ErrorCode |= HAL_CAN_ERROR_TIMEOUT;
 8000474:	6a63      	ldr	r3, [r4, #36]	; 0x24
 8000476:	f443 3300 	orr.w	r3, r3, #131072	; 0x20000
 800047a:	6263      	str	r3, [r4, #36]	; 0x24
        hcan->State = HAL_CAN_STATE_ERROR;
 800047c:	2305      	movs	r3, #5
 800047e:	f884 3020 	strb.w	r3, [r4, #32]
  else
  {
    /* Update error code */
    hcan->ErrorCode |= HAL_CAN_ERROR_NOT_STARTED;

    return HAL_ERROR;
 8000482:	2001      	movs	r0, #1
  }
}
 8000484:	bd38      	pop	{r3, r4, r5, pc}
    hcan->ErrorCode |= HAL_CAN_ERROR_NOT_STARTED;
 8000486:	6a43      	ldr	r3, [r0, #36]	; 0x24
 8000488:	f443 1380 	orr.w	r3, r3, #1048576	; 0x100000
 800048c:	6243      	str	r3, [r0, #36]	; 0x24
 800048e:	e7f8      	b.n	8000482 <HAL_CAN_Stop+0x4e>

08000490 <HAL_CAN_DeInit>:
{
 8000490:	b510      	push	{r4, lr}
  if (hcan == NULL)
 8000492:	4604      	mov	r4, r0
 8000494:	b170      	cbz	r0, 80004b4 <HAL_CAN_DeInit+0x24>
  (void)HAL_CAN_Stop(hcan);
 8000496:	f7ff ffcd 	bl	8000434 <HAL_CAN_Stop>
  HAL_CAN_MspDeInit(hcan);
 800049a:	4620      	mov	r0, r4
 800049c:	f002 fd90 	bl	8002fc0 <HAL_CAN_MspDeInit>
  hcan->ErrorCode = HAL_CAN_ERROR_NONE;
 80004a0:	2000      	movs	r0, #0
  SET_BIT(hcan->Instance->MCR, CAN_MCR_RESET);
 80004a2:	6822      	ldr	r2, [r4, #0]
 80004a4:	6813      	ldr	r3, [r2, #0]
 80004a6:	f443 4300 	orr.w	r3, r3, #32768	; 0x8000
 80004aa:	6013      	str	r3, [r2, #0]
  hcan->ErrorCode = HAL_CAN_ERROR_NONE;
 80004ac:	6260      	str	r0, [r4, #36]	; 0x24
  hcan->State = HAL_CAN_STATE_RESET;
 80004ae:	f884 0020 	strb.w	r0, [r4, #32]
  return HAL_OK;
 80004b2:	bd10      	pop	{r4, pc}
    return HAL_ERROR;
 80004b4:	2001      	movs	r0, #1
}
 80004b6:	bd10      	pop	{r4, pc}

080004b8 <HAL_CAN_AddTxMessage>:
  *         the TxMailbox used to store the Tx message.
  *         This parameter can be a value of @arg CAN_Tx_Mailboxes.
  * @retval HAL status
  */
HAL_StatusTypeDef HAL_CAN_AddTxMessage(CAN_HandleTypeDef *hcan, CAN_TxHeaderTypeDef *pHeader, uint8_t aData[], uint32_t *pTxMailbox)
{
 80004b8:	b5f0      	push	{r4, r5, r6, r7, lr}
  uint32_t transmitmailbox;
  HAL_CAN_StateTypeDef state = hcan->State;
 80004ba:	f890 5020 	ldrb.w	r5, [r0, #32]
  uint32_t tsr = READ_REG(hcan->Instance->TSR);
 80004be:	6806      	ldr	r6, [r0, #0]
  {
    assert_param(IS_CAN_EXTID(pHeader->ExtId));
  }
  assert_param(IS_FUNCTIONAL_STATE(pHeader->TransmitGlobalTime));

  if ((state == HAL_CAN_STATE_READY) ||
 80004c0:	3d01      	subs	r5, #1
 80004c2:	2d01      	cmp	r5, #1
  uint32_t tsr = READ_REG(hcan->Instance->TSR);
 80004c4:	68b4      	ldr	r4, [r6, #8]
  if ((state == HAL_CAN_STATE_READY) ||
 80004c6:	d841      	bhi.n	800054c <HAL_CAN_AddTxMessage+0x94>
      (state == HAL_CAN_STATE_LISTENING))
  {
    /* Check that all the Tx mailboxes are not full */
    if (((tsr & CAN_TSR_TME0) != 0U) ||
 80004c8:	f014 5fe0 	tst.w	r4, #469762048	; 0x1c000000
 80004cc:	d03a      	beq.n	8000544 <HAL_CAN_AddTxMessage+0x8c>
        ((tsr & CAN_TSR_TME1) != 0U) ||
        ((tsr & CAN_TSR_TME2) != 0U))
    {
      /* Select an empty transmit mailbox */
      transmitmailbox = (tsr & CAN_TSR_CODE) >> CAN_TSR_CODE_Pos;
 80004ce:	f3c4 6401 	ubfx	r4, r4, #24, #2

      /* Check transmit mailbox value */
      if (transmitmailbox > 2U)
 80004d2:	2c03      	cmp	r4, #3
 80004d4:	f04f 0501 	mov.w	r5, #1
 80004d8:	d105      	bne.n	80004e6 <HAL_CAN_AddTxMessage+0x2e>
      {
        /* Update error code */
        hcan->ErrorCode |= HAL_CAN_ERROR_INTERNAL;
 80004da:	6a43      	ldr	r3, [r0, #36]	; 0x24
 80004dc:	f443 0300 	orr.w	r3, r3, #8388608	; 0x800000
    }
  }
  else
  {
    /* Update error code */
    hcan->ErrorCode |= HAL_CAN_ERROR_NOT_INITIALIZED;
 80004e0:	6243      	str	r3, [r0, #36]	; 0x24

    return HAL_ERROR;
 80004e2:	2001      	movs	r0, #1
  }
}
 80004e4:	bdf0      	pop	{r4, r5, r6, r7, pc}
      *pTxMailbox = (uint32_t)1 << transmitmailbox;
 80004e6:	40a5      	lsls	r5, r4
 80004e8:	601d      	str	r5, [r3, #0]
      if (pHeader->IDE == CAN_ID_STD)
 80004ea:	6888      	ldr	r0, [r1, #8]
 80004ec:	68cf      	ldr	r7, [r1, #12]
 80004ee:	f104 0318 	add.w	r3, r4, #24
 80004f2:	bb10      	cbnz	r0, 800053a <HAL_CAN_AddTxMessage+0x82>
        hcan->Instance->sTxMailBox[transmitmailbox].TIR = ((pHeader->StdId << CAN_TI0R_STID_Pos) |
 80004f4:	6808      	ldr	r0, [r1, #0]
 80004f6:	ea47 5040 	orr.w	r0, r7, r0, lsl #21
        hcan->Instance->sTxMailBox[transmitmailbox].TIR = ((pHeader->ExtId << CAN_TI0R_EXID_Pos) |
 80004fa:	011b      	lsls	r3, r3, #4
 80004fc:	50f0      	str	r0, [r6, r3]
      hcan->Instance->sTxMailBox[transmitmailbox].TDTR = (pHeader->DLC);
 80004fe:	6908      	ldr	r0, [r1, #16]
 8000500:	0124      	lsls	r4, r4, #4
      if (pHeader->TransmitGlobalTime == ENABLE)
 8000502:	7d09      	ldrb	r1, [r1, #20]
 8000504:	1933      	adds	r3, r6, r4
      hcan->Instance->sTxMailBox[transmitmailbox].TDTR = (pHeader->DLC);
 8000506:	f8c3 0184 	str.w	r0, [r3, #388]	; 0x184
      if (pHeader->TransmitGlobalTime == ENABLE)
 800050a:	2901      	cmp	r1, #1
        SET_BIT(hcan->Instance->sTxMailBox[transmitmailbox].TDTR, CAN_TDT0R_TGT);
 800050c:	bf08      	it	eq
 800050e:	f8d3 1184 	ldreq.w	r1, [r3, #388]	; 0x184
      WRITE_REG(hcan->Instance->sTxMailBox[transmitmailbox].TDHR,
 8000512:	4434      	add	r4, r6
        SET_BIT(hcan->Instance->sTxMailBox[transmitmailbox].TDTR, CAN_TDT0R_TGT);
 8000514:	bf04      	itt	eq
 8000516:	f441 7180 	orreq.w	r1, r1, #256	; 0x100
 800051a:	f8c3 1184 	streq.w	r1, [r3, #388]	; 0x184
      WRITE_REG(hcan->Instance->sTxMailBox[transmitmailbox].TDHR,
 800051e:	6851      	ldr	r1, [r2, #4]
      return HAL_OK;
 8000520:	2000      	movs	r0, #0
      WRITE_REG(hcan->Instance->sTxMailBox[transmitmailbox].TDHR,
 8000522:	f8c4 118c 	str.w	r1, [r4, #396]	; 0x18c
      WRITE_REG(hcan->Instance->sTxMailBox[transmitmailbox].TDLR,
 8000526:	6812      	ldr	r2, [r2, #0]
 8000528:	f8c4 2188 	str.w	r2, [r4, #392]	; 0x188
      SET_BIT(hcan->Instance->sTxMailBox[transmitmailbox].TIR, CAN_TI0R_TXRQ);
 800052c:	f8d3 2180 	ldr.w	r2, [r3, #384]	; 0x180
 8000530:	f042 0201 	orr.w	r2, r2, #1
 8000534:	f8c3 2180 	str.w	r2, [r3, #384]	; 0x180
      return HAL_OK;
 8000538:	bdf0      	pop	{r4, r5, r6, r7, pc}
        hcan->Instance->sTxMailBox[transmitmailbox].TIR = ((pHeader->ExtId << CAN_TI0R_EXID_Pos) |
 800053a:	684d      	ldr	r5, [r1, #4]
                                                           pHeader->IDE |
 800053c:	4338      	orrs	r0, r7
 800053e:	ea40 00c5 	orr.w	r0, r0, r5, lsl #3
 8000542:	e7da      	b.n	80004fa <HAL_CAN_AddTxMessage+0x42>
      hcan->ErrorCode |= HAL_CAN_ERROR_PARAM;
 8000544:	6a43      	ldr	r3, [r0, #36]	; 0x24
 8000546:	f443 1300 	orr.w	r3, r3, #2097152	; 0x200000
 800054a:	e7c9      	b.n	80004e0 <HAL_CAN_AddTxMessage+0x28>
    hcan->ErrorCode |= HAL_CAN_ERROR_NOT_INITIALIZED;
 800054c:	6a43      	ldr	r3, [r0, #36]	; 0x24
 800054e:	f443 2380 	orr.w	r3, r3, #262144	; 0x40000
 8000552:	e7c5      	b.n	80004e0 <HAL_CAN_AddTxMessage+0x28>

08000554 <HAL_CAN_GetRxMessage>:
  *         of the Rx frame will be stored.
  * @param  aData array where the payload of the Rx frame will be stored.
  * @retval HAL status
  */
HAL_StatusTypeDef HAL_CAN_GetRxMessage(CAN_HandleTypeDef *hcan, uint32_t RxFifo, CAN_RxHeaderTypeDef *pHeader, uint8_t aData[])
{
 8000554:	b5f0      	push	{r4, r5, r6, r7, lr}
  HAL_CAN_StateTypeDef state = hcan->State;
 8000556:	f890 4020 	ldrb.w	r4, [r0, #32]

  assert_param(IS_CAN_RX_FIFO(RxFifo));

  if ((state == HAL_CAN_STATE_READY) ||
 800055a:	3c01      	subs	r4, #1
 800055c:	2c01      	cmp	r4, #1
 800055e:	d86b      	bhi.n	8000638 <HAL_CAN_GetRxMessage+0xe4>
 8000560:	6806      	ldr	r6, [r0, #0]
      (state == HAL_CAN_STATE_LISTENING))
  {
    /* Check the Rx FIFO */
    if (RxFifo == CAN_RX_FIFO0) /* Rx element is assigned to Rx FIFO 0 */
 8000562:	b941      	cbnz	r1, 8000576 <HAL_CAN_GetRxMessage+0x22>
    {
      /* Check that the Rx FIFO 0 is not empty */
      if ((hcan->Instance->RF0R & CAN_RF0R_FMP0) == 0U)
 8000564:	68f4      	ldr	r4, [r6, #12]
      }
    }
    else /* Rx element is assigned to Rx FIFO 1 */
    {
      /* Check that the Rx FIFO 1 is not empty */
      if ((hcan->Instance->RF1R & CAN_RF1R_FMP1) == 0U)
 8000566:	07a4      	lsls	r4, r4, #30
 8000568:	d107      	bne.n	800057a <HAL_CAN_GetRxMessage+0x26>
      {
        /* Update error code */
        hcan->ErrorCode |= HAL_CAN_ERROR_PARAM;
 800056a:	6a43      	ldr	r3, [r0, #36]	; 0x24
 800056c:	f443 1300 	orr.w	r3, r3, #2097152	; 0x200000
    return HAL_OK;
  }
  else
  {
    /* Update error code */
    hcan->ErrorCode |= HAL_CAN_ERROR_NOT_INITIALIZED;
 8000570:	6243      	str	r3, [r0, #36]	; 0x24

    return HAL_ERROR;
 8000572:	2001      	movs	r0, #1
  }
}
 8000574:	bdf0      	pop	{r4, r5, r6, r7, pc}
      if ((hcan->Instance->RF1R & CAN_RF1R_FMP1) == 0U)
 8000576:	6934      	ldr	r4, [r6, #16]
 8000578:	e7f5      	b.n	8000566 <HAL_CAN_GetRxMessage+0x12>
 800057a:	010c      	lsls	r4, r1, #4
 800057c:	1935      	adds	r5, r6, r4
    pHeader->IDE = CAN_RI0R_IDE & hcan->Instance->sFIFOMailBox[RxFifo].RIR;
 800057e:	f8d5 71b0 	ldr.w	r7, [r5, #432]	; 0x1b0
 8000582:	f007 0704 	and.w	r7, r7, #4
 8000586:	6097      	str	r7, [r2, #8]
    if (pHeader->IDE == CAN_ID_STD)
 8000588:	2f00      	cmp	r7, #0
 800058a:	d14b      	bne.n	8000624 <HAL_CAN_GetRxMessage+0xd0>
      pHeader->StdId = (CAN_RI0R_STID & hcan->Instance->sFIFOMailBox[RxFifo].RIR) >> CAN_TI0R_STID_Pos;
 800058c:	f8d5 71b0 	ldr.w	r7, [r5, #432]	; 0x1b0
 8000590:	0d7f      	lsrs	r7, r7, #21
 8000592:	6017      	str	r7, [r2, #0]
    pHeader->RTR = (CAN_RI0R_RTR & hcan->Instance->sFIFOMailBox[RxFifo].RIR) >> CAN_RI0R_RTR_Pos;
 8000594:	f8d5 71b0 	ldr.w	r7, [r5, #432]	; 0x1b0
    aData[0] = (uint8_t)((CAN_RDL0R_DATA0 & hcan->Instance->sFIFOMailBox[RxFifo].RDLR) >> CAN_RDL0R_DATA0_Pos);
 8000598:	4426      	add	r6, r4
    pHeader->RTR = (CAN_RI0R_RTR & hcan->Instance->sFIFOMailBox[RxFifo].RIR) >> CAN_RI0R_RTR_Pos;
 800059a:	f3c7 0740 	ubfx	r7, r7, #1, #1
 800059e:	60d7      	str	r7, [r2, #12]
    pHeader->DLC = (CAN_RDT0R_DLC & hcan->Instance->sFIFOMailBox[RxFifo].RDTR) >> CAN_RDT0R_DLC_Pos;
 80005a0:	f8d5 71b4 	ldr.w	r7, [r5, #436]	; 0x1b4
 80005a4:	f007 070f 	and.w	r7, r7, #15
 80005a8:	6117      	str	r7, [r2, #16]
    pHeader->FilterMatchIndex = (CAN_RDT0R_FMI & hcan->Instance->sFIFOMailBox[RxFifo].RDTR) >> CAN_RDT0R_FMI_Pos;
 80005aa:	f8d5 71b4 	ldr.w	r7, [r5, #436]	; 0x1b4
    pHeader->Timestamp = (CAN_RDT0R_TIME & hcan->Instance->sFIFOMailBox[RxFifo].RDTR) >> CAN_RDT0R_TIME_Pos;
 80005ae:	f8d5 51b4 	ldr.w	r5, [r5, #436]	; 0x1b4
    pHeader->FilterMatchIndex = (CAN_RDT0R_FMI & hcan->Instance->sFIFOMailBox[RxFifo].RDTR) >> CAN_RDT0R_FMI_Pos;
 80005b2:	f3c7 2707 	ubfx	r7, r7, #8, #8
    pHeader->Timestamp = (CAN_RDT0R_TIME & hcan->Instance->sFIFOMailBox[RxFifo].RDTR) >> CAN_RDT0R_TIME_Pos;
 80005b6:	0c2d      	lsrs	r5, r5, #16
    pHeader->FilterMatchIndex = (CAN_RDT0R_FMI & hcan->Instance->sFIFOMailBox[RxFifo].RDTR) >> CAN_RDT0R_FMI_Pos;
 80005b8:	6197      	str	r7, [r2, #24]
    pHeader->Timestamp = (CAN_RDT0R_TIME & hcan->Instance->sFIFOMailBox[RxFifo].RDTR) >> CAN_RDT0R_TIME_Pos;
 80005ba:	6155      	str	r5, [r2, #20]
    aData[0] = (uint8_t)((CAN_RDL0R_DATA0 & hcan->Instance->sFIFOMailBox[RxFifo].RDLR) >> CAN_RDL0R_DATA0_Pos);
 80005bc:	f8d6 21b8 	ldr.w	r2, [r6, #440]	; 0x1b8
 80005c0:	701a      	strb	r2, [r3, #0]
    aData[1] = (uint8_t)((CAN_RDL0R_DATA1 & hcan->Instance->sFIFOMailBox[RxFifo].RDLR) >> CAN_RDL0R_DATA1_Pos);
 80005c2:	6802      	ldr	r2, [r0, #0]
 80005c4:	4422      	add	r2, r4
 80005c6:	f8d2 21b8 	ldr.w	r2, [r2, #440]	; 0x1b8
 80005ca:	0a12      	lsrs	r2, r2, #8
 80005cc:	705a      	strb	r2, [r3, #1]
    aData[2] = (uint8_t)((CAN_RDL0R_DATA2 & hcan->Instance->sFIFOMailBox[RxFifo].RDLR) >> CAN_RDL0R_DATA2_Pos);
 80005ce:	6802      	ldr	r2, [r0, #0]
 80005d0:	4422      	add	r2, r4
 80005d2:	f8d2 21b8 	ldr.w	r2, [r2, #440]	; 0x1b8
 80005d6:	0c12      	lsrs	r2, r2, #16
 80005d8:	709a      	strb	r2, [r3, #2]
    aData[3] = (uint8_t)((CAN_RDL0R_DATA3 & hcan->Instance->sFIFOMailBox[RxFifo].RDLR) >> CAN_RDL0R_DATA3_Pos);
 80005da:	6802      	ldr	r2, [r0, #0]
 80005dc:	4422      	add	r2, r4
 80005de:	f8d2 21b8 	ldr.w	r2, [r2, #440]	; 0x1b8
 80005e2:	0e12      	lsrs	r2, r2, #24
 80005e4:	70da      	strb	r2, [r3, #3]
    aData[4] = (uint8_t)((CAN_RDH0R_DATA4 & hcan->Instance->sFIFOMailBox[RxFifo].RDHR) >> CAN_RDH0R_DATA4_Pos);
 80005e6:	6802      	ldr	r2, [r0, #0]
 80005e8:	4422      	add	r2, r4
 80005ea:	f8d2 21bc 	ldr.w	r2, [r2, #444]	; 0x1bc
 80005ee:	711a      	strb	r2, [r3, #4]
    aData[5] = (uint8_t)((CAN_RDH0R_DATA5 & hcan->Instance->sFIFOMailBox[RxFifo].RDHR) >> CAN_RDH0R_DATA5_Pos);
 80005f0:	6802      	ldr	r2, [r0, #0]
 80005f2:	4422      	add	r2, r4
 80005f4:	f8d2 21bc 	ldr.w	r2, [r2, #444]	; 0x1bc
 80005f8:	0a12      	lsrs	r2, r2, #8
 80005fa:	715a      	strb	r2, [r3, #5]
    aData[6] = (uint8_t)((CAN_RDH0R_DATA6 & hcan->Instance->sFIFOMailBox[RxFifo].RDHR) >> CAN_RDH0R_DATA6_Pos);
 80005fc:	6802      	ldr	r2, [r0, #0]
 80005fe:	4422      	add	r2, r4
 8000600:	f8d2 21bc 	ldr.w	r2, [r2, #444]	; 0x1bc
 8000604:	0c12      	lsrs	r2, r2, #16
 8000606:	719a      	strb	r2, [r3, #6]
    aData[7] = (uint8_t)((CAN_RDH0R_DATA7 & hcan->Instance->sFIFOMailBox[RxFifo].RDHR) >> CAN_RDH0R_DATA7_Pos);
 8000608:	6802      	ldr	r2, [r0, #0]
 800060a:	4414      	add	r4, r2
 800060c:	f8d4 21bc 	ldr.w	r2, [r4, #444]	; 0x1bc
 8000610:	0e12      	lsrs	r2, r2, #24
 8000612:	71da      	strb	r2, [r3, #7]
 8000614:	6803      	ldr	r3, [r0, #0]
    if (RxFifo == CAN_RX_FIFO0) /* Rx element is assigned to Rx FIFO 0 */
 8000616:	b951      	cbnz	r1, 800062e <HAL_CAN_GetRxMessage+0xda>
      SET_BIT(hcan->Instance->RF0R, CAN_RF0R_RFOM0);
 8000618:	68da      	ldr	r2, [r3, #12]
 800061a:	f042 0220 	orr.w	r2, r2, #32
 800061e:	60da      	str	r2, [r3, #12]
    return HAL_OK;
 8000620:	2000      	movs	r0, #0
 8000622:	bdf0      	pop	{r4, r5, r6, r7, pc}
      pHeader->ExtId = ((CAN_RI0R_EXID | CAN_RI0R_STID) & hcan->Instance->sFIFOMailBox[RxFifo].RIR) >> CAN_RI0R_EXID_Pos;
 8000624:	f8d5 71b0 	ldr.w	r7, [r5, #432]	; 0x1b0
 8000628:	08ff      	lsrs	r7, r7, #3
 800062a:	6057      	str	r7, [r2, #4]
 800062c:	e7b2      	b.n	8000594 <HAL_CAN_GetRxMessage+0x40>
      SET_BIT(hcan->Instance->RF1R, CAN_RF1R_RFOM1);
 800062e:	691a      	ldr	r2, [r3, #16]
 8000630:	f042 0220 	orr.w	r2, r2, #32
 8000634:	611a      	str	r2, [r3, #16]
 8000636:	e7f3      	b.n	8000620 <HAL_CAN_GetRxMessage+0xcc>
    hcan->ErrorCode |= HAL_CAN_ERROR_NOT_INITIALIZED;
 8000638:	6a43      	ldr	r3, [r0, #36]	; 0x24
 800063a:	f443 2380 	orr.w	r3, r3, #262144	; 0x40000
 800063e:	e797      	b.n	8000570 <HAL_CAN_GetRxMessage+0x1c>

08000640 <HAL_CAN_ActivateNotification>:
  *         This parameter can be any combination of @arg CAN_Interrupts.
  * @retval HAL status
  */
HAL_StatusTypeDef HAL_CAN_ActivateNotification(CAN_HandleTypeDef *hcan, uint32_t ActiveITs)
{
  HAL_CAN_StateTypeDef state = hcan->State;
 8000640:	f890 3020 	ldrb.w	r3, [r0, #32]

  /* Check function parameters */
  assert_param(IS_CAN_IT(ActiveITs));

  if ((state == HAL_CAN_STATE_READY) ||
 8000644:	3b01      	subs	r3, #1
 8000646:	2b01      	cmp	r3, #1
 8000648:	d805      	bhi.n	8000656 <HAL_CAN_ActivateNotification+0x16>
      (state == HAL_CAN_STATE_LISTENING))
  {
    /* Enable the selected interrupts */
    __HAL_CAN_ENABLE_IT(hcan, ActiveITs);
 800064a:	6802      	ldr	r2, [r0, #0]

    /* Return function status */
    return HAL_OK;
 800064c:	2000      	movs	r0, #0
    __HAL_CAN_ENABLE_IT(hcan, ActiveITs);
 800064e:	6953      	ldr	r3, [r2, #20]
 8000650:	4319      	orrs	r1, r3
 8000652:	6151      	str	r1, [r2, #20]
    return HAL_OK;
 8000654:	4770      	bx	lr
  }
  else
  {
    /* Update error code */
    hcan->ErrorCode |= HAL_CAN_ERROR_NOT_INITIALIZED;
 8000656:	6a43      	ldr	r3, [r0, #36]	; 0x24
 8000658:	f443 2380 	orr.w	r3, r3, #262144	; 0x40000
 800065c:	6243      	str	r3, [r0, #36]	; 0x24

    return HAL_ERROR;
 800065e:	2001      	movs	r0, #1
  }
}
 8000660:	4770      	bx	lr

08000662 <HAL_CAN_TxMailbox0AbortCallback>:
 8000662:	4770      	bx	lr

08000664 <HAL_CAN_TxMailbox1AbortCallback>:
 8000664:	4770      	bx	lr

08000666 <HAL_CAN_TxMailbox2AbortCallback>:
 8000666:	4770      	bx	lr

08000668 <HAL_CAN_RxFifo0FullCallback>:
 8000668:	4770      	bx	lr

0800066a <HAL_CAN_RxFifo1FullCallback>:
 800066a:	4770      	bx	lr

0800066c <HAL_CAN_SleepCallback>:
 800066c:	4770      	bx	lr

0800066e <HAL_CAN_WakeUpFromRxMsgCallback>:
 800066e:	4770      	bx	lr

08000670 <HAL_CAN_IRQHandler>:
  * @param  hcan pointer to a CAN_HandleTypeDef structure that contains
  *         the configuration information for the specified CAN.
  * @retval None
  */
void HAL_CAN_IRQHandler(CAN_HandleTypeDef *hcan)
{
 8000670:	e92d 4ff8 	stmdb	sp!, {r3, r4, r5, r6, r7, r8, r9, sl, fp, lr}
  uint32_t errorcode = HAL_CAN_ERROR_NONE;
  uint32_t interrupts = READ_REG(hcan->Instance->IER);
 8000674:	6803      	ldr	r3, [r0, #0]
{
 8000676:	4605      	mov	r5, r0
  uint32_t interrupts = READ_REG(hcan->Instance->IER);
 8000678:	695e      	ldr	r6, [r3, #20]
  uint32_t msrflags = READ_REG(hcan->Instance->MSR);
 800067a:	f8d3 9004 	ldr.w	r9, [r3, #4]
  uint32_t rf0rflags = READ_REG(hcan->Instance->RF0R);
  uint32_t rf1rflags = READ_REG(hcan->Instance->RF1R);
  uint32_t esrflags = READ_REG(hcan->Instance->ESR);

  /* Transmit Mailbox empty interrupt management *****************************/
  if ((interrupts & CAN_IT_TX_MAILBOX_EMPTY) != 0U)
 800067e:	f016 0401 	ands.w	r4, r6, #1
  uint32_t tsrflags = READ_REG(hcan->Instance->TSR);
 8000682:	689f      	ldr	r7, [r3, #8]
  uint32_t rf0rflags = READ_REG(hcan->Instance->RF0R);
 8000684:	f8d3 b00c 	ldr.w	fp, [r3, #12]
  uint32_t rf1rflags = READ_REG(hcan->Instance->RF1R);
 8000688:	f8d3 a010 	ldr.w	sl, [r3, #16]
  uint32_t esrflags = READ_REG(hcan->Instance->ESR);
 800068c:	f8d3 8018 	ldr.w	r8, [r3, #24]
  if ((interrupts & CAN_IT_TX_MAILBOX_EMPTY) != 0U)
 8000690:	d022      	beq.n	80006d8 <HAL_CAN_IRQHandler+0x68>
  {
    /* Transmit Mailbox 0 management *****************************************/
    if ((tsrflags & CAN_TSR_RQCP0) != 0U)
 8000692:	f017 0401 	ands.w	r4, r7, #1
 8000696:	d007      	beq.n	80006a8 <HAL_CAN_IRQHandler+0x38>
    {
      /* Clear the Transmission Complete flag (and TXOK0,ALST0,TERR0 bits) */
      __HAL_CAN_CLEAR_FLAG(hcan, CAN_FLAG_RQCP0);
 8000698:	2201      	movs	r2, #1

      if ((tsrflags & CAN_TSR_TXOK0) != 0U)
 800069a:	07b9      	lsls	r1, r7, #30
      __HAL_CAN_CLEAR_FLAG(hcan, CAN_FLAG_RQCP0);
 800069c:	609a      	str	r2, [r3, #8]
      if ((tsrflags & CAN_TSR_TXOK0) != 0U)
 800069e:	f140 80a3 	bpl.w	80007e8 <HAL_CAN_IRQHandler+0x178>
      {
        /* Transmission Mailbox 0 complete callback */
        /* Call weak (surcharged) callback */
        HAL_CAN_TxMailbox0CompleteCallback(hcan);
 80006a2:	f002 fb85 	bl	8002db0 <HAL_CAN_TxMailbox0CompleteCallback>
  uint32_t errorcode = HAL_CAN_ERROR_NONE;
 80006a6:	2400      	movs	r4, #0
        }
      }
    }

    /* Transmit Mailbox 1 management *****************************************/
    if ((tsrflags & CAN_TSR_RQCP1) != 0U)
 80006a8:	05fb      	lsls	r3, r7, #23
 80006aa:	d509      	bpl.n	80006c0 <HAL_CAN_IRQHandler+0x50>
    {
      /* Clear the Transmission Complete flag (and TXOK1,ALST1,TERR1 bits) */
      __HAL_CAN_CLEAR_FLAG(hcan, CAN_FLAG_RQCP1);
 80006ac:	f44f 7280 	mov.w	r2, #256	; 0x100
 80006b0:	682b      	ldr	r3, [r5, #0]

      if ((tsrflags & CAN_TSR_TXOK1) != 0U)
 80006b2:	05b8      	lsls	r0, r7, #22
      __HAL_CAN_CLEAR_FLAG(hcan, CAN_FLAG_RQCP1);
 80006b4:	609a      	str	r2, [r3, #8]
      if ((tsrflags & CAN_TSR_TXOK1) != 0U)
 80006b6:	f140 80a5 	bpl.w	8000804 <HAL_CAN_IRQHandler+0x194>
      {
        /* Transmission Mailbox 1 complete callback */
        /* Call weak (surcharged) callback */
        HAL_CAN_TxMailbox1CompleteCallback(hcan);
 80006ba:	4628      	mov	r0, r5
 80006bc:	f002 fb79 	bl	8002db2 <HAL_CAN_TxMailbox1CompleteCallback>
        }
      }
    }

    /* Transmit Mailbox 2 management *****************************************/
    if ((tsrflags & CAN_TSR_RQCP2) != 0U)
 80006c0:	03fb      	lsls	r3, r7, #15
 80006c2:	d509      	bpl.n	80006d8 <HAL_CAN_IRQHandler+0x68>
    {
      /* Clear the Transmission Complete flag (and TXOK2,ALST2,TERR2 bits) */
      __HAL_CAN_CLEAR_FLAG(hcan, CAN_FLAG_RQCP2);
 80006c4:	f44f 3280 	mov.w	r2, #65536	; 0x10000
 80006c8:	682b      	ldr	r3, [r5, #0]

      if ((tsrflags & CAN_TSR_TXOK2) != 0U)
 80006ca:	03b8      	lsls	r0, r7, #14
      __HAL_CAN_CLEAR_FLAG(hcan, CAN_FLAG_RQCP2);
 80006cc:	609a      	str	r2, [r3, #8]
      if ((tsrflags & CAN_TSR_TXOK2) != 0U)
 80006ce:	f140 80a7 	bpl.w	8000820 <HAL_CAN_IRQHandler+0x1b0>
      {
        /* Transmission Mailbox 2 complete callback */
        /* Call weak (surcharged) callback */
        HAL_CAN_TxMailbox2CompleteCallback(hcan);
 80006d2:	4628      	mov	r0, r5
 80006d4:	f002 fb6e 	bl	8002db4 <HAL_CAN_TxMailbox2CompleteCallback>
      }
    }
  }

  /* Receive FIFO 0 overrun interrupt management *****************************/
  if ((interrupts & CAN_IT_RX_FIFO0_OVERRUN) != 0U)
 80006d8:	0733      	lsls	r3, r6, #28
 80006da:	d507      	bpl.n	80006ec <HAL_CAN_IRQHandler+0x7c>
  {
    if ((rf0rflags & CAN_RF0R_FOVR0) != 0U)
 80006dc:	f01b 0f10 	tst.w	fp, #16
    {
      /* Set CAN error code to Rx Fifo 0 overrun error */
      errorcode |= HAL_CAN_ERROR_RX_FOV0;

      /* Clear FIFO0 Overrun Flag */
      __HAL_CAN_CLEAR_FLAG(hcan, CAN_FLAG_FOV0);
 80006e0:	bf1f      	itttt	ne
 80006e2:	2210      	movne	r2, #16
 80006e4:	682b      	ldrne	r3, [r5, #0]
      errorcode |= HAL_CAN_ERROR_RX_FOV0;
 80006e6:	f444 7400 	orrne.w	r4, r4, #512	; 0x200
      __HAL_CAN_CLEAR_FLAG(hcan, CAN_FLAG_FOV0);
 80006ea:	60da      	strne	r2, [r3, #12]
    }
  }

  /* Receive FIFO 0 full interrupt management ********************************/
  if ((interrupts & CAN_IT_RX_FIFO0_FULL) != 0U)
 80006ec:	0777      	lsls	r7, r6, #29
 80006ee:	d508      	bpl.n	8000702 <HAL_CAN_IRQHandler+0x92>
  {
    if ((rf0rflags & CAN_RF0R_FULL0) != 0U)
 80006f0:	f01b 0f08 	tst.w	fp, #8
 80006f4:	d005      	beq.n	8000702 <HAL_CAN_IRQHandler+0x92>
    {
      /* Clear FIFO 0 full Flag */
      __HAL_CAN_CLEAR_FLAG(hcan, CAN_FLAG_FF0);
 80006f6:	2208      	movs	r2, #8
 80006f8:	682b      	ldr	r3, [r5, #0]

      /* Receive FIFO 0 full Callback */
      /* Call weak (surcharged) callback */
      HAL_CAN_RxFifo0FullCallback(hcan);
 80006fa:	4628      	mov	r0, r5
      __HAL_CAN_CLEAR_FLAG(hcan, CAN_FLAG_FF0);
 80006fc:	60da      	str	r2, [r3, #12]
      HAL_CAN_RxFifo0FullCallback(hcan);
 80006fe:	f7ff ffb3 	bl	8000668 <HAL_CAN_RxFifo0FullCallback>
    }
  }

  /* Receive FIFO 0 message pending interrupt management *********************/
  if ((interrupts & CAN_IT_RX_FIFO0_MSG_PENDING) != 0U)
 8000702:	07b0      	lsls	r0, r6, #30
 8000704:	d506      	bpl.n	8000714 <HAL_CAN_IRQHandler+0xa4>
  {
    /* Check if message is still pending */
    if ((hcan->Instance->RF0R & CAN_RF0R_FMP0) != 0U)
 8000706:	682b      	ldr	r3, [r5, #0]
 8000708:	68db      	ldr	r3, [r3, #12]
 800070a:	0799      	lsls	r1, r3, #30
 800070c:	d002      	beq.n	8000714 <HAL_CAN_IRQHandler+0xa4>
    {
      /* Receive FIFO 0 mesage pending Callback */
      /* Call weak (surcharged) callback */
      HAL_CAN_RxFifo0MsgPendingCallback(hcan);
 800070e:	4628      	mov	r0, r5
 8000710:	f002 fd94 	bl	800323c <HAL_CAN_RxFifo0MsgPendingCallback>
    }
  }

  /* Receive FIFO 1 overrun interrupt management *****************************/
  if ((interrupts & CAN_IT_RX_FIFO1_OVERRUN) != 0U)
 8000714:	0672      	lsls	r2, r6, #25
 8000716:	d507      	bpl.n	8000728 <HAL_CAN_IRQHandler+0xb8>
  {
    if ((rf1rflags & CAN_RF1R_FOVR1) != 0U)
 8000718:	f01a 0f10 	tst.w	sl, #16
    {
      /* Set CAN error code to Rx Fifo 1 overrun error */
      errorcode |= HAL_CAN_ERROR_RX_FOV1;

      /* Clear FIFO1 Overrun Flag */
      __HAL_CAN_CLEAR_FLAG(hcan, CAN_FLAG_FOV1);
 800071c:	bf1f      	itttt	ne
 800071e:	2210      	movne	r2, #16
 8000720:	682b      	ldrne	r3, [r5, #0]
      errorcode |= HAL_CAN_ERROR_RX_FOV1;
 8000722:	f444 6480 	orrne.w	r4, r4, #1024	; 0x400
      __HAL_CAN_CLEAR_FLAG(hcan, CAN_FLAG_FOV1);
 8000726:	611a      	strne	r2, [r3, #16]
    }
  }

  /* Receive FIFO 1 full interrupt management ********************************/
  if ((interrupts & CAN_IT_RX_FIFO1_FULL) != 0U)
 8000728:	06b3      	lsls	r3, r6, #26
 800072a:	d508      	bpl.n	800073e <HAL_CAN_IRQHandler+0xce>
  {
    if ((rf1rflags & CAN_RF1R_FULL1) != 0U)
 800072c:	f01a 0f08 	tst.w	sl, #8
 8000730:	d005      	beq.n	800073e <HAL_CAN_IRQHandler+0xce>
    {
      /* Clear FIFO 1 full Flag */
      __HAL_CAN_CLEAR_FLAG(hcan, CAN_FLAG_FF1);
 8000732:	2208      	movs	r2, #8
 8000734:	682b      	ldr	r3, [r5, #0]

      /* Receive FIFO 1 full Callback */
      /* Call weak (surcharged) callback */
      HAL_CAN_RxFifo1FullCallback(hcan);
 8000736:	4628      	mov	r0, r5
      __HAL_CAN_CLEAR_FLAG(hcan, CAN_FLAG_FF1);
 8000738:	611a      	str	r2, [r3, #16]
      HAL_CAN_RxFifo1FullCallback(hcan);
 800073a:	f7ff ff96 	bl	800066a <HAL_CAN_RxFifo1FullCallback>
    }
  }

  /* Receive FIFO 1 message pending interrupt management *********************/
  if ((interrupts & CAN_IT_RX_FIFO1_MSG_PENDING) != 0U)
 800073e:	06f7      	lsls	r7, r6, #27
 8000740:	d506      	bpl.n	8000750 <HAL_CAN_IRQHandler+0xe0>
  {
    /* Check if message is still pending */
    if ((hcan->Instance->RF1R & CAN_RF1R_FMP1) != 0U)
 8000742:	682b      	ldr	r3, [r5, #0]
 8000744:	691b      	ldr	r3, [r3, #16]
 8000746:	0798      	lsls	r0, r3, #30
 8000748:	d002      	beq.n	8000750 <HAL_CAN_IRQHandler+0xe0>
    {
      /* Receive FIFO 1 mesage pending Callback */
      /* Call weak (surcharged) callback */
      HAL_CAN_RxFifo1MsgPendingCallback(hcan);
 800074a:	4628      	mov	r0, r5
 800074c:	f002 fd4e 	bl	80031ec <HAL_CAN_RxFifo1MsgPendingCallback>
    }
  }

  /* Sleep interrupt management *********************************************/
  if ((interrupts & CAN_IT_SLEEP_ACK) != 0U)
 8000750:	03b1      	lsls	r1, r6, #14
 8000752:	d508      	bpl.n	8000766 <HAL_CAN_IRQHandler+0xf6>
  {
    if ((msrflags & CAN_MSR_SLAKI) != 0U)
 8000754:	f019 0f10 	tst.w	r9, #16
 8000758:	d005      	beq.n	8000766 <HAL_CAN_IRQHandler+0xf6>
    {
      /* Clear Sleep interrupt Flag */
      __HAL_CAN_CLEAR_FLAG(hcan, CAN_FLAG_SLAKI);
 800075a:	2210      	movs	r2, #16
 800075c:	682b      	ldr	r3, [r5, #0]

      /* Sleep Callback */
      /* Call weak (surcharged) callback */
      HAL_CAN_SleepCallback(hcan);
 800075e:	4628      	mov	r0, r5
      __HAL_CAN_CLEAR_FLAG(hcan, CAN_FLAG_SLAKI);
 8000760:	605a      	str	r2, [r3, #4]
      HAL_CAN_SleepCallback(hcan);
 8000762:	f7ff ff83 	bl	800066c <HAL_CAN_SleepCallback>
    }
  }

  /* WakeUp interrupt management *********************************************/
  if ((interrupts & CAN_IT_WAKEUP) != 0U)
 8000766:	03f2      	lsls	r2, r6, #15
 8000768:	d508      	bpl.n	800077c <HAL_CAN_IRQHandler+0x10c>
  {
    if ((msrflags & CAN_MSR_WKUI) != 0U)
 800076a:	f019 0f08 	tst.w	r9, #8
 800076e:	d005      	beq.n	800077c <HAL_CAN_IRQHandler+0x10c>
    {
      /* Clear WakeUp Flag */
      __HAL_CAN_CLEAR_FLAG(hcan, CAN_FLAG_WKU);
 8000770:	2208      	movs	r2, #8
 8000772:	682b      	ldr	r3, [r5, #0]

      /* WakeUp Callback */
      /* Call weak (surcharged) callback */
      HAL_CAN_WakeUpFromRxMsgCallback(hcan);
 8000774:	4628      	mov	r0, r5
      __HAL_CAN_CLEAR_FLAG(hcan, CAN_FLAG_WKU);
 8000776:	605a      	str	r2, [r3, #4]
      HAL_CAN_WakeUpFromRxMsgCallback(hcan);
 8000778:	f7ff ff79 	bl	800066e <HAL_CAN_WakeUpFromRxMsgCallback>
    }
  }

  /* Error interrupts management *********************************************/
  if ((interrupts & CAN_IT_ERROR) != 0U)
 800077c:	0433      	lsls	r3, r6, #16
 800077e:	d52a      	bpl.n	80007d6 <HAL_CAN_IRQHandler+0x166>
  {
    if ((msrflags & CAN_MSR_ERRI) != 0U)
 8000780:	f019 0f04 	tst.w	r9, #4
 8000784:	682a      	ldr	r2, [r5, #0]
 8000786:	d024      	beq.n	80007d2 <HAL_CAN_IRQHandler+0x162>
    {
      /* Check Error Warning Flag */
      if (((interrupts & CAN_IT_ERROR_WARNING) != 0U) &&
 8000788:	05f7      	lsls	r7, r6, #23
 800078a:	d504      	bpl.n	8000796 <HAL_CAN_IRQHandler+0x126>
 800078c:	f018 0f01 	tst.w	r8, #1
          ((esrflags & CAN_ESR_EWGF) != 0U))
      {
        /* Set CAN error code to Error Warning */
        errorcode |= HAL_CAN_ERROR_EWG;
 8000790:	bf18      	it	ne
 8000792:	f044 0401 	orrne.w	r4, r4, #1

        /* No need for clear of Error Warning Flag as read-only */
      }

      /* Check Error Passive Flag */
      if (((interrupts & CAN_IT_ERROR_PASSIVE) != 0U) &&
 8000796:	05b0      	lsls	r0, r6, #22
 8000798:	d504      	bpl.n	80007a4 <HAL_CAN_IRQHandler+0x134>
 800079a:	f018 0f02 	tst.w	r8, #2
          ((esrflags & CAN_ESR_EPVF) != 0U))
      {
        /* Set CAN error code to Error Passive */
        errorcode |= HAL_CAN_ERROR_EPV;
 800079e:	bf18      	it	ne
 80007a0:	f044 0402 	orrne.w	r4, r4, #2

        /* No need for clear of Error Passive Flag as read-only */
      }

      /* Check Bus-off Flag */
      if (((interrupts & CAN_IT_BUSOFF) != 0U) &&
 80007a4:	0571      	lsls	r1, r6, #21
 80007a6:	d504      	bpl.n	80007b2 <HAL_CAN_IRQHandler+0x142>
 80007a8:	f018 0f04 	tst.w	r8, #4
          ((esrflags & CAN_ESR_BOFF) != 0U))
      {
        /* Set CAN error code to Bus-Off */
        errorcode |= HAL_CAN_ERROR_BOF;
 80007ac:	bf18      	it	ne
 80007ae:	f044 0404 	orrne.w	r4, r4, #4

        /* No need for clear of Error Bus-Off as read-only */
      }

      /* Check Last Error Code Flag */
      if (((interrupts & CAN_IT_LAST_ERROR_CODE) != 0U) &&
 80007b2:	0533      	lsls	r3, r6, #20
 80007b4:	d50d      	bpl.n	80007d2 <HAL_CAN_IRQHandler+0x162>
 80007b6:	f018 0370 	ands.w	r3, r8, #112	; 0x70
 80007ba:	d00a      	beq.n	80007d2 <HAL_CAN_IRQHandler+0x162>
          ((esrflags & CAN_ESR_LEC) != 0U))
      {
        switch (esrflags & CAN_ESR_LEC)
 80007bc:	2b30      	cmp	r3, #48	; 0x30
 80007be:	d04c      	beq.n	800085a <HAL_CAN_IRQHandler+0x1ea>
 80007c0:	d83c      	bhi.n	800083c <HAL_CAN_IRQHandler+0x1cc>
 80007c2:	2b10      	cmp	r3, #16
 80007c4:	d043      	beq.n	800084e <HAL_CAN_IRQHandler+0x1de>
 80007c6:	2b20      	cmp	r3, #32
 80007c8:	d044      	beq.n	8000854 <HAL_CAN_IRQHandler+0x1e4>
          default:
            break;
        }

        /* Clear Last error code Flag */
        CLEAR_BIT(hcan->Instance->ESR, CAN_ESR_LEC);
 80007ca:	6993      	ldr	r3, [r2, #24]
 80007cc:	f023 0370 	bic.w	r3, r3, #112	; 0x70
 80007d0:	6193      	str	r3, [r2, #24]
      }
    }

    /* Clear ERRI Flag */
    __HAL_CAN_CLEAR_FLAG(hcan, CAN_FLAG_ERRI);
 80007d2:	2304      	movs	r3, #4
 80007d4:	6053      	str	r3, [r2, #4]
  }

  /* Call the Error call Back in case of Errors */
  if (errorcode != HAL_CAN_ERROR_NONE)
 80007d6:	b12c      	cbz	r4, 80007e4 <HAL_CAN_IRQHandler+0x174>
  {
    /* Update error code in handle */
    hcan->ErrorCode |= errorcode;
 80007d8:	6a6b      	ldr	r3, [r5, #36]	; 0x24

    /* Call Error callback function */
    /* Call weak (surcharged) callback */
    HAL_CAN_ErrorCallback(hcan);
 80007da:	4628      	mov	r0, r5
    hcan->ErrorCode |= errorcode;
 80007dc:	431c      	orrs	r4, r3
 80007de:	626c      	str	r4, [r5, #36]	; 0x24
    HAL_CAN_ErrorCallback(hcan);
 80007e0:	f002 faea 	bl	8002db8 <HAL_CAN_ErrorCallback>
 80007e4:	e8bd 8ff8 	ldmia.w	sp!, {r3, r4, r5, r6, r7, r8, r9, sl, fp, pc}
        if ((tsrflags & CAN_TSR_ALST0) != 0U)
 80007e8:	077a      	lsls	r2, r7, #29
 80007ea:	d405      	bmi.n	80007f8 <HAL_CAN_IRQHandler+0x188>
        else if ((tsrflags & CAN_TSR_TERR0) != 0U)
 80007ec:	f017 0408 	ands.w	r4, r7, #8
 80007f0:	d105      	bne.n	80007fe <HAL_CAN_IRQHandler+0x18e>
          HAL_CAN_TxMailbox0AbortCallback(hcan);
 80007f2:	f7ff ff36 	bl	8000662 <HAL_CAN_TxMailbox0AbortCallback>
 80007f6:	e757      	b.n	80006a8 <HAL_CAN_IRQHandler+0x38>
          errorcode |= HAL_CAN_ERROR_TX_ALST0;
 80007f8:	f44f 6400 	mov.w	r4, #2048	; 0x800
 80007fc:	e754      	b.n	80006a8 <HAL_CAN_IRQHandler+0x38>
          errorcode |= HAL_CAN_ERROR_TX_TERR0;
 80007fe:	f44f 5480 	mov.w	r4, #4096	; 0x1000
 8000802:	e751      	b.n	80006a8 <HAL_CAN_IRQHandler+0x38>
        if ((tsrflags & CAN_TSR_ALST1) != 0U)
 8000804:	0579      	lsls	r1, r7, #21
 8000806:	d502      	bpl.n	800080e <HAL_CAN_IRQHandler+0x19e>
          errorcode |= HAL_CAN_ERROR_TX_ALST1;
 8000808:	f444 5400 	orr.w	r4, r4, #8192	; 0x2000
 800080c:	e758      	b.n	80006c0 <HAL_CAN_IRQHandler+0x50>
        else if ((tsrflags & CAN_TSR_TERR1) != 0U)
 800080e:	053a      	lsls	r2, r7, #20
 8000810:	d502      	bpl.n	8000818 <HAL_CAN_IRQHandler+0x1a8>
          errorcode |= HAL_CAN_ERROR_TX_TERR1;
 8000812:	f444 4480 	orr.w	r4, r4, #16384	; 0x4000
 8000816:	e753      	b.n	80006c0 <HAL_CAN_IRQHandler+0x50>
          HAL_CAN_TxMailbox1AbortCallback(hcan);
 8000818:	4628      	mov	r0, r5
 800081a:	f7ff ff23 	bl	8000664 <HAL_CAN_TxMailbox1AbortCallback>
 800081e:	e74f      	b.n	80006c0 <HAL_CAN_IRQHandler+0x50>
        if ((tsrflags & CAN_TSR_ALST2) != 0U)
 8000820:	0379      	lsls	r1, r7, #13
 8000822:	d502      	bpl.n	800082a <HAL_CAN_IRQHandler+0x1ba>
          errorcode |= HAL_CAN_ERROR_TX_ALST2;
 8000824:	f444 4400 	orr.w	r4, r4, #32768	; 0x8000
 8000828:	e756      	b.n	80006d8 <HAL_CAN_IRQHandler+0x68>
        else if ((tsrflags & CAN_TSR_TERR2) != 0U)
 800082a:	033a      	lsls	r2, r7, #12
 800082c:	d502      	bpl.n	8000834 <HAL_CAN_IRQHandler+0x1c4>
          errorcode |= HAL_CAN_ERROR_TX_TERR2;
 800082e:	f444 3480 	orr.w	r4, r4, #65536	; 0x10000
 8000832:	e751      	b.n	80006d8 <HAL_CAN_IRQHandler+0x68>
          HAL_CAN_TxMailbox2AbortCallback(hcan);
 8000834:	4628      	mov	r0, r5
 8000836:	f7ff ff16 	bl	8000666 <HAL_CAN_TxMailbox2AbortCallback>
 800083a:	e74d      	b.n	80006d8 <HAL_CAN_IRQHandler+0x68>
        switch (esrflags & CAN_ESR_LEC)
 800083c:	2b50      	cmp	r3, #80	; 0x50
 800083e:	d00f      	beq.n	8000860 <HAL_CAN_IRQHandler+0x1f0>
 8000840:	2b60      	cmp	r3, #96	; 0x60
 8000842:	d010      	beq.n	8000866 <HAL_CAN_IRQHandler+0x1f6>
 8000844:	2b40      	cmp	r3, #64	; 0x40
 8000846:	d1c0      	bne.n	80007ca <HAL_CAN_IRQHandler+0x15a>
            errorcode |= HAL_CAN_ERROR_BR;
 8000848:	f044 0440 	orr.w	r4, r4, #64	; 0x40
            break;
 800084c:	e7bd      	b.n	80007ca <HAL_CAN_IRQHandler+0x15a>
            errorcode |= HAL_CAN_ERROR_STF;
 800084e:	f044 0408 	orr.w	r4, r4, #8
            break;
 8000852:	e7ba      	b.n	80007ca <HAL_CAN_IRQHandler+0x15a>
            errorcode |= HAL_CAN_ERROR_FOR;
 8000854:	f044 0410 	orr.w	r4, r4, #16
            break;
 8000858:	e7b7      	b.n	80007ca <HAL_CAN_IRQHandler+0x15a>
            errorcode |= HAL_CAN_ERROR_ACK;
 800085a:	f044 0420 	orr.w	r4, r4, #32
            break;
 800085e:	e7b4      	b.n	80007ca <HAL_CAN_IRQHandler+0x15a>
            errorcode |= HAL_CAN_ERROR_BD;
 8000860:	f044 0480 	orr.w	r4, r4, #128	; 0x80
            break;
 8000864:	e7b1      	b.n	80007ca <HAL_CAN_IRQHandler+0x15a>
            errorcode |= HAL_CAN_ERROR_CRC;
 8000866:	f444 7480 	orr.w	r4, r4, #256	; 0x100
            break;
 800086a:	e7ae      	b.n	80007ca <HAL_CAN_IRQHandler+0x15a>

0800086c <HAL_CAN_GetState>:
  *         the configuration information for the specified CAN.
  * @retval HAL state
  */
HAL_CAN_StateTypeDef HAL_CAN_GetState(CAN_HandleTypeDef *hcan)
{
  HAL_CAN_StateTypeDef state = hcan->State;
 800086c:	f890 3020 	ldrb.w	r3, [r0, #32]
 8000870:	b2db      	uxtb	r3, r3

  if ((state == HAL_CAN_STATE_READY) ||
 8000872:	1e5a      	subs	r2, r3, #1
 8000874:	2a01      	cmp	r2, #1
 8000876:	d808      	bhi.n	800088a <HAL_CAN_GetState+0x1e>
      (state == HAL_CAN_STATE_LISTENING))
  {
    /* Check sleep mode acknowledge flag */
    if ((hcan->Instance->MSR & CAN_MSR_SLAK) != 0U)
 8000878:	6802      	ldr	r2, [r0, #0]
 800087a:	6851      	ldr	r1, [r2, #4]
 800087c:	0789      	lsls	r1, r1, #30
 800087e:	d406      	bmi.n	800088e <HAL_CAN_GetState+0x22>
    {
      /* Sleep mode is active */
      state = HAL_CAN_STATE_SLEEP_ACTIVE;
    }
    /* Check sleep mode request flag */
    else if ((hcan->Instance->MCR & CAN_MCR_SLEEP) != 0U)
 8000880:	6812      	ldr	r2, [r2, #0]
 8000882:	f012 0f02 	tst.w	r2, #2
    {
      /* Sleep mode request is pending */
      state = HAL_CAN_STATE_SLEEP_PENDING;
 8000886:	bf18      	it	ne
 8000888:	2303      	movne	r3, #3
    }
  }

  /* Return CAN state */
  return state;
}
 800088a:	4618      	mov	r0, r3
 800088c:	4770      	bx	lr
      state = HAL_CAN_STATE_SLEEP_ACTIVE;
 800088e:	2304      	movs	r3, #4
 8000890:	e7fb      	b.n	800088a <HAL_CAN_GetState+0x1e>

08000892 <HAL_CAN_GetError>:
  * @retval CAN Error Code
  */
uint32_t HAL_CAN_GetError(CAN_HandleTypeDef *hcan)
{
  /* Return CAN error code */
  return hcan->ErrorCode;
 8000892:	6a40      	ldr	r0, [r0, #36]	; 0x24
}
 8000894:	4770      	bx	lr

08000896 <HAL_CAN_ResetError>:
  * @retval HAL status
  */
HAL_StatusTypeDef HAL_CAN_ResetError(CAN_HandleTypeDef *hcan)
{
  HAL_StatusTypeDef status = HAL_OK;
  HAL_CAN_StateTypeDef state = hcan->State;
 8000896:	f890 3020 	ldrb.w	r3, [r0, #32]

  if ((state == HAL_CAN_STATE_READY) ||
 800089a:	3b01      	subs	r3, #1
 800089c:	2b01      	cmp	r3, #1
      (state == HAL_CAN_STATE_LISTENING))
  {
    /* Reset CAN error code */
    hcan->ErrorCode = 0U;
 800089e:	bf95      	itete	ls
 80008a0:	2300      	movls	r3, #0
  }
  else
  {
    /* Update error code */
    hcan->ErrorCode |= HAL_CAN_ERROR_NOT_INITIALIZED;
 80008a2:	6a43      	ldrhi	r3, [r0, #36]	; 0x24
    hcan->ErrorCode = 0U;
 80008a4:	6243      	strls	r3, [r0, #36]	; 0x24
    hcan->ErrorCode |= HAL_CAN_ERROR_NOT_INITIALIZED;
 80008a6:	f443 2380 	orrhi.w	r3, r3, #262144	; 0x40000
  HAL_StatusTypeDef status = HAL_OK;
 80008aa:	bf92      	itee	ls
 80008ac:	4618      	movls	r0, r3
    hcan->ErrorCode |= HAL_CAN_ERROR_NOT_INITIALIZED;
 80008ae:	6243      	strhi	r3, [r0, #36]	; 0x24

    status = HAL_ERROR;
 80008b0:	2001      	movhi	r0, #1
  }

  /* Return the status */
  return status;
}
 80008b2:	4770      	bx	lr

080008b4 <HAL_NVIC_SetPriorityGrouping>:
__STATIC_INLINE void NVIC_SetPriorityGrouping(uint32_t PriorityGroup)
{
  uint32_t reg_value;
  uint32_t PriorityGroupTmp = (PriorityGroup & (uint32_t)0x07UL);             /* only values 0..7 are used          */

  reg_value  =  SCB->AIRCR;                                                   /* read old register configuration    */
 80008b4:	4a07      	ldr	r2, [pc, #28]	; (80008d4 <HAL_NVIC_SetPriorityGrouping+0x20>)
  reg_value &= ~((uint32_t)(SCB_AIRCR_VECTKEY_Msk | SCB_AIRCR_PRIGROUP_Msk)); /* clear bits to change               */
  reg_value  =  (reg_value                                   |
                ((uint32_t)0x5FAUL << SCB_AIRCR_VECTKEY_Pos) |
                (PriorityGroupTmp << 8U)                      );              /* Insert write key and priorty group */
 80008b6:	0200      	lsls	r0, r0, #8
  reg_value  =  SCB->AIRCR;                                                   /* read old register configuration    */
 80008b8:	68d3      	ldr	r3, [r2, #12]
                (PriorityGroupTmp << 8U)                      );              /* Insert write key and priorty group */
 80008ba:	f400 60e0 	and.w	r0, r0, #1792	; 0x700
  reg_value &= ~((uint32_t)(SCB_AIRCR_VECTKEY_Msk | SCB_AIRCR_PRIGROUP_Msk)); /* clear bits to change               */
 80008be:	f423 63e0 	bic.w	r3, r3, #1792	; 0x700
 80008c2:	041b      	lsls	r3, r3, #16
 80008c4:	0c1b      	lsrs	r3, r3, #16
 80008c6:	f043 63bf 	orr.w	r3, r3, #100139008	; 0x5f80000
 80008ca:	f443 3300 	orr.w	r3, r3, #131072	; 0x20000
  reg_value  =  (reg_value                                   |
 80008ce:	4303      	orrs	r3, r0
  SCB->AIRCR =  reg_value;
 80008d0:	60d3      	str	r3, [r2, #12]
 80008d2:	4770      	bx	lr
 80008d4:	e000ed00 	.word	0xe000ed00

080008d8 <HAL_NVIC_SetPriority>:
  \details Reads the priority grouping field from the NVIC Interrupt Controller.
  \return                Priority grouping field (SCB->AIRCR [10:8] PRIGROUP field).
 */
__STATIC_INLINE uint32_t NVIC_GetPriorityGrouping(void)
{
  return ((uint32_t)((SCB->AIRCR & SCB_AIRCR_PRIGROUP_Msk) >> SCB_AIRCR_PRIGROUP_Pos));
 80008d8:	4b17      	ldr	r3, [pc, #92]	; (8000938 <HAL_NVIC_SetPriority+0x60>)
  *         This parameter can be a value between 0 and 15
  *         A lower priority value indicates a higher priority.          
  * @retval None
  */
void HAL_NVIC_SetPriority(IRQn_Type IRQn, uint32_t PreemptPriority, uint32_t SubPriority)
{ 
 80008da:	b530      	push	{r4, r5, lr}
 80008dc:	68dc      	ldr	r4, [r3, #12]
 80008de:	f3c4 2402 	ubfx	r4, r4, #8, #3
{
  uint32_t PriorityGroupTmp = (PriorityGroup & (uint32_t)0x07UL);   /* only values 0..7 are used          */
  uint32_t PreemptPriorityBits;
  uint32_t SubPriorityBits;

  PreemptPriorityBits = ((7UL - PriorityGroupTmp) > (uint32_t)(__NVIC_PRIO_BITS)) ? (uint32_t)(__NVIC_PRIO_BITS) : (uint32_t)(7UL - PriorityGroupTmp);
 80008e2:	f1c4 0307 	rsb	r3, r4, #7
  SubPriorityBits     = ((PriorityGroupTmp + (uint32_t)(__NVIC_PRIO_BITS)) < (uint32_t)7UL) ? (uint32_t)0UL : (uint32_t)((PriorityGroupTmp - 7UL) + (uint32_t)(__NVIC_PRIO_BITS));
 80008e6:	1d25      	adds	r5, r4, #4
  PreemptPriorityBits = ((7UL - PriorityGroupTmp) > (uint32_t)(__NVIC_PRIO_BITS)) ? (uint32_t)(__NVIC_PRIO_BITS) : (uint32_t)(7UL - PriorityGroupTmp);
 80008e8:	2b04      	cmp	r3, #4
 80008ea:	bf28      	it	cs
 80008ec:	2304      	movcs	r3, #4
  SubPriorityBits     = ((PriorityGroupTmp + (uint32_t)(__NVIC_PRIO_BITS)) < (uint32_t)7UL) ? (uint32_t)0UL : (uint32_t)((PriorityGroupTmp - 7UL) + (uint32_t)(__NVIC_PRIO_BITS));
 80008ee:	2d06      	cmp	r5, #6

  return (
           ((PreemptPriority & (uint32_t)((1UL << (PreemptPriorityBits)) - 1UL)) << SubPriorityBits) |
 80008f0:	f04f 0501 	mov.w	r5, #1
  SubPriorityBits     = ((PriorityGroupTmp + (uint32_t)(__NVIC_PRIO_BITS)) < (uint32_t)7UL) ? (uint32_t)0UL : (uint32_t)((PriorityGroupTmp - 7UL) + (uint32_t)(__NVIC_PRIO_BITS));
 80008f4:	bf98      	it	ls
 80008f6:	2400      	movls	r4, #0
           ((PreemptPriority & (uint32_t)((1UL << (PreemptPriorityBits)) - 1UL)) << SubPriorityBits) |
 80008f8:	fa05 f303 	lsl.w	r3, r5, r3
 80008fc:	f103 33ff 	add.w	r3, r3, #4294967295
  SubPriorityBits     = ((PriorityGroupTmp + (uint32_t)(__NVIC_PRIO_BITS)) < (uint32_t)7UL) ? (uint32_t)0UL : (uint32_t)((PriorityGroupTmp - 7UL) + (uint32_t)(__NVIC_PRIO_BITS));
 8000900:	bf88      	it	hi
 8000902:	3c03      	subhi	r4, #3
           ((PreemptPriority & (uint32_t)((1UL << (PreemptPriorityBits)) - 1UL)) << SubPriorityBits) |
 8000904:	4019      	ands	r1, r3
 8000906:	40a1      	lsls	r1, r4
           ((SubPriority     & (uint32_t)((1UL << (SubPriorityBits    )) - 1UL)))
 8000908:	fa05 f404 	lsl.w	r4, r5, r4
 800090c:	3c01      	subs	r4, #1
 800090e:	4022      	ands	r2, r4
  if ((int32_t)(IRQn) < 0)
 8000910:	2800      	cmp	r0, #0
           ((PreemptPriority & (uint32_t)((1UL << (PreemptPriorityBits)) - 1UL)) << SubPriorityBits) |
 8000912:	ea42 0201 	orr.w	r2, r2, r1
 8000916:	ea4f 1202 	mov.w	r2, r2, lsl #4
    NVIC->IP[((uint32_t)(int32_t)IRQn)]               = (uint8_t)((priority << (8U - __NVIC_PRIO_BITS)) & (uint32_t)0xFFUL);
 800091a:	bfaf      	iteee	ge
 800091c:	f100 4060 	addge.w	r0, r0, #3758096384	; 0xe0000000
    SCB->SHP[(((uint32_t)(int32_t)IRQn) & 0xFUL)-4UL] = (uint8_t)((priority << (8U - __NVIC_PRIO_BITS)) & (uint32_t)0xFFUL);
 8000920:	4b06      	ldrlt	r3, [pc, #24]	; (800093c <HAL_NVIC_SetPriority+0x64>)
 8000922:	f000 000f 	andlt.w	r0, r0, #15
 8000926:	b2d2      	uxtblt	r2, r2
    NVIC->IP[((uint32_t)(int32_t)IRQn)]               = (uint8_t)((priority << (8U - __NVIC_PRIO_BITS)) & (uint32_t)0xFFUL);
 8000928:	bfa5      	ittet	ge
 800092a:	b2d2      	uxtbge	r2, r2
 800092c:	f500 4061 	addge.w	r0, r0, #57600	; 0xe100
    SCB->SHP[(((uint32_t)(int32_t)IRQn) & 0xFUL)-4UL] = (uint8_t)((priority << (8U - __NVIC_PRIO_BITS)) & (uint32_t)0xFFUL);
 8000930:	541a      	strblt	r2, [r3, r0]
    NVIC->IP[((uint32_t)(int32_t)IRQn)]               = (uint8_t)((priority << (8U - __NVIC_PRIO_BITS)) & (uint32_t)0xFFUL);
 8000932:	f880 2300 	strbge.w	r2, [r0, #768]	; 0x300
 8000936:	bd30      	pop	{r4, r5, pc}
 8000938:	e000ed00 	.word	0xe000ed00
 800093c:	e000ed14 	.word	0xe000ed14

08000940 <HAL_NVIC_EnableIRQ>:
  NVIC->ISER[(((uint32_t)(int32_t)IRQn) >> 5UL)] = (uint32_t)(1UL << (((uint32_t)(int32_t)IRQn) & 0x1FUL));
 8000940:	2301      	movs	r3, #1
 8000942:	0942      	lsrs	r2, r0, #5
 8000944:	f000 001f 	and.w	r0, r0, #31
 8000948:	fa03 f000 	lsl.w	r0, r3, r0
 800094c:	4b01      	ldr	r3, [pc, #4]	; (8000954 <HAL_NVIC_EnableIRQ+0x14>)
 800094e:	f843 0022 	str.w	r0, [r3, r2, lsl #2]
 8000952:	4770      	bx	lr
 8000954:	e000e100 	.word	0xe000e100

08000958 <HAL_NVIC_DisableIRQ>:
  NVIC->ICER[(((uint32_t)(int32_t)IRQn) >> 5UL)] = (uint32_t)(1UL << (((uint32_t)(int32_t)IRQn) & 0x1FUL));
 8000958:	2201      	movs	r2, #1
 800095a:	0943      	lsrs	r3, r0, #5
 800095c:	f000 001f 	and.w	r0, r0, #31
 8000960:	fa02 f000 	lsl.w	r0, r2, r0
 8000964:	4a02      	ldr	r2, [pc, #8]	; (8000970 <HAL_NVIC_DisableIRQ+0x18>)
 8000966:	3320      	adds	r3, #32
 8000968:	f842 0023 	str.w	r0, [r2, r3, lsl #2]
 800096c:	4770      	bx	lr
 800096e:	bf00      	nop
 8000970:	e000e100 	.word	0xe000e100

08000974 <HAL_SYSTICK_Config>:
           function <b>SysTick_Config</b> is not included. In this case, the file <b><i>device</i>.h</b>
           must contain a vendor-specific implementation of this function.
 */
__STATIC_INLINE uint32_t SysTick_Config(uint32_t ticks)
{
  if ((ticks - 1UL) > SysTick_LOAD_RELOAD_Msk)
 8000974:	3801      	subs	r0, #1
 8000976:	f1b0 7f80 	cmp.w	r0, #16777216	; 0x1000000
 800097a:	d20a      	bcs.n	8000992 <HAL_SYSTICK_Config+0x1e>
    SCB->SHP[(((uint32_t)(int32_t)IRQn) & 0xFUL)-4UL] = (uint8_t)((priority << (8U - __NVIC_PRIO_BITS)) & (uint32_t)0xFFUL);
 800097c:	21f0      	movs	r1, #240	; 0xf0
  {
    return (1UL);                                                   /* Reload value impossible */
  }

  SysTick->LOAD  = (uint32_t)(ticks - 1UL);                         /* set reload register */
 800097e:	4b06      	ldr	r3, [pc, #24]	; (8000998 <HAL_SYSTICK_Config+0x24>)
    SCB->SHP[(((uint32_t)(int32_t)IRQn) & 0xFUL)-4UL] = (uint8_t)((priority << (8U - __NVIC_PRIO_BITS)) & (uint32_t)0xFFUL);
 8000980:	4a06      	ldr	r2, [pc, #24]	; (800099c <HAL_SYSTICK_Config+0x28>)
  SysTick->LOAD  = (uint32_t)(ticks - 1UL);                         /* set reload register */
 8000982:	6058      	str	r0, [r3, #4]
    SCB->SHP[(((uint32_t)(int32_t)IRQn) & 0xFUL)-4UL] = (uint8_t)((priority << (8U - __NVIC_PRIO_BITS)) & (uint32_t)0xFFUL);
 8000984:	f882 1023 	strb.w	r1, [r2, #35]	; 0x23
  NVIC_SetPriority (SysTick_IRQn, (1UL << __NVIC_PRIO_BITS) - 1UL); /* set Priority for Systick Interrupt */
  SysTick->VAL   = 0UL;                                             /* Load the SysTick Counter Value */
 8000988:	2000      	movs	r0, #0
  SysTick->CTRL  = SysTick_CTRL_CLKSOURCE_Msk |
 800098a:	2207      	movs	r2, #7
  SysTick->VAL   = 0UL;                                             /* Load the SysTick Counter Value */
 800098c:	6098      	str	r0, [r3, #8]
  SysTick->CTRL  = SysTick_CTRL_CLKSOURCE_Msk |
 800098e:	601a      	str	r2, [r3, #0]
 8000990:	4770      	bx	lr
    return (1UL);                                                   /* Reload value impossible */
 8000992:	2001      	movs	r0, #1
  *                  - 1  Function failed.
  */
uint32_t HAL_SYSTICK_Config(uint32_t TicksNumb)
{
   return SysTick_Config(TicksNumb);
}
 8000994:	4770      	bx	lr
 8000996:	bf00      	nop
 8000998:	e000e010 	.word	0xe000e010
 800099c:	e000ed00 	.word	0xe000ed00

080009a0 <HAL_DMA_Init>:
  * @param  hdma: Pointer to a DMA_HandleTypeDef structure that contains
  *               the configuration information for the specified DMA Channel.
  * @retval HAL status
  */
HAL_StatusTypeDef HAL_DMA_Init(DMA_HandleTypeDef *hdma)
{
 80009a0:	b510      	push	{r4, lr}
  uint32_t tmp = 0U;

  /* Check the DMA handle allocation */
  if(hdma == NULL)
 80009a2:	b330      	cbz	r0, 80009f2 <HAL_DMA_Init+0x52>
    hdma->ChannelIndex = (((uint32_t)hdma->Instance - (uint32_t)DMA2_Channel1) / ((uint32_t)DMA2_Channel2 - (uint32_t)DMA2_Channel1)) << 2;
    hdma->DmaBaseAddress = DMA2;
  }
#else
  /* DMA1 */
  hdma->ChannelIndex = (((uint32_t)hdma->Instance - (uint32_t)DMA1_Channel1) / ((uint32_t)DMA1_Channel2 - (uint32_t)DMA1_Channel1)) << 2;
 80009a4:	2214      	movs	r2, #20
 80009a6:	6801      	ldr	r1, [r0, #0]
 80009a8:	4b13      	ldr	r3, [pc, #76]	; (80009f8 <HAL_DMA_Init+0x58>)
  tmp &= ((uint32_t)~(DMA_CCR_PL    | DMA_CCR_MSIZE  | DMA_CCR_PSIZE  | \
                      DMA_CCR_MINC  | DMA_CCR_PINC   | DMA_CCR_CIRC   | \
                      DMA_CCR_DIR));

  /* Prepare the DMA Channel configuration */
  tmp |=  hdma->Init.Direction        |
 80009aa:	6884      	ldr	r4, [r0, #8]
  hdma->ChannelIndex = (((uint32_t)hdma->Instance - (uint32_t)DMA1_Channel1) / ((uint32_t)DMA1_Channel2 - (uint32_t)DMA1_Channel1)) << 2;
 80009ac:	440b      	add	r3, r1
 80009ae:	fbb3 f3f2 	udiv	r3, r3, r2
 80009b2:	009b      	lsls	r3, r3, #2
 80009b4:	6403      	str	r3, [r0, #64]	; 0x40
  hdma->DmaBaseAddress = DMA1;
 80009b6:	4b11      	ldr	r3, [pc, #68]	; (80009fc <HAL_DMA_Init+0x5c>)
  tmp = hdma->Instance->CCR;
 80009b8:	680a      	ldr	r2, [r1, #0]
  hdma->DmaBaseAddress = DMA1;
 80009ba:	63c3      	str	r3, [r0, #60]	; 0x3c
  tmp |=  hdma->Init.Direction        |
 80009bc:	6843      	ldr	r3, [r0, #4]
  tmp &= ((uint32_t)~(DMA_CCR_PL    | DMA_CCR_MSIZE  | DMA_CCR_PSIZE  | \
 80009be:	f422 527f 	bic.w	r2, r2, #16320	; 0x3fc0
  tmp |=  hdma->Init.Direction        |
 80009c2:	4323      	orrs	r3, r4
          hdma->Init.PeriphInc           | hdma->Init.MemInc           |
 80009c4:	68c4      	ldr	r4, [r0, #12]
  tmp &= ((uint32_t)~(DMA_CCR_PL    | DMA_CCR_MSIZE  | DMA_CCR_PSIZE  | \
 80009c6:	f022 0230 	bic.w	r2, r2, #48	; 0x30
          hdma->Init.PeriphInc           | hdma->Init.MemInc           |
 80009ca:	4323      	orrs	r3, r4
 80009cc:	6904      	ldr	r4, [r0, #16]
 80009ce:	4323      	orrs	r3, r4
          hdma->Init.PeriphDataAlignment | hdma->Init.MemDataAlignment |
 80009d0:	6944      	ldr	r4, [r0, #20]
 80009d2:	4323      	orrs	r3, r4
 80009d4:	6984      	ldr	r4, [r0, #24]
 80009d6:	4323      	orrs	r3, r4
          hdma->Init.Mode                | hdma->Init.Priority;
 80009d8:	69c4      	ldr	r4, [r0, #28]
 80009da:	4323      	orrs	r3, r4
  tmp |=  hdma->Init.Direction        |
 80009dc:	4313      	orrs	r3, r2

  /* Write to DMA Channel CR register */
  hdma->Instance->CCR = tmp;
 80009de:	600b      	str	r3, [r1, #0]

  /* Initialise the error code */
  hdma->ErrorCode = HAL_DMA_ERROR_NONE;

  /* Initialize the DMA state*/
  hdma->State = HAL_DMA_STATE_READY;
 80009e0:	2201      	movs	r2, #1
  hdma->ErrorCode = HAL_DMA_ERROR_NONE;
 80009e2:	2300      	movs	r3, #0
  hdma->State = HAL_DMA_STATE_READY;
 80009e4:	f880 2021 	strb.w	r2, [r0, #33]	; 0x21
  hdma->ErrorCode = HAL_DMA_ERROR_NONE;
 80009e8:	6383      	str	r3, [r0, #56]	; 0x38
  /* Allocate lock resource and initialize it */
  hdma->Lock = HAL_UNLOCKED;
 80009ea:	f880 3020 	strb.w	r3, [r0, #32]

  return HAL_OK;
 80009ee:	4618      	mov	r0, r3
 80009f0:	bd10      	pop	{r4, pc}
    return HAL_ERROR;
 80009f2:	2001      	movs	r0, #1
}
 80009f4:	bd10      	pop	{r4, pc}
 80009f6:	bf00      	nop
 80009f8:	bffdfff8 	.word	0xbffdfff8
 80009fc:	40020000 	.word	0x40020000

08000a00 <HAL_DMA_DeInit>:
  * @param  hdma: pointer to a DMA_HandleTypeDef structure that contains
  *               the configuration information for the specified DMA Channel.
  * @retval HAL status
  */
HAL_StatusTypeDef HAL_DMA_DeInit(DMA_HandleTypeDef *hdma)
{
 8000a00:	b510      	push	{r4, lr}
  /* Check the DMA handle allocation */
  if(hdma == NULL)
 8000a02:	b308      	cbz	r0, 8000a48 <HAL_DMA_DeInit+0x48>

  /* Check the parameters */
  assert_param(IS_DMA_ALL_INSTANCE(hdma->Instance));

  /* Disable the selected DMA Channelx */
  __HAL_DMA_DISABLE(hdma);
 8000a04:	6801      	ldr	r1, [r0, #0]
    hdma->ChannelIndex = (((uint32_t)hdma->Instance - (uint32_t)DMA2_Channel1) / ((uint32_t)DMA2_Channel2 - (uint32_t)DMA2_Channel1)) << 2;
    hdma->DmaBaseAddress = DMA2;
  }
#else
  /* DMA1 */
  hdma->ChannelIndex = (((uint32_t)hdma->Instance - (uint32_t)DMA1_Channel1) / ((uint32_t)DMA1_Channel2 - (uint32_t)DMA1_Channel1)) << 2;
 8000a06:	4a11      	ldr	r2, [pc, #68]	; (8000a4c <HAL_DMA_DeInit+0x4c>)
  __HAL_DMA_DISABLE(hdma);
 8000a08:	680b      	ldr	r3, [r1, #0]
  hdma->ChannelIndex = (((uint32_t)hdma->Instance - (uint32_t)DMA1_Channel1) / ((uint32_t)DMA1_Channel2 - (uint32_t)DMA1_Channel1)) << 2;
 8000a0a:	440a      	add	r2, r1
  __HAL_DMA_DISABLE(hdma);
 8000a0c:	f023 0301 	bic.w	r3, r3, #1
 8000a10:	600b      	str	r3, [r1, #0]
  hdma->Instance->CCR  = 0U;
 8000a12:	2300      	movs	r3, #0
 8000a14:	600b      	str	r3, [r1, #0]
  hdma->Instance->CNDTR = 0U;
 8000a16:	604b      	str	r3, [r1, #4]
  hdma->Instance->CPAR  = 0U;
 8000a18:	608b      	str	r3, [r1, #8]
  hdma->Instance->CMAR = 0U;
 8000a1a:	60cb      	str	r3, [r1, #12]
  hdma->ChannelIndex = (((uint32_t)hdma->Instance - (uint32_t)DMA1_Channel1) / ((uint32_t)DMA1_Channel2 - (uint32_t)DMA1_Channel1)) << 2;
 8000a1c:	2114      	movs	r1, #20
 8000a1e:	fbb2 f2f1 	udiv	r2, r2, r1
  hdma->DmaBaseAddress = DMA1;
#endif /* STM32F101xE || STM32F101xG || STM32F103xE || STM32F103xG || STM32F100xE || STM32F105xC || STM32F107xC */

  /* Clear all flags */
  hdma->DmaBaseAddress->IFCR = (DMA_ISR_GIF1 << (hdma->ChannelIndex));
 8000a22:	2101      	movs	r1, #1
  hdma->DmaBaseAddress = DMA1;
 8000a24:	4c0a      	ldr	r4, [pc, #40]	; (8000a50 <HAL_DMA_DeInit+0x50>)
  hdma->ChannelIndex = (((uint32_t)hdma->Instance - (uint32_t)DMA1_Channel1) / ((uint32_t)DMA1_Channel2 - (uint32_t)DMA1_Channel1)) << 2;
 8000a26:	0092      	lsls	r2, r2, #2
 8000a28:	6402      	str	r2, [r0, #64]	; 0x40
  hdma->DmaBaseAddress->IFCR = (DMA_ISR_GIF1 << (hdma->ChannelIndex));
 8000a2a:	fa01 f202 	lsl.w	r2, r1, r2
  hdma->DmaBaseAddress = DMA1;
 8000a2e:	63c4      	str	r4, [r0, #60]	; 0x3c
  hdma->DmaBaseAddress->IFCR = (DMA_ISR_GIF1 << (hdma->ChannelIndex));
 8000a30:	6062      	str	r2, [r4, #4]

  /* Clean all callbacks */
  hdma->XferCpltCallback = NULL;
 8000a32:	6283      	str	r3, [r0, #40]	; 0x28
  hdma->XferHalfCpltCallback = NULL;
 8000a34:	62c3      	str	r3, [r0, #44]	; 0x2c
  hdma->XferErrorCallback = NULL;
 8000a36:	6303      	str	r3, [r0, #48]	; 0x30
  hdma->XferAbortCallback = NULL;
 8000a38:	6343      	str	r3, [r0, #52]	; 0x34

  /* Reset the error code */
  hdma->ErrorCode = HAL_DMA_ERROR_NONE;
 8000a3a:	6383      	str	r3, [r0, #56]	; 0x38

  /* Reset the DMA state */
  hdma->State = HAL_DMA_STATE_RESET;
 8000a3c:	f880 3021 	strb.w	r3, [r0, #33]	; 0x21

  /* Release Lock */
  __HAL_UNLOCK(hdma);
 8000a40:	f880 3020 	strb.w	r3, [r0, #32]

  return HAL_OK;
 8000a44:	4618      	mov	r0, r3
 8000a46:	bd10      	pop	{r4, pc}
    return HAL_ERROR;
 8000a48:	2001      	movs	r0, #1
}
 8000a4a:	bd10      	pop	{r4, pc}
 8000a4c:	bffdfff8 	.word	0xbffdfff8
 8000a50:	40020000 	.word	0x40020000

08000a54 <HAL_DMA_Start_IT>:
  * @param  DstAddress: The destination memory Buffer address
  * @param  DataLength: The length of data to be transferred from source to destination
  * @retval HAL status
  */
HAL_StatusTypeDef HAL_DMA_Start_IT(DMA_HandleTypeDef *hdma, uint32_t SrcAddress, uint32_t DstAddress, uint32_t DataLength)
{
 8000a54:	b5f0      	push	{r4, r5, r6, r7, lr}

  /* Check the parameters */
  assert_param(IS_DMA_BUFFER_SIZE(DataLength));

  /* Process locked */
  __HAL_LOCK(hdma);
 8000a56:	f890 4020 	ldrb.w	r4, [r0, #32]
 8000a5a:	2c01      	cmp	r4, #1
 8000a5c:	d035      	beq.n	8000aca <HAL_DMA_Start_IT+0x76>
 8000a5e:	2401      	movs	r4, #1
  
  if(HAL_DMA_STATE_READY == hdma->State)
 8000a60:	f890 5021 	ldrb.w	r5, [r0, #33]	; 0x21
  __HAL_LOCK(hdma);
 8000a64:	f880 4020 	strb.w	r4, [r0, #32]
  if(HAL_DMA_STATE_READY == hdma->State)
 8000a68:	42a5      	cmp	r5, r4
 8000a6a:	f04f 0600 	mov.w	r6, #0
 8000a6e:	f04f 0402 	mov.w	r4, #2
 8000a72:	d128      	bne.n	8000ac6 <HAL_DMA_Start_IT+0x72>
  {
    /* Change DMA peripheral state */
    hdma->State = HAL_DMA_STATE_BUSY;
 8000a74:	f880 4021 	strb.w	r4, [r0, #33]	; 0x21
    hdma->ErrorCode = HAL_DMA_ERROR_NONE;
    
    /* Disable the peripheral */
    __HAL_DMA_DISABLE(hdma);
 8000a78:	6804      	ldr	r4, [r0, #0]
    hdma->ErrorCode = HAL_DMA_ERROR_NONE;
 8000a7a:	6386      	str	r6, [r0, #56]	; 0x38
    __HAL_DMA_DISABLE(hdma);
 8000a7c:	6826      	ldr	r6, [r4, #0]
  * @retval HAL status
  */
static void DMA_SetConfig(DMA_HandleTypeDef *hdma, uint32_t SrcAddress, uint32_t DstAddress, uint32_t DataLength)
{
  /* Clear all flags */
  hdma->DmaBaseAddress->IFCR = (DMA_ISR_GIF1 << hdma->ChannelIndex);
 8000a7e:	6c07      	ldr	r7, [r0, #64]	; 0x40
    __HAL_DMA_DISABLE(hdma);
 8000a80:	f026 0601 	bic.w	r6, r6, #1
 8000a84:	6026      	str	r6, [r4, #0]
  hdma->DmaBaseAddress->IFCR = (DMA_ISR_GIF1 << hdma->ChannelIndex);
 8000a86:	6bc6      	ldr	r6, [r0, #60]	; 0x3c
 8000a88:	40bd      	lsls	r5, r7
 8000a8a:	6075      	str	r5, [r6, #4]

  /* Configure DMA Channel data length */
  hdma->Instance->CNDTR = DataLength;
 8000a8c:	6063      	str	r3, [r4, #4]

  /* Memory to Peripheral */
  if((hdma->Init.Direction) == DMA_MEMORY_TO_PERIPH)
 8000a8e:	6843      	ldr	r3, [r0, #4]
 8000a90:	6805      	ldr	r5, [r0, #0]
 8000a92:	2b10      	cmp	r3, #16
    if(NULL != hdma->XferHalfCpltCallback)
 8000a94:	6ac3      	ldr	r3, [r0, #44]	; 0x2c
  {
    /* Configure DMA Channel destination address */
    hdma->Instance->CPAR = DstAddress;
 8000a96:	bf0b      	itete	eq
 8000a98:	60a2      	streq	r2, [r4, #8]
  }
  /* Peripheral to Memory */
  else
  {
    /* Configure DMA Channel source address */
    hdma->Instance->CPAR = SrcAddress;
 8000a9a:	60a1      	strne	r1, [r4, #8]
    hdma->Instance->CMAR = SrcAddress;
 8000a9c:	60e1      	streq	r1, [r4, #12]

    /* Configure DMA Channel destination address */
    hdma->Instance->CMAR = DstAddress;
 8000a9e:	60e2      	strne	r2, [r4, #12]
    if(NULL != hdma->XferHalfCpltCallback)
 8000aa0:	b14b      	cbz	r3, 8000ab6 <HAL_DMA_Start_IT+0x62>
      __HAL_DMA_ENABLE_IT(hdma, (DMA_IT_TC | DMA_IT_HT | DMA_IT_TE));
 8000aa2:	6823      	ldr	r3, [r4, #0]
 8000aa4:	f043 030e 	orr.w	r3, r3, #14
      __HAL_DMA_ENABLE_IT(hdma, (DMA_IT_TC | DMA_IT_TE));
 8000aa8:	6023      	str	r3, [r4, #0]
    __HAL_DMA_ENABLE(hdma);
 8000aaa:	682b      	ldr	r3, [r5, #0]
  HAL_StatusTypeDef status = HAL_OK;
 8000aac:	2000      	movs	r0, #0
    __HAL_DMA_ENABLE(hdma);
 8000aae:	f043 0301 	orr.w	r3, r3, #1
 8000ab2:	602b      	str	r3, [r5, #0]
 8000ab4:	bdf0      	pop	{r4, r5, r6, r7, pc}
      __HAL_DMA_DISABLE_IT(hdma, DMA_IT_HT);
 8000ab6:	6823      	ldr	r3, [r4, #0]
 8000ab8:	f023 0304 	bic.w	r3, r3, #4
 8000abc:	6023      	str	r3, [r4, #0]
      __HAL_DMA_ENABLE_IT(hdma, (DMA_IT_TC | DMA_IT_TE));
 8000abe:	6823      	ldr	r3, [r4, #0]
 8000ac0:	f043 030a 	orr.w	r3, r3, #10
 8000ac4:	e7f0      	b.n	8000aa8 <HAL_DMA_Start_IT+0x54>
    __HAL_UNLOCK(hdma); 
 8000ac6:	f880 6020 	strb.w	r6, [r0, #32]
  __HAL_LOCK(hdma);
 8000aca:	2002      	movs	r0, #2
}
 8000acc:	bdf0      	pop	{r4, r5, r6, r7, pc}
	...

08000ad0 <HAL_DMA_Abort_IT>:
  if(HAL_DMA_STATE_BUSY != hdma->State)
 8000ad0:	f890 3021 	ldrb.w	r3, [r0, #33]	; 0x21
{  
 8000ad4:	b510      	push	{r4, lr}
  if(HAL_DMA_STATE_BUSY != hdma->State)
 8000ad6:	2b02      	cmp	r3, #2
 8000ad8:	d003      	beq.n	8000ae2 <HAL_DMA_Abort_IT+0x12>
    hdma->ErrorCode = HAL_DMA_ERROR_NO_XFER;
 8000ada:	2304      	movs	r3, #4
 8000adc:	6383      	str	r3, [r0, #56]	; 0x38
    status = HAL_ERROR;
 8000ade:	2001      	movs	r0, #1
 8000ae0:	bd10      	pop	{r4, pc}
    __HAL_DMA_DISABLE_IT(hdma, (DMA_IT_TC | DMA_IT_HT | DMA_IT_TE));
 8000ae2:	6803      	ldr	r3, [r0, #0]
 8000ae4:	681a      	ldr	r2, [r3, #0]
 8000ae6:	f022 020e 	bic.w	r2, r2, #14
 8000aea:	601a      	str	r2, [r3, #0]
    __HAL_DMA_DISABLE(hdma);
 8000aec:	681a      	ldr	r2, [r3, #0]
 8000aee:	f022 0201 	bic.w	r2, r2, #1
 8000af2:	601a      	str	r2, [r3, #0]
    __HAL_DMA_CLEAR_FLAG(hdma, __HAL_DMA_GET_GI_FLAG_INDEX(hdma));
 8000af4:	4a18      	ldr	r2, [pc, #96]	; (8000b58 <HAL_DMA_Abort_IT+0x88>)
 8000af6:	4293      	cmp	r3, r2
 8000af8:	d01f      	beq.n	8000b3a <HAL_DMA_Abort_IT+0x6a>
 8000afa:	3214      	adds	r2, #20
 8000afc:	4293      	cmp	r3, r2
 8000afe:	d01e      	beq.n	8000b3e <HAL_DMA_Abort_IT+0x6e>
 8000b00:	3214      	adds	r2, #20
 8000b02:	4293      	cmp	r3, r2
 8000b04:	d01d      	beq.n	8000b42 <HAL_DMA_Abort_IT+0x72>
 8000b06:	3214      	adds	r2, #20
 8000b08:	4293      	cmp	r3, r2
 8000b0a:	d01d      	beq.n	8000b48 <HAL_DMA_Abort_IT+0x78>
 8000b0c:	3214      	adds	r2, #20
 8000b0e:	4293      	cmp	r3, r2
 8000b10:	d01d      	beq.n	8000b4e <HAL_DMA_Abort_IT+0x7e>
 8000b12:	3214      	adds	r2, #20
 8000b14:	4293      	cmp	r3, r2
 8000b16:	bf0c      	ite	eq
 8000b18:	f44f 1380 	moveq.w	r3, #1048576	; 0x100000
 8000b1c:	f04f 7380 	movne.w	r3, #16777216	; 0x1000000
 8000b20:	4a0e      	ldr	r2, [pc, #56]	; (8000b5c <HAL_DMA_Abort_IT+0x8c>)
    __HAL_UNLOCK(hdma);
 8000b22:	2400      	movs	r4, #0
    __HAL_DMA_CLEAR_FLAG(hdma, __HAL_DMA_GET_GI_FLAG_INDEX(hdma));
 8000b24:	6053      	str	r3, [r2, #4]
    hdma->State = HAL_DMA_STATE_READY;
 8000b26:	2301      	movs	r3, #1
 8000b28:	f880 3021 	strb.w	r3, [r0, #33]	; 0x21
    if(hdma->XferAbortCallback != NULL)
 8000b2c:	6b43      	ldr	r3, [r0, #52]	; 0x34
    __HAL_UNLOCK(hdma);
 8000b2e:	f880 4020 	strb.w	r4, [r0, #32]
    if(hdma->XferAbortCallback != NULL)
 8000b32:	b17b      	cbz	r3, 8000b54 <HAL_DMA_Abort_IT+0x84>
      hdma->XferAbortCallback(hdma);
 8000b34:	4798      	blx	r3
  HAL_StatusTypeDef status = HAL_OK;
 8000b36:	4620      	mov	r0, r4
 8000b38:	bd10      	pop	{r4, pc}
    __HAL_DMA_CLEAR_FLAG(hdma, __HAL_DMA_GET_GI_FLAG_INDEX(hdma));
 8000b3a:	2301      	movs	r3, #1
 8000b3c:	e7f0      	b.n	8000b20 <HAL_DMA_Abort_IT+0x50>
 8000b3e:	2310      	movs	r3, #16
 8000b40:	e7ee      	b.n	8000b20 <HAL_DMA_Abort_IT+0x50>
 8000b42:	f44f 7380 	mov.w	r3, #256	; 0x100
 8000b46:	e7eb      	b.n	8000b20 <HAL_DMA_Abort_IT+0x50>
 8000b48:	f44f 5380 	mov.w	r3, #4096	; 0x1000
 8000b4c:	e7e8      	b.n	8000b20 <HAL_DMA_Abort_IT+0x50>
 8000b4e:	f44f 3380 	mov.w	r3, #65536	; 0x10000
 8000b52:	e7e5      	b.n	8000b20 <HAL_DMA_Abort_IT+0x50>
  HAL_StatusTypeDef status = HAL_OK;
 8000b54:	4618      	mov	r0, r3
}
 8000b56:	bd10      	pop	{r4, pc}
 8000b58:	40020008 	.word	0x40020008
 8000b5c:	40020000 	.word	0x40020000

08000b60 <HAL_DMA_IRQHandler>:
{
 8000b60:	b470      	push	{r4, r5, r6}
  if (((flag_it & (DMA_FLAG_HT1 << hdma->ChannelIndex)) != RESET) && ((source_it & DMA_IT_HT) != RESET))
 8000b62:	2504      	movs	r5, #4
  uint32_t flag_it = hdma->DmaBaseAddress->ISR;
 8000b64:	6bc6      	ldr	r6, [r0, #60]	; 0x3c
  if (((flag_it & (DMA_FLAG_HT1 << hdma->ChannelIndex)) != RESET) && ((source_it & DMA_IT_HT) != RESET))
 8000b66:	6c02      	ldr	r2, [r0, #64]	; 0x40
  uint32_t flag_it = hdma->DmaBaseAddress->ISR;
 8000b68:	6834      	ldr	r4, [r6, #0]
  uint32_t source_it = hdma->Instance->CCR;
 8000b6a:	6803      	ldr	r3, [r0, #0]
  if (((flag_it & (DMA_FLAG_HT1 << hdma->ChannelIndex)) != RESET) && ((source_it & DMA_IT_HT) != RESET))
 8000b6c:	4095      	lsls	r5, r2
 8000b6e:	4225      	tst	r5, r4
  uint32_t source_it = hdma->Instance->CCR;
 8000b70:	6819      	ldr	r1, [r3, #0]
  if (((flag_it & (DMA_FLAG_HT1 << hdma->ChannelIndex)) != RESET) && ((source_it & DMA_IT_HT) != RESET))
 8000b72:	d032      	beq.n	8000bda <HAL_DMA_IRQHandler+0x7a>
 8000b74:	074d      	lsls	r5, r1, #29
 8000b76:	d530      	bpl.n	8000bda <HAL_DMA_IRQHandler+0x7a>
    if((hdma->Instance->CCR & DMA_CCR_CIRC) == 0U)
 8000b78:	681a      	ldr	r2, [r3, #0]
 8000b7a:	0696      	lsls	r6, r2, #26
      __HAL_DMA_DISABLE_IT(hdma, DMA_IT_HT);
 8000b7c:	bf5e      	ittt	pl
 8000b7e:	681a      	ldrpl	r2, [r3, #0]
 8000b80:	f022 0204 	bicpl.w	r2, r2, #4
 8000b84:	601a      	strpl	r2, [r3, #0]
    __HAL_DMA_CLEAR_FLAG(hdma, __HAL_DMA_GET_HT_FLAG_INDEX(hdma));
 8000b86:	4a3e      	ldr	r2, [pc, #248]	; (8000c80 <HAL_DMA_IRQHandler+0x120>)
 8000b88:	4293      	cmp	r3, r2
 8000b8a:	d019      	beq.n	8000bc0 <HAL_DMA_IRQHandler+0x60>
 8000b8c:	3214      	adds	r2, #20
 8000b8e:	4293      	cmp	r3, r2
 8000b90:	d018      	beq.n	8000bc4 <HAL_DMA_IRQHandler+0x64>
 8000b92:	3214      	adds	r2, #20
 8000b94:	4293      	cmp	r3, r2
 8000b96:	d017      	beq.n	8000bc8 <HAL_DMA_IRQHandler+0x68>
 8000b98:	3214      	adds	r2, #20
 8000b9a:	4293      	cmp	r3, r2
 8000b9c:	d017      	beq.n	8000bce <HAL_DMA_IRQHandler+0x6e>
 8000b9e:	3214      	adds	r2, #20
 8000ba0:	4293      	cmp	r3, r2
 8000ba2:	d017      	beq.n	8000bd4 <HAL_DMA_IRQHandler+0x74>
 8000ba4:	3214      	adds	r2, #20
 8000ba6:	4293      	cmp	r3, r2
 8000ba8:	bf0c      	ite	eq
 8000baa:	f44f 0380 	moveq.w	r3, #4194304	; 0x400000
 8000bae:	f04f 6380 	movne.w	r3, #67108864	; 0x4000000
 8000bb2:	4a34      	ldr	r2, [pc, #208]	; (8000c84 <HAL_DMA_IRQHandler+0x124>)
 8000bb4:	6053      	str	r3, [r2, #4]
    if(hdma->XferHalfCpltCallback != NULL)
 8000bb6:	6ac3      	ldr	r3, [r0, #44]	; 0x2c
    if (hdma->XferErrorCallback != NULL)
 8000bb8:	2b00      	cmp	r3, #0
 8000bba:	d05e      	beq.n	8000c7a <HAL_DMA_IRQHandler+0x11a>
}
 8000bbc:	bc70      	pop	{r4, r5, r6}
      hdma->XferErrorCallback(hdma);
 8000bbe:	4718      	bx	r3
    __HAL_DMA_CLEAR_FLAG(hdma, __HAL_DMA_GET_HT_FLAG_INDEX(hdma));
 8000bc0:	2304      	movs	r3, #4
 8000bc2:	e7f6      	b.n	8000bb2 <HAL_DMA_IRQHandler+0x52>
 8000bc4:	2340      	movs	r3, #64	; 0x40
 8000bc6:	e7f4      	b.n	8000bb2 <HAL_DMA_IRQHandler+0x52>
 8000bc8:	f44f 6380 	mov.w	r3, #1024	; 0x400
 8000bcc:	e7f1      	b.n	8000bb2 <HAL_DMA_IRQHandler+0x52>
 8000bce:	f44f 4380 	mov.w	r3, #16384	; 0x4000
 8000bd2:	e7ee      	b.n	8000bb2 <HAL_DMA_IRQHandler+0x52>
 8000bd4:	f44f 2380 	mov.w	r3, #262144	; 0x40000
 8000bd8:	e7eb      	b.n	8000bb2 <HAL_DMA_IRQHandler+0x52>
  else if (((flag_it & (DMA_FLAG_TC1 << hdma->ChannelIndex)) != RESET) && ((source_it & DMA_IT_TC) != RESET))
 8000bda:	2502      	movs	r5, #2
 8000bdc:	4095      	lsls	r5, r2
 8000bde:	4225      	tst	r5, r4
 8000be0:	d035      	beq.n	8000c4e <HAL_DMA_IRQHandler+0xee>
 8000be2:	078d      	lsls	r5, r1, #30
 8000be4:	d533      	bpl.n	8000c4e <HAL_DMA_IRQHandler+0xee>
    if((hdma->Instance->CCR & DMA_CCR_CIRC) == 0U)
 8000be6:	681a      	ldr	r2, [r3, #0]
 8000be8:	0694      	lsls	r4, r2, #26
 8000bea:	d406      	bmi.n	8000bfa <HAL_DMA_IRQHandler+0x9a>
      __HAL_DMA_DISABLE_IT(hdma, DMA_IT_TE | DMA_IT_TC);  
 8000bec:	681a      	ldr	r2, [r3, #0]
 8000bee:	f022 020a 	bic.w	r2, r2, #10
 8000bf2:	601a      	str	r2, [r3, #0]
      hdma->State = HAL_DMA_STATE_READY;
 8000bf4:	2201      	movs	r2, #1
 8000bf6:	f880 2021 	strb.w	r2, [r0, #33]	; 0x21
      __HAL_DMA_CLEAR_FLAG(hdma, __HAL_DMA_GET_TC_FLAG_INDEX(hdma));
 8000bfa:	4a21      	ldr	r2, [pc, #132]	; (8000c80 <HAL_DMA_IRQHandler+0x120>)
 8000bfc:	4293      	cmp	r3, r2
 8000bfe:	d019      	beq.n	8000c34 <HAL_DMA_IRQHandler+0xd4>
 8000c00:	3214      	adds	r2, #20
 8000c02:	4293      	cmp	r3, r2
 8000c04:	d018      	beq.n	8000c38 <HAL_DMA_IRQHandler+0xd8>
 8000c06:	3214      	adds	r2, #20
 8000c08:	4293      	cmp	r3, r2
 8000c0a:	d017      	beq.n	8000c3c <HAL_DMA_IRQHandler+0xdc>
 8000c0c:	3214      	adds	r2, #20
 8000c0e:	4293      	cmp	r3, r2
 8000c10:	d017      	beq.n	8000c42 <HAL_DMA_IRQHandler+0xe2>
 8000c12:	3214      	adds	r2, #20
 8000c14:	4293      	cmp	r3, r2
 8000c16:	d017      	beq.n	8000c48 <HAL_DMA_IRQHandler+0xe8>
 8000c18:	3214      	adds	r2, #20
 8000c1a:	4293      	cmp	r3, r2
 8000c1c:	bf0c      	ite	eq
 8000c1e:	f44f 1300 	moveq.w	r3, #2097152	; 0x200000
 8000c22:	f04f 7300 	movne.w	r3, #33554432	; 0x2000000
 8000c26:	4a17      	ldr	r2, [pc, #92]	; (8000c84 <HAL_DMA_IRQHandler+0x124>)
 8000c28:	6053      	str	r3, [r2, #4]
    __HAL_UNLOCK(hdma);
 8000c2a:	2300      	movs	r3, #0
 8000c2c:	f880 3020 	strb.w	r3, [r0, #32]
    if(hdma->XferCpltCallback != NULL)
 8000c30:	6a83      	ldr	r3, [r0, #40]	; 0x28
 8000c32:	e7c1      	b.n	8000bb8 <HAL_DMA_IRQHandler+0x58>
      __HAL_DMA_CLEAR_FLAG(hdma, __HAL_DMA_GET_TC_FLAG_INDEX(hdma));
 8000c34:	2302      	movs	r3, #2
 8000c36:	e7f6      	b.n	8000c26 <HAL_DMA_IRQHandler+0xc6>
 8000c38:	2320      	movs	r3, #32
 8000c3a:	e7f4      	b.n	8000c26 <HAL_DMA_IRQHandler+0xc6>
 8000c3c:	f44f 7300 	mov.w	r3, #512	; 0x200
 8000c40:	e7f1      	b.n	8000c26 <HAL_DMA_IRQHandler+0xc6>
 8000c42:	f44f 5300 	mov.w	r3, #8192	; 0x2000
 8000c46:	e7ee      	b.n	8000c26 <HAL_DMA_IRQHandler+0xc6>
 8000c48:	f44f 3300 	mov.w	r3, #131072	; 0x20000
 8000c4c:	e7eb      	b.n	8000c26 <HAL_DMA_IRQHandler+0xc6>
  else if (( RESET != (flag_it & (DMA_FLAG_TE1 << hdma->ChannelIndex))) && (RESET != (source_it & DMA_IT_TE)))
 8000c4e:	2508      	movs	r5, #8
 8000c50:	4095      	lsls	r5, r2
 8000c52:	4225      	tst	r5, r4
 8000c54:	d011      	beq.n	8000c7a <HAL_DMA_IRQHandler+0x11a>
 8000c56:	0709      	lsls	r1, r1, #28
 8000c58:	d50f      	bpl.n	8000c7a <HAL_DMA_IRQHandler+0x11a>
    __HAL_DMA_DISABLE_IT(hdma, (DMA_IT_TC | DMA_IT_HT | DMA_IT_TE));
 8000c5a:	6819      	ldr	r1, [r3, #0]
 8000c5c:	f021 010e 	bic.w	r1, r1, #14
 8000c60:	6019      	str	r1, [r3, #0]
    hdma->DmaBaseAddress->IFCR = (DMA_ISR_GIF1 << hdma->ChannelIndex);
 8000c62:	2301      	movs	r3, #1
 8000c64:	fa03 f202 	lsl.w	r2, r3, r2
 8000c68:	6072      	str	r2, [r6, #4]
    hdma->ErrorCode = HAL_DMA_ERROR_TE;
 8000c6a:	6383      	str	r3, [r0, #56]	; 0x38
    hdma->State = HAL_DMA_STATE_READY;
 8000c6c:	f880 3021 	strb.w	r3, [r0, #33]	; 0x21
    __HAL_UNLOCK(hdma);
 8000c70:	2300      	movs	r3, #0
 8000c72:	f880 3020 	strb.w	r3, [r0, #32]
    if (hdma->XferErrorCallback != NULL)
 8000c76:	6b03      	ldr	r3, [r0, #48]	; 0x30
 8000c78:	e79e      	b.n	8000bb8 <HAL_DMA_IRQHandler+0x58>
}
 8000c7a:	bc70      	pop	{r4, r5, r6}
 8000c7c:	4770      	bx	lr
 8000c7e:	bf00      	nop
 8000c80:	40020008 	.word	0x40020008
 8000c84:	40020000 	.word	0x40020000

08000c88 <HAL_GPIO_Init>:
  * @param  GPIO_Init: pointer to a GPIO_InitTypeDef structure that contains
  *         the configuration information for the specified GPIO peripheral.
  * @retval None
  */
void HAL_GPIO_Init(GPIO_TypeDef  *GPIOx, GPIO_InitTypeDef *GPIO_Init)
{
 8000c88:	e92d 4ff7 	stmdb	sp!, {r0, r1, r2, r4, r5, r6, r7, r8, r9, sl, fp, lr}
  uint32_t position;
  uint32_t ioposition = 0x00U;
  uint32_t iocurrent = 0x00U;
  uint32_t temp = 0x00U;
  uint32_t config = 0x00U;
 8000c8c:	2200      	movs	r2, #0
  assert_param(IS_GPIO_ALL_INSTANCE(GPIOx));
  assert_param(IS_GPIO_PIN(GPIO_Init->Pin));
  assert_param(IS_GPIO_MODE(GPIO_Init->Mode));

  /* Configure the port pins */
  for (position = 0U; position < GPIO_NUMBER; position++)
 8000c8e:	4616      	mov	r6, r2
 8000c90:	4b65      	ldr	r3, [pc, #404]	; (8000e28 <HAL_GPIO_Init+0x1a0>)
    {
      /* Check the Alternate function parameters */
      assert_param(IS_GPIO_AF_INSTANCE(GPIOx));

      /* Based on the required mode, filling config variable with MODEy[1:0] and CNFy[3:2] corresponding bits */
      switch (GPIO_Init->Mode)
 8000c92:	f8df e1a4 	ldr.w	lr, [pc, #420]	; 8000e38 <HAL_GPIO_Init+0x1b0>
 8000c96:	f8df c1a4 	ldr.w	ip, [pc, #420]	; 8000e3c <HAL_GPIO_Init+0x1b4>
    ioposition = (0x01U << position);
 8000c9a:	f04f 0801 	mov.w	r8, #1
    iocurrent = (uint32_t)(GPIO_Init->Pin) & ioposition;
 8000c9e:	680c      	ldr	r4, [r1, #0]
    ioposition = (0x01U << position);
 8000ca0:	fa08 f806 	lsl.w	r8, r8, r6
    iocurrent = (uint32_t)(GPIO_Init->Pin) & ioposition;
 8000ca4:	ea08 0404 	and.w	r4, r8, r4
    if (iocurrent == ioposition)
 8000ca8:	45a0      	cmp	r8, r4
 8000caa:	d17f      	bne.n	8000dac <HAL_GPIO_Init+0x124>
      switch (GPIO_Init->Mode)
 8000cac:	684d      	ldr	r5, [r1, #4]
 8000cae:	2d12      	cmp	r5, #18
 8000cb0:	f000 80af 	beq.w	8000e12 <HAL_GPIO_Init+0x18a>
 8000cb4:	f200 8088 	bhi.w	8000dc8 <HAL_GPIO_Init+0x140>
 8000cb8:	2d02      	cmp	r5, #2
 8000cba:	f000 80a7 	beq.w	8000e0c <HAL_GPIO_Init+0x184>
 8000cbe:	d87c      	bhi.n	8000dba <HAL_GPIO_Init+0x132>
 8000cc0:	2d00      	cmp	r5, #0
 8000cc2:	f000 808e 	beq.w	8000de2 <HAL_GPIO_Init+0x15a>
 8000cc6:	2d01      	cmp	r5, #1
 8000cc8:	f000 809e 	beq.w	8000e08 <HAL_GPIO_Init+0x180>
       in order to address CRH or CRL register*/
      configregister = (iocurrent < GPIO_PIN_8) ? &GPIOx->CRL     : &GPIOx->CRH;
      registeroffset = (iocurrent < GPIO_PIN_8) ? (position << 2U) : ((position - 8U) << 2U);

      /* Apply the new configuration of the pin to the register */
      MODIFY_REG((*configregister), ((GPIO_CRL_MODE0 | GPIO_CRL_CNF0) << registeroffset), (config << registeroffset));
 8000ccc:	f04f 090f 	mov.w	r9, #15
      configregister = (iocurrent < GPIO_PIN_8) ? &GPIOx->CRL     : &GPIOx->CRH;
 8000cd0:	2cff      	cmp	r4, #255	; 0xff
 8000cd2:	bf93      	iteet	ls
 8000cd4:	4682      	movls	sl, r0
 8000cd6:	f106 4580 	addhi.w	r5, r6, #1073741824	; 0x40000000
 8000cda:	3d08      	subhi	r5, #8
 8000cdc:	f8d0 b000 	ldrls.w	fp, [r0]
 8000ce0:	bf92      	itee	ls
 8000ce2:	00b5      	lslls	r5, r6, #2
 8000ce4:	f8d0 b004 	ldrhi.w	fp, [r0, #4]
 8000ce8:	00ad      	lslhi	r5, r5, #2
      MODIFY_REG((*configregister), ((GPIO_CRL_MODE0 | GPIO_CRL_CNF0) << registeroffset), (config << registeroffset));
 8000cea:	fa09 f805 	lsl.w	r8, r9, r5
 8000cee:	ea2b 0808 	bic.w	r8, fp, r8
 8000cf2:	fa02 f505 	lsl.w	r5, r2, r5
      configregister = (iocurrent < GPIO_PIN_8) ? &GPIOx->CRL     : &GPIOx->CRH;
 8000cf6:	bf88      	it	hi
 8000cf8:	f100 0a04 	addhi.w	sl, r0, #4
      MODIFY_REG((*configregister), ((GPIO_CRL_MODE0 | GPIO_CRL_CNF0) << registeroffset), (config << registeroffset));
 8000cfc:	ea48 0505 	orr.w	r5, r8, r5
 8000d00:	f8ca 5000 	str.w	r5, [sl]

      /*--------------------- EXTI Mode Configuration ------------------------*/
      /* Configure the External Interrupt or event for the current IO */
      if ((GPIO_Init->Mode & EXTI_MODE) == EXTI_MODE)
 8000d04:	f8d1 a004 	ldr.w	sl, [r1, #4]
 8000d08:	f01a 5f80 	tst.w	sl, #268435456	; 0x10000000
 8000d0c:	d04e      	beq.n	8000dac <HAL_GPIO_Init+0x124>
      {
        /* Enable AFIO Clock */
        __HAL_RCC_AFIO_CLK_ENABLE();
 8000d0e:	4d47      	ldr	r5, [pc, #284]	; (8000e2c <HAL_GPIO_Init+0x1a4>)
 8000d10:	4f46      	ldr	r7, [pc, #280]	; (8000e2c <HAL_GPIO_Init+0x1a4>)
 8000d12:	69ad      	ldr	r5, [r5, #24]
 8000d14:	f026 0803 	bic.w	r8, r6, #3
 8000d18:	f045 0501 	orr.w	r5, r5, #1
 8000d1c:	61bd      	str	r5, [r7, #24]
 8000d1e:	69bd      	ldr	r5, [r7, #24]
 8000d20:	f108 4880 	add.w	r8, r8, #1073741824	; 0x40000000
 8000d24:	f005 0501 	and.w	r5, r5, #1
 8000d28:	9501      	str	r5, [sp, #4]
 8000d2a:	f508 3880 	add.w	r8, r8, #65536	; 0x10000
        temp = AFIO->EXTICR[position >> 2U];
        CLEAR_BIT(temp, (0x0FU) << (4U * (position & 0x03U)));
 8000d2e:	f006 0b03 	and.w	fp, r6, #3
        __HAL_RCC_AFIO_CLK_ENABLE();
 8000d32:	9d01      	ldr	r5, [sp, #4]
        CLEAR_BIT(temp, (0x0FU) << (4U * (position & 0x03U)));
 8000d34:	ea4f 0b8b 	mov.w	fp, fp, lsl #2
        temp = AFIO->EXTICR[position >> 2U];
 8000d38:	f8d8 5008 	ldr.w	r5, [r8, #8]
        CLEAR_BIT(temp, (0x0FU) << (4U * (position & 0x03U)));
 8000d3c:	fa09 f90b 	lsl.w	r9, r9, fp
 8000d40:	ea25 0909 	bic.w	r9, r5, r9
        SET_BIT(temp, (GPIO_GET_INDEX(GPIOx)) << (4U * (position & 0x03U)));
 8000d44:	4d3a      	ldr	r5, [pc, #232]	; (8000e30 <HAL_GPIO_Init+0x1a8>)
 8000d46:	42a8      	cmp	r0, r5
 8000d48:	d068      	beq.n	8000e1c <HAL_GPIO_Init+0x194>
 8000d4a:	f505 6580 	add.w	r5, r5, #1024	; 0x400
 8000d4e:	42a8      	cmp	r0, r5
 8000d50:	d066      	beq.n	8000e20 <HAL_GPIO_Init+0x198>
 8000d52:	f505 6580 	add.w	r5, r5, #1024	; 0x400
 8000d56:	42a8      	cmp	r0, r5
 8000d58:	d064      	beq.n	8000e24 <HAL_GPIO_Init+0x19c>
 8000d5a:	f505 6580 	add.w	r5, r5, #1024	; 0x400
 8000d5e:	42a8      	cmp	r0, r5
 8000d60:	bf0c      	ite	eq
 8000d62:	2503      	moveq	r5, #3
 8000d64:	2504      	movne	r5, #4
 8000d66:	fa05 f50b 	lsl.w	r5, r5, fp
 8000d6a:	ea45 0509 	orr.w	r5, r5, r9
        AFIO->EXTICR[position >> 2U] = temp;
 8000d6e:	f8c8 5008 	str.w	r5, [r8, #8]


        /* Configure the interrupt mask */
        if ((GPIO_Init->Mode & GPIO_MODE_IT) == GPIO_MODE_IT)
        {
          SET_BIT(EXTI->IMR, iocurrent);
 8000d72:	681d      	ldr	r5, [r3, #0]
        if ((GPIO_Init->Mode & GPIO_MODE_IT) == GPIO_MODE_IT)
 8000d74:	f41a 3f80 	tst.w	sl, #65536	; 0x10000
          SET_BIT(EXTI->IMR, iocurrent);
 8000d78:	bf14      	ite	ne
 8000d7a:	4325      	orrne	r5, r4
        }
        else
        {
          CLEAR_BIT(EXTI->IMR, iocurrent);
 8000d7c:	43a5      	biceq	r5, r4
 8000d7e:	601d      	str	r5, [r3, #0]
        }

        /* Configure the event mask */
        if ((GPIO_Init->Mode & GPIO_MODE_EVT) == GPIO_MODE_EVT)
        {
          SET_BIT(EXTI->EMR, iocurrent);
 8000d80:	685d      	ldr	r5, [r3, #4]
        if ((GPIO_Init->Mode & GPIO_MODE_EVT) == GPIO_MODE_EVT)
 8000d82:	f41a 3f00 	tst.w	sl, #131072	; 0x20000
          SET_BIT(EXTI->EMR, iocurrent);
 8000d86:	bf14      	ite	ne
 8000d88:	4325      	orrne	r5, r4
        }
        else
        {
          CLEAR_BIT(EXTI->EMR, iocurrent);
 8000d8a:	43a5      	biceq	r5, r4
 8000d8c:	605d      	str	r5, [r3, #4]
        }

        /* Enable or disable the rising trigger */
        if ((GPIO_Init->Mode & RISING_EDGE) == RISING_EDGE)
        {
          SET_BIT(EXTI->RTSR, iocurrent);
 8000d8e:	689d      	ldr	r5, [r3, #8]
        if ((GPIO_Init->Mode & RISING_EDGE) == RISING_EDGE)
 8000d90:	f41a 1f80 	tst.w	sl, #1048576	; 0x100000
          SET_BIT(EXTI->RTSR, iocurrent);
 8000d94:	bf14      	ite	ne
 8000d96:	4325      	orrne	r5, r4
        }
        else
        {
          CLEAR_BIT(EXTI->RTSR, iocurrent);
 8000d98:	43a5      	biceq	r5, r4
 8000d9a:	609d      	str	r5, [r3, #8]
        }

        /* Enable or disable the falling trigger */
        if ((GPIO_Init->Mode & FALLING_EDGE) == FALLING_EDGE)
        {
          SET_BIT(EXTI->FTSR, iocurrent);
 8000d9c:	68dd      	ldr	r5, [r3, #12]
        if ((GPIO_Init->Mode & FALLING_EDGE) == FALLING_EDGE)
 8000d9e:	f41a 1f00 	tst.w	sl, #2097152	; 0x200000
          SET_BIT(EXTI->FTSR, iocurrent);
 8000da2:	bf14      	ite	ne
 8000da4:	432c      	orrne	r4, r5
        }
        else
        {
          CLEAR_BIT(EXTI->FTSR, iocurrent);
 8000da6:	ea25 0404 	biceq.w	r4, r5, r4
 8000daa:	60dc      	str	r4, [r3, #12]
  for (position = 0U; position < GPIO_NUMBER; position++)
 8000dac:	3601      	adds	r6, #1
 8000dae:	2e10      	cmp	r6, #16
 8000db0:	f47f af73 	bne.w	8000c9a <HAL_GPIO_Init+0x12>
        }
      }
    }
  }
}
 8000db4:	b003      	add	sp, #12
 8000db6:	e8bd 8ff0 	ldmia.w	sp!, {r4, r5, r6, r7, r8, r9, sl, fp, pc}
      switch (GPIO_Init->Mode)
 8000dba:	2d03      	cmp	r5, #3
 8000dbc:	d022      	beq.n	8000e04 <HAL_GPIO_Init+0x17c>
 8000dbe:	2d11      	cmp	r5, #17
 8000dc0:	d184      	bne.n	8000ccc <HAL_GPIO_Init+0x44>
          config = GPIO_Init->Speed + GPIO_CR_CNF_GP_OUTPUT_OD;
 8000dc2:	68ca      	ldr	r2, [r1, #12]
 8000dc4:	3204      	adds	r2, #4
          break;
 8000dc6:	e781      	b.n	8000ccc <HAL_GPIO_Init+0x44>
      switch (GPIO_Init->Mode)
 8000dc8:	4f1a      	ldr	r7, [pc, #104]	; (8000e34 <HAL_GPIO_Init+0x1ac>)
 8000dca:	42bd      	cmp	r5, r7
 8000dcc:	d009      	beq.n	8000de2 <HAL_GPIO_Init+0x15a>
 8000dce:	d812      	bhi.n	8000df6 <HAL_GPIO_Init+0x16e>
 8000dd0:	f8df 906c 	ldr.w	r9, [pc, #108]	; 8000e40 <HAL_GPIO_Init+0x1b8>
 8000dd4:	454d      	cmp	r5, r9
 8000dd6:	d004      	beq.n	8000de2 <HAL_GPIO_Init+0x15a>
 8000dd8:	f509 3980 	add.w	r9, r9, #65536	; 0x10000
 8000ddc:	454d      	cmp	r5, r9
 8000dde:	f47f af75 	bne.w	8000ccc <HAL_GPIO_Init+0x44>
          if (GPIO_Init->Pull == GPIO_NOPULL)
 8000de2:	688a      	ldr	r2, [r1, #8]
 8000de4:	b1c2      	cbz	r2, 8000e18 <HAL_GPIO_Init+0x190>
          else if (GPIO_Init->Pull == GPIO_PULLUP)
 8000de6:	2a01      	cmp	r2, #1
            GPIOx->BSRR = ioposition;
 8000de8:	bf0c      	ite	eq
 8000dea:	f8c0 8010 	streq.w	r8, [r0, #16]
            GPIOx->BRR = ioposition;
 8000dee:	f8c0 8014 	strne.w	r8, [r0, #20]
            config = GPIO_CR_MODE_INPUT + GPIO_CR_CNF_INPUT_PU_PD;
 8000df2:	2208      	movs	r2, #8
 8000df4:	e76a      	b.n	8000ccc <HAL_GPIO_Init+0x44>
      switch (GPIO_Init->Mode)
 8000df6:	4575      	cmp	r5, lr
 8000df8:	d0f3      	beq.n	8000de2 <HAL_GPIO_Init+0x15a>
 8000dfa:	4565      	cmp	r5, ip
 8000dfc:	d0f1      	beq.n	8000de2 <HAL_GPIO_Init+0x15a>
 8000dfe:	f8df 9044 	ldr.w	r9, [pc, #68]	; 8000e44 <HAL_GPIO_Init+0x1bc>
 8000e02:	e7eb      	b.n	8000ddc <HAL_GPIO_Init+0x154>
          config = GPIO_CR_MODE_INPUT + GPIO_CR_CNF_ANALOG;
 8000e04:	2200      	movs	r2, #0
 8000e06:	e761      	b.n	8000ccc <HAL_GPIO_Init+0x44>
          config = GPIO_Init->Speed + GPIO_CR_CNF_GP_OUTPUT_PP;
 8000e08:	68ca      	ldr	r2, [r1, #12]
          break;
 8000e0a:	e75f      	b.n	8000ccc <HAL_GPIO_Init+0x44>
          config = GPIO_Init->Speed + GPIO_CR_CNF_AF_OUTPUT_PP;
 8000e0c:	68ca      	ldr	r2, [r1, #12]
 8000e0e:	3208      	adds	r2, #8
          break;
 8000e10:	e75c      	b.n	8000ccc <HAL_GPIO_Init+0x44>
          config = GPIO_Init->Speed + GPIO_CR_CNF_AF_OUTPUT_OD;
 8000e12:	68ca      	ldr	r2, [r1, #12]
 8000e14:	320c      	adds	r2, #12
          break;
 8000e16:	e759      	b.n	8000ccc <HAL_GPIO_Init+0x44>
            config = GPIO_CR_MODE_INPUT + GPIO_CR_CNF_INPUT_FLOATING;
 8000e18:	2204      	movs	r2, #4
 8000e1a:	e757      	b.n	8000ccc <HAL_GPIO_Init+0x44>
        SET_BIT(temp, (GPIO_GET_INDEX(GPIOx)) << (4U * (position & 0x03U)));
 8000e1c:	2500      	movs	r5, #0
 8000e1e:	e7a2      	b.n	8000d66 <HAL_GPIO_Init+0xde>
 8000e20:	2501      	movs	r5, #1
 8000e22:	e7a0      	b.n	8000d66 <HAL_GPIO_Init+0xde>
 8000e24:	2502      	movs	r5, #2
 8000e26:	e79e      	b.n	8000d66 <HAL_GPIO_Init+0xde>
 8000e28:	40010400 	.word	0x40010400
 8000e2c:	40021000 	.word	0x40021000
 8000e30:	40010800 	.word	0x40010800
 8000e34:	10210000 	.word	0x10210000
 8000e38:	10310000 	.word	0x10310000
 8000e3c:	10320000 	.word	0x10320000
 8000e40:	10110000 	.word	0x10110000
 8000e44:	10220000 	.word	0x10220000

08000e48 <HAL_GPIO_DeInit>:
  * @param  GPIO_Pin: specifies the port bit to be written.
  *         This parameter can be one of GPIO_PIN_x where x can be (0..15).
  * @retval None
  */
void HAL_GPIO_DeInit(GPIO_TypeDef  *GPIOx, uint32_t GPIO_Pin)
{
 8000e48:	e92d 4ff0 	stmdb	sp!, {r4, r5, r6, r7, r8, r9, sl, fp, lr}
  uint32_t position = 0x00U;
 8000e4c:	2200      	movs	r2, #0

  /* Configure the port pins */
  while ((GPIO_Pin >> position) != 0U)
  {
    /* Get current io position */
    iocurrent = (GPIO_Pin) & (1U << position);
 8000e4e:	f04f 0901 	mov.w	r9, #1
       in order to address CRH or CRL register */
      configregister = (iocurrent < GPIO_PIN_8) ? &GPIOx->CRL     : &GPIOx->CRH;
      registeroffset = (iocurrent < GPIO_PIN_8) ? (position << 2U) : ((position - 8U) << 2U);

      /* CRL/CRH default value is floating input(0x04) shifted to correct position */
      MODIFY_REG(*configregister, ((GPIO_CRL_MODE0 | GPIO_CRL_CNF0) << registeroffset), GPIO_CRL_CNF0_0 << registeroffset);
 8000e52:	f04f 0c0f 	mov.w	ip, #15
 8000e56:	f04f 0a04 	mov.w	sl, #4
      {
        tmp = 0x0FU << (4U * (position & 0x03U));
        CLEAR_BIT(AFIO->EXTICR[position >> 2U], tmp);

        /* Clear EXTI line configuration */
        CLEAR_BIT(EXTI->IMR, (uint32_t)iocurrent);
 8000e5a:	4c30      	ldr	r4, [pc, #192]	; (8000f1c <HAL_GPIO_DeInit+0xd4>)
      if (tmp == (GPIO_GET_INDEX(GPIOx) << (4U * (position & 0x03U))))
 8000e5c:	f8df b0c4 	ldr.w	fp, [pc, #196]	; 8000f24 <HAL_GPIO_DeInit+0xdc>
  while ((GPIO_Pin >> position) != 0U)
 8000e60:	fa31 f302 	lsrs.w	r3, r1, r2
 8000e64:	d101      	bne.n	8000e6a <HAL_GPIO_DeInit+0x22>
      }
    }

    position++;
  }
}
 8000e66:	e8bd 8ff0 	ldmia.w	sp!, {r4, r5, r6, r7, r8, r9, sl, fp, pc}
    iocurrent = (GPIO_Pin) & (1U << position);
 8000e6a:	fa09 f302 	lsl.w	r3, r9, r2
    if (iocurrent)
 8000e6e:	400b      	ands	r3, r1
 8000e70:	d04c      	beq.n	8000f0c <HAL_GPIO_DeInit+0xc4>
      configregister = (iocurrent < GPIO_PIN_8) ? &GPIOx->CRL     : &GPIOx->CRH;
 8000e72:	2bff      	cmp	r3, #255	; 0xff
 8000e74:	bf98      	it	ls
 8000e76:	4607      	movls	r7, r0
      CLEAR_BIT(GPIOx->ODR, iocurrent);
 8000e78:	ea6f 0303 	mvn.w	r3, r3
 8000e7c:	bf85      	ittet	hi
 8000e7e:	f102 4580 	addhi.w	r5, r2, #1073741824	; 0x40000000
 8000e82:	3d08      	subhi	r5, #8
      configregister = (iocurrent < GPIO_PIN_8) ? &GPIOx->CRL     : &GPIOx->CRH;
 8000e84:	f8d0 e000 	ldrls.w	lr, [r0]
 8000e88:	f8d0 e004 	ldrhi.w	lr, [r0, #4]
 8000e8c:	bf94      	ite	ls
 8000e8e:	0095      	lslls	r5, r2, #2
 8000e90:	00ad      	lslhi	r5, r5, #2
      MODIFY_REG(*configregister, ((GPIO_CRL_MODE0 | GPIO_CRL_CNF0) << registeroffset), GPIO_CRL_CNF0_0 << registeroffset);
 8000e92:	fa0c f605 	lsl.w	r6, ip, r5
 8000e96:	ea2e 0606 	bic.w	r6, lr, r6
 8000e9a:	fa0a f505 	lsl.w	r5, sl, r5
      configregister = (iocurrent < GPIO_PIN_8) ? &GPIOx->CRL     : &GPIOx->CRH;
 8000e9e:	bf88      	it	hi
 8000ea0:	1d07      	addhi	r7, r0, #4
      MODIFY_REG(*configregister, ((GPIO_CRL_MODE0 | GPIO_CRL_CNF0) << registeroffset), GPIO_CRL_CNF0_0 << registeroffset);
 8000ea2:	432e      	orrs	r6, r5
 8000ea4:	603e      	str	r6, [r7, #0]
      CLEAR_BIT(GPIOx->ODR, iocurrent);
 8000ea6:	68c5      	ldr	r5, [r0, #12]
      tmp &= 0x0FU << (4U * (position & 0x03U));
 8000ea8:	f002 0703 	and.w	r7, r2, #3
      CLEAR_BIT(GPIOx->ODR, iocurrent);
 8000eac:	401d      	ands	r5, r3
 8000eae:	60c5      	str	r5, [r0, #12]
 8000eb0:	f022 0503 	bic.w	r5, r2, #3
 8000eb4:	f105 4580 	add.w	r5, r5, #1073741824	; 0x40000000
 8000eb8:	f505 3580 	add.w	r5, r5, #65536	; 0x10000
      tmp = AFIO->EXTICR[position >> 2U];
 8000ebc:	68ae      	ldr	r6, [r5, #8]
      tmp &= 0x0FU << (4U * (position & 0x03U));
 8000ebe:	00bf      	lsls	r7, r7, #2
 8000ec0:	fa0c f807 	lsl.w	r8, ip, r7
 8000ec4:	ea06 0e08 	and.w	lr, r6, r8
      if (tmp == (GPIO_GET_INDEX(GPIOx) << (4U * (position & 0x03U))))
 8000ec8:	4e15      	ldr	r6, [pc, #84]	; (8000f20 <HAL_GPIO_DeInit+0xd8>)
 8000eca:	42b0      	cmp	r0, r6
 8000ecc:	d020      	beq.n	8000f10 <HAL_GPIO_DeInit+0xc8>
 8000ece:	f506 6680 	add.w	r6, r6, #1024	; 0x400
 8000ed2:	42b0      	cmp	r0, r6
 8000ed4:	d01e      	beq.n	8000f14 <HAL_GPIO_DeInit+0xcc>
 8000ed6:	f506 6680 	add.w	r6, r6, #1024	; 0x400
 8000eda:	42b0      	cmp	r0, r6
 8000edc:	d01c      	beq.n	8000f18 <HAL_GPIO_DeInit+0xd0>
 8000ede:	4558      	cmp	r0, fp
 8000ee0:	bf0c      	ite	eq
 8000ee2:	2603      	moveq	r6, #3
 8000ee4:	2604      	movne	r6, #4
 8000ee6:	40be      	lsls	r6, r7
 8000ee8:	45b6      	cmp	lr, r6
 8000eea:	d10f      	bne.n	8000f0c <HAL_GPIO_DeInit+0xc4>
        CLEAR_BIT(AFIO->EXTICR[position >> 2U], tmp);
 8000eec:	68ae      	ldr	r6, [r5, #8]
 8000eee:	ea26 0608 	bic.w	r6, r6, r8
 8000ef2:	60ae      	str	r6, [r5, #8]
        CLEAR_BIT(EXTI->IMR, (uint32_t)iocurrent);
 8000ef4:	6825      	ldr	r5, [r4, #0]
 8000ef6:	401d      	ands	r5, r3
 8000ef8:	6025      	str	r5, [r4, #0]
        CLEAR_BIT(EXTI->EMR, (uint32_t)iocurrent);
 8000efa:	6865      	ldr	r5, [r4, #4]
 8000efc:	401d      	ands	r5, r3
 8000efe:	6065      	str	r5, [r4, #4]
        CLEAR_BIT(EXTI->RTSR, (uint32_t)iocurrent);
 8000f00:	68a5      	ldr	r5, [r4, #8]
 8000f02:	401d      	ands	r5, r3
 8000f04:	60a5      	str	r5, [r4, #8]
        CLEAR_BIT(EXTI->FTSR, (uint32_t)iocurrent);
 8000f06:	68e5      	ldr	r5, [r4, #12]
 8000f08:	402b      	ands	r3, r5
 8000f0a:	60e3      	str	r3, [r4, #12]
    position++;
 8000f0c:	3201      	adds	r2, #1
 8000f0e:	e7a7      	b.n	8000e60 <HAL_GPIO_DeInit+0x18>
      if (tmp == (GPIO_GET_INDEX(GPIOx) << (4U * (position & 0x03U))))
 8000f10:	2600      	movs	r6, #0
 8000f12:	e7e8      	b.n	8000ee6 <HAL_GPIO_DeInit+0x9e>
 8000f14:	2601      	movs	r6, #1
 8000f16:	e7e6      	b.n	8000ee6 <HAL_GPIO_DeInit+0x9e>
 8000f18:	2602      	movs	r6, #2
 8000f1a:	e7e4      	b.n	8000ee6 <HAL_GPIO_DeInit+0x9e>
 8000f1c:	40010400 	.word	0x40010400
 8000f20:	40010800 	.word	0x40010800
 8000f24:	40011400 	.word	0x40011400

08000f28 <HAL_GPIO_ReadPin>:
  GPIO_PinState bitstatus;

  /* Check the parameters */
  assert_param(IS_GPIO_PIN(GPIO_Pin));

  if ((GPIOx->IDR & GPIO_Pin) != (uint32_t)GPIO_PIN_RESET)
 8000f28:	6883      	ldr	r3, [r0, #8]
 8000f2a:	4219      	tst	r1, r3
  else
  {
    bitstatus = GPIO_PIN_RESET;
  }
  return bitstatus;
}
 8000f2c:	bf14      	ite	ne
 8000f2e:	2001      	movne	r0, #1
 8000f30:	2000      	moveq	r0, #0
 8000f32:	4770      	bx	lr

08000f34 <HAL_GPIO_WritePin>:
{
  /* Check the parameters */
  assert_param(IS_GPIO_PIN(GPIO_Pin));
  assert_param(IS_GPIO_PIN_ACTION(PinState));

  if (PinState != GPIO_PIN_RESET)
 8000f34:	b10a      	cbz	r2, 8000f3a <HAL_GPIO_WritePin+0x6>
  {
    GPIOx->BSRR = GPIO_Pin;
  }
  else
  {
    GPIOx->BSRR = (uint32_t)GPIO_Pin << 16U;
 8000f36:	6101      	str	r1, [r0, #16]
 8000f38:	4770      	bx	lr
 8000f3a:	0409      	lsls	r1, r1, #16
 8000f3c:	e7fb      	b.n	8000f36 <HAL_GPIO_WritePin+0x2>

08000f3e <HAL_GPIO_TogglePin>:
void HAL_GPIO_TogglePin(GPIO_TypeDef *GPIOx, uint16_t GPIO_Pin)
{
  /* Check the parameters */
  assert_param(IS_GPIO_PIN(GPIO_Pin));

  GPIOx->ODR ^= GPIO_Pin;
 8000f3e:	68c3      	ldr	r3, [r0, #12]
 8000f40:	4059      	eors	r1, r3
 8000f42:	60c1      	str	r1, [r0, #12]
 8000f44:	4770      	bx	lr
	...

08000f48 <HAL_PWR_EnableBkUpAccess>:
  * @retval None
  */
void HAL_PWR_EnableBkUpAccess(void)
{
  /* Enable access to RTC and backup registers */
  *(__IO uint32_t *) CR_DBP_BB = (uint32_t)ENABLE;
 8000f48:	2201      	movs	r2, #1
 8000f4a:	4b01      	ldr	r3, [pc, #4]	; (8000f50 <HAL_PWR_EnableBkUpAccess+0x8>)
 8000f4c:	601a      	str	r2, [r3, #0]
 8000f4e:	4770      	bx	lr
 8000f50:	420e0020 	.word	0x420e0020

08000f54 <HAL_RCC_OscConfig>:
  /* Check the parameters */
  assert_param(RCC_OscInitStruct != NULL);
  assert_param(IS_RCC_OSCILLATORTYPE(RCC_OscInitStruct->OscillatorType));
  
  /*------------------------------- HSE Configuration ------------------------*/
  if(((RCC_OscInitStruct->OscillatorType) & RCC_OSCILLATORTYPE_HSE) == RCC_OSCILLATORTYPE_HSE)
 8000f54:	6803      	ldr	r3, [r0, #0]
{
 8000f56:	e92d 41f3 	stmdb	sp!, {r0, r1, r4, r5, r6, r7, r8, lr}
  if(((RCC_OscInitStruct->OscillatorType) & RCC_OSCILLATORTYPE_HSE) == RCC_OSCILLATORTYPE_HSE)
 8000f5a:	07db      	lsls	r3, r3, #31
{
 8000f5c:	4605      	mov	r5, r0
  if(((RCC_OscInitStruct->OscillatorType) & RCC_OSCILLATORTYPE_HSE) == RCC_OSCILLATORTYPE_HSE)
 8000f5e:	d410      	bmi.n	8000f82 <HAL_RCC_OscConfig+0x2e>
        }
      }
    }
  }
  /*----------------------------- HSI Configuration --------------------------*/ 
  if(((RCC_OscInitStruct->OscillatorType) & RCC_OSCILLATORTYPE_HSI) == RCC_OSCILLATORTYPE_HSI)
 8000f60:	682b      	ldr	r3, [r5, #0]
 8000f62:	079f      	lsls	r7, r3, #30
 8000f64:	d45e      	bmi.n	8001024 <HAL_RCC_OscConfig+0xd0>
        }
      }
    }
  }
  /*------------------------------ LSI Configuration -------------------------*/ 
  if(((RCC_OscInitStruct->OscillatorType) & RCC_OSCILLATORTYPE_LSI) == RCC_OSCILLATORTYPE_LSI)
 8000f66:	682b      	ldr	r3, [r5, #0]
 8000f68:	0719      	lsls	r1, r3, #28
 8000f6a:	f100 8095 	bmi.w	8001098 <HAL_RCC_OscConfig+0x144>
        }
      }
    }
  }
  /*------------------------------ LSE Configuration -------------------------*/ 
  if(((RCC_OscInitStruct->OscillatorType) & RCC_OSCILLATORTYPE_LSE) == RCC_OSCILLATORTYPE_LSE)
 8000f6e:	682b      	ldr	r3, [r5, #0]
 8000f70:	075a      	lsls	r2, r3, #29
 8000f72:	f100 80bf 	bmi.w	80010f4 <HAL_RCC_OscConfig+0x1a0>

#endif /* RCC_CR_PLL2ON */
  /*-------------------------------- PLL Configuration -----------------------*/
  /* Check the parameters */
  assert_param(IS_RCC_PLL(RCC_OscInitStruct->PLL.PLLState));
  if ((RCC_OscInitStruct->PLL.PLLState) != RCC_PLL_NONE)
 8000f76:	69ea      	ldr	r2, [r5, #28]
 8000f78:	2a00      	cmp	r2, #0
 8000f7a:	f040 812d 	bne.w	80011d8 <HAL_RCC_OscConfig+0x284>
    {
      return HAL_ERROR;
    }
  }
  
  return HAL_OK;
 8000f7e:	2000      	movs	r0, #0
 8000f80:	e014      	b.n	8000fac <HAL_RCC_OscConfig+0x58>
    if((__HAL_RCC_GET_SYSCLK_SOURCE() == RCC_SYSCLKSOURCE_STATUS_HSE) 
 8000f82:	4c90      	ldr	r4, [pc, #576]	; (80011c4 <HAL_RCC_OscConfig+0x270>)
 8000f84:	6863      	ldr	r3, [r4, #4]
 8000f86:	f003 030c 	and.w	r3, r3, #12
 8000f8a:	2b04      	cmp	r3, #4
 8000f8c:	d007      	beq.n	8000f9e <HAL_RCC_OscConfig+0x4a>
       || ((__HAL_RCC_GET_SYSCLK_SOURCE() == RCC_SYSCLKSOURCE_STATUS_PLLCLK) && (__HAL_RCC_GET_PLL_OSCSOURCE() == RCC_PLLSOURCE_HSE)))
 8000f8e:	6863      	ldr	r3, [r4, #4]
 8000f90:	f003 030c 	and.w	r3, r3, #12
 8000f94:	2b08      	cmp	r3, #8
 8000f96:	d10c      	bne.n	8000fb2 <HAL_RCC_OscConfig+0x5e>
 8000f98:	6863      	ldr	r3, [r4, #4]
 8000f9a:	03de      	lsls	r6, r3, #15
 8000f9c:	d509      	bpl.n	8000fb2 <HAL_RCC_OscConfig+0x5e>
      if((__HAL_RCC_GET_FLAG(RCC_FLAG_HSERDY) != RESET) && (RCC_OscInitStruct->HSEState == RCC_HSE_OFF))
 8000f9e:	6823      	ldr	r3, [r4, #0]
 8000fa0:	039c      	lsls	r4, r3, #14
 8000fa2:	d5dd      	bpl.n	8000f60 <HAL_RCC_OscConfig+0xc>
 8000fa4:	686b      	ldr	r3, [r5, #4]
 8000fa6:	2b00      	cmp	r3, #0
 8000fa8:	d1da      	bne.n	8000f60 <HAL_RCC_OscConfig+0xc>
        return HAL_ERROR;
 8000faa:	2001      	movs	r0, #1
}
 8000fac:	b002      	add	sp, #8
 8000fae:	e8bd 81f0 	ldmia.w	sp!, {r4, r5, r6, r7, r8, pc}
      __HAL_RCC_HSE_CONFIG(RCC_OscInitStruct->HSEState);
 8000fb2:	686b      	ldr	r3, [r5, #4]
 8000fb4:	f5b3 3f80 	cmp.w	r3, #65536	; 0x10000
 8000fb8:	d110      	bne.n	8000fdc <HAL_RCC_OscConfig+0x88>
 8000fba:	6823      	ldr	r3, [r4, #0]
 8000fbc:	f443 3380 	orr.w	r3, r3, #65536	; 0x10000
 8000fc0:	6023      	str	r3, [r4, #0]
        tickstart = HAL_GetTick();
 8000fc2:	f7ff f90d 	bl	80001e0 <HAL_GetTick>
 8000fc6:	4606      	mov	r6, r0
        while(__HAL_RCC_GET_FLAG(RCC_FLAG_HSERDY) == RESET)
 8000fc8:	6823      	ldr	r3, [r4, #0]
 8000fca:	0398      	lsls	r0, r3, #14
 8000fcc:	d4c8      	bmi.n	8000f60 <HAL_RCC_OscConfig+0xc>
          if((HAL_GetTick() - tickstart ) > HSE_TIMEOUT_VALUE)
 8000fce:	f7ff f907 	bl	80001e0 <HAL_GetTick>
 8000fd2:	1b80      	subs	r0, r0, r6
 8000fd4:	2864      	cmp	r0, #100	; 0x64
 8000fd6:	d9f7      	bls.n	8000fc8 <HAL_RCC_OscConfig+0x74>
            return HAL_TIMEOUT;
 8000fd8:	2003      	movs	r0, #3
 8000fda:	e7e7      	b.n	8000fac <HAL_RCC_OscConfig+0x58>
      __HAL_RCC_HSE_CONFIG(RCC_OscInitStruct->HSEState);
 8000fdc:	b99b      	cbnz	r3, 8001006 <HAL_RCC_OscConfig+0xb2>
 8000fde:	6823      	ldr	r3, [r4, #0]
 8000fe0:	f423 3380 	bic.w	r3, r3, #65536	; 0x10000
 8000fe4:	6023      	str	r3, [r4, #0]
 8000fe6:	6823      	ldr	r3, [r4, #0]
 8000fe8:	f423 2380 	bic.w	r3, r3, #262144	; 0x40000
 8000fec:	6023      	str	r3, [r4, #0]
        tickstart = HAL_GetTick();
 8000fee:	f7ff f8f7 	bl	80001e0 <HAL_GetTick>
 8000ff2:	4606      	mov	r6, r0
        while(__HAL_RCC_GET_FLAG(RCC_FLAG_HSERDY) != RESET)
 8000ff4:	6823      	ldr	r3, [r4, #0]
 8000ff6:	0399      	lsls	r1, r3, #14
 8000ff8:	d5b2      	bpl.n	8000f60 <HAL_RCC_OscConfig+0xc>
           if((HAL_GetTick() - tickstart ) > HSE_TIMEOUT_VALUE)
 8000ffa:	f7ff f8f1 	bl	80001e0 <HAL_GetTick>
 8000ffe:	1b80      	subs	r0, r0, r6
 8001000:	2864      	cmp	r0, #100	; 0x64
 8001002:	d9f7      	bls.n	8000ff4 <HAL_RCC_OscConfig+0xa0>
 8001004:	e7e8      	b.n	8000fd8 <HAL_RCC_OscConfig+0x84>
      __HAL_RCC_HSE_CONFIG(RCC_OscInitStruct->HSEState);
 8001006:	f5b3 2fa0 	cmp.w	r3, #327680	; 0x50000
 800100a:	6823      	ldr	r3, [r4, #0]
 800100c:	d103      	bne.n	8001016 <HAL_RCC_OscConfig+0xc2>
 800100e:	f443 2380 	orr.w	r3, r3, #262144	; 0x40000
 8001012:	6023      	str	r3, [r4, #0]
 8001014:	e7d1      	b.n	8000fba <HAL_RCC_OscConfig+0x66>
 8001016:	f423 3380 	bic.w	r3, r3, #65536	; 0x10000
 800101a:	6023      	str	r3, [r4, #0]
 800101c:	6823      	ldr	r3, [r4, #0]
 800101e:	f423 2380 	bic.w	r3, r3, #262144	; 0x40000
 8001022:	e7cd      	b.n	8000fc0 <HAL_RCC_OscConfig+0x6c>
    if((__HAL_RCC_GET_SYSCLK_SOURCE() == RCC_SYSCLKSOURCE_STATUS_HSI) 
 8001024:	4c67      	ldr	r4, [pc, #412]	; (80011c4 <HAL_RCC_OscConfig+0x270>)
 8001026:	6863      	ldr	r3, [r4, #4]
 8001028:	f013 0f0c 	tst.w	r3, #12
 800102c:	d007      	beq.n	800103e <HAL_RCC_OscConfig+0xea>
       || ((__HAL_RCC_GET_SYSCLK_SOURCE() == RCC_SYSCLKSOURCE_STATUS_PLLCLK) && (__HAL_RCC_GET_PLL_OSCSOURCE() == RCC_PLLSOURCE_HSI_DIV2)))
 800102e:	6863      	ldr	r3, [r4, #4]
 8001030:	f003 030c 	and.w	r3, r3, #12
 8001034:	2b08      	cmp	r3, #8
 8001036:	d110      	bne.n	800105a <HAL_RCC_OscConfig+0x106>
 8001038:	6863      	ldr	r3, [r4, #4]
 800103a:	03da      	lsls	r2, r3, #15
 800103c:	d40d      	bmi.n	800105a <HAL_RCC_OscConfig+0x106>
      if((__HAL_RCC_GET_FLAG(RCC_FLAG_HSIRDY) != RESET) && (RCC_OscInitStruct->HSIState != RCC_HSI_ON))
 800103e:	6823      	ldr	r3, [r4, #0]
 8001040:	079b      	lsls	r3, r3, #30
 8001042:	d502      	bpl.n	800104a <HAL_RCC_OscConfig+0xf6>
 8001044:	692b      	ldr	r3, [r5, #16]
 8001046:	2b01      	cmp	r3, #1
 8001048:	d1af      	bne.n	8000faa <HAL_RCC_OscConfig+0x56>
        __HAL_RCC_HSI_CALIBRATIONVALUE_ADJUST(RCC_OscInitStruct->HSICalibrationValue);
 800104a:	6823      	ldr	r3, [r4, #0]
 800104c:	696a      	ldr	r2, [r5, #20]
 800104e:	f023 03f8 	bic.w	r3, r3, #248	; 0xf8
 8001052:	ea43 03c2 	orr.w	r3, r3, r2, lsl #3
 8001056:	6023      	str	r3, [r4, #0]
 8001058:	e785      	b.n	8000f66 <HAL_RCC_OscConfig+0x12>
      if(RCC_OscInitStruct->HSIState != RCC_HSI_OFF)
 800105a:	692a      	ldr	r2, [r5, #16]
 800105c:	4b5a      	ldr	r3, [pc, #360]	; (80011c8 <HAL_RCC_OscConfig+0x274>)
 800105e:	b16a      	cbz	r2, 800107c <HAL_RCC_OscConfig+0x128>
        __HAL_RCC_HSI_ENABLE();
 8001060:	2201      	movs	r2, #1
 8001062:	601a      	str	r2, [r3, #0]
        tickstart = HAL_GetTick();
 8001064:	f7ff f8bc 	bl	80001e0 <HAL_GetTick>
 8001068:	4606      	mov	r6, r0
        while(__HAL_RCC_GET_FLAG(RCC_FLAG_HSIRDY) == RESET)
 800106a:	6823      	ldr	r3, [r4, #0]
 800106c:	079f      	lsls	r7, r3, #30
 800106e:	d4ec      	bmi.n	800104a <HAL_RCC_OscConfig+0xf6>
          if((HAL_GetTick() - tickstart ) > HSI_TIMEOUT_VALUE)
 8001070:	f7ff f8b6 	bl	80001e0 <HAL_GetTick>
 8001074:	1b80      	subs	r0, r0, r6
 8001076:	2802      	cmp	r0, #2
 8001078:	d9f7      	bls.n	800106a <HAL_RCC_OscConfig+0x116>
 800107a:	e7ad      	b.n	8000fd8 <HAL_RCC_OscConfig+0x84>
        __HAL_RCC_HSI_DISABLE();
 800107c:	601a      	str	r2, [r3, #0]
        tickstart = HAL_GetTick();
 800107e:	f7ff f8af 	bl	80001e0 <HAL_GetTick>
 8001082:	4606      	mov	r6, r0
        while(__HAL_RCC_GET_FLAG(RCC_FLAG_HSIRDY) != RESET)
 8001084:	6823      	ldr	r3, [r4, #0]
 8001086:	0798      	lsls	r0, r3, #30
 8001088:	f57f af6d 	bpl.w	8000f66 <HAL_RCC_OscConfig+0x12>
          if((HAL_GetTick() - tickstart ) > HSI_TIMEOUT_VALUE)
 800108c:	f7ff f8a8 	bl	80001e0 <HAL_GetTick>
 8001090:	1b80      	subs	r0, r0, r6
 8001092:	2802      	cmp	r0, #2
 8001094:	d9f6      	bls.n	8001084 <HAL_RCC_OscConfig+0x130>
 8001096:	e79f      	b.n	8000fd8 <HAL_RCC_OscConfig+0x84>
    if(RCC_OscInitStruct->LSIState != RCC_LSI_OFF)
 8001098:	69aa      	ldr	r2, [r5, #24]
 800109a:	4c4a      	ldr	r4, [pc, #296]	; (80011c4 <HAL_RCC_OscConfig+0x270>)
 800109c:	4b4b      	ldr	r3, [pc, #300]	; (80011cc <HAL_RCC_OscConfig+0x278>)
 800109e:	b1da      	cbz	r2, 80010d8 <HAL_RCC_OscConfig+0x184>
      __HAL_RCC_LSI_ENABLE();
 80010a0:	2201      	movs	r2, #1
 80010a2:	601a      	str	r2, [r3, #0]
      tickstart = HAL_GetTick();
 80010a4:	f7ff f89c 	bl	80001e0 <HAL_GetTick>
 80010a8:	4606      	mov	r6, r0
      while(__HAL_RCC_GET_FLAG(RCC_FLAG_LSIRDY) == RESET)
 80010aa:	6a63      	ldr	r3, [r4, #36]	; 0x24
 80010ac:	079b      	lsls	r3, r3, #30
 80010ae:	d50d      	bpl.n	80010cc <HAL_RCC_OscConfig+0x178>
  * @param  mdelay: specifies the delay time length, in milliseconds.
  * @retval None
  */
static void RCC_Delay(uint32_t mdelay)
{
  __IO uint32_t Delay = mdelay * (SystemCoreClock / 8U / 1000U);
 80010b0:	f44f 52fa 	mov.w	r2, #8000	; 0x1f40
 80010b4:	4b46      	ldr	r3, [pc, #280]	; (80011d0 <HAL_RCC_OscConfig+0x27c>)
 80010b6:	681b      	ldr	r3, [r3, #0]
 80010b8:	fbb3 f3f2 	udiv	r3, r3, r2
 80010bc:	9301      	str	r3, [sp, #4]
  \brief   No Operation
  \details No Operation does nothing. This instruction can be used for code alignment purposes.
 */
__attribute__((always_inline)) __STATIC_INLINE void __NOP(void)
{
  __ASM volatile ("nop");
 80010be:	bf00      	nop
  do 
  {
    __NOP();
  } 
  while (Delay --);
 80010c0:	9b01      	ldr	r3, [sp, #4]
 80010c2:	1e5a      	subs	r2, r3, #1
 80010c4:	9201      	str	r2, [sp, #4]
 80010c6:	2b00      	cmp	r3, #0
 80010c8:	d1f9      	bne.n	80010be <HAL_RCC_OscConfig+0x16a>
 80010ca:	e750      	b.n	8000f6e <HAL_RCC_OscConfig+0x1a>
        if((HAL_GetTick() - tickstart ) > LSI_TIMEOUT_VALUE)
 80010cc:	f7ff f888 	bl	80001e0 <HAL_GetTick>
 80010d0:	1b80      	subs	r0, r0, r6
 80010d2:	2802      	cmp	r0, #2
 80010d4:	d9e9      	bls.n	80010aa <HAL_RCC_OscConfig+0x156>
 80010d6:	e77f      	b.n	8000fd8 <HAL_RCC_OscConfig+0x84>
      __HAL_RCC_LSI_DISABLE();
 80010d8:	601a      	str	r2, [r3, #0]
      tickstart = HAL_GetTick();
 80010da:	f7ff f881 	bl	80001e0 <HAL_GetTick>
 80010de:	4606      	mov	r6, r0
      while(__HAL_RCC_GET_FLAG(RCC_FLAG_LSIRDY) != RESET)
 80010e0:	6a63      	ldr	r3, [r4, #36]	; 0x24
 80010e2:	079f      	lsls	r7, r3, #30
 80010e4:	f57f af43 	bpl.w	8000f6e <HAL_RCC_OscConfig+0x1a>
        if((HAL_GetTick() - tickstart ) > LSI_TIMEOUT_VALUE)
 80010e8:	f7ff f87a 	bl	80001e0 <HAL_GetTick>
 80010ec:	1b80      	subs	r0, r0, r6
 80010ee:	2802      	cmp	r0, #2
 80010f0:	d9f6      	bls.n	80010e0 <HAL_RCC_OscConfig+0x18c>
 80010f2:	e771      	b.n	8000fd8 <HAL_RCC_OscConfig+0x84>
    if(__HAL_RCC_PWR_IS_CLK_DISABLED())
 80010f4:	4c33      	ldr	r4, [pc, #204]	; (80011c4 <HAL_RCC_OscConfig+0x270>)
 80010f6:	69e3      	ldr	r3, [r4, #28]
 80010f8:	00d8      	lsls	r0, r3, #3
 80010fa:	d424      	bmi.n	8001146 <HAL_RCC_OscConfig+0x1f2>
      pwrclkchanged = SET;
 80010fc:	2701      	movs	r7, #1
      __HAL_RCC_PWR_CLK_ENABLE();
 80010fe:	69e3      	ldr	r3, [r4, #28]
 8001100:	f043 5380 	orr.w	r3, r3, #268435456	; 0x10000000
 8001104:	61e3      	str	r3, [r4, #28]
 8001106:	69e3      	ldr	r3, [r4, #28]
 8001108:	f003 5380 	and.w	r3, r3, #268435456	; 0x10000000
 800110c:	9300      	str	r3, [sp, #0]
 800110e:	9b00      	ldr	r3, [sp, #0]
    if(HAL_IS_BIT_CLR(PWR->CR, PWR_CR_DBP))
 8001110:	4e30      	ldr	r6, [pc, #192]	; (80011d4 <HAL_RCC_OscConfig+0x280>)
 8001112:	6833      	ldr	r3, [r6, #0]
 8001114:	05d9      	lsls	r1, r3, #23
 8001116:	d518      	bpl.n	800114a <HAL_RCC_OscConfig+0x1f6>
    __HAL_RCC_LSE_CONFIG(RCC_OscInitStruct->LSEState);
 8001118:	68eb      	ldr	r3, [r5, #12]
 800111a:	2b01      	cmp	r3, #1
 800111c:	d126      	bne.n	800116c <HAL_RCC_OscConfig+0x218>
 800111e:	6a23      	ldr	r3, [r4, #32]
 8001120:	f043 0301 	orr.w	r3, r3, #1
 8001124:	6223      	str	r3, [r4, #32]
      tickstart = HAL_GetTick();
 8001126:	f7ff f85b 	bl	80001e0 <HAL_GetTick>
        if((HAL_GetTick() - tickstart ) > RCC_LSE_TIMEOUT_VALUE)
 800112a:	f241 3688 	movw	r6, #5000	; 0x1388
      tickstart = HAL_GetTick();
 800112e:	4680      	mov	r8, r0
      while(__HAL_RCC_GET_FLAG(RCC_FLAG_LSERDY) == RESET)
 8001130:	6a23      	ldr	r3, [r4, #32]
 8001132:	079b      	lsls	r3, r3, #30
 8001134:	d53f      	bpl.n	80011b6 <HAL_RCC_OscConfig+0x262>
    if(pwrclkchanged == SET)
 8001136:	2f00      	cmp	r7, #0
 8001138:	f43f af1d 	beq.w	8000f76 <HAL_RCC_OscConfig+0x22>
      __HAL_RCC_PWR_CLK_DISABLE();
 800113c:	69e3      	ldr	r3, [r4, #28]
 800113e:	f023 5380 	bic.w	r3, r3, #268435456	; 0x10000000
 8001142:	61e3      	str	r3, [r4, #28]
 8001144:	e717      	b.n	8000f76 <HAL_RCC_OscConfig+0x22>
    FlagStatus       pwrclkchanged = RESET;
 8001146:	2700      	movs	r7, #0
 8001148:	e7e2      	b.n	8001110 <HAL_RCC_OscConfig+0x1bc>
      SET_BIT(PWR->CR, PWR_CR_DBP);
 800114a:	6833      	ldr	r3, [r6, #0]
 800114c:	f443 7380 	orr.w	r3, r3, #256	; 0x100
 8001150:	6033      	str	r3, [r6, #0]
      tickstart = HAL_GetTick();
 8001152:	f7ff f845 	bl	80001e0 <HAL_GetTick>
 8001156:	4680      	mov	r8, r0
      while(HAL_IS_BIT_CLR(PWR->CR, PWR_CR_DBP))
 8001158:	6833      	ldr	r3, [r6, #0]
 800115a:	05da      	lsls	r2, r3, #23
 800115c:	d4dc      	bmi.n	8001118 <HAL_RCC_OscConfig+0x1c4>
        if((HAL_GetTick() - tickstart) > RCC_DBP_TIMEOUT_VALUE)
 800115e:	f7ff f83f 	bl	80001e0 <HAL_GetTick>
 8001162:	eba0 0008 	sub.w	r0, r0, r8
 8001166:	2864      	cmp	r0, #100	; 0x64
 8001168:	d9f6      	bls.n	8001158 <HAL_RCC_OscConfig+0x204>
 800116a:	e735      	b.n	8000fd8 <HAL_RCC_OscConfig+0x84>
    __HAL_RCC_LSE_CONFIG(RCC_OscInitStruct->LSEState);
 800116c:	b9ab      	cbnz	r3, 800119a <HAL_RCC_OscConfig+0x246>
 800116e:	6a23      	ldr	r3, [r4, #32]
        if((HAL_GetTick() - tickstart ) > RCC_LSE_TIMEOUT_VALUE)
 8001170:	f241 3888 	movw	r8, #5000	; 0x1388
    __HAL_RCC_LSE_CONFIG(RCC_OscInitStruct->LSEState);
 8001174:	f023 0301 	bic.w	r3, r3, #1
 8001178:	6223      	str	r3, [r4, #32]
 800117a:	6a23      	ldr	r3, [r4, #32]
 800117c:	f023 0304 	bic.w	r3, r3, #4
 8001180:	6223      	str	r3, [r4, #32]
      tickstart = HAL_GetTick();
 8001182:	f7ff f82d 	bl	80001e0 <HAL_GetTick>
 8001186:	4606      	mov	r6, r0
      while(__HAL_RCC_GET_FLAG(RCC_FLAG_LSERDY) != RESET)
 8001188:	6a23      	ldr	r3, [r4, #32]
 800118a:	0798      	lsls	r0, r3, #30
 800118c:	d5d3      	bpl.n	8001136 <HAL_RCC_OscConfig+0x1e2>
        if((HAL_GetTick() - tickstart ) > RCC_LSE_TIMEOUT_VALUE)
 800118e:	f7ff f827 	bl	80001e0 <HAL_GetTick>
 8001192:	1b80      	subs	r0, r0, r6
 8001194:	4540      	cmp	r0, r8
 8001196:	d9f7      	bls.n	8001188 <HAL_RCC_OscConfig+0x234>
 8001198:	e71e      	b.n	8000fd8 <HAL_RCC_OscConfig+0x84>
    __HAL_RCC_LSE_CONFIG(RCC_OscInitStruct->LSEState);
 800119a:	2b05      	cmp	r3, #5
 800119c:	6a23      	ldr	r3, [r4, #32]
 800119e:	d103      	bne.n	80011a8 <HAL_RCC_OscConfig+0x254>
 80011a0:	f043 0304 	orr.w	r3, r3, #4
 80011a4:	6223      	str	r3, [r4, #32]
 80011a6:	e7ba      	b.n	800111e <HAL_RCC_OscConfig+0x1ca>
 80011a8:	f023 0301 	bic.w	r3, r3, #1
 80011ac:	6223      	str	r3, [r4, #32]
 80011ae:	6a23      	ldr	r3, [r4, #32]
 80011b0:	f023 0304 	bic.w	r3, r3, #4
 80011b4:	e7b6      	b.n	8001124 <HAL_RCC_OscConfig+0x1d0>
        if((HAL_GetTick() - tickstart ) > RCC_LSE_TIMEOUT_VALUE)
 80011b6:	f7ff f813 	bl	80001e0 <HAL_GetTick>
 80011ba:	eba0 0008 	sub.w	r0, r0, r8
 80011be:	42b0      	cmp	r0, r6
 80011c0:	d9b6      	bls.n	8001130 <HAL_RCC_OscConfig+0x1dc>
 80011c2:	e709      	b.n	8000fd8 <HAL_RCC_OscConfig+0x84>
 80011c4:	40021000 	.word	0x40021000
 80011c8:	42420000 	.word	0x42420000
 80011cc:	42420480 	.word	0x42420480
 80011d0:	20000008 	.word	0x20000008
 80011d4:	40007000 	.word	0x40007000
    if(__HAL_RCC_GET_SYSCLK_SOURCE() != RCC_SYSCLKSOURCE_STATUS_PLLCLK)
 80011d8:	4c22      	ldr	r4, [pc, #136]	; (8001264 <HAL_RCC_OscConfig+0x310>)
 80011da:	6863      	ldr	r3, [r4, #4]
 80011dc:	f003 030c 	and.w	r3, r3, #12
 80011e0:	2b08      	cmp	r3, #8
 80011e2:	f43f aee2 	beq.w	8000faa <HAL_RCC_OscConfig+0x56>
 80011e6:	2300      	movs	r3, #0
 80011e8:	4e1f      	ldr	r6, [pc, #124]	; (8001268 <HAL_RCC_OscConfig+0x314>)
      if((RCC_OscInitStruct->PLL.PLLState) == RCC_PLL_ON)
 80011ea:	2a02      	cmp	r2, #2
        __HAL_RCC_PLL_DISABLE();
 80011ec:	6033      	str	r3, [r6, #0]
      if((RCC_OscInitStruct->PLL.PLLState) == RCC_PLL_ON)
 80011ee:	d12b      	bne.n	8001248 <HAL_RCC_OscConfig+0x2f4>
        tickstart = HAL_GetTick();
 80011f0:	f7fe fff6 	bl	80001e0 <HAL_GetTick>
 80011f4:	4607      	mov	r7, r0
        while(__HAL_RCC_GET_FLAG(RCC_FLAG_PLLRDY)  != RESET)
 80011f6:	6823      	ldr	r3, [r4, #0]
 80011f8:	0199      	lsls	r1, r3, #6
 80011fa:	d41f      	bmi.n	800123c <HAL_RCC_OscConfig+0x2e8>
        if(RCC_OscInitStruct->PLL.PLLSource == RCC_PLLSOURCE_HSE)
 80011fc:	6a2b      	ldr	r3, [r5, #32]
 80011fe:	f5b3 3f80 	cmp.w	r3, #65536	; 0x10000
 8001202:	d105      	bne.n	8001210 <HAL_RCC_OscConfig+0x2bc>
          __HAL_RCC_HSE_PREDIV_CONFIG(RCC_OscInitStruct->HSEPredivValue);
 8001204:	6862      	ldr	r2, [r4, #4]
 8001206:	68a9      	ldr	r1, [r5, #8]
 8001208:	f422 3200 	bic.w	r2, r2, #131072	; 0x20000
 800120c:	430a      	orrs	r2, r1
 800120e:	6062      	str	r2, [r4, #4]
        __HAL_RCC_PLL_CONFIG(RCC_OscInitStruct->PLL.PLLSource,
 8001210:	6a69      	ldr	r1, [r5, #36]	; 0x24
 8001212:	6862      	ldr	r2, [r4, #4]
 8001214:	430b      	orrs	r3, r1
 8001216:	f422 1274 	bic.w	r2, r2, #3997696	; 0x3d0000
 800121a:	4313      	orrs	r3, r2
 800121c:	6063      	str	r3, [r4, #4]
        __HAL_RCC_PLL_ENABLE();
 800121e:	2301      	movs	r3, #1
 8001220:	6033      	str	r3, [r6, #0]
        tickstart = HAL_GetTick();
 8001222:	f7fe ffdd 	bl	80001e0 <HAL_GetTick>
 8001226:	4605      	mov	r5, r0
        while(__HAL_RCC_GET_FLAG(RCC_FLAG_PLLRDY)  == RESET)
 8001228:	6823      	ldr	r3, [r4, #0]
 800122a:	019a      	lsls	r2, r3, #6
 800122c:	f53f aea7 	bmi.w	8000f7e <HAL_RCC_OscConfig+0x2a>
          if((HAL_GetTick() - tickstart ) > PLL_TIMEOUT_VALUE)
 8001230:	f7fe ffd6 	bl	80001e0 <HAL_GetTick>
 8001234:	1b40      	subs	r0, r0, r5
 8001236:	2802      	cmp	r0, #2
 8001238:	d9f6      	bls.n	8001228 <HAL_RCC_OscConfig+0x2d4>
 800123a:	e6cd      	b.n	8000fd8 <HAL_RCC_OscConfig+0x84>
          if((HAL_GetTick() - tickstart ) > PLL_TIMEOUT_VALUE)
 800123c:	f7fe ffd0 	bl	80001e0 <HAL_GetTick>
 8001240:	1bc0      	subs	r0, r0, r7
 8001242:	2802      	cmp	r0, #2
 8001244:	d9d7      	bls.n	80011f6 <HAL_RCC_OscConfig+0x2a2>
 8001246:	e6c7      	b.n	8000fd8 <HAL_RCC_OscConfig+0x84>
        tickstart = HAL_GetTick();
 8001248:	f7fe ffca 	bl	80001e0 <HAL_GetTick>
 800124c:	4605      	mov	r5, r0
        while(__HAL_RCC_GET_FLAG(RCC_FLAG_PLLRDY)  != RESET)
 800124e:	6823      	ldr	r3, [r4, #0]
 8001250:	019b      	lsls	r3, r3, #6
 8001252:	f57f ae94 	bpl.w	8000f7e <HAL_RCC_OscConfig+0x2a>
          if((HAL_GetTick() - tickstart ) > PLL_TIMEOUT_VALUE)
 8001256:	f7fe ffc3 	bl	80001e0 <HAL_GetTick>
 800125a:	1b40      	subs	r0, r0, r5
 800125c:	2802      	cmp	r0, #2
 800125e:	d9f6      	bls.n	800124e <HAL_RCC_OscConfig+0x2fa>
 8001260:	e6ba      	b.n	8000fd8 <HAL_RCC_OscConfig+0x84>
 8001262:	bf00      	nop
 8001264:	40021000 	.word	0x40021000
 8001268:	42420060 	.word	0x42420060

0800126c <HAL_RCC_GetSysClockFreq>:
{
 800126c:	b530      	push	{r4, r5, lr}
  const uint8_t aPLLMULFactorTable[16] = {2, 3, 4, 5, 6, 7, 8, 9, 10, 11, 12, 13, 14, 15, 16, 16};
 800126e:	4b19      	ldr	r3, [pc, #100]	; (80012d4 <HAL_RCC_GetSysClockFreq+0x68>)
{
 8001270:	b087      	sub	sp, #28
  const uint8_t aPLLMULFactorTable[16] = {2, 3, 4, 5, 6, 7, 8, 9, 10, 11, 12, 13, 14, 15, 16, 16};
 8001272:	ac02      	add	r4, sp, #8
 8001274:	f103 0510 	add.w	r5, r3, #16
 8001278:	4622      	mov	r2, r4
 800127a:	6818      	ldr	r0, [r3, #0]
 800127c:	6859      	ldr	r1, [r3, #4]
 800127e:	3308      	adds	r3, #8
 8001280:	c203      	stmia	r2!, {r0, r1}
 8001282:	42ab      	cmp	r3, r5
 8001284:	4614      	mov	r4, r2
 8001286:	d1f7      	bne.n	8001278 <HAL_RCC_GetSysClockFreq+0xc>
  const uint8_t aPredivFactorTable[2] = {1, 2};
 8001288:	2301      	movs	r3, #1
 800128a:	f88d 3004 	strb.w	r3, [sp, #4]
 800128e:	2302      	movs	r3, #2
  tmpreg = RCC->CFGR;
 8001290:	4911      	ldr	r1, [pc, #68]	; (80012d8 <HAL_RCC_GetSysClockFreq+0x6c>)
  const uint8_t aPredivFactorTable[2] = {1, 2};
 8001292:	f88d 3005 	strb.w	r3, [sp, #5]
  tmpreg = RCC->CFGR;
 8001296:	684b      	ldr	r3, [r1, #4]
  switch (tmpreg & RCC_CFGR_SWS)
 8001298:	f003 020c 	and.w	r2, r3, #12
 800129c:	2a08      	cmp	r2, #8
 800129e:	d117      	bne.n	80012d0 <HAL_RCC_GetSysClockFreq+0x64>
      pllmul = aPLLMULFactorTable[(uint32_t)(tmpreg & RCC_CFGR_PLLMULL) >> RCC_CFGR_PLLMULL_Pos];
 80012a0:	f3c3 4283 	ubfx	r2, r3, #18, #4
 80012a4:	a806      	add	r0, sp, #24
 80012a6:	4402      	add	r2, r0
      if ((tmpreg & RCC_CFGR_PLLSRC) != RCC_PLLSOURCE_HSI_DIV2)
 80012a8:	03db      	lsls	r3, r3, #15
      pllmul = aPLLMULFactorTable[(uint32_t)(tmpreg & RCC_CFGR_PLLMULL) >> RCC_CFGR_PLLMULL_Pos];
 80012aa:	f812 2c10 	ldrb.w	r2, [r2, #-16]
      if ((tmpreg & RCC_CFGR_PLLSRC) != RCC_PLLSOURCE_HSI_DIV2)
 80012ae:	d50c      	bpl.n	80012ca <HAL_RCC_GetSysClockFreq+0x5e>
        prediv = aPredivFactorTable[(uint32_t)(RCC->CFGR & RCC_CFGR_PLLXTPRE) >> RCC_CFGR_PLLXTPRE_Pos];
 80012b0:	684b      	ldr	r3, [r1, #4]
        pllclk = (uint32_t)((HSE_VALUE  * pllmul) / prediv);
 80012b2:	480a      	ldr	r0, [pc, #40]	; (80012dc <HAL_RCC_GetSysClockFreq+0x70>)
        prediv = aPredivFactorTable[(uint32_t)(RCC->CFGR & RCC_CFGR_PLLXTPRE) >> RCC_CFGR_PLLXTPRE_Pos];
 80012b4:	f3c3 4340 	ubfx	r3, r3, #17, #1
        pllclk = (uint32_t)((HSE_VALUE  * pllmul) / prediv);
 80012b8:	4350      	muls	r0, r2
        prediv = aPredivFactorTable[(uint32_t)(RCC->CFGR & RCC_CFGR_PLLXTPRE) >> RCC_CFGR_PLLXTPRE_Pos];
 80012ba:	aa06      	add	r2, sp, #24
 80012bc:	4413      	add	r3, r2
 80012be:	f813 3c14 	ldrb.w	r3, [r3, #-20]
        pllclk = (uint32_t)((HSE_VALUE  * pllmul) / prediv);
 80012c2:	fbb0 f0f3 	udiv	r0, r0, r3
}
 80012c6:	b007      	add	sp, #28
 80012c8:	bd30      	pop	{r4, r5, pc}
        pllclk = (uint32_t)((HSI_VALUE >> 1) * pllmul);
 80012ca:	4805      	ldr	r0, [pc, #20]	; (80012e0 <HAL_RCC_GetSysClockFreq+0x74>)
 80012cc:	4350      	muls	r0, r2
 80012ce:	e7fa      	b.n	80012c6 <HAL_RCC_GetSysClockFreq+0x5a>
      sysclockfreq = HSE_VALUE;
 80012d0:	4802      	ldr	r0, [pc, #8]	; (80012dc <HAL_RCC_GetSysClockFreq+0x70>)
  return sysclockfreq;
 80012d2:	e7f8      	b.n	80012c6 <HAL_RCC_GetSysClockFreq+0x5a>
 80012d4:	08003b5c 	.word	0x08003b5c
 80012d8:	40021000 	.word	0x40021000
 80012dc:	007a1200 	.word	0x007a1200
 80012e0:	003d0900 	.word	0x003d0900

080012e4 <HAL_RCC_ClockConfig>:
  if(FLatency > (FLASH->ACR & FLASH_ACR_LATENCY))
 80012e4:	4a54      	ldr	r2, [pc, #336]	; (8001438 <HAL_RCC_ClockConfig+0x154>)
{
 80012e6:	e92d 41f0 	stmdb	sp!, {r4, r5, r6, r7, r8, lr}
  if(FLatency > (FLASH->ACR & FLASH_ACR_LATENCY))
 80012ea:	6813      	ldr	r3, [r2, #0]
{
 80012ec:	4605      	mov	r5, r0
  if(FLatency > (FLASH->ACR & FLASH_ACR_LATENCY))
 80012ee:	f003 0307 	and.w	r3, r3, #7
 80012f2:	428b      	cmp	r3, r1
{
 80012f4:	460e      	mov	r6, r1
  if(FLatency > (FLASH->ACR & FLASH_ACR_LATENCY))
 80012f6:	d32a      	bcc.n	800134e <HAL_RCC_ClockConfig+0x6a>
  if(((RCC_ClkInitStruct->ClockType) & RCC_CLOCKTYPE_HCLK) == RCC_CLOCKTYPE_HCLK)
 80012f8:	6829      	ldr	r1, [r5, #0]
 80012fa:	078c      	lsls	r4, r1, #30
 80012fc:	d434      	bmi.n	8001368 <HAL_RCC_ClockConfig+0x84>
  if(((RCC_ClkInitStruct->ClockType) & RCC_CLOCKTYPE_SYSCLK) == RCC_CLOCKTYPE_SYSCLK)
 80012fe:	07ca      	lsls	r2, r1, #31
 8001300:	d447      	bmi.n	8001392 <HAL_RCC_ClockConfig+0xae>
  if(FLatency < (FLASH->ACR & FLASH_ACR_LATENCY))
 8001302:	4a4d      	ldr	r2, [pc, #308]	; (8001438 <HAL_RCC_ClockConfig+0x154>)
 8001304:	6813      	ldr	r3, [r2, #0]
 8001306:	f003 0307 	and.w	r3, r3, #7
 800130a:	429e      	cmp	r6, r3
 800130c:	f0c0 8082 	bcc.w	8001414 <HAL_RCC_ClockConfig+0x130>
  if(((RCC_ClkInitStruct->ClockType) & RCC_CLOCKTYPE_PCLK1) == RCC_CLOCKTYPE_PCLK1)
 8001310:	682a      	ldr	r2, [r5, #0]
 8001312:	4c4a      	ldr	r4, [pc, #296]	; (800143c <HAL_RCC_ClockConfig+0x158>)
 8001314:	f012 0f04 	tst.w	r2, #4
 8001318:	f040 8087 	bne.w	800142a <HAL_RCC_ClockConfig+0x146>
  if(((RCC_ClkInitStruct->ClockType) & RCC_CLOCKTYPE_PCLK2) == RCC_CLOCKTYPE_PCLK2)
 800131c:	0713      	lsls	r3, r2, #28
 800131e:	d506      	bpl.n	800132e <HAL_RCC_ClockConfig+0x4a>
    MODIFY_REG(RCC->CFGR, RCC_CFGR_PPRE2, ((RCC_ClkInitStruct->APB2CLKDivider) << 3));
 8001320:	6863      	ldr	r3, [r4, #4]
 8001322:	692a      	ldr	r2, [r5, #16]
 8001324:	f423 5360 	bic.w	r3, r3, #14336	; 0x3800
 8001328:	ea43 03c2 	orr.w	r3, r3, r2, lsl #3
 800132c:	6063      	str	r3, [r4, #4]
  SystemCoreClock = HAL_RCC_GetSysClockFreq() >> AHBPrescTable[(RCC->CFGR & RCC_CFGR_HPRE)>> RCC_CFGR_HPRE_Pos];
 800132e:	f7ff ff9d 	bl	800126c <HAL_RCC_GetSysClockFreq>
 8001332:	6863      	ldr	r3, [r4, #4]
 8001334:	4a42      	ldr	r2, [pc, #264]	; (8001440 <HAL_RCC_ClockConfig+0x15c>)
 8001336:	f3c3 1303 	ubfx	r3, r3, #4, #4
 800133a:	5cd3      	ldrb	r3, [r2, r3]
 800133c:	40d8      	lsrs	r0, r3
 800133e:	4b41      	ldr	r3, [pc, #260]	; (8001444 <HAL_RCC_ClockConfig+0x160>)
 8001340:	6018      	str	r0, [r3, #0]
  HAL_InitTick (TICK_INT_PRIORITY);
 8001342:	2000      	movs	r0, #0
 8001344:	f7fe ff0a 	bl	800015c <HAL_InitTick>
  return HAL_OK;
 8001348:	2000      	movs	r0, #0
}
 800134a:	e8bd 81f0 	ldmia.w	sp!, {r4, r5, r6, r7, r8, pc}
    __HAL_FLASH_SET_LATENCY(FLatency);
 800134e:	6813      	ldr	r3, [r2, #0]
 8001350:	f023 0307 	bic.w	r3, r3, #7
 8001354:	430b      	orrs	r3, r1
 8001356:	6013      	str	r3, [r2, #0]
    if((FLASH->ACR & FLASH_ACR_LATENCY) != FLatency)
 8001358:	6813      	ldr	r3, [r2, #0]
 800135a:	f003 0307 	and.w	r3, r3, #7
 800135e:	4299      	cmp	r1, r3
 8001360:	d0ca      	beq.n	80012f8 <HAL_RCC_ClockConfig+0x14>
      return HAL_ERROR;
 8001362:	2001      	movs	r0, #1
 8001364:	e8bd 81f0 	ldmia.w	sp!, {r4, r5, r6, r7, r8, pc}
 8001368:	4b34      	ldr	r3, [pc, #208]	; (800143c <HAL_RCC_ClockConfig+0x158>)
    if(((RCC_ClkInitStruct->ClockType) & RCC_CLOCKTYPE_PCLK1) == RCC_CLOCKTYPE_PCLK1)
 800136a:	f011 0f04 	tst.w	r1, #4
      MODIFY_REG(RCC->CFGR, RCC_CFGR_PPRE1, RCC_HCLK_DIV16);
 800136e:	bf1e      	ittt	ne
 8001370:	685a      	ldrne	r2, [r3, #4]
 8001372:	f442 62e0 	orrne.w	r2, r2, #1792	; 0x700
 8001376:	605a      	strne	r2, [r3, #4]
    if(((RCC_ClkInitStruct->ClockType) & RCC_CLOCKTYPE_PCLK2) == RCC_CLOCKTYPE_PCLK2)
 8001378:	0708      	lsls	r0, r1, #28
      MODIFY_REG(RCC->CFGR, RCC_CFGR_PPRE2, (RCC_HCLK_DIV16 << 3));
 800137a:	bf42      	ittt	mi
 800137c:	685a      	ldrmi	r2, [r3, #4]
 800137e:	f442 5260 	orrmi.w	r2, r2, #14336	; 0x3800
 8001382:	605a      	strmi	r2, [r3, #4]
    MODIFY_REG(RCC->CFGR, RCC_CFGR_HPRE, RCC_ClkInitStruct->AHBCLKDivider);
 8001384:	685a      	ldr	r2, [r3, #4]
 8001386:	68a8      	ldr	r0, [r5, #8]
 8001388:	f022 02f0 	bic.w	r2, r2, #240	; 0xf0
 800138c:	4302      	orrs	r2, r0
 800138e:	605a      	str	r2, [r3, #4]
 8001390:	e7b5      	b.n	80012fe <HAL_RCC_ClockConfig+0x1a>
    if(RCC_ClkInitStruct->SYSCLKSource == RCC_SYSCLKSOURCE_HSE)
 8001392:	686a      	ldr	r2, [r5, #4]
 8001394:	4c29      	ldr	r4, [pc, #164]	; (800143c <HAL_RCC_ClockConfig+0x158>)
 8001396:	2a01      	cmp	r2, #1
      if(__HAL_RCC_GET_FLAG(RCC_FLAG_HSERDY) == RESET)
 8001398:	6823      	ldr	r3, [r4, #0]
    if(RCC_ClkInitStruct->SYSCLKSource == RCC_SYSCLKSOURCE_HSE)
 800139a:	d11c      	bne.n	80013d6 <HAL_RCC_ClockConfig+0xf2>
      if(__HAL_RCC_GET_FLAG(RCC_FLAG_HSERDY) == RESET)
 800139c:	f413 3f00 	tst.w	r3, #131072	; 0x20000
      if(__HAL_RCC_GET_FLAG(RCC_FLAG_HSIRDY) == RESET)
 80013a0:	d0df      	beq.n	8001362 <HAL_RCC_ClockConfig+0x7e>
    __HAL_RCC_SYSCLK_CONFIG(RCC_ClkInitStruct->SYSCLKSource);
 80013a2:	6863      	ldr	r3, [r4, #4]
        if((HAL_GetTick() - tickstart ) > CLOCKSWITCH_TIMEOUT_VALUE)
 80013a4:	f241 3888 	movw	r8, #5000	; 0x1388
    __HAL_RCC_SYSCLK_CONFIG(RCC_ClkInitStruct->SYSCLKSource);
 80013a8:	f023 0303 	bic.w	r3, r3, #3
 80013ac:	4313      	orrs	r3, r2
 80013ae:	6063      	str	r3, [r4, #4]
    tickstart = HAL_GetTick();
 80013b0:	f7fe ff16 	bl	80001e0 <HAL_GetTick>
    if(RCC_ClkInitStruct->SYSCLKSource == RCC_SYSCLKSOURCE_HSE)
 80013b4:	686b      	ldr	r3, [r5, #4]
    tickstart = HAL_GetTick();
 80013b6:	4607      	mov	r7, r0
    if(RCC_ClkInitStruct->SYSCLKSource == RCC_SYSCLKSOURCE_HSE)
 80013b8:	2b01      	cmp	r3, #1
 80013ba:	d114      	bne.n	80013e6 <HAL_RCC_ClockConfig+0x102>
      while (__HAL_RCC_GET_SYSCLK_SOURCE() != RCC_SYSCLKSOURCE_STATUS_HSE)
 80013bc:	6863      	ldr	r3, [r4, #4]
 80013be:	f003 030c 	and.w	r3, r3, #12
 80013c2:	2b04      	cmp	r3, #4
 80013c4:	d09d      	beq.n	8001302 <HAL_RCC_ClockConfig+0x1e>
        if((HAL_GetTick() - tickstart ) > CLOCKSWITCH_TIMEOUT_VALUE)
 80013c6:	f7fe ff0b 	bl	80001e0 <HAL_GetTick>
 80013ca:	1bc0      	subs	r0, r0, r7
 80013cc:	4540      	cmp	r0, r8
 80013ce:	d9f5      	bls.n	80013bc <HAL_RCC_ClockConfig+0xd8>
          return HAL_TIMEOUT;
 80013d0:	2003      	movs	r0, #3
 80013d2:	e8bd 81f0 	ldmia.w	sp!, {r4, r5, r6, r7, r8, pc}
    else if(RCC_ClkInitStruct->SYSCLKSource == RCC_SYSCLKSOURCE_PLLCLK)
 80013d6:	2a02      	cmp	r2, #2
 80013d8:	d102      	bne.n	80013e0 <HAL_RCC_ClockConfig+0xfc>
      if(__HAL_RCC_GET_FLAG(RCC_FLAG_PLLRDY) == RESET)
 80013da:	f013 7f00 	tst.w	r3, #33554432	; 0x2000000
 80013de:	e7df      	b.n	80013a0 <HAL_RCC_ClockConfig+0xbc>
      if(__HAL_RCC_GET_FLAG(RCC_FLAG_HSIRDY) == RESET)
 80013e0:	f013 0f02 	tst.w	r3, #2
 80013e4:	e7dc      	b.n	80013a0 <HAL_RCC_ClockConfig+0xbc>
    else if(RCC_ClkInitStruct->SYSCLKSource == RCC_SYSCLKSOURCE_PLLCLK)
 80013e6:	2b02      	cmp	r3, #2
 80013e8:	d10f      	bne.n	800140a <HAL_RCC_ClockConfig+0x126>
      while (__HAL_RCC_GET_SYSCLK_SOURCE() != RCC_SYSCLKSOURCE_STATUS_PLLCLK)
 80013ea:	6863      	ldr	r3, [r4, #4]
 80013ec:	f003 030c 	and.w	r3, r3, #12
 80013f0:	2b08      	cmp	r3, #8
 80013f2:	d086      	beq.n	8001302 <HAL_RCC_ClockConfig+0x1e>
        if((HAL_GetTick() - tickstart ) > CLOCKSWITCH_TIMEOUT_VALUE)
 80013f4:	f7fe fef4 	bl	80001e0 <HAL_GetTick>
 80013f8:	1bc0      	subs	r0, r0, r7
 80013fa:	4540      	cmp	r0, r8
 80013fc:	d9f5      	bls.n	80013ea <HAL_RCC_ClockConfig+0x106>
 80013fe:	e7e7      	b.n	80013d0 <HAL_RCC_ClockConfig+0xec>
        if((HAL_GetTick() - tickstart ) > CLOCKSWITCH_TIMEOUT_VALUE)
 8001400:	f7fe feee 	bl	80001e0 <HAL_GetTick>
 8001404:	1bc0      	subs	r0, r0, r7
 8001406:	4540      	cmp	r0, r8
 8001408:	d8e2      	bhi.n	80013d0 <HAL_RCC_ClockConfig+0xec>
      while (__HAL_RCC_GET_SYSCLK_SOURCE() != RCC_SYSCLKSOURCE_STATUS_HSI)
 800140a:	6863      	ldr	r3, [r4, #4]
 800140c:	f013 0f0c 	tst.w	r3, #12
 8001410:	d1f6      	bne.n	8001400 <HAL_RCC_ClockConfig+0x11c>
 8001412:	e776      	b.n	8001302 <HAL_RCC_ClockConfig+0x1e>
    __HAL_FLASH_SET_LATENCY(FLatency);
 8001414:	6813      	ldr	r3, [r2, #0]
 8001416:	f023 0307 	bic.w	r3, r3, #7
 800141a:	4333      	orrs	r3, r6
 800141c:	6013      	str	r3, [r2, #0]
    if((FLASH->ACR & FLASH_ACR_LATENCY) != FLatency)
 800141e:	6813      	ldr	r3, [r2, #0]
 8001420:	f003 0307 	and.w	r3, r3, #7
 8001424:	429e      	cmp	r6, r3
 8001426:	d19c      	bne.n	8001362 <HAL_RCC_ClockConfig+0x7e>
 8001428:	e772      	b.n	8001310 <HAL_RCC_ClockConfig+0x2c>
    MODIFY_REG(RCC->CFGR, RCC_CFGR_PPRE1, RCC_ClkInitStruct->APB1CLKDivider);
 800142a:	6863      	ldr	r3, [r4, #4]
 800142c:	68e9      	ldr	r1, [r5, #12]
 800142e:	f423 63e0 	bic.w	r3, r3, #1792	; 0x700
 8001432:	430b      	orrs	r3, r1
 8001434:	6063      	str	r3, [r4, #4]
 8001436:	e771      	b.n	800131c <HAL_RCC_ClockConfig+0x38>
 8001438:	40022000 	.word	0x40022000
 800143c:	40021000 	.word	0x40021000
 8001440:	08003b7c 	.word	0x08003b7c
 8001444:	20000008 	.word	0x20000008

08001448 <HAL_RCC_GetPCLK1Freq>:
  return (HAL_RCC_GetHCLKFreq() >> APBPrescTable[(RCC->CFGR & RCC_CFGR_PPRE1) >> RCC_CFGR_PPRE1_Pos]);
 8001448:	4b04      	ldr	r3, [pc, #16]	; (800145c <HAL_RCC_GetPCLK1Freq+0x14>)
 800144a:	4a05      	ldr	r2, [pc, #20]	; (8001460 <HAL_RCC_GetPCLK1Freq+0x18>)
 800144c:	685b      	ldr	r3, [r3, #4]
 800144e:	f3c3 2302 	ubfx	r3, r3, #8, #3
 8001452:	5cd3      	ldrb	r3, [r2, r3]
 8001454:	4a03      	ldr	r2, [pc, #12]	; (8001464 <HAL_RCC_GetPCLK1Freq+0x1c>)
 8001456:	6810      	ldr	r0, [r2, #0]
}    
 8001458:	40d8      	lsrs	r0, r3
 800145a:	4770      	bx	lr
 800145c:	40021000 	.word	0x40021000
 8001460:	08003b8c 	.word	0x08003b8c
 8001464:	20000008 	.word	0x20000008

08001468 <HAL_RCC_GetPCLK2Freq>:
  return (HAL_RCC_GetHCLKFreq()>> APBPrescTable[(RCC->CFGR & RCC_CFGR_PPRE2) >> RCC_CFGR_PPRE2_Pos]);
 8001468:	4b04      	ldr	r3, [pc, #16]	; (800147c <HAL_RCC_GetPCLK2Freq+0x14>)
 800146a:	4a05      	ldr	r2, [pc, #20]	; (8001480 <HAL_RCC_GetPCLK2Freq+0x18>)
 800146c:	685b      	ldr	r3, [r3, #4]
 800146e:	f3c3 23c2 	ubfx	r3, r3, #11, #3
 8001472:	5cd3      	ldrb	r3, [r2, r3]
 8001474:	4a03      	ldr	r2, [pc, #12]	; (8001484 <HAL_RCC_GetPCLK2Freq+0x1c>)
 8001476:	6810      	ldr	r0, [r2, #0]
} 
 8001478:	40d8      	lsrs	r0, r3
 800147a:	4770      	bx	lr
 800147c:	40021000 	.word	0x40021000
 8001480:	08003b8c 	.word	0x08003b8c
 8001484:	20000008 	.word	0x20000008

08001488 <HAL_RCCEx_PeriphCLKConfig>:

  /* Check the parameters */
  assert_param(IS_RCC_PERIPHCLOCK(PeriphClkInit->PeriphClockSelection));
  
  /*------------------------------- RTC/LCD Configuration ------------------------*/ 
  if ((((PeriphClkInit->PeriphClockSelection) & RCC_PERIPHCLK_RTC) == RCC_PERIPHCLK_RTC))
 8001488:	6803      	ldr	r3, [r0, #0]
{
 800148a:	e92d 41f3 	stmdb	sp!, {r0, r1, r4, r5, r6, r7, r8, lr}
  if ((((PeriphClkInit->PeriphClockSelection) & RCC_PERIPHCLK_RTC) == RCC_PERIPHCLK_RTC))
 800148e:	07d9      	lsls	r1, r3, #31
{
 8001490:	4605      	mov	r5, r0
  if ((((PeriphClkInit->PeriphClockSelection) & RCC_PERIPHCLK_RTC) == RCC_PERIPHCLK_RTC))
 8001492:	d520      	bpl.n	80014d6 <HAL_RCCEx_PeriphCLKConfig+0x4e>
    FlagStatus       pwrclkchanged = RESET;

    /* As soon as function is called to change RTC clock source, activation of the 
       power domain is done. */
    /* Requires to enable write access to Backup Domain of necessary */
    if(__HAL_RCC_PWR_IS_CLK_DISABLED())
 8001494:	4c35      	ldr	r4, [pc, #212]	; (800156c <HAL_RCCEx_PeriphCLKConfig+0xe4>)
 8001496:	69e3      	ldr	r3, [r4, #28]
 8001498:	00da      	lsls	r2, r3, #3
 800149a:	d432      	bmi.n	8001502 <HAL_RCCEx_PeriphCLKConfig+0x7a>
    {
    __HAL_RCC_PWR_CLK_ENABLE();
      pwrclkchanged = SET;
 800149c:	2701      	movs	r7, #1
    __HAL_RCC_PWR_CLK_ENABLE();
 800149e:	69e3      	ldr	r3, [r4, #28]
 80014a0:	f043 5380 	orr.w	r3, r3, #268435456	; 0x10000000
 80014a4:	61e3      	str	r3, [r4, #28]
 80014a6:	69e3      	ldr	r3, [r4, #28]
 80014a8:	f003 5380 	and.w	r3, r3, #268435456	; 0x10000000
 80014ac:	9301      	str	r3, [sp, #4]
 80014ae:	9b01      	ldr	r3, [sp, #4]
    }
    
    if(HAL_IS_BIT_CLR(PWR->CR, PWR_CR_DBP))
 80014b0:	4e2f      	ldr	r6, [pc, #188]	; (8001570 <HAL_RCCEx_PeriphCLKConfig+0xe8>)
 80014b2:	6833      	ldr	r3, [r6, #0]
 80014b4:	05db      	lsls	r3, r3, #23
 80014b6:	d526      	bpl.n	8001506 <HAL_RCCEx_PeriphCLKConfig+0x7e>
        }
      }
    }
      
    /* Reset the Backup domain only if the RTC Clock source selection is modified from reset value */ 
    temp_reg = (RCC->BDCR & RCC_BDCR_RTCSEL);
 80014b8:	6a23      	ldr	r3, [r4, #32]
    if((temp_reg != 0x00000000U) && (temp_reg != (PeriphClkInit->RTCClockSelection & RCC_BDCR_RTCSEL)))
 80014ba:	f413 7340 	ands.w	r3, r3, #768	; 0x300
 80014be:	d136      	bne.n	800152e <HAL_RCCEx_PeriphCLKConfig+0xa6>
            return HAL_TIMEOUT;
          }      
        }  
      }
    }
    __HAL_RCC_RTC_CONFIG(PeriphClkInit->RTCClockSelection); 
 80014c0:	6a23      	ldr	r3, [r4, #32]
 80014c2:	686a      	ldr	r2, [r5, #4]
 80014c4:	f423 7340 	bic.w	r3, r3, #768	; 0x300
 80014c8:	4313      	orrs	r3, r2
 80014ca:	6223      	str	r3, [r4, #32]

    /* Require to disable power clock if necessary */
    if(pwrclkchanged == SET)
 80014cc:	b11f      	cbz	r7, 80014d6 <HAL_RCCEx_PeriphCLKConfig+0x4e>
    {
      __HAL_RCC_PWR_CLK_DISABLE();
 80014ce:	69e3      	ldr	r3, [r4, #28]
 80014d0:	f023 5380 	bic.w	r3, r3, #268435456	; 0x10000000
 80014d4:	61e3      	str	r3, [r4, #28]
    }
  }

  /*------------------------------ ADC clock Configuration ------------------*/ 
  if(((PeriphClkInit->PeriphClockSelection) & RCC_PERIPHCLK_ADC) == RCC_PERIPHCLK_ADC)
 80014d6:	6828      	ldr	r0, [r5, #0]
 80014d8:	0783      	lsls	r3, r0, #30
 80014da:	d506      	bpl.n	80014ea <HAL_RCCEx_PeriphCLKConfig+0x62>
  {
    /* Check the parameters */
    assert_param(IS_RCC_ADCPLLCLK_DIV(PeriphClkInit->AdcClockSelection));
    
    /* Configure the ADC clock source */
    __HAL_RCC_ADC_CONFIG(PeriphClkInit->AdcClockSelection);
 80014dc:	4a23      	ldr	r2, [pc, #140]	; (800156c <HAL_RCCEx_PeriphCLKConfig+0xe4>)
 80014de:	68a9      	ldr	r1, [r5, #8]
 80014e0:	6853      	ldr	r3, [r2, #4]
 80014e2:	f423 4340 	bic.w	r3, r3, #49152	; 0xc000
 80014e6:	430b      	orrs	r3, r1
 80014e8:	6053      	str	r3, [r2, #4]

#if defined(STM32F102x6) || defined(STM32F102xB) || defined(STM32F103x6)\
 || defined(STM32F103xB) || defined(STM32F103xE) || defined(STM32F103xG)\
 || defined(STM32F105xC) || defined(STM32F107xC)
  /*------------------------------ USB clock Configuration ------------------*/ 
  if(((PeriphClkInit->PeriphClockSelection) & RCC_PERIPHCLK_USB) == RCC_PERIPHCLK_USB)
 80014ea:	f010 0010 	ands.w	r0, r0, #16
 80014ee:	d01b      	beq.n	8001528 <HAL_RCCEx_PeriphCLKConfig+0xa0>
  {
    /* Check the parameters */
    assert_param(IS_RCC_USBPLLCLK_DIV(PeriphClkInit->UsbClockSelection));
    
    /* Configure the USB clock source */
    __HAL_RCC_USB_CONFIG(PeriphClkInit->UsbClockSelection);
 80014f0:	4a1e      	ldr	r2, [pc, #120]	; (800156c <HAL_RCCEx_PeriphCLKConfig+0xe4>)
 80014f2:	68e9      	ldr	r1, [r5, #12]
 80014f4:	6853      	ldr	r3, [r2, #4]
  }
#endif /* STM32F102x6 || STM32F102xB || STM32F103x6 || STM32F103xB || STM32F103xE || STM32F103xG || STM32F105xC || STM32F107xC */

  return HAL_OK;
 80014f6:	2000      	movs	r0, #0
    __HAL_RCC_USB_CONFIG(PeriphClkInit->UsbClockSelection);
 80014f8:	f423 0380 	bic.w	r3, r3, #4194304	; 0x400000
 80014fc:	430b      	orrs	r3, r1
 80014fe:	6053      	str	r3, [r2, #4]
 8001500:	e012      	b.n	8001528 <HAL_RCCEx_PeriphCLKConfig+0xa0>
    FlagStatus       pwrclkchanged = RESET;
 8001502:	2700      	movs	r7, #0
 8001504:	e7d4      	b.n	80014b0 <HAL_RCCEx_PeriphCLKConfig+0x28>
      SET_BIT(PWR->CR, PWR_CR_DBP);
 8001506:	6833      	ldr	r3, [r6, #0]
 8001508:	f443 7380 	orr.w	r3, r3, #256	; 0x100
 800150c:	6033      	str	r3, [r6, #0]
      tickstart = HAL_GetTick();
 800150e:	f7fe fe67 	bl	80001e0 <HAL_GetTick>
 8001512:	4680      	mov	r8, r0
      while(HAL_IS_BIT_CLR(PWR->CR, PWR_CR_DBP))
 8001514:	6833      	ldr	r3, [r6, #0]
 8001516:	05d8      	lsls	r0, r3, #23
 8001518:	d4ce      	bmi.n	80014b8 <HAL_RCCEx_PeriphCLKConfig+0x30>
        if((HAL_GetTick() - tickstart) > RCC_DBP_TIMEOUT_VALUE)
 800151a:	f7fe fe61 	bl	80001e0 <HAL_GetTick>
 800151e:	eba0 0008 	sub.w	r0, r0, r8
 8001522:	2864      	cmp	r0, #100	; 0x64
 8001524:	d9f6      	bls.n	8001514 <HAL_RCCEx_PeriphCLKConfig+0x8c>
          return HAL_TIMEOUT;
 8001526:	2003      	movs	r0, #3
}
 8001528:	b002      	add	sp, #8
 800152a:	e8bd 81f0 	ldmia.w	sp!, {r4, r5, r6, r7, r8, pc}
    if((temp_reg != 0x00000000U) && (temp_reg != (PeriphClkInit->RTCClockSelection & RCC_BDCR_RTCSEL)))
 800152e:	686a      	ldr	r2, [r5, #4]
 8001530:	f402 7240 	and.w	r2, r2, #768	; 0x300
 8001534:	4293      	cmp	r3, r2
 8001536:	d0c3      	beq.n	80014c0 <HAL_RCCEx_PeriphCLKConfig+0x38>
      __HAL_RCC_BACKUPRESET_FORCE();
 8001538:	2001      	movs	r0, #1
 800153a:	4a0e      	ldr	r2, [pc, #56]	; (8001574 <HAL_RCCEx_PeriphCLKConfig+0xec>)
      temp_reg = (RCC->BDCR & ~(RCC_BDCR_RTCSEL));
 800153c:	6a23      	ldr	r3, [r4, #32]
      __HAL_RCC_BACKUPRESET_FORCE();
 800153e:	6010      	str	r0, [r2, #0]
      __HAL_RCC_BACKUPRESET_RELEASE();
 8001540:	2000      	movs	r0, #0
      temp_reg = (RCC->BDCR & ~(RCC_BDCR_RTCSEL));
 8001542:	f423 7140 	bic.w	r1, r3, #768	; 0x300
      __HAL_RCC_BACKUPRESET_RELEASE();
 8001546:	6010      	str	r0, [r2, #0]
      RCC->BDCR = temp_reg;
 8001548:	6221      	str	r1, [r4, #32]
      if (HAL_IS_BIT_SET(temp_reg, RCC_BDCR_LSEON))
 800154a:	07d9      	lsls	r1, r3, #31
 800154c:	d5b8      	bpl.n	80014c0 <HAL_RCCEx_PeriphCLKConfig+0x38>
        tickstart = HAL_GetTick();
 800154e:	f7fe fe47 	bl	80001e0 <HAL_GetTick>
          if((HAL_GetTick() - tickstart) > RCC_LSE_TIMEOUT_VALUE)
 8001552:	f241 3888 	movw	r8, #5000	; 0x1388
        tickstart = HAL_GetTick();
 8001556:	4606      	mov	r6, r0
        while(__HAL_RCC_GET_FLAG(RCC_FLAG_LSERDY) == RESET)
 8001558:	6a23      	ldr	r3, [r4, #32]
 800155a:	079a      	lsls	r2, r3, #30
 800155c:	d4b0      	bmi.n	80014c0 <HAL_RCCEx_PeriphCLKConfig+0x38>
          if((HAL_GetTick() - tickstart) > RCC_LSE_TIMEOUT_VALUE)
 800155e:	f7fe fe3f 	bl	80001e0 <HAL_GetTick>
 8001562:	1b80      	subs	r0, r0, r6
 8001564:	4540      	cmp	r0, r8
 8001566:	d9f7      	bls.n	8001558 <HAL_RCCEx_PeriphCLKConfig+0xd0>
 8001568:	e7dd      	b.n	8001526 <HAL_RCCEx_PeriphCLKConfig+0x9e>
 800156a:	bf00      	nop
 800156c:	40021000 	.word	0x40021000
 8001570:	40007000 	.word	0x40007000
 8001574:	42420440 	.word	0x42420440

08001578 <HAL_RCCEx_GetPeriphCLKFreq>:
  *            @arg @ref RCC_PERIPHCLK_USB  USB peripheral clock
  @endif
  * @retval Frequency in Hz (0: means that no available frequency for the peripheral)
  */
uint32_t HAL_RCCEx_GetPeriphCLKFreq(uint32_t PeriphClk)
{
 8001578:	b570      	push	{r4, r5, r6, lr}
 800157a:	4604      	mov	r4, r0
  uint32_t prediv1 = 0U, pllclk = 0U, pllmul = 0U;
  uint32_t pll2mul = 0U, pll3mul = 0U, prediv2 = 0U;
#endif /* STM32F105xC || STM32F107xC */
#if defined(STM32F102x6) || defined(STM32F102xB) || defined(STM32F103x6) || \
    defined(STM32F103xB) || defined(STM32F103xE) || defined(STM32F103xG)
  const uint8_t aPLLMULFactorTable[16] = {2, 3, 4, 5, 6, 7, 8, 9, 10, 11, 12, 13, 14, 15, 16, 16};
 800157c:	4b35      	ldr	r3, [pc, #212]	; (8001654 <HAL_RCCEx_GetPeriphCLKFreq+0xdc>)
{
 800157e:	b086      	sub	sp, #24
  const uint8_t aPLLMULFactorTable[16] = {2, 3, 4, 5, 6, 7, 8, 9, 10, 11, 12, 13, 14, 15, 16, 16};
 8001580:	ad02      	add	r5, sp, #8
 8001582:	f103 0610 	add.w	r6, r3, #16
 8001586:	462a      	mov	r2, r5
 8001588:	6818      	ldr	r0, [r3, #0]
 800158a:	6859      	ldr	r1, [r3, #4]
 800158c:	3308      	adds	r3, #8
 800158e:	c203      	stmia	r2!, {r0, r1}
 8001590:	42b3      	cmp	r3, r6
 8001592:	4615      	mov	r5, r2
 8001594:	d1f7      	bne.n	8001586 <HAL_RCCEx_GetPeriphCLKFreq+0xe>
  const uint8_t aPredivFactorTable[2] = {1, 2};
 8001596:	2301      	movs	r3, #1
 8001598:	f88d 3004 	strb.w	r3, [sp, #4]
 800159c:	2302      	movs	r3, #2
  uint32_t temp_reg = 0U, frequency = 0U;

  /* Check the parameters */
  assert_param(IS_RCC_PERIPHCLOCK(PeriphClk));
  
  switch (PeriphClk)
 800159e:	429c      	cmp	r4, r3
  const uint8_t aPredivFactorTable[2] = {1, 2};
 80015a0:	f88d 3005 	strb.w	r3, [sp, #5]
  switch (PeriphClk)
 80015a4:	d047      	beq.n	8001636 <HAL_RCCEx_GetPeriphCLKFreq+0xbe>
 80015a6:	2c10      	cmp	r4, #16
 80015a8:	d017      	beq.n	80015da <HAL_RCCEx_GetPeriphCLKFreq+0x62>
 80015aa:	2c01      	cmp	r4, #1
 80015ac:	d14f      	bne.n	800164e <HAL_RCCEx_GetPeriphCLKFreq+0xd6>
    {
      /* Get RCC BDCR configuration ------------------------------------------------------*/
      temp_reg = RCC->BDCR;

      /* Check if LSE is ready if RTC clock selection is LSE */
      if (((temp_reg & RCC_BDCR_RTCSEL) == RCC_RTCCLKSOURCE_LSE) && (HAL_IS_BIT_SET(temp_reg, RCC_BDCR_LSERDY)))
 80015ae:	f240 3102 	movw	r1, #770	; 0x302
      temp_reg = RCC->BDCR;
 80015b2:	4a29      	ldr	r2, [pc, #164]	; (8001658 <HAL_RCCEx_GetPeriphCLKFreq+0xe0>)
 80015b4:	6a13      	ldr	r3, [r2, #32]
      if (((temp_reg & RCC_BDCR_RTCSEL) == RCC_RTCCLKSOURCE_LSE) && (HAL_IS_BIT_SET(temp_reg, RCC_BDCR_LSERDY)))
 80015b6:	4019      	ands	r1, r3
 80015b8:	f5b1 7f81 	cmp.w	r1, #258	; 0x102
 80015bc:	d044      	beq.n	8001648 <HAL_RCCEx_GetPeriphCLKFreq+0xd0>
      {
        frequency = LSE_VALUE;
      }
      /* Check if LSI is ready if RTC clock selection is LSI */
      else if (((temp_reg & RCC_BDCR_RTCSEL) == RCC_RTCCLKSOURCE_LSI) && (HAL_IS_BIT_SET(RCC->CSR, RCC_CSR_LSIRDY)))
 80015be:	f403 7340 	and.w	r3, r3, #768	; 0x300
 80015c2:	f5b3 7f00 	cmp.w	r3, #512	; 0x200
 80015c6:	d12d      	bne.n	8001624 <HAL_RCCEx_GetPeriphCLKFreq+0xac>
      {
        frequency = LSI_VALUE;
 80015c8:	f649 4040 	movw	r0, #40000	; 0x9c40
      else if (((temp_reg & RCC_BDCR_RTCSEL) == RCC_RTCCLKSOURCE_LSI) && (HAL_IS_BIT_SET(RCC->CSR, RCC_CSR_LSIRDY)))
 80015cc:	6a53      	ldr	r3, [r2, #36]	; 0x24
        frequency = LSI_VALUE;
 80015ce:	f013 0f02 	tst.w	r3, #2
      }
      else if (((temp_reg & RCC_BDCR_RTCSEL) == RCC_RTCCLKSOURCE_HSE_DIV128) && (HAL_IS_BIT_SET(RCC->CR, RCC_CR_HSERDY)))
      {
        frequency = HSE_VALUE / 128U;
 80015d2:	bf08      	it	eq
 80015d4:	2000      	moveq	r0, #0
    {
      break;
    }
  }
  return(frequency);
}
 80015d6:	b006      	add	sp, #24
 80015d8:	bd70      	pop	{r4, r5, r6, pc}
      temp_reg = RCC->CFGR;
 80015da:	4b1f      	ldr	r3, [pc, #124]	; (8001658 <HAL_RCCEx_GetPeriphCLKFreq+0xe0>)
 80015dc:	6859      	ldr	r1, [r3, #4]
      if (HAL_IS_BIT_SET(RCC->CR,RCC_CR_PLLON))
 80015de:	6818      	ldr	r0, [r3, #0]
 80015e0:	f010 7080 	ands.w	r0, r0, #16777216	; 0x1000000
 80015e4:	d0f7      	beq.n	80015d6 <HAL_RCCEx_GetPeriphCLKFreq+0x5e>
        pllmul = aPLLMULFactorTable[(uint32_t)(temp_reg & RCC_CFGR_PLLMULL) >> RCC_CFGR_PLLMULL_Pos];
 80015e6:	f3c1 4283 	ubfx	r2, r1, #18, #4
 80015ea:	a806      	add	r0, sp, #24
 80015ec:	4402      	add	r2, r0
 80015ee:	f812 0c10 	ldrb.w	r0, [r2, #-16]
        if ((temp_reg & RCC_CFGR_PLLSRC) != RCC_PLLSOURCE_HSI_DIV2)
 80015f2:	03ca      	lsls	r2, r1, #15
          prediv1 = aPredivFactorTable[(uint32_t)(RCC->CFGR & RCC_CFGR_PLLXTPRE) >> RCC_CFGR_PLLXTPRE_Pos];
 80015f4:	bf41      	itttt	mi
 80015f6:	685a      	ldrmi	r2, [r3, #4]
 80015f8:	a906      	addmi	r1, sp, #24
 80015fa:	f3c2 4240 	ubfxmi	r2, r2, #17, #1
 80015fe:	1852      	addmi	r2, r2, r1
 8001600:	bf44      	itt	mi
 8001602:	f812 1c14 	ldrbmi.w	r1, [r2, #-20]
            pllclk = (uint32_t)((HSE_VALUE / prediv1) * pllmul);
 8001606:	4a15      	ldrmi	r2, [pc, #84]	; (800165c <HAL_RCCEx_GetPeriphCLKFreq+0xe4>)
        if (__HAL_RCC_GET_USB_SOURCE() == RCC_USBCLKSOURCE_PLL)
 8001608:	685b      	ldr	r3, [r3, #4]
            pllclk = (uint32_t)((HSE_VALUE / prediv1) * pllmul);
 800160a:	bf4c      	ite	mi
 800160c:	fbb2 f2f1 	udivmi	r2, r2, r1
          pllclk = (uint32_t)((HSI_VALUE >> 1) * pllmul);
 8001610:	4a13      	ldrpl	r2, [pc, #76]	; (8001660 <HAL_RCCEx_GetPeriphCLKFreq+0xe8>)
        if (__HAL_RCC_GET_USB_SOURCE() == RCC_USBCLKSOURCE_PLL)
 8001612:	025b      	lsls	r3, r3, #9
          pllclk = (uint32_t)((HSI_VALUE >> 1) * pllmul);
 8001614:	fb02 f000 	mul.w	r0, r2, r0
        if (__HAL_RCC_GET_USB_SOURCE() == RCC_USBCLKSOURCE_PLL)
 8001618:	d4dd      	bmi.n	80015d6 <HAL_RCCEx_GetPeriphCLKFreq+0x5e>
          frequency = (pllclk * 2) / 3;
 800161a:	2303      	movs	r3, #3
 800161c:	0040      	lsls	r0, r0, #1
      frequency = HAL_RCC_GetPCLK2Freq() / (((__HAL_RCC_GET_ADC_SOURCE() >> RCC_CFGR_ADCPRE_Pos) + 1) * 2);
 800161e:	fbb0 f0f3 	udiv	r0, r0, r3
      break;
 8001622:	e7d8      	b.n	80015d6 <HAL_RCCEx_GetPeriphCLKFreq+0x5e>
      else if (((temp_reg & RCC_BDCR_RTCSEL) == RCC_RTCCLKSOURCE_HSE_DIV128) && (HAL_IS_BIT_SET(RCC->CR, RCC_CR_HSERDY)))
 8001624:	f5b3 7f40 	cmp.w	r3, #768	; 0x300
 8001628:	d111      	bne.n	800164e <HAL_RCCEx_GetPeriphCLKFreq+0xd6>
 800162a:	6813      	ldr	r3, [r2, #0]
        frequency = HSE_VALUE / 128U;
 800162c:	f24f 4024 	movw	r0, #62500	; 0xf424
 8001630:	f413 3f00 	tst.w	r3, #131072	; 0x20000
 8001634:	e7cd      	b.n	80015d2 <HAL_RCCEx_GetPeriphCLKFreq+0x5a>
      frequency = HAL_RCC_GetPCLK2Freq() / (((__HAL_RCC_GET_ADC_SOURCE() >> RCC_CFGR_ADCPRE_Pos) + 1) * 2);
 8001636:	f7ff ff17 	bl	8001468 <HAL_RCC_GetPCLK2Freq>
 800163a:	4b07      	ldr	r3, [pc, #28]	; (8001658 <HAL_RCCEx_GetPeriphCLKFreq+0xe0>)
 800163c:	685b      	ldr	r3, [r3, #4]
 800163e:	f3c3 3381 	ubfx	r3, r3, #14, #2
 8001642:	3301      	adds	r3, #1
 8001644:	005b      	lsls	r3, r3, #1
 8001646:	e7ea      	b.n	800161e <HAL_RCCEx_GetPeriphCLKFreq+0xa6>
        frequency = LSE_VALUE;
 8001648:	f44f 4000 	mov.w	r0, #32768	; 0x8000
 800164c:	e7c3      	b.n	80015d6 <HAL_RCCEx_GetPeriphCLKFreq+0x5e>
        frequency = 0U;
 800164e:	2000      	movs	r0, #0
 8001650:	e7c1      	b.n	80015d6 <HAL_RCCEx_GetPeriphCLKFreq+0x5e>
 8001652:	bf00      	nop
 8001654:	08003b6c 	.word	0x08003b6c
 8001658:	40021000 	.word	0x40021000
 800165c:	007a1200 	.word	0x007a1200
 8001660:	003d0900 	.word	0x003d0900

08001664 <RTC_EnterInitMode>:
  * @param  hrtc   pointer to a RTC_HandleTypeDef structure that contains
  *                the configuration information for RTC.
  * @retval HAL status
  */
static HAL_StatusTypeDef RTC_EnterInitMode(RTC_HandleTypeDef* hrtc)
{
 8001664:	b538      	push	{r3, r4, r5, lr}
 8001666:	4604      	mov	r4, r0
  uint32_t tickstart = 0U;
  
  tickstart = HAL_GetTick();
 8001668:	f7fe fdba 	bl	80001e0 <HAL_GetTick>
 800166c:	4605      	mov	r5, r0
  /* Wait till RTC is in INIT state and if Time out is reached exit */
  while((hrtc->Instance->CRL & RTC_CRL_RTOFF) == (uint32_t)RESET)
 800166e:	6823      	ldr	r3, [r4, #0]
 8001670:	685a      	ldr	r2, [r3, #4]
 8001672:	0692      	lsls	r2, r2, #26
 8001674:	d505      	bpl.n	8001682 <RTC_EnterInitMode+0x1e>
      return HAL_TIMEOUT;
    } 
  }

  /* Disable the write protection for RTC registers */
  __HAL_RTC_WRITEPROTECTION_DISABLE(hrtc);
 8001676:	685a      	ldr	r2, [r3, #4]
  
  
  return HAL_OK;  
 8001678:	2000      	movs	r0, #0
  __HAL_RTC_WRITEPROTECTION_DISABLE(hrtc);
 800167a:	f042 0210 	orr.w	r2, r2, #16
 800167e:	605a      	str	r2, [r3, #4]
  return HAL_OK;  
 8001680:	bd38      	pop	{r3, r4, r5, pc}
    if((HAL_GetTick() - tickstart) >  RTC_TIMEOUT_VALUE)
 8001682:	f7fe fdad 	bl	80001e0 <HAL_GetTick>
 8001686:	1b40      	subs	r0, r0, r5
 8001688:	f5b0 7f7a 	cmp.w	r0, #1000	; 0x3e8
 800168c:	d9ef      	bls.n	800166e <RTC_EnterInitMode+0xa>
      return HAL_TIMEOUT;
 800168e:	2003      	movs	r0, #3
}
 8001690:	bd38      	pop	{r3, r4, r5, pc}

08001692 <RTC_ExitInitMode>:
static HAL_StatusTypeDef RTC_ExitInitMode(RTC_HandleTypeDef* hrtc)
{
  uint32_t tickstart = 0U;
  
  /* Disable the write protection for RTC registers */
  __HAL_RTC_WRITEPROTECTION_ENABLE(hrtc);
 8001692:	6802      	ldr	r2, [r0, #0]
{
 8001694:	b538      	push	{r3, r4, r5, lr}
  __HAL_RTC_WRITEPROTECTION_ENABLE(hrtc);
 8001696:	6853      	ldr	r3, [r2, #4]
{
 8001698:	4604      	mov	r4, r0
  __HAL_RTC_WRITEPROTECTION_ENABLE(hrtc);
 800169a:	f023 0310 	bic.w	r3, r3, #16
 800169e:	6053      	str	r3, [r2, #4]
  
  tickstart = HAL_GetTick();
 80016a0:	f7fe fd9e 	bl	80001e0 <HAL_GetTick>
 80016a4:	4605      	mov	r5, r0
  /* Wait till RTC is in INIT state and if Time out is reached exit */
  while((hrtc->Instance->CRL & RTC_CRL_RTOFF) == (uint32_t)RESET)
 80016a6:	6823      	ldr	r3, [r4, #0]
 80016a8:	685b      	ldr	r3, [r3, #4]
 80016aa:	069b      	lsls	r3, r3, #26
 80016ac:	d501      	bpl.n	80016b2 <RTC_ExitInitMode+0x20>
    {       
      return HAL_TIMEOUT;
    } 
  }
  
  return HAL_OK;  
 80016ae:	2000      	movs	r0, #0
 80016b0:	bd38      	pop	{r3, r4, r5, pc}
    if((HAL_GetTick() - tickstart) >  RTC_TIMEOUT_VALUE)
 80016b2:	f7fe fd95 	bl	80001e0 <HAL_GetTick>
 80016b6:	1b40      	subs	r0, r0, r5
 80016b8:	f5b0 7f7a 	cmp.w	r0, #1000	; 0x3e8
 80016bc:	d9f3      	bls.n	80016a6 <RTC_ExitInitMode+0x14>
      return HAL_TIMEOUT;
 80016be:	2003      	movs	r0, #3
}
 80016c0:	bd38      	pop	{r3, r4, r5, pc}

080016c2 <HAL_RTC_WaitForSynchro>:
{
 80016c2:	b538      	push	{r3, r4, r5, lr}
  if(hrtc == NULL)
 80016c4:	4604      	mov	r4, r0
 80016c6:	b1a8      	cbz	r0, 80016f4 <HAL_RTC_WaitForSynchro+0x32>
  CLEAR_BIT(hrtc->Instance->CRL, RTC_FLAG_RSF);
 80016c8:	6802      	ldr	r2, [r0, #0]
 80016ca:	6853      	ldr	r3, [r2, #4]
 80016cc:	f023 0308 	bic.w	r3, r3, #8
 80016d0:	6053      	str	r3, [r2, #4]
  tickstart = HAL_GetTick();
 80016d2:	f7fe fd85 	bl	80001e0 <HAL_GetTick>
 80016d6:	4605      	mov	r5, r0
  while((hrtc->Instance->CRL & RTC_FLAG_RSF) == (uint32_t)RESET)
 80016d8:	6823      	ldr	r3, [r4, #0]
 80016da:	685b      	ldr	r3, [r3, #4]
 80016dc:	071b      	lsls	r3, r3, #28
 80016de:	d501      	bpl.n	80016e4 <HAL_RTC_WaitForSynchro+0x22>
  return HAL_OK;
 80016e0:	2000      	movs	r0, #0
 80016e2:	bd38      	pop	{r3, r4, r5, pc}
    if((HAL_GetTick() - tickstart ) >  RTC_TIMEOUT_VALUE)
 80016e4:	f7fe fd7c 	bl	80001e0 <HAL_GetTick>
 80016e8:	1b40      	subs	r0, r0, r5
 80016ea:	f5b0 7f7a 	cmp.w	r0, #1000	; 0x3e8
 80016ee:	d9f3      	bls.n	80016d8 <HAL_RTC_WaitForSynchro+0x16>
      return HAL_TIMEOUT;
 80016f0:	2003      	movs	r0, #3
}
 80016f2:	bd38      	pop	{r3, r4, r5, pc}
     return HAL_ERROR;
 80016f4:	2001      	movs	r0, #1
 80016f6:	bd38      	pop	{r3, r4, r5, pc}

080016f8 <HAL_RTC_Init>:
{
 80016f8:	b510      	push	{r4, lr}
  if(hrtc == NULL)
 80016fa:	4604      	mov	r4, r0
 80016fc:	b170      	cbz	r0, 800171c <HAL_RTC_Init+0x24>
  if(hrtc->State == HAL_RTC_STATE_RESET)
 80016fe:	7c43      	ldrb	r3, [r0, #17]
 8001700:	f003 02ff 	and.w	r2, r3, #255	; 0xff
 8001704:	b913      	cbnz	r3, 800170c <HAL_RTC_Init+0x14>
    hrtc->Lock = HAL_UNLOCKED;
 8001706:	7402      	strb	r2, [r0, #16]
    HAL_RTC_MspInit(hrtc);
 8001708:	f001 ff42 	bl	8003590 <HAL_RTC_MspInit>
  hrtc->State = HAL_RTC_STATE_BUSY;  
 800170c:	2302      	movs	r3, #2
  if(HAL_RTC_WaitForSynchro(hrtc) != HAL_OK)
 800170e:	4620      	mov	r0, r4
  hrtc->State = HAL_RTC_STATE_BUSY;  
 8001710:	7463      	strb	r3, [r4, #17]
  if(HAL_RTC_WaitForSynchro(hrtc) != HAL_OK)
 8001712:	f7ff ffd6 	bl	80016c2 <HAL_RTC_WaitForSynchro>
 8001716:	b118      	cbz	r0, 8001720 <HAL_RTC_Init+0x28>
        hrtc->State = HAL_RTC_STATE_ERROR;
 8001718:	2304      	movs	r3, #4
 800171a:	7463      	strb	r3, [r4, #17]
     return HAL_ERROR;
 800171c:	2001      	movs	r0, #1
}
 800171e:	bd10      	pop	{r4, pc}
  if(RTC_EnterInitMode(hrtc) != HAL_OK)
 8001720:	4620      	mov	r0, r4
 8001722:	f7ff ff9f 	bl	8001664 <RTC_EnterInitMode>
 8001726:	2800      	cmp	r0, #0
 8001728:	d1f6      	bne.n	8001718 <HAL_RTC_Init+0x20>
    CLEAR_BIT(hrtc->Instance->CRL, (RTC_FLAG_OW | RTC_FLAG_ALRAF | RTC_FLAG_SEC));
 800172a:	6822      	ldr	r2, [r4, #0]
    if(hrtc->Init.OutPut != RTC_OUTPUTSOURCE_NONE)
 800172c:	68a0      	ldr	r0, [r4, #8]
    CLEAR_BIT(hrtc->Instance->CRL, (RTC_FLAG_OW | RTC_FLAG_ALRAF | RTC_FLAG_SEC));
 800172e:	6853      	ldr	r3, [r2, #4]
 8001730:	f023 0307 	bic.w	r3, r3, #7
 8001734:	6053      	str	r3, [r2, #4]
 8001736:	4a17      	ldr	r2, [pc, #92]	; (8001794 <HAL_RTC_Init+0x9c>)
    if(hrtc->Init.OutPut != RTC_OUTPUTSOURCE_NONE)
 8001738:	b118      	cbz	r0, 8001742 <HAL_RTC_Init+0x4a>
      CLEAR_BIT(BKP->CR, BKP_CR_TPE);
 800173a:	6b11      	ldr	r1, [r2, #48]	; 0x30
 800173c:	f021 0101 	bic.w	r1, r1, #1
 8001740:	6311      	str	r1, [r2, #48]	; 0x30
    MODIFY_REG(BKP->RTCCR, (BKP_RTCCR_CCO | BKP_RTCCR_ASOE | BKP_RTCCR_ASOS), hrtc->Init.OutPut);
 8001742:	6ad3      	ldr	r3, [r2, #44]	; 0x2c
 8001744:	f423 7360 	bic.w	r3, r3, #896	; 0x380
 8001748:	4303      	orrs	r3, r0
 800174a:	62d3      	str	r3, [r2, #44]	; 0x2c
    if (hrtc->Init.AsynchPrediv != RTC_AUTO_1_SECOND)
 800174c:	6860      	ldr	r0, [r4, #4]
 800174e:	1c43      	adds	r3, r0, #1
 8001750:	d105      	bne.n	800175e <HAL_RTC_Init+0x66>
      prescaler = HAL_RCCEx_GetPeriphCLKFreq(RCC_PERIPHCLK_RTC);
 8001752:	2001      	movs	r0, #1
 8001754:	f7ff ff10 	bl	8001578 <HAL_RCCEx_GetPeriphCLKFreq>
      if (prescaler == 0U)
 8001758:	2800      	cmp	r0, #0
 800175a:	d0dd      	beq.n	8001718 <HAL_RTC_Init+0x20>
        prescaler = prescaler - 1U;
 800175c:	3801      	subs	r0, #1
    MODIFY_REG(hrtc->Instance->PRLH, RTC_PRLH_PRL, (prescaler >> 16U));
 800175e:	6822      	ldr	r2, [r4, #0]
 8001760:	6893      	ldr	r3, [r2, #8]
 8001762:	f023 030f 	bic.w	r3, r3, #15
 8001766:	ea43 4310 	orr.w	r3, r3, r0, lsr #16
 800176a:	6093      	str	r3, [r2, #8]
    MODIFY_REG(hrtc->Instance->PRLL, RTC_PRLL_PRL, (prescaler & RTC_PRLL_PRL));
 800176c:	68d3      	ldr	r3, [r2, #12]
 800176e:	b280      	uxth	r0, r0
 8001770:	0c1b      	lsrs	r3, r3, #16
 8001772:	041b      	lsls	r3, r3, #16
 8001774:	4318      	orrs	r0, r3
 8001776:	60d0      	str	r0, [r2, #12]
    if(RTC_ExitInitMode(hrtc) != HAL_OK)
 8001778:	4620      	mov	r0, r4
 800177a:	f7ff ff8a 	bl	8001692 <RTC_ExitInitMode>
 800177e:	2301      	movs	r3, #1
 8001780:	b110      	cbz	r0, 8001788 <HAL_RTC_Init+0x90>
      hrtc->State = HAL_RTC_STATE_ERROR;
 8001782:	2204      	movs	r2, #4
 8001784:	7462      	strb	r2, [r4, #17]
 8001786:	e7c9      	b.n	800171c <HAL_RTC_Init+0x24>
    hrtc->DateToUpdate.Year = 0x00U;
 8001788:	73e0      	strb	r0, [r4, #15]
    hrtc->DateToUpdate.Month = RTC_MONTH_JANUARY;
 800178a:	7363      	strb	r3, [r4, #13]
    hrtc->DateToUpdate.Date = 0x01U;
 800178c:	73a3      	strb	r3, [r4, #14]
    hrtc->State = HAL_RTC_STATE_READY;
 800178e:	7463      	strb	r3, [r4, #17]
    return HAL_OK;
 8001790:	bd10      	pop	{r4, pc}
 8001792:	bf00      	nop
 8001794:	40006c00 	.word	0x40006c00

08001798 <HAL_SPI_Init>:
  * @param  hspi: pointer to a SPI_HandleTypeDef structure that contains
  *                the configuration information for SPI module.
  * @retval HAL status
  */
HAL_StatusTypeDef HAL_SPI_Init(SPI_HandleTypeDef *hspi)
{
 8001798:	b510      	push	{r4, lr}
  /* Check the SPI handle allocation */
  if(hspi == NULL)
 800179a:	4604      	mov	r4, r0
 800179c:	2800      	cmp	r0, #0
 800179e:	d034      	beq.n	800180a <HAL_SPI_Init+0x72>
  if(hspi->Init.CRCCalculation == SPI_CRCCALCULATION_ENABLE)
  {
    assert_param(IS_SPI_CRC_POLYNOMIAL(hspi->Init.CRCPolynomial));
  }
#else
  hspi->Init.CRCCalculation = SPI_CRCCALCULATION_DISABLE;
 80017a0:	2300      	movs	r3, #0
 80017a2:	6283      	str	r3, [r0, #40]	; 0x28
#endif /* USE_SPI_CRC */

  if(hspi->State == HAL_SPI_STATE_RESET)
 80017a4:	f890 3051 	ldrb.w	r3, [r0, #81]	; 0x51
 80017a8:	b90b      	cbnz	r3, 80017ae <HAL_SPI_Init+0x16>
  {
    /* Init the low level hardware : GPIO, CLOCK, NVIC... */
    HAL_SPI_MspInit(hspi);
 80017aa:	f001 ff31 	bl	8003610 <HAL_SPI_MspInit>
  }
  
  hspi->State = HAL_SPI_STATE_BUSY;
 80017ae:	2302      	movs	r3, #2

  /* Disble the selected SPI peripheral */
  __HAL_SPI_DISABLE(hspi);
 80017b0:	6821      	ldr	r1, [r4, #0]
  hspi->State = HAL_SPI_STATE_BUSY;
 80017b2:	f884 3051 	strb.w	r3, [r4, #81]	; 0x51
  __HAL_SPI_DISABLE(hspi);
 80017b6:	680b      	ldr	r3, [r1, #0]

  /*----------------------- SPIx CR1 & CR2 Configuration ---------------------*/
  /* Configure : SPI Mode, Communication Mode, Data size, Clock polarity and phase, NSS management,
  Communication speed, First bit and CRC calculation state */
  WRITE_REG(hspi->Instance->CR1, (hspi->Init.Mode | hspi->Init.Direction | hspi->Init.DataSize |
 80017b8:	68a0      	ldr	r0, [r4, #8]
  __HAL_SPI_DISABLE(hspi);
 80017ba:	f023 0340 	bic.w	r3, r3, #64	; 0x40
 80017be:	600b      	str	r3, [r1, #0]
  WRITE_REG(hspi->Instance->CR1, (hspi->Init.Mode | hspi->Init.Direction | hspi->Init.DataSize |
 80017c0:	6863      	ldr	r3, [r4, #4]
 80017c2:	69a2      	ldr	r2, [r4, #24]
 80017c4:	4303      	orrs	r3, r0
 80017c6:	68e0      	ldr	r0, [r4, #12]
 80017c8:	4303      	orrs	r3, r0
 80017ca:	6920      	ldr	r0, [r4, #16]
 80017cc:	4303      	orrs	r3, r0
 80017ce:	6960      	ldr	r0, [r4, #20]
 80017d0:	4303      	orrs	r3, r0
 80017d2:	69e0      	ldr	r0, [r4, #28]
 80017d4:	4303      	orrs	r3, r0
 80017d6:	6a20      	ldr	r0, [r4, #32]
 80017d8:	4303      	orrs	r3, r0
 80017da:	6aa0      	ldr	r0, [r4, #40]	; 0x28
 80017dc:	4303      	orrs	r3, r0
 80017de:	f402 7000 	and.w	r0, r2, #512	; 0x200
 80017e2:	4303      	orrs	r3, r0
 80017e4:	600b      	str	r3, [r1, #0]
                                  hspi->Init.CLKPolarity | hspi->Init.CLKPhase | (hspi->Init.NSS & SPI_CR1_SSM) |
                                  hspi->Init.BaudRatePrescaler | hspi->Init.FirstBit  | hspi->Init.CRCCalculation) );

  /* Configure : NSS management */
  WRITE_REG(hspi->Instance->CR2, (((hspi->Init.NSS >> 16U) & SPI_CR2_SSOE) | hspi->Init.TIMode));
 80017e6:	0c12      	lsrs	r2, r2, #16
 80017e8:	6a63      	ldr	r3, [r4, #36]	; 0x24
 80017ea:	f002 0204 	and.w	r2, r2, #4
 80017ee:	431a      	orrs	r2, r3

  /*---------------------------- SPIx CRCPOLY Configuration ------------------*/
  /* Configure : CRC Polynomial */
  WRITE_REG(hspi->Instance->CRCPR, hspi->Init.CRCPolynomial);
 80017f0:	6ae3      	ldr	r3, [r4, #44]	; 0x2c
  WRITE_REG(hspi->Instance->CR2, (((hspi->Init.NSS >> 16U) & SPI_CR2_SSOE) | hspi->Init.TIMode));
 80017f2:	604a      	str	r2, [r1, #4]
  WRITE_REG(hspi->Instance->CRCPR, hspi->Init.CRCPolynomial);
 80017f4:	610b      	str	r3, [r1, #16]

#if defined(SPI_I2SCFGR_I2SMOD)
  /* Activate the SPI mode (Make sure that I2SMOD bit in I2SCFGR register is reset) */
  CLEAR_BIT(hspi->Instance->I2SCFGR, SPI_I2SCFGR_I2SMOD);
 80017f6:	69cb      	ldr	r3, [r1, #28]
#else
  uCRCErrorWorkaroundCheck = 0U;
#endif /* STM32F101xE || STM32F103xE */
#endif /* USE_SPI_CRC */

  hspi->ErrorCode = HAL_SPI_ERROR_NONE;
 80017f8:	2000      	movs	r0, #0
  CLEAR_BIT(hspi->Instance->I2SCFGR, SPI_I2SCFGR_I2SMOD);
 80017fa:	f423 6300 	bic.w	r3, r3, #2048	; 0x800
 80017fe:	61cb      	str	r3, [r1, #28]
  hspi->State = HAL_SPI_STATE_READY;
 8001800:	2301      	movs	r3, #1
  hspi->ErrorCode = HAL_SPI_ERROR_NONE;
 8001802:	6560      	str	r0, [r4, #84]	; 0x54
  hspi->State = HAL_SPI_STATE_READY;
 8001804:	f884 3051 	strb.w	r3, [r4, #81]	; 0x51
  
  return HAL_OK;
 8001808:	bd10      	pop	{r4, pc}
    return HAL_ERROR;
 800180a:	2001      	movs	r0, #1
}
 800180c:	bd10      	pop	{r4, pc}

0800180e <UART_EndRxTransfer>:
  * @retval None
  */
static void UART_EndRxTransfer(UART_HandleTypeDef *huart)
{
  /* Disable RXNE, PE and ERR (Frame error, noise error, overrun error) interrupts */
  CLEAR_BIT(huart->Instance->CR1, (USART_CR1_RXNEIE | USART_CR1_PEIE));
 800180e:	6803      	ldr	r3, [r0, #0]
 8001810:	68da      	ldr	r2, [r3, #12]
 8001812:	f422 7290 	bic.w	r2, r2, #288	; 0x120
 8001816:	60da      	str	r2, [r3, #12]
  CLEAR_BIT(huart->Instance->CR3, USART_CR3_EIE);
 8001818:	695a      	ldr	r2, [r3, #20]
 800181a:	f022 0201 	bic.w	r2, r2, #1
 800181e:	615a      	str	r2, [r3, #20]

  /* At end of Rx process, restore huart->RxState to Ready */
  huart->RxState = HAL_UART_STATE_READY;
 8001820:	2320      	movs	r3, #32
 8001822:	f880 303a 	strb.w	r3, [r0, #58]	; 0x3a
 8001826:	4770      	bx	lr

08001828 <UART_SetConfig>:
  * @param  huart: pointer to a UART_HandleTypeDef structure that contains
  *                the configuration information for the specified UART module.
  * @retval None
  */
static void UART_SetConfig(UART_HandleTypeDef *huart)
{
 8001828:	e92d 47f0 	stmdb	sp!, {r4, r5, r6, r7, r8, r9, sl, lr}
  assert_param(IS_UART_MODE(huart->Init.Mode));

  /*------- UART-associated USART registers setting : CR2 Configuration ------*/
  /* Configure the UART Stop Bits: Set STOP[13:12] bits according 
   * to huart->Init.StopBits value */
  MODIFY_REG(huart->Instance->CR2, USART_CR2_STOP, huart->Init.StopBits);
 800182c:	6805      	ldr	r5, [r0, #0]
 800182e:	68c2      	ldr	r2, [r0, #12]
 8001830:	692b      	ldr	r3, [r5, #16]
  tmpreg |= (uint32_t)huart->Init.WordLength | huart->Init.Parity | huart->Init.Mode | huart->Init.OverSampling;
  MODIFY_REG(huart->Instance->CR1, 
             (uint32_t)(USART_CR1_M | USART_CR1_PCE | USART_CR1_PS | USART_CR1_TE | USART_CR1_RE | USART_CR1_OVER8), 
             tmpreg);
#else
  tmpreg |= (uint32_t)huart->Init.WordLength | huart->Init.Parity | huart->Init.Mode;
 8001832:	6901      	ldr	r1, [r0, #16]
  MODIFY_REG(huart->Instance->CR2, USART_CR2_STOP, huart->Init.StopBits);
 8001834:	f423 5340 	bic.w	r3, r3, #12288	; 0x3000
 8001838:	4313      	orrs	r3, r2
 800183a:	612b      	str	r3, [r5, #16]
  tmpreg |= (uint32_t)huart->Init.WordLength | huart->Init.Parity | huart->Init.Mode;
 800183c:	6883      	ldr	r3, [r0, #8]
  MODIFY_REG(huart->Instance->CR1, 
 800183e:	68ea      	ldr	r2, [r5, #12]
  tmpreg |= (uint32_t)huart->Init.WordLength | huart->Init.Parity | huart->Init.Mode;
 8001840:	430b      	orrs	r3, r1
 8001842:	6941      	ldr	r1, [r0, #20]
  MODIFY_REG(huart->Instance->CR1, 
 8001844:	f422 52b0 	bic.w	r2, r2, #5632	; 0x1600
 8001848:	f022 020c 	bic.w	r2, r2, #12
  tmpreg |= (uint32_t)huart->Init.WordLength | huart->Init.Parity | huart->Init.Mode;
 800184c:	430b      	orrs	r3, r1
  MODIFY_REG(huart->Instance->CR1, 
 800184e:	4313      	orrs	r3, r2
 8001850:	60eb      	str	r3, [r5, #12]
             tmpreg);
#endif /* USART_CR1_OVER8 */

  /*------- UART-associated USART registers setting : CR3 Configuration ------*/
  /* Configure the UART HFC: Set CTSE and RTSE bits according to huart->Init.HwFlowCtl value */
  MODIFY_REG(huart->Instance->CR3, (USART_CR3_RTSE | USART_CR3_CTSE), huart->Init.HwFlowCtl);
 8001852:	696b      	ldr	r3, [r5, #20]
 8001854:	6982      	ldr	r2, [r0, #24]
 8001856:	f423 7340 	bic.w	r3, r3, #768	; 0x300
 800185a:	4313      	orrs	r3, r2
 800185c:	616b      	str	r3, [r5, #20]
      huart->Instance->BRR = UART_BRR_SAMPLING16(HAL_RCC_GetPCLK1Freq(), huart->Init.BaudRate);
    }
  }
#else
  /*-------------------------- USART BRR Configuration ---------------------*/
  if(huart->Instance == USART1)
 800185e:	4b40      	ldr	r3, [pc, #256]	; (8001960 <UART_SetConfig+0x138>)
{
 8001860:	4681      	mov	r9, r0
  if(huart->Instance == USART1)
 8001862:	429d      	cmp	r5, r3
 8001864:	f04f 0419 	mov.w	r4, #25
 8001868:	d146      	bne.n	80018f8 <UART_SetConfig+0xd0>
  {
    huart->Instance->BRR = UART_BRR_SAMPLING16(HAL_RCC_GetPCLK2Freq(), huart->Init.BaudRate);
 800186a:	f7ff fdfd 	bl	8001468 <HAL_RCC_GetPCLK2Freq>
 800186e:	fb04 f300 	mul.w	r3, r4, r0
 8001872:	f8d9 6004 	ldr.w	r6, [r9, #4]
 8001876:	f04f 0864 	mov.w	r8, #100	; 0x64
 800187a:	00b6      	lsls	r6, r6, #2
 800187c:	fbb3 f3f6 	udiv	r3, r3, r6
 8001880:	fbb3 f3f8 	udiv	r3, r3, r8
 8001884:	011e      	lsls	r6, r3, #4
 8001886:	f7ff fdef 	bl	8001468 <HAL_RCC_GetPCLK2Freq>
 800188a:	4360      	muls	r0, r4
 800188c:	f8d9 3004 	ldr.w	r3, [r9, #4]
 8001890:	009b      	lsls	r3, r3, #2
 8001892:	fbb0 f7f3 	udiv	r7, r0, r3
 8001896:	f7ff fde7 	bl	8001468 <HAL_RCC_GetPCLK2Freq>
 800189a:	4360      	muls	r0, r4
 800189c:	f8d9 3004 	ldr.w	r3, [r9, #4]
 80018a0:	009b      	lsls	r3, r3, #2
 80018a2:	fbb0 f3f3 	udiv	r3, r0, r3
 80018a6:	fbb3 f3f8 	udiv	r3, r3, r8
 80018aa:	fb08 7313 	mls	r3, r8, r3, r7
 80018ae:	011b      	lsls	r3, r3, #4
 80018b0:	3332      	adds	r3, #50	; 0x32
 80018b2:	fbb3 f3f8 	udiv	r3, r3, r8
 80018b6:	f003 07f0 	and.w	r7, r3, #240	; 0xf0
 80018ba:	f7ff fdd5 	bl	8001468 <HAL_RCC_GetPCLK2Freq>
 80018be:	4360      	muls	r0, r4
 80018c0:	f8d9 2004 	ldr.w	r2, [r9, #4]
 80018c4:	0092      	lsls	r2, r2, #2
 80018c6:	fbb0 faf2 	udiv	sl, r0, r2
 80018ca:	f7ff fdcd 	bl	8001468 <HAL_RCC_GetPCLK2Freq>
  }
  else
  {
    huart->Instance->BRR = UART_BRR_SAMPLING16(HAL_RCC_GetPCLK1Freq(), huart->Init.BaudRate);
 80018ce:	4360      	muls	r0, r4
 80018d0:	f8d9 3004 	ldr.w	r3, [r9, #4]
 80018d4:	009b      	lsls	r3, r3, #2
 80018d6:	fbb0 f3f3 	udiv	r3, r0, r3
 80018da:	fbb3 f3f8 	udiv	r3, r3, r8
 80018de:	fb08 a313 	mls	r3, r8, r3, sl
 80018e2:	011b      	lsls	r3, r3, #4
 80018e4:	3332      	adds	r3, #50	; 0x32
 80018e6:	fbb3 f3f8 	udiv	r3, r3, r8
 80018ea:	f003 030f 	and.w	r3, r3, #15
 80018ee:	433b      	orrs	r3, r7
 80018f0:	4433      	add	r3, r6
 80018f2:	60ab      	str	r3, [r5, #8]
 80018f4:	e8bd 87f0 	ldmia.w	sp!, {r4, r5, r6, r7, r8, r9, sl, pc}
 80018f8:	f7ff fda6 	bl	8001448 <HAL_RCC_GetPCLK1Freq>
 80018fc:	fb04 f300 	mul.w	r3, r4, r0
 8001900:	f8d9 6004 	ldr.w	r6, [r9, #4]
 8001904:	f04f 0864 	mov.w	r8, #100	; 0x64
 8001908:	00b6      	lsls	r6, r6, #2
 800190a:	fbb3 f3f6 	udiv	r3, r3, r6
 800190e:	fbb3 f3f8 	udiv	r3, r3, r8
 8001912:	011e      	lsls	r6, r3, #4
 8001914:	f7ff fd98 	bl	8001448 <HAL_RCC_GetPCLK1Freq>
 8001918:	4360      	muls	r0, r4
 800191a:	f8d9 3004 	ldr.w	r3, [r9, #4]
 800191e:	009b      	lsls	r3, r3, #2
 8001920:	fbb0 f7f3 	udiv	r7, r0, r3
 8001924:	f7ff fd90 	bl	8001448 <HAL_RCC_GetPCLK1Freq>
 8001928:	4360      	muls	r0, r4
 800192a:	f8d9 3004 	ldr.w	r3, [r9, #4]
 800192e:	009b      	lsls	r3, r3, #2
 8001930:	fbb0 f3f3 	udiv	r3, r0, r3
 8001934:	fbb3 f3f8 	udiv	r3, r3, r8
 8001938:	fb08 7313 	mls	r3, r8, r3, r7
 800193c:	011b      	lsls	r3, r3, #4
 800193e:	3332      	adds	r3, #50	; 0x32
 8001940:	fbb3 f3f8 	udiv	r3, r3, r8
 8001944:	f003 07f0 	and.w	r7, r3, #240	; 0xf0
 8001948:	f7ff fd7e 	bl	8001448 <HAL_RCC_GetPCLK1Freq>
 800194c:	4360      	muls	r0, r4
 800194e:	f8d9 2004 	ldr.w	r2, [r9, #4]
 8001952:	0092      	lsls	r2, r2, #2
 8001954:	fbb0 faf2 	udiv	sl, r0, r2
 8001958:	f7ff fd76 	bl	8001448 <HAL_RCC_GetPCLK1Freq>
 800195c:	e7b7      	b.n	80018ce <UART_SetConfig+0xa6>
 800195e:	bf00      	nop
 8001960:	40013800 	.word	0x40013800

08001964 <HAL_UART_Init>:
{
 8001964:	b510      	push	{r4, lr}
  if(huart == NULL)
 8001966:	4604      	mov	r4, r0
 8001968:	b340      	cbz	r0, 80019bc <HAL_UART_Init+0x58>
  if(huart->gState == HAL_UART_STATE_RESET)
 800196a:	f890 3039 	ldrb.w	r3, [r0, #57]	; 0x39
 800196e:	f003 02ff 	and.w	r2, r3, #255	; 0xff
 8001972:	b91b      	cbnz	r3, 800197c <HAL_UART_Init+0x18>
    huart->Lock = HAL_UNLOCKED;
 8001974:	f880 2038 	strb.w	r2, [r0, #56]	; 0x38
    HAL_UART_MspInit(huart);
 8001978:	f001 ff56 	bl	8003828 <HAL_UART_MspInit>
  huart->gState = HAL_UART_STATE_BUSY;
 800197c:	2324      	movs	r3, #36	; 0x24
  __HAL_UART_DISABLE(huart);
 800197e:	6822      	ldr	r2, [r4, #0]
  huart->gState = HAL_UART_STATE_BUSY;
 8001980:	f884 3039 	strb.w	r3, [r4, #57]	; 0x39
  __HAL_UART_DISABLE(huart);
 8001984:	68d3      	ldr	r3, [r2, #12]
  UART_SetConfig(huart);
 8001986:	4620      	mov	r0, r4
  __HAL_UART_DISABLE(huart);
 8001988:	f423 5300 	bic.w	r3, r3, #8192	; 0x2000
 800198c:	60d3      	str	r3, [r2, #12]
  UART_SetConfig(huart);
 800198e:	f7ff ff4b 	bl	8001828 <UART_SetConfig>
  CLEAR_BIT(huart->Instance->CR2, (USART_CR2_LINEN | USART_CR2_CLKEN));
 8001992:	6823      	ldr	r3, [r4, #0]
  huart->ErrorCode = HAL_UART_ERROR_NONE;
 8001994:	2000      	movs	r0, #0
  CLEAR_BIT(huart->Instance->CR2, (USART_CR2_LINEN | USART_CR2_CLKEN));
 8001996:	691a      	ldr	r2, [r3, #16]
 8001998:	f422 4290 	bic.w	r2, r2, #18432	; 0x4800
 800199c:	611a      	str	r2, [r3, #16]
  CLEAR_BIT(huart->Instance->CR3, (USART_CR3_SCEN | USART_CR3_HDSEL | USART_CR3_IREN));
 800199e:	695a      	ldr	r2, [r3, #20]
 80019a0:	f022 022a 	bic.w	r2, r2, #42	; 0x2a
 80019a4:	615a      	str	r2, [r3, #20]
  __HAL_UART_ENABLE(huart);
 80019a6:	68da      	ldr	r2, [r3, #12]
 80019a8:	f442 5200 	orr.w	r2, r2, #8192	; 0x2000
 80019ac:	60da      	str	r2, [r3, #12]
  huart->gState= HAL_UART_STATE_READY;
 80019ae:	2320      	movs	r3, #32
  huart->ErrorCode = HAL_UART_ERROR_NONE;
 80019b0:	63e0      	str	r0, [r4, #60]	; 0x3c
  huart->gState= HAL_UART_STATE_READY;
 80019b2:	f884 3039 	strb.w	r3, [r4, #57]	; 0x39
  huart->RxState= HAL_UART_STATE_READY;
 80019b6:	f884 303a 	strb.w	r3, [r4, #58]	; 0x3a
  return HAL_OK;
 80019ba:	bd10      	pop	{r4, pc}
    return HAL_ERROR;
 80019bc:	2001      	movs	r0, #1
}
 80019be:	bd10      	pop	{r4, pc}

080019c0 <HAL_LIN_Init>:
{
 80019c0:	b538      	push	{r3, r4, r5, lr}
 80019c2:	460d      	mov	r5, r1
  if(huart == NULL)
 80019c4:	4604      	mov	r4, r0
 80019c6:	2800      	cmp	r0, #0
 80019c8:	d031      	beq.n	8001a2e <HAL_LIN_Init+0x6e>
  if(huart->gState == HAL_UART_STATE_RESET)
 80019ca:	f890 3039 	ldrb.w	r3, [r0, #57]	; 0x39
 80019ce:	f003 02ff 	and.w	r2, r3, #255	; 0xff
 80019d2:	b91b      	cbnz	r3, 80019dc <HAL_LIN_Init+0x1c>
    huart->Lock = HAL_UNLOCKED;
 80019d4:	f880 2038 	strb.w	r2, [r0, #56]	; 0x38
    HAL_UART_MspInit(huart);
 80019d8:	f001 ff26 	bl	8003828 <HAL_UART_MspInit>
  huart->gState = HAL_UART_STATE_BUSY;
 80019dc:	2324      	movs	r3, #36	; 0x24
  __HAL_UART_DISABLE(huart);
 80019de:	6822      	ldr	r2, [r4, #0]
  huart->gState = HAL_UART_STATE_BUSY;
 80019e0:	f884 3039 	strb.w	r3, [r4, #57]	; 0x39
  __HAL_UART_DISABLE(huart);
 80019e4:	68d3      	ldr	r3, [r2, #12]
  UART_SetConfig(huart);
 80019e6:	4620      	mov	r0, r4
  __HAL_UART_DISABLE(huart);
 80019e8:	f423 5300 	bic.w	r3, r3, #8192	; 0x2000
 80019ec:	60d3      	str	r3, [r2, #12]
  UART_SetConfig(huart);
 80019ee:	f7ff ff1b 	bl	8001828 <UART_SetConfig>
  CLEAR_BIT(huart->Instance->CR2, USART_CR2_CLKEN);
 80019f2:	6823      	ldr	r3, [r4, #0]
  huart->ErrorCode = HAL_UART_ERROR_NONE;
 80019f4:	2000      	movs	r0, #0
  CLEAR_BIT(huart->Instance->CR2, USART_CR2_CLKEN);
 80019f6:	691a      	ldr	r2, [r3, #16]
 80019f8:	f422 6200 	bic.w	r2, r2, #2048	; 0x800
 80019fc:	611a      	str	r2, [r3, #16]
  CLEAR_BIT(huart->Instance->CR3, (USART_CR3_HDSEL | USART_CR3_IREN | USART_CR3_SCEN));
 80019fe:	695a      	ldr	r2, [r3, #20]
 8001a00:	f022 022a 	bic.w	r2, r2, #42	; 0x2a
 8001a04:	615a      	str	r2, [r3, #20]
  SET_BIT(huart->Instance->CR2, USART_CR2_LINEN);
 8001a06:	691a      	ldr	r2, [r3, #16]
 8001a08:	f442 4280 	orr.w	r2, r2, #16384	; 0x4000
 8001a0c:	611a      	str	r2, [r3, #16]
  MODIFY_REG(huart->Instance->CR2, USART_CR2_LBDL, BreakDetectLength);
 8001a0e:	6919      	ldr	r1, [r3, #16]
 8001a10:	f021 0120 	bic.w	r1, r1, #32
 8001a14:	4329      	orrs	r1, r5
 8001a16:	6119      	str	r1, [r3, #16]
  __HAL_UART_ENABLE(huart);
 8001a18:	68da      	ldr	r2, [r3, #12]
 8001a1a:	f442 5200 	orr.w	r2, r2, #8192	; 0x2000
 8001a1e:	60da      	str	r2, [r3, #12]
  huart->gState= HAL_UART_STATE_READY;
 8001a20:	2320      	movs	r3, #32
  huart->ErrorCode = HAL_UART_ERROR_NONE;
 8001a22:	63e0      	str	r0, [r4, #60]	; 0x3c
  huart->gState= HAL_UART_STATE_READY;
 8001a24:	f884 3039 	strb.w	r3, [r4, #57]	; 0x39
  huart->RxState= HAL_UART_STATE_READY;
 8001a28:	f884 303a 	strb.w	r3, [r4, #58]	; 0x3a
  return HAL_OK;
 8001a2c:	bd38      	pop	{r3, r4, r5, pc}
    return HAL_ERROR;
 8001a2e:	2001      	movs	r0, #1
}
 8001a30:	bd38      	pop	{r3, r4, r5, pc}

08001a32 <HAL_UART_DeInit>:
{
 8001a32:	b510      	push	{r4, lr}
  if(huart == NULL)
 8001a34:	4604      	mov	r4, r0
 8001a36:	b168      	cbz	r0, 8001a54 <HAL_UART_DeInit+0x22>
  huart->gState = HAL_UART_STATE_BUSY;
 8001a38:	2324      	movs	r3, #36	; 0x24
 8001a3a:	f880 3039 	strb.w	r3, [r0, #57]	; 0x39
  HAL_UART_MspDeInit(huart);
 8001a3e:	f001 ffe5 	bl	8003a0c <HAL_UART_MspDeInit>
  huart->ErrorCode = HAL_UART_ERROR_NONE;
 8001a42:	2000      	movs	r0, #0
 8001a44:	63e0      	str	r0, [r4, #60]	; 0x3c
  __HAL_UNLOCK(huart);
 8001a46:	f884 0038 	strb.w	r0, [r4, #56]	; 0x38
  huart->gState = HAL_UART_STATE_RESET;
 8001a4a:	f884 0039 	strb.w	r0, [r4, #57]	; 0x39
  huart->RxState = HAL_UART_STATE_RESET;
 8001a4e:	f884 003a 	strb.w	r0, [r4, #58]	; 0x3a
  return HAL_OK;
 8001a52:	bd10      	pop	{r4, pc}
    return HAL_ERROR;
 8001a54:	2001      	movs	r0, #1
}
 8001a56:	bd10      	pop	{r4, pc}

08001a58 <HAL_UART_Transmit_DMA>:
{
 8001a58:	b538      	push	{r3, r4, r5, lr}
 8001a5a:	4604      	mov	r4, r0
 8001a5c:	4613      	mov	r3, r2
  if(huart->gState == HAL_UART_STATE_READY)
 8001a5e:	f894 2039 	ldrb.w	r2, [r4, #57]	; 0x39
 8001a62:	2a20      	cmp	r2, #32
 8001a64:	d12a      	bne.n	8001abc <HAL_UART_Transmit_DMA+0x64>
    if((pData == NULL) || (Size == 0U))
 8001a66:	b339      	cbz	r1, 8001ab8 <HAL_UART_Transmit_DMA+0x60>
 8001a68:	b333      	cbz	r3, 8001ab8 <HAL_UART_Transmit_DMA+0x60>
    __HAL_LOCK(huart);
 8001a6a:	f894 2038 	ldrb.w	r2, [r4, #56]	; 0x38
 8001a6e:	2a01      	cmp	r2, #1
 8001a70:	d024      	beq.n	8001abc <HAL_UART_Transmit_DMA+0x64>
 8001a72:	2201      	movs	r2, #1
    huart->ErrorCode = HAL_UART_ERROR_NONE;
 8001a74:	2500      	movs	r5, #0
    __HAL_LOCK(huart);
 8001a76:	f884 2038 	strb.w	r2, [r4, #56]	; 0x38
    huart->gState = HAL_UART_STATE_BUSY_TX;
 8001a7a:	2221      	movs	r2, #33	; 0x21
    huart->TxXferCount = Size;
 8001a7c:	84e3      	strh	r3, [r4, #38]	; 0x26
    huart->hdmatx->XferCpltCallback = UART_DMATransmitCplt;
 8001a7e:	6b20      	ldr	r0, [r4, #48]	; 0x30
    huart->ErrorCode = HAL_UART_ERROR_NONE;
 8001a80:	63e5      	str	r5, [r4, #60]	; 0x3c
    huart->gState = HAL_UART_STATE_BUSY_TX;
 8001a82:	f884 2039 	strb.w	r2, [r4, #57]	; 0x39
    huart->hdmatx->XferCpltCallback = UART_DMATransmitCplt;
 8001a86:	4a0e      	ldr	r2, [pc, #56]	; (8001ac0 <HAL_UART_Transmit_DMA+0x68>)
    huart->TxXferSize = Size;
 8001a88:	84a3      	strh	r3, [r4, #36]	; 0x24
    huart->pTxBuffPtr = pData;
 8001a8a:	6221      	str	r1, [r4, #32]
    huart->hdmatx->XferCpltCallback = UART_DMATransmitCplt;
 8001a8c:	6282      	str	r2, [r0, #40]	; 0x28
    huart->hdmatx->XferHalfCpltCallback = UART_DMATxHalfCplt;
 8001a8e:	4a0d      	ldr	r2, [pc, #52]	; (8001ac4 <HAL_UART_Transmit_DMA+0x6c>)
    huart->hdmatx->XferAbortCallback = NULL;
 8001a90:	6345      	str	r5, [r0, #52]	; 0x34
    huart->hdmatx->XferHalfCpltCallback = UART_DMATxHalfCplt;
 8001a92:	62c2      	str	r2, [r0, #44]	; 0x2c
    huart->hdmatx->XferErrorCallback = UART_DMAError;
 8001a94:	4a0c      	ldr	r2, [pc, #48]	; (8001ac8 <HAL_UART_Transmit_DMA+0x70>)
 8001a96:	6302      	str	r2, [r0, #48]	; 0x30
    HAL_DMA_Start_IT(huart->hdmatx, *(uint32_t*)tmp, (uint32_t)&huart->Instance->DR, Size);
 8001a98:	6822      	ldr	r2, [r4, #0]
 8001a9a:	3204      	adds	r2, #4
 8001a9c:	f7fe ffda 	bl	8000a54 <HAL_DMA_Start_IT>
    __HAL_UART_CLEAR_FLAG(huart, UART_FLAG_TC);
 8001aa0:	f06f 0240 	mvn.w	r2, #64	; 0x40
 8001aa4:	6823      	ldr	r3, [r4, #0]
    return HAL_OK;
 8001aa6:	4628      	mov	r0, r5
    __HAL_UART_CLEAR_FLAG(huart, UART_FLAG_TC);
 8001aa8:	601a      	str	r2, [r3, #0]
    SET_BIT(huart->Instance->CR3, USART_CR3_DMAT);
 8001aaa:	695a      	ldr	r2, [r3, #20]
    __HAL_UNLOCK(huart);
 8001aac:	f884 5038 	strb.w	r5, [r4, #56]	; 0x38
    SET_BIT(huart->Instance->CR3, USART_CR3_DMAT);
 8001ab0:	f042 0280 	orr.w	r2, r2, #128	; 0x80
 8001ab4:	615a      	str	r2, [r3, #20]
    return HAL_OK;
 8001ab6:	bd38      	pop	{r3, r4, r5, pc}
      return HAL_ERROR;
 8001ab8:	2001      	movs	r0, #1
 8001aba:	bd38      	pop	{r3, r4, r5, pc}
    return HAL_BUSY;
 8001abc:	2002      	movs	r0, #2
}
 8001abe:	bd38      	pop	{r3, r4, r5, pc}
 8001ac0:	08001acd 	.word	0x08001acd
 8001ac4:	08001afb 	.word	0x08001afb
 8001ac8:	08001b85 	.word	0x08001b85

08001acc <UART_DMATransmitCplt>:
{
 8001acc:	b508      	push	{r3, lr}
  if((hdma->Instance->CCR & DMA_CCR_CIRC) == 0U)
 8001ace:	6803      	ldr	r3, [r0, #0]
  UART_HandleTypeDef* huart = ( UART_HandleTypeDef* )((DMA_HandleTypeDef* )hdma)->Parent;
 8001ad0:	6a42      	ldr	r2, [r0, #36]	; 0x24
  if((hdma->Instance->CCR & DMA_CCR_CIRC) == 0U)
 8001ad2:	681b      	ldr	r3, [r3, #0]
 8001ad4:	f013 0320 	ands.w	r3, r3, #32
 8001ad8:	d10a      	bne.n	8001af0 <UART_DMATransmitCplt+0x24>
    huart->TxXferCount = 0U;
 8001ada:	84d3      	strh	r3, [r2, #38]	; 0x26
    CLEAR_BIT(huart->Instance->CR3, USART_CR3_DMAT);
 8001adc:	6813      	ldr	r3, [r2, #0]
 8001ade:	695a      	ldr	r2, [r3, #20]
 8001ae0:	f022 0280 	bic.w	r2, r2, #128	; 0x80
 8001ae4:	615a      	str	r2, [r3, #20]
    SET_BIT(huart->Instance->CR1, USART_CR1_TCIE);
 8001ae6:	68da      	ldr	r2, [r3, #12]
 8001ae8:	f042 0240 	orr.w	r2, r2, #64	; 0x40
 8001aec:	60da      	str	r2, [r3, #12]
 8001aee:	bd08      	pop	{r3, pc}
    HAL_UART_TxCpltCallback(huart);
 8001af0:	4610      	mov	r0, r2
 8001af2:	f001 fb73 	bl	80031dc <HAL_UART_TxCpltCallback>
 8001af6:	bd08      	pop	{r3, pc}

08001af8 <HAL_UART_TxHalfCpltCallback>:
 8001af8:	4770      	bx	lr

08001afa <UART_DMATxHalfCplt>:
{
 8001afa:	b508      	push	{r3, lr}
  HAL_UART_TxHalfCpltCallback(huart);
 8001afc:	6a40      	ldr	r0, [r0, #36]	; 0x24
 8001afe:	f7ff fffb 	bl	8001af8 <HAL_UART_TxHalfCpltCallback>
 8001b02:	bd08      	pop	{r3, pc}

08001b04 <HAL_UART_RxCpltCallback>:
 8001b04:	4770      	bx	lr

08001b06 <UART_Receive_IT>:
  if(huart->RxState == HAL_UART_STATE_BUSY_RX) 
 8001b06:	f890 303a 	ldrb.w	r3, [r0, #58]	; 0x3a
{
 8001b0a:	b510      	push	{r4, lr}
  if(huart->RxState == HAL_UART_STATE_BUSY_RX) 
 8001b0c:	2b22      	cmp	r3, #34	; 0x22
 8001b0e:	d136      	bne.n	8001b7e <UART_Receive_IT+0x78>
    if(huart->Init.WordLength == UART_WORDLENGTH_9B)
 8001b10:	6883      	ldr	r3, [r0, #8]
 8001b12:	6901      	ldr	r1, [r0, #16]
 8001b14:	f5b3 5f80 	cmp.w	r3, #4096	; 0x1000
 8001b18:	6802      	ldr	r2, [r0, #0]
 8001b1a:	6a83      	ldr	r3, [r0, #40]	; 0x28
 8001b1c:	d123      	bne.n	8001b66 <UART_Receive_IT+0x60>
        *tmp = (uint16_t)(huart->Instance->DR & (uint16_t)0x01FF);
 8001b1e:	6852      	ldr	r2, [r2, #4]
      if(huart->Init.Parity == UART_PARITY_NONE)
 8001b20:	b9e9      	cbnz	r1, 8001b5e <UART_Receive_IT+0x58>
        *tmp = (uint16_t)(huart->Instance->DR & (uint16_t)0x01FF);
 8001b22:	f3c2 0208 	ubfx	r2, r2, #0, #9
 8001b26:	f823 2b02 	strh.w	r2, [r3], #2
        huart->pRxBuffPtr += 1U;
 8001b2a:	6283      	str	r3, [r0, #40]	; 0x28
    if(--huart->RxXferCount == 0U)
 8001b2c:	8dc4      	ldrh	r4, [r0, #46]	; 0x2e
 8001b2e:	3c01      	subs	r4, #1
 8001b30:	b2a4      	uxth	r4, r4
 8001b32:	85c4      	strh	r4, [r0, #46]	; 0x2e
 8001b34:	b98c      	cbnz	r4, 8001b5a <UART_Receive_IT+0x54>
      __HAL_UART_DISABLE_IT(huart, UART_IT_RXNE);
 8001b36:	6803      	ldr	r3, [r0, #0]
 8001b38:	68da      	ldr	r2, [r3, #12]
 8001b3a:	f022 0220 	bic.w	r2, r2, #32
 8001b3e:	60da      	str	r2, [r3, #12]
      __HAL_UART_DISABLE_IT(huart, UART_IT_PE);
 8001b40:	68da      	ldr	r2, [r3, #12]
 8001b42:	f422 7280 	bic.w	r2, r2, #256	; 0x100
 8001b46:	60da      	str	r2, [r3, #12]
        __HAL_UART_DISABLE_IT(huart, UART_IT_ERR);
 8001b48:	695a      	ldr	r2, [r3, #20]
 8001b4a:	f022 0201 	bic.w	r2, r2, #1
 8001b4e:	615a      	str	r2, [r3, #20]
      huart->RxState = HAL_UART_STATE_READY;
 8001b50:	2320      	movs	r3, #32
 8001b52:	f880 303a 	strb.w	r3, [r0, #58]	; 0x3a
      HAL_UART_RxCpltCallback(huart);
 8001b56:	f7ff ffd5 	bl	8001b04 <HAL_UART_RxCpltCallback>
    if(--huart->RxXferCount == 0U)
 8001b5a:	2000      	movs	r0, #0
}
 8001b5c:	bd10      	pop	{r4, pc}
        *tmp = (uint16_t)(huart->Instance->DR & (uint16_t)0x00FF);
 8001b5e:	b2d2      	uxtb	r2, r2
 8001b60:	f823 2b01 	strh.w	r2, [r3], #1
 8001b64:	e7e1      	b.n	8001b2a <UART_Receive_IT+0x24>
      if(huart->Init.Parity == UART_PARITY_NONE)
 8001b66:	b921      	cbnz	r1, 8001b72 <UART_Receive_IT+0x6c>
        *huart->pRxBuffPtr++ = (uint8_t)(huart->Instance->DR & (uint8_t)0x00FF);
 8001b68:	1c59      	adds	r1, r3, #1
 8001b6a:	6852      	ldr	r2, [r2, #4]
 8001b6c:	6281      	str	r1, [r0, #40]	; 0x28
        *huart->pRxBuffPtr++ = (uint8_t)(huart->Instance->DR & (uint8_t)0x007F);
 8001b6e:	701a      	strb	r2, [r3, #0]
 8001b70:	e7dc      	b.n	8001b2c <UART_Receive_IT+0x26>
 8001b72:	6852      	ldr	r2, [r2, #4]
 8001b74:	1c59      	adds	r1, r3, #1
 8001b76:	6281      	str	r1, [r0, #40]	; 0x28
 8001b78:	f002 027f 	and.w	r2, r2, #127	; 0x7f
 8001b7c:	e7f7      	b.n	8001b6e <UART_Receive_IT+0x68>
    return HAL_BUSY;
 8001b7e:	2002      	movs	r0, #2
 8001b80:	bd10      	pop	{r4, pc}

08001b82 <HAL_UART_ErrorCallback>:
 8001b82:	4770      	bx	lr

08001b84 <UART_DMAError>:
  UART_HandleTypeDef* huart = ( UART_HandleTypeDef* )((DMA_HandleTypeDef* )hdma)->Parent;
 8001b84:	6a41      	ldr	r1, [r0, #36]	; 0x24
{
 8001b86:	b508      	push	{r3, lr}
  dmarequest = HAL_IS_BIT_SET(huart->Instance->CR3, USART_CR3_DMAT);
 8001b88:	680b      	ldr	r3, [r1, #0]
 8001b8a:	695a      	ldr	r2, [r3, #20]
  if((huart->gState == HAL_UART_STATE_BUSY_TX) && dmarequest)
 8001b8c:	f891 0039 	ldrb.w	r0, [r1, #57]	; 0x39
 8001b90:	2821      	cmp	r0, #33	; 0x21
 8001b92:	d10a      	bne.n	8001baa <UART_DMAError+0x26>
 8001b94:	0612      	lsls	r2, r2, #24
 8001b96:	d508      	bpl.n	8001baa <UART_DMAError+0x26>
    huart->TxXferCount = 0U;
 8001b98:	2200      	movs	r2, #0
 8001b9a:	84ca      	strh	r2, [r1, #38]	; 0x26
  CLEAR_BIT(huart->Instance->CR1, (USART_CR1_TXEIE | USART_CR1_TCIE));
 8001b9c:	68da      	ldr	r2, [r3, #12]
 8001b9e:	f022 02c0 	bic.w	r2, r2, #192	; 0xc0
 8001ba2:	60da      	str	r2, [r3, #12]
  huart->gState = HAL_UART_STATE_READY;
 8001ba4:	2220      	movs	r2, #32
 8001ba6:	f881 2039 	strb.w	r2, [r1, #57]	; 0x39
  dmarequest = HAL_IS_BIT_SET(huart->Instance->CR3, USART_CR3_DMAR); 
 8001baa:	695b      	ldr	r3, [r3, #20]
  if((huart->RxState == HAL_UART_STATE_BUSY_RX) && dmarequest)
 8001bac:	f891 203a 	ldrb.w	r2, [r1, #58]	; 0x3a
 8001bb0:	2a22      	cmp	r2, #34	; 0x22
 8001bb2:	d106      	bne.n	8001bc2 <UART_DMAError+0x3e>
 8001bb4:	065b      	lsls	r3, r3, #25
 8001bb6:	d504      	bpl.n	8001bc2 <UART_DMAError+0x3e>
    huart->RxXferCount = 0U;
 8001bb8:	2300      	movs	r3, #0
    UART_EndRxTransfer(huart);
 8001bba:	4608      	mov	r0, r1
    huart->RxXferCount = 0U;
 8001bbc:	85cb      	strh	r3, [r1, #46]	; 0x2e
    UART_EndRxTransfer(huart);
 8001bbe:	f7ff fe26 	bl	800180e <UART_EndRxTransfer>
  huart->ErrorCode |= HAL_UART_ERROR_DMA;
 8001bc2:	6bcb      	ldr	r3, [r1, #60]	; 0x3c
  HAL_UART_ErrorCallback(huart);
 8001bc4:	4608      	mov	r0, r1
  huart->ErrorCode |= HAL_UART_ERROR_DMA;
 8001bc6:	f043 0310 	orr.w	r3, r3, #16
 8001bca:	63cb      	str	r3, [r1, #60]	; 0x3c
  HAL_UART_ErrorCallback(huart);
 8001bcc:	f7ff ffd9 	bl	8001b82 <HAL_UART_ErrorCallback>
 8001bd0:	bd08      	pop	{r3, pc}
	...

08001bd4 <HAL_UART_IRQHandler>:
   uint32_t isrflags   = READ_REG(huart->Instance->SR);
 8001bd4:	6803      	ldr	r3, [r0, #0]
{
 8001bd6:	b570      	push	{r4, r5, r6, lr}
   uint32_t isrflags   = READ_REG(huart->Instance->SR);
 8001bd8:	681a      	ldr	r2, [r3, #0]
{
 8001bda:	4604      	mov	r4, r0
  if(errorflags == RESET)
 8001bdc:	0716      	lsls	r6, r2, #28
   uint32_t cr1its     = READ_REG(huart->Instance->CR1);
 8001bde:	68d9      	ldr	r1, [r3, #12]
   uint32_t cr3its     = READ_REG(huart->Instance->CR3);
 8001be0:	695d      	ldr	r5, [r3, #20]
  if(errorflags == RESET)
 8001be2:	d107      	bne.n	8001bf4 <HAL_UART_IRQHandler+0x20>
    if(((isrflags & USART_SR_RXNE) != RESET) && ((cr1its & USART_CR1_RXNEIE) != RESET))
 8001be4:	0696      	lsls	r6, r2, #26
 8001be6:	d55a      	bpl.n	8001c9e <HAL_UART_IRQHandler+0xca>
 8001be8:	068d      	lsls	r5, r1, #26
 8001bea:	d558      	bpl.n	8001c9e <HAL_UART_IRQHandler+0xca>
}
 8001bec:	e8bd 4070 	ldmia.w	sp!, {r4, r5, r6, lr}
      UART_Receive_IT(huart);
 8001bf0:	f7ff bf89 	b.w	8001b06 <UART_Receive_IT>
  if((errorflags != RESET) && (((cr3its & USART_CR3_EIE) != RESET) || ((cr1its & (USART_CR1_RXNEIE | USART_CR1_PEIE)) != RESET)))
 8001bf4:	f015 0501 	ands.w	r5, r5, #1
 8001bf8:	d102      	bne.n	8001c00 <HAL_UART_IRQHandler+0x2c>
 8001bfa:	f411 7f90 	tst.w	r1, #288	; 0x120
 8001bfe:	d04e      	beq.n	8001c9e <HAL_UART_IRQHandler+0xca>
    if(((isrflags & USART_SR_PE) != RESET) && ((cr1its & USART_CR1_PEIE) != RESET))
 8001c00:	07d3      	lsls	r3, r2, #31
 8001c02:	d505      	bpl.n	8001c10 <HAL_UART_IRQHandler+0x3c>
 8001c04:	05ce      	lsls	r6, r1, #23
      huart->ErrorCode |= HAL_UART_ERROR_PE;
 8001c06:	bf42      	ittt	mi
 8001c08:	6be3      	ldrmi	r3, [r4, #60]	; 0x3c
 8001c0a:	f043 0301 	orrmi.w	r3, r3, #1
 8001c0e:	63e3      	strmi	r3, [r4, #60]	; 0x3c
    if(((isrflags & USART_SR_NE) != RESET) && ((cr3its & USART_CR3_EIE) != RESET))
 8001c10:	0750      	lsls	r0, r2, #29
 8001c12:	d504      	bpl.n	8001c1e <HAL_UART_IRQHandler+0x4a>
 8001c14:	b11d      	cbz	r5, 8001c1e <HAL_UART_IRQHandler+0x4a>
      huart->ErrorCode |= HAL_UART_ERROR_NE;
 8001c16:	6be3      	ldr	r3, [r4, #60]	; 0x3c
 8001c18:	f043 0302 	orr.w	r3, r3, #2
 8001c1c:	63e3      	str	r3, [r4, #60]	; 0x3c
    if(((isrflags & USART_SR_FE) != RESET) && ((cr3its & USART_CR3_EIE) != RESET))
 8001c1e:	0793      	lsls	r3, r2, #30
 8001c20:	d504      	bpl.n	8001c2c <HAL_UART_IRQHandler+0x58>
 8001c22:	b11d      	cbz	r5, 8001c2c <HAL_UART_IRQHandler+0x58>
      huart->ErrorCode |= HAL_UART_ERROR_FE;
 8001c24:	6be3      	ldr	r3, [r4, #60]	; 0x3c
 8001c26:	f043 0304 	orr.w	r3, r3, #4
 8001c2a:	63e3      	str	r3, [r4, #60]	; 0x3c
    if(((isrflags & USART_SR_ORE) != RESET) && ((cr3its & USART_CR3_EIE) != RESET))
 8001c2c:	0716      	lsls	r6, r2, #28
 8001c2e:	d504      	bpl.n	8001c3a <HAL_UART_IRQHandler+0x66>
 8001c30:	b11d      	cbz	r5, 8001c3a <HAL_UART_IRQHandler+0x66>
      huart->ErrorCode |= HAL_UART_ERROR_ORE;
 8001c32:	6be3      	ldr	r3, [r4, #60]	; 0x3c
 8001c34:	f043 0308 	orr.w	r3, r3, #8
 8001c38:	63e3      	str	r3, [r4, #60]	; 0x3c
    if(huart->ErrorCode != HAL_UART_ERROR_NONE)
 8001c3a:	6be3      	ldr	r3, [r4, #60]	; 0x3c
 8001c3c:	2b00      	cmp	r3, #0
 8001c3e:	d066      	beq.n	8001d0e <HAL_UART_IRQHandler+0x13a>
      if(((isrflags & USART_SR_RXNE) != RESET) && ((cr1its & USART_CR1_RXNEIE) != RESET))
 8001c40:	0695      	lsls	r5, r2, #26
 8001c42:	d504      	bpl.n	8001c4e <HAL_UART_IRQHandler+0x7a>
 8001c44:	0688      	lsls	r0, r1, #26
 8001c46:	d502      	bpl.n	8001c4e <HAL_UART_IRQHandler+0x7a>
        UART_Receive_IT(huart);
 8001c48:	4620      	mov	r0, r4
 8001c4a:	f7ff ff5c 	bl	8001b06 <UART_Receive_IT>
      dmarequest = HAL_IS_BIT_SET(huart->Instance->CR3, USART_CR3_DMAR);
 8001c4e:	6823      	ldr	r3, [r4, #0]
        UART_EndRxTransfer(huart);
 8001c50:	4620      	mov	r0, r4
      dmarequest = HAL_IS_BIT_SET(huart->Instance->CR3, USART_CR3_DMAR);
 8001c52:	695d      	ldr	r5, [r3, #20]
      if(((huart->ErrorCode & HAL_UART_ERROR_ORE) != RESET) || dmarequest)
 8001c54:	6be2      	ldr	r2, [r4, #60]	; 0x3c
 8001c56:	0711      	lsls	r1, r2, #28
 8001c58:	d402      	bmi.n	8001c60 <HAL_UART_IRQHandler+0x8c>
 8001c5a:	f015 0540 	ands.w	r5, r5, #64	; 0x40
 8001c5e:	d01a      	beq.n	8001c96 <HAL_UART_IRQHandler+0xc2>
        UART_EndRxTransfer(huart);
 8001c60:	f7ff fdd5 	bl	800180e <UART_EndRxTransfer>
        if(HAL_IS_BIT_SET(huart->Instance->CR3, USART_CR3_DMAR))
 8001c64:	6823      	ldr	r3, [r4, #0]
 8001c66:	695a      	ldr	r2, [r3, #20]
 8001c68:	0652      	lsls	r2, r2, #25
 8001c6a:	d510      	bpl.n	8001c8e <HAL_UART_IRQHandler+0xba>
          CLEAR_BIT(huart->Instance->CR3, USART_CR3_DMAR);
 8001c6c:	695a      	ldr	r2, [r3, #20]
          if(huart->hdmarx != NULL)
 8001c6e:	6b60      	ldr	r0, [r4, #52]	; 0x34
          CLEAR_BIT(huart->Instance->CR3, USART_CR3_DMAR);
 8001c70:	f022 0240 	bic.w	r2, r2, #64	; 0x40
 8001c74:	615a      	str	r2, [r3, #20]
          if(huart->hdmarx != NULL)
 8001c76:	b150      	cbz	r0, 8001c8e <HAL_UART_IRQHandler+0xba>
            huart->hdmarx->XferAbortCallback = UART_DMAAbortOnError;
 8001c78:	4b25      	ldr	r3, [pc, #148]	; (8001d10 <HAL_UART_IRQHandler+0x13c>)
 8001c7a:	6343      	str	r3, [r0, #52]	; 0x34
            if(HAL_DMA_Abort_IT(huart->hdmarx) != HAL_OK)
 8001c7c:	f7fe ff28 	bl	8000ad0 <HAL_DMA_Abort_IT>
 8001c80:	2800      	cmp	r0, #0
 8001c82:	d044      	beq.n	8001d0e <HAL_UART_IRQHandler+0x13a>
              huart->hdmarx->XferAbortCallback(huart->hdmarx);
 8001c84:	6b60      	ldr	r0, [r4, #52]	; 0x34
}
 8001c86:	e8bd 4070 	ldmia.w	sp!, {r4, r5, r6, lr}
              huart->hdmarx->XferAbortCallback(huart->hdmarx);
 8001c8a:	6b43      	ldr	r3, [r0, #52]	; 0x34
 8001c8c:	4718      	bx	r3
            HAL_UART_ErrorCallback(huart);
 8001c8e:	4620      	mov	r0, r4
 8001c90:	f7ff ff77 	bl	8001b82 <HAL_UART_ErrorCallback>
 8001c94:	bd70      	pop	{r4, r5, r6, pc}
        HAL_UART_ErrorCallback(huart);
 8001c96:	f7ff ff74 	bl	8001b82 <HAL_UART_ErrorCallback>
        huart->ErrorCode = HAL_UART_ERROR_NONE;
 8001c9a:	63e5      	str	r5, [r4, #60]	; 0x3c
 8001c9c:	bd70      	pop	{r4, r5, r6, pc}
  if(((isrflags & USART_SR_TXE) != RESET) && ((cr1its & USART_CR1_TXEIE) != RESET))
 8001c9e:	0616      	lsls	r6, r2, #24
 8001ca0:	d527      	bpl.n	8001cf2 <HAL_UART_IRQHandler+0x11e>
 8001ca2:	060d      	lsls	r5, r1, #24
 8001ca4:	d525      	bpl.n	8001cf2 <HAL_UART_IRQHandler+0x11e>
  if(huart->gState == HAL_UART_STATE_BUSY_TX)
 8001ca6:	f894 2039 	ldrb.w	r2, [r4, #57]	; 0x39
 8001caa:	2a21      	cmp	r2, #33	; 0x21
 8001cac:	d12f      	bne.n	8001d0e <HAL_UART_IRQHandler+0x13a>
    if(huart->Init.WordLength == UART_WORDLENGTH_9B)
 8001cae:	68a2      	ldr	r2, [r4, #8]
 8001cb0:	f5b2 5f80 	cmp.w	r2, #4096	; 0x1000
 8001cb4:	6a22      	ldr	r2, [r4, #32]
 8001cb6:	d117      	bne.n	8001ce8 <HAL_UART_IRQHandler+0x114>
      huart->Instance->DR = (uint16_t)(*tmp & (uint16_t)0x01FF);
 8001cb8:	8811      	ldrh	r1, [r2, #0]
 8001cba:	f3c1 0108 	ubfx	r1, r1, #0, #9
 8001cbe:	6059      	str	r1, [r3, #4]
      if(huart->Init.Parity == UART_PARITY_NONE)
 8001cc0:	6921      	ldr	r1, [r4, #16]
 8001cc2:	b979      	cbnz	r1, 8001ce4 <HAL_UART_IRQHandler+0x110>
        huart->pTxBuffPtr += 2U;
 8001cc4:	3202      	adds	r2, #2
        huart->pTxBuffPtr += 1U;
 8001cc6:	6222      	str	r2, [r4, #32]
    if(--huart->TxXferCount == 0U)
 8001cc8:	8ce2      	ldrh	r2, [r4, #38]	; 0x26
 8001cca:	3a01      	subs	r2, #1
 8001ccc:	b292      	uxth	r2, r2
 8001cce:	84e2      	strh	r2, [r4, #38]	; 0x26
 8001cd0:	b9ea      	cbnz	r2, 8001d0e <HAL_UART_IRQHandler+0x13a>
      __HAL_UART_DISABLE_IT(huart, UART_IT_TXE);
 8001cd2:	68da      	ldr	r2, [r3, #12]
 8001cd4:	f022 0280 	bic.w	r2, r2, #128	; 0x80
 8001cd8:	60da      	str	r2, [r3, #12]
      __HAL_UART_ENABLE_IT(huart, UART_IT_TC);
 8001cda:	68da      	ldr	r2, [r3, #12]
 8001cdc:	f042 0240 	orr.w	r2, r2, #64	; 0x40
 8001ce0:	60da      	str	r2, [r3, #12]
 8001ce2:	bd70      	pop	{r4, r5, r6, pc}
        huart->pTxBuffPtr += 1U;
 8001ce4:	3201      	adds	r2, #1
 8001ce6:	e7ee      	b.n	8001cc6 <HAL_UART_IRQHandler+0xf2>
      huart->Instance->DR = (uint8_t)(*huart->pTxBuffPtr++ & (uint8_t)0x00FF);
 8001ce8:	1c51      	adds	r1, r2, #1
 8001cea:	6221      	str	r1, [r4, #32]
 8001cec:	7812      	ldrb	r2, [r2, #0]
 8001cee:	605a      	str	r2, [r3, #4]
 8001cf0:	e7ea      	b.n	8001cc8 <HAL_UART_IRQHandler+0xf4>
  if(((isrflags & USART_SR_TC) != RESET) && ((cr1its & USART_CR1_TCIE) != RESET))
 8001cf2:	0650      	lsls	r0, r2, #25
 8001cf4:	d50b      	bpl.n	8001d0e <HAL_UART_IRQHandler+0x13a>
 8001cf6:	064a      	lsls	r2, r1, #25
 8001cf8:	d509      	bpl.n	8001d0e <HAL_UART_IRQHandler+0x13a>
  __HAL_UART_DISABLE_IT(huart, UART_IT_TC);
 8001cfa:	68da      	ldr	r2, [r3, #12]
  HAL_UART_TxCpltCallback(huart);
 8001cfc:	4620      	mov	r0, r4
  __HAL_UART_DISABLE_IT(huart, UART_IT_TC);
 8001cfe:	f022 0240 	bic.w	r2, r2, #64	; 0x40
 8001d02:	60da      	str	r2, [r3, #12]
  huart->gState = HAL_UART_STATE_READY;
 8001d04:	2320      	movs	r3, #32
 8001d06:	f884 3039 	strb.w	r3, [r4, #57]	; 0x39
  HAL_UART_TxCpltCallback(huart);
 8001d0a:	f001 fa67 	bl	80031dc <HAL_UART_TxCpltCallback>
 8001d0e:	bd70      	pop	{r4, r5, r6, pc}
 8001d10:	08001d15 	.word	0x08001d15

08001d14 <UART_DMAAbortOnError>:
{
 8001d14:	b508      	push	{r3, lr}
  huart->RxXferCount = 0x00U;
 8001d16:	2300      	movs	r3, #0
  UART_HandleTypeDef* huart = ( UART_HandleTypeDef* )((DMA_HandleTypeDef* )hdma)->Parent;
 8001d18:	6a40      	ldr	r0, [r0, #36]	; 0x24
  huart->RxXferCount = 0x00U;
 8001d1a:	85c3      	strh	r3, [r0, #46]	; 0x2e
  huart->TxXferCount = 0x00U;
 8001d1c:	84c3      	strh	r3, [r0, #38]	; 0x26
  HAL_UART_ErrorCallback(huart);
 8001d1e:	f7ff ff30 	bl	8001b82 <HAL_UART_ErrorCallback>
 8001d22:	bd08      	pop	{r3, pc}

08001d24 <SetFilterCAN.part.0>:
{
	 if(mask == 0)
	 {
 		  CAN_FilterTypeDef CAN_FilterStructure;
 		  CAN_FilterStructure.FilterBank = 1;
 		  CAN_FilterStructure.FilterMode = CAN_FILTERMODE_IDMASK;
 8001d24:	2300      	movs	r3, #0
 		  CAN_FilterStructure.FilterFIFOAssignment = CAN_FILTER_FIFO1;
 		  CAN_FilterStructure.FilterMaskIdHigh = 0xFFFF;
 		  CAN_FilterStructure.FilterMaskIdLow = 0xFFFF;
 		  CAN_FilterStructure.FilterIdHigh = 0;
 		  CAN_FilterStructure.FilterIdLow = 0;
 		  CAN_FilterStructure.FilterScale = CAN_FILTERSCALE_32BIT;
 8001d26:	2201      	movs	r2, #1
HAL_StatusTypeDef SetFilterCAN(uint32_t id, uint32_t mask)
 8001d28:	b500      	push	{lr}
 8001d2a:	b08b      	sub	sp, #44	; 0x2c
 		  CAN_FilterStructure.FilterIdLow = 0;
 		  CAN_FilterStructure.FilterBank = 0;
 		  CAN_FilterStructure.FilterMaskIdHigh = 0;
 		  CAN_FilterStructure.FilterMaskIdLow = 0;
 		  CAN_FilterStructure.FilterFIFOAssignment = CAN_FILTER_FIFO0;
 		  if(HAL_CAN_ConfigFilter(&hcan, &CAN_FilterStructure) != HAL_OK) return HAL_ERROR;
 8001d2c:	4669      	mov	r1, sp
 8001d2e:	4809      	ldr	r0, [pc, #36]	; (8001d54 <SetFilterCAN.part.0+0x30>)
 		  CAN_FilterStructure.FilterMode = CAN_FILTERMODE_IDMASK;
 8001d30:	9306      	str	r3, [sp, #24]
 		  CAN_FilterStructure.FilterIdHigh = 0;
 8001d32:	9300      	str	r3, [sp, #0]
 		  CAN_FilterStructure.FilterIdLow = 0;
 8001d34:	9301      	str	r3, [sp, #4]
 		  CAN_FilterStructure.FilterScale = CAN_FILTERSCALE_32BIT;
 8001d36:	9207      	str	r2, [sp, #28]
 		  CAN_FilterStructure.FilterActivation = CAN_FILTER_ENABLE;
 8001d38:	9208      	str	r2, [sp, #32]
 		  CAN_FilterStructure.FilterBank = 0;
 8001d3a:	9305      	str	r3, [sp, #20]
 		  CAN_FilterStructure.FilterMaskIdHigh = 0;
 8001d3c:	9302      	str	r3, [sp, #8]
 		  CAN_FilterStructure.FilterMaskIdLow = 0;
 8001d3e:	9303      	str	r3, [sp, #12]
 		  CAN_FilterStructure.FilterFIFOAssignment = CAN_FILTER_FIFO0;
 8001d40:	9304      	str	r3, [sp, #16]
 		  if(HAL_CAN_ConfigFilter(&hcan, &CAN_FilterStructure) != HAL_OK) return HAL_ERROR;
 8001d42:	f7fe fae0 	bl	8000306 <HAL_CAN_ConfigFilter>
	 else
	 {

	 }
	 return HAL_OK;
}
 8001d46:	3000      	adds	r0, #0
 8001d48:	bf18      	it	ne
 8001d4a:	2001      	movne	r0, #1
 8001d4c:	b00b      	add	sp, #44	; 0x2c
 8001d4e:	f85d fb04 	ldr.w	pc, [sp], #4
 8001d52:	bf00      	nop
 8001d54:	20000bd4 	.word	0x20000bd4

08001d58 <CAN_Buffer_Init>:
	CAN_Buffer.Pointer_Read = 0;
 8001d58:	2200      	movs	r2, #0
 8001d5a:	4b02      	ldr	r3, [pc, #8]	; (8001d64 <CAN_Buffer_Init+0xc>)
 8001d5c:	801a      	strh	r2, [r3, #0]
	CAN_Buffer.Pointer_Write = 0;
 8001d5e:	805a      	strh	r2, [r3, #2]
 8001d60:	4770      	bx	lr
 8001d62:	bf00      	nop
 8001d64:	20000208 	.word	0x20000208

08001d68 <CAN_Buffer_Write_Data>:
{
 8001d68:	b084      	sub	sp, #16
 8001d6a:	b5f0      	push	{r4, r5, r6, r7, lr}
    if(CAN_Buffer.Pointer_Write >= CAN_Buffer.Pointer_Read)
 8001d6c:	4f14      	ldr	r7, [pc, #80]	; (8001dc0 <CAN_Buffer_Write_Data+0x58>)
{
 8001d6e:	ac05      	add	r4, sp, #20
    if(CAN_Buffer.Pointer_Write >= CAN_Buffer.Pointer_Read)
 8001d70:	887e      	ldrh	r6, [r7, #2]
{
 8001d72:	e884 000f 	stmia.w	r4, {r0, r1, r2, r3}
    if(CAN_Buffer.Pointer_Write >= CAN_Buffer.Pointer_Read)
 8001d76:	883b      	ldrh	r3, [r7, #0]
 8001d78:	429e      	cmp	r6, r3
        capacity = CAN_BUFFER_SIZE - (CAN_Buffer.Pointer_Write - CAN_Buffer.Pointer_Read);
 8001d7a:	bf28      	it	cs
 8001d7c:	333c      	addcs	r3, #60	; 0x3c
        capacity = CAN_Buffer.Pointer_Read - CAN_Buffer.Pointer_Write;
 8001d7e:	1b9b      	subs	r3, r3, r6
 8001d80:	b29b      	uxth	r3, r3
	if(capacity > 1)
 8001d82:	2b01      	cmp	r3, #1
 8001d84:	d919      	bls.n	8001dba <CAN_Buffer_Write_Data+0x52>
		CAN_Buffer.Item[CAN_Buffer.Pointer_Write] = msg;
 8001d86:	2428      	movs	r4, #40	; 0x28
 8001d88:	fb04 7406 	mla	r4, r4, r6, r7
 8001d8c:	ad05      	add	r5, sp, #20
 8001d8e:	3408      	adds	r4, #8
 8001d90:	cd0f      	ldmia	r5!, {r0, r1, r2, r3}
 8001d92:	c40f      	stmia	r4!, {r0, r1, r2, r3}
 8001d94:	cd0f      	ldmia	r5!, {r0, r1, r2, r3}
 8001d96:	c40f      	stmia	r4!, {r0, r1, r2, r3}
 8001d98:	e895 0003 	ldmia.w	r5, {r0, r1}
		CAN_Buffer.Pointer_Write = (CAN_Buffer.Pointer_Write < (CAN_BUFFER_SIZE-1)) ? (CAN_Buffer.Pointer_Write + 1) : 0;
 8001d9c:	2e3a      	cmp	r6, #58	; 0x3a
 8001d9e:	bf88      	it	hi
 8001da0:	2600      	movhi	r6, #0
		CAN_Buffer.Item[CAN_Buffer.Pointer_Write] = msg;
 8001da2:	e884 0003 	stmia.w	r4, {r0, r1}
		res = HAL_OK;
 8001da6:	f04f 0000 	mov.w	r0, #0
		CAN_Buffer.Pointer_Write = (CAN_Buffer.Pointer_Write < (CAN_BUFFER_SIZE-1)) ? (CAN_Buffer.Pointer_Write + 1) : 0;
 8001daa:	bf9c      	itt	ls
 8001dac:	3601      	addls	r6, #1
 8001dae:	b2b6      	uxthls	r6, r6
 8001db0:	807e      	strh	r6, [r7, #2]
}
 8001db2:	e8bd 40f0 	ldmia.w	sp!, {r4, r5, r6, r7, lr}
 8001db6:	b004      	add	sp, #16
 8001db8:	4770      	bx	lr
		res = HAL_BUSY;
 8001dba:	2002      	movs	r0, #2
 8001dbc:	e7f9      	b.n	8001db2 <CAN_Buffer_Write_Data+0x4a>
 8001dbe:	bf00      	nop
 8001dc0:	20000208 	.word	0x20000208

08001dc4 <HexTo4bits>:
	if (H >= 'a')
 8001dc4:	2860      	cmp	r0, #96	; 0x60
 8001dc6:	d904      	bls.n	8001dd2 <HexTo4bits+0xe>
	    H -= 0x27;		// convert chars a-f
 8001dc8:	3827      	subs	r0, #39	; 0x27
	    H -= 0x07;		// convert chars A-F
 8001dca:	b2c0      	uxtb	r0, r0
	H -= '0';		// convert chars 0-9
 8001dcc:	3830      	subs	r0, #48	; 0x30
}
 8001dce:	b2c0      	uxtb	r0, r0
 8001dd0:	4770      	bx	lr
	else if (H >= 'A')
 8001dd2:	2840      	cmp	r0, #64	; 0x40
 8001dd4:	d9fa      	bls.n	8001dcc <HexTo4bits+0x8>
	    H -= 0x07;		// convert chars A-F
 8001dd6:	3807      	subs	r0, #7
 8001dd8:	e7f7      	b.n	8001dca <HexTo4bits+0x6>

08001dda <HexToShort>:
	if (H >= 'a')
 8001dda:	2860      	cmp	r0, #96	; 0x60
 8001ddc:	d90c      	bls.n	8001df8 <HexToShort+0x1e>
	    H -= 0x27;		// convert chars a-f
 8001dde:	3827      	subs	r0, #39	; 0x27
	    H -= 0x07;		// convert chars A-F
 8001de0:	b2c0      	uxtb	r0, r0
	H -= '0';		// convert chars 0-9
 8001de2:	3830      	subs	r0, #48	; 0x30
	if (L > 0x60)
 8001de4:	2960      	cmp	r1, #96	; 0x60
	H -= '0';		// convert chars 0-9
 8001de6:	b2c0      	uxtb	r0, r0
	if (L > 0x60)
 8001de8:	d90a      	bls.n	8001e00 <HexToShort+0x26>
	    L -= 0x27;		// convert chars a-f
 8001dea:	3927      	subs	r1, #39	; 0x27
	    L -= 0x07;		// convert chars A-F
 8001dec:	b2c9      	uxtb	r1, r1
	L -= 0x30;		// convert chars 0-9
 8001dee:	3930      	subs	r1, #48	; 0x30
	return H<<4 | L;
 8001df0:	ea41 1000 	orr.w	r0, r1, r0, lsl #4
}
 8001df4:	b2c0      	uxtb	r0, r0
 8001df6:	4770      	bx	lr
	else if (H >= 'A')
 8001df8:	2840      	cmp	r0, #64	; 0x40
 8001dfa:	d9f2      	bls.n	8001de2 <HexToShort+0x8>
	    H -= 0x07;		// convert chars A-F
 8001dfc:	3807      	subs	r0, #7
 8001dfe:	e7ef      	b.n	8001de0 <HexToShort+0x6>
	else if (L > 0x40)
 8001e00:	2940      	cmp	r1, #64	; 0x40
 8001e02:	d9f4      	bls.n	8001dee <HexToShort+0x14>
	    L -= 0x07;		// convert chars A-F
 8001e04:	3907      	subs	r1, #7
 8001e06:	e7f1      	b.n	8001dec <HexToShort+0x12>

08001e08 <CAN_Init_Custom>:
	switch(speed)
 8001e08:	f24c 3350 	movw	r3, #50000	; 0xc350
 8001e0c:	4298      	cmp	r0, r3
 8001e0e:	4b3b      	ldr	r3, [pc, #236]	; (8001efc <CAN_Init_Custom+0xf4>)
 8001e10:	d066      	beq.n	8001ee0 <CAN_Init_Custom+0xd8>
 8001e12:	d81f      	bhi.n	8001e54 <CAN_Init_Custom+0x4c>
 8001e14:	f242 7210 	movw	r2, #10000	; 0x2710
 8001e18:	4290      	cmp	r0, r2
 8001e1a:	d063      	beq.n	8001ee4 <CAN_Init_Custom+0xdc>
 8001e1c:	d809      	bhi.n	8001e32 <CAN_Init_Custom+0x2a>
 8001e1e:	f241 3288 	movw	r2, #5000	; 0x1388
 8001e22:	4290      	cmp	r0, r2
 8001e24:	d062      	beq.n	8001eec <CAN_Init_Custom+0xe4>
 8001e26:	f242 028d 	movw	r2, #8333	; 0x208d
 8001e2a:	4290      	cmp	r0, r2
 8001e2c:	d061      	beq.n	8001ef2 <CAN_Init_Custom+0xea>
			hcan.Init.Prescaler = 9;
 8001e2e:	2209      	movs	r2, #9
 8001e30:	e050      	b.n	8001ed4 <CAN_Init_Custom+0xcc>
	switch(speed)
 8001e32:	f248 2235 	movw	r2, #33333	; 0x8235
 8001e36:	4290      	cmp	r0, r2
 8001e38:	d05e      	beq.n	8001ef8 <CAN_Init_Custom+0xf0>
 8001e3a:	f64b 2203 	movw	r2, #47619	; 0xba03
 8001e3e:	4290      	cmp	r0, r2
 8001e40:	d052      	beq.n	8001ee8 <CAN_Init_Custom+0xe0>
 8001e42:	f644 6220 	movw	r2, #20000	; 0x4e20
 8001e46:	4290      	cmp	r0, r2
 8001e48:	d1f1      	bne.n	8001e2e <CAN_Init_Custom+0x26>
			hcan.Init.Prescaler = 120;
 8001e4a:	2278      	movs	r2, #120	; 0x78
			hcan.Init.Prescaler = 72;
 8001e4c:	605a      	str	r2, [r3, #4]
			hcan.Init.TimeSeg1 = CAN_BS1_12TQ;
 8001e4e:	f44f 2230 	mov.w	r2, #720896	; 0xb0000
 8001e52:	e01e      	b.n	8001e92 <CAN_Init_Custom+0x8a>
	switch(speed)
 8001e54:	4a2a      	ldr	r2, [pc, #168]	; (8001f00 <CAN_Init_Custom+0xf8>)
 8001e56:	4290      	cmp	r0, r2
 8001e58:	d036      	beq.n	8001ec8 <CAN_Init_Custom+0xc0>
 8001e5a:	d80d      	bhi.n	8001e78 <CAN_Init_Custom+0x70>
 8001e5c:	4a29      	ldr	r2, [pc, #164]	; (8001f04 <CAN_Init_Custom+0xfc>)
 8001e5e:	4290      	cmp	r0, r2
 8001e60:	d03c      	beq.n	8001edc <CAN_Init_Custom+0xd4>
 8001e62:	4a29      	ldr	r2, [pc, #164]	; (8001f08 <CAN_Init_Custom+0x100>)
 8001e64:	4290      	cmp	r0, r2
 8001e66:	d034      	beq.n	8001ed2 <CAN_Init_Custom+0xca>
 8001e68:	4a28      	ldr	r2, [pc, #160]	; (8001f0c <CAN_Init_Custom+0x104>)
 8001e6a:	4290      	cmp	r0, r2
 8001e6c:	d1df      	bne.n	8001e2e <CAN_Init_Custom+0x26>
			hcan.Init.Prescaler = 27;
 8001e6e:	221b      	movs	r2, #27
			hcan.Init.Prescaler = 54;
 8001e70:	605a      	str	r2, [r3, #4]
			hcan.Init.TimeSeg1 = CAN_BS1_11TQ;
 8001e72:	f44f 2220 	mov.w	r2, #655360	; 0xa0000
 8001e76:	e00c      	b.n	8001e92 <CAN_Init_Custom+0x8a>
	switch(speed)
 8001e78:	4a25      	ldr	r2, [pc, #148]	; (8001f10 <CAN_Init_Custom+0x108>)
 8001e7a:	4290      	cmp	r0, r2
 8001e7c:	d022      	beq.n	8001ec4 <CAN_Init_Custom+0xbc>
 8001e7e:	4a25      	ldr	r2, [pc, #148]	; (8001f14 <CAN_Init_Custom+0x10c>)
 8001e80:	4290      	cmp	r0, r2
 8001e82:	d018      	beq.n	8001eb6 <CAN_Init_Custom+0xae>
 8001e84:	4a24      	ldr	r2, [pc, #144]	; (8001f18 <CAN_Init_Custom+0x110>)
 8001e86:	4290      	cmp	r0, r2
 8001e88:	d1d1      	bne.n	8001e2e <CAN_Init_Custom+0x26>
			hcan.Init.Prescaler = 4;
 8001e8a:	2204      	movs	r2, #4
 8001e8c:	605a      	str	r2, [r3, #4]
			hcan.Init.TimeSeg1 = CAN_BS1_15TQ;
 8001e8e:	f44f 2260 	mov.w	r2, #917504	; 0xe0000
			hcan.Init.TimeSeg1 = CAN_BS1_12TQ;
 8001e92:	611a      	str	r2, [r3, #16]
			hcan.Init.TimeSeg2 = CAN_BS2_2TQ;
 8001e94:	f44f 1280 	mov.w	r2, #1048576	; 0x100000
			hcan.Init.TimeSeg2 = CAN_BS2_1TQ;
 8001e98:	615a      	str	r2, [r3, #20]
  hcan.Instance = CAN1;
 8001e9a:	4a20      	ldr	r2, [pc, #128]	; (8001f1c <CAN_Init_Custom+0x114>)
  return HAL_CAN_Init(&hcan);
 8001e9c:	4817      	ldr	r0, [pc, #92]	; (8001efc <CAN_Init_Custom+0xf4>)
  hcan.Instance = CAN1;
 8001e9e:	601a      	str	r2, [r3, #0]
  hcan.Init.SyncJumpWidth = CAN_SJW_1TQ;
 8001ea0:	2200      	movs	r2, #0
  hcan.Init.Mode = mode; //CAN_MODE_NORMAL;
 8001ea2:	6099      	str	r1, [r3, #8]
  hcan.Init.SyncJumpWidth = CAN_SJW_1TQ;
 8001ea4:	60da      	str	r2, [r3, #12]
  hcan.Init.TimeTriggeredMode = DISABLE;
 8001ea6:	761a      	strb	r2, [r3, #24]
  hcan.Init.AutoBusOff = DISABLE;
 8001ea8:	765a      	strb	r2, [r3, #25]
  hcan.Init.AutoWakeUp = DISABLE;
 8001eaa:	769a      	strb	r2, [r3, #26]
  hcan.Init.AutoRetransmission = DISABLE;
 8001eac:	76da      	strb	r2, [r3, #27]
  hcan.Init.ReceiveFifoLocked = DISABLE;
 8001eae:	771a      	strb	r2, [r3, #28]
  hcan.Init.TransmitFifoPriority = DISABLE;
 8001eb0:	775a      	strb	r2, [r3, #29]
  return HAL_CAN_Init(&hcan);
 8001eb2:	f7fe b9ad 	b.w	8000210 <HAL_CAN_Init>
			hcan.Init.Prescaler = 4;
 8001eb6:	2204      	movs	r2, #4
			hcan.Init.Prescaler = 5;
 8001eb8:	605a      	str	r2, [r3, #4]
			hcan.Init.TimeSeg1 = CAN_BS1_7TQ;
 8001eba:	f44f 22c0 	mov.w	r2, #393216	; 0x60000
			hcan.Init.TimeSeg1 = CAN_BS1_6TQ;
 8001ebe:	611a      	str	r2, [r3, #16]
			hcan.Init.TimeSeg2 = CAN_BS2_1TQ;
 8001ec0:	2200      	movs	r2, #0
 8001ec2:	e7e9      	b.n	8001e98 <CAN_Init_Custom+0x90>
			hcan.Init.Prescaler = 5;
 8001ec4:	2205      	movs	r2, #5
 8001ec6:	e7f7      	b.n	8001eb8 <CAN_Init_Custom+0xb0>
			hcan.Init.Prescaler = 18;
 8001ec8:	2212      	movs	r2, #18
			hcan.Init.Prescaler = 270;
 8001eca:	605a      	str	r2, [r3, #4]
			hcan.Init.TimeSeg1 = CAN_BS1_13TQ;
 8001ecc:	f44f 2240 	mov.w	r2, #786432	; 0xc0000
 8001ed0:	e7df      	b.n	8001e92 <CAN_Init_Custom+0x8a>
			hcan.Init.Prescaler = 36;
 8001ed2:	2224      	movs	r2, #36	; 0x24
			hcan.Init.Prescaler = 9;
 8001ed4:	605a      	str	r2, [r3, #4]
			hcan.Init.TimeSeg1 = CAN_BS1_6TQ;
 8001ed6:	f44f 22a0 	mov.w	r2, #327680	; 0x50000
 8001eda:	e7f0      	b.n	8001ebe <CAN_Init_Custom+0xb6>
			hcan.Init.Prescaler = 45;
 8001edc:	222d      	movs	r2, #45	; 0x2d
 8001ede:	e7f9      	b.n	8001ed4 <CAN_Init_Custom+0xcc>
			hcan.Init.Prescaler = 45;
 8001ee0:	222d      	movs	r2, #45	; 0x2d
 8001ee2:	e7f2      	b.n	8001eca <CAN_Init_Custom+0xc2>
			hcan.Init.Prescaler = 255;
 8001ee4:	22ff      	movs	r2, #255	; 0xff
 8001ee6:	e7f0      	b.n	8001eca <CAN_Init_Custom+0xc2>
			hcan.Init.Prescaler = 54;
 8001ee8:	2236      	movs	r2, #54	; 0x36
 8001eea:	e7c1      	b.n	8001e70 <CAN_Init_Custom+0x68>
			hcan.Init.Prescaler = 450;
 8001eec:	f44f 72e1 	mov.w	r2, #450	; 0x1c2
 8001ef0:	e7eb      	b.n	8001eca <CAN_Init_Custom+0xc2>
			hcan.Init.Prescaler = 270;
 8001ef2:	f44f 7287 	mov.w	r2, #270	; 0x10e
 8001ef6:	e7e8      	b.n	8001eca <CAN_Init_Custom+0xc2>
			hcan.Init.Prescaler = 72;
 8001ef8:	2248      	movs	r2, #72	; 0x48
 8001efa:	e7a7      	b.n	8001e4c <CAN_Init_Custom+0x44>
 8001efc:	20000bd4 	.word	0x20000bd4
 8001f00:	0003d090 	.word	0x0003d090
 8001f04:	000186a0 	.word	0x000186a0
 8001f08:	0001e848 	.word	0x0001e848
 8001f0c:	00017406 	.word	0x00017406
 8001f10:	000c3500 	.word	0x000c3500
 8001f14:	000f4240 	.word	0x000f4240
 8001f18:	0007a120 	.word	0x0007a120
 8001f1c:	40006400 	.word	0x40006400

08001f20 <ShortToHex>:
	temp = (in >> 4) & 0x0F;
 8001f20:	0903      	lsrs	r3, r0, #4
	out[0] = (temp < 10) ? temp + '0' : temp + ('A' - 10);
 8001f22:	2b09      	cmp	r3, #9
	temp = in & 0x0F;
 8001f24:	f000 000f 	and.w	r0, r0, #15
	out[0] = (temp < 10) ? temp + '0' : temp + ('A' - 10);
 8001f28:	bf94      	ite	ls
 8001f2a:	3330      	addls	r3, #48	; 0x30
 8001f2c:	3337      	addhi	r3, #55	; 0x37
	out[1] = (temp < 10) ? temp + '0' : temp + ('A' - 10);
 8001f2e:	2809      	cmp	r0, #9
 8001f30:	bf94      	ite	ls
 8001f32:	3030      	addls	r0, #48	; 0x30
 8001f34:	3037      	addhi	r0, #55	; 0x37
	out[0] = (temp < 10) ? temp + '0' : temp + ('A' - 10);
 8001f36:	700b      	strb	r3, [r1, #0]
	out[1] = (temp < 10) ? temp + '0' : temp + ('A' - 10);
 8001f38:	7048      	strb	r0, [r1, #1]
 8001f3a:	4770      	bx	lr

08001f3c <BuildFrameToUSB>:
{
 8001f3c:	b084      	sub	sp, #16
 8001f3e:	e92d 41f0 	stmdb	sp!, {r4, r5, r6, r7, r8, lr}
 8001f42:	ac06      	add	r4, sp, #24
 8001f44:	e884 000f 	stmia.w	r4, {r0, r1, r2, r3}
    if (SysSettings.lawicelMode)
 8001f48:	4e56      	ldr	r6, [pc, #344]	; (80020a4 <BuildFrameToUSB+0x168>)
 8001f4a:	4607      	mov	r7, r0
 8001f4c:	7c33      	ldrb	r3, [r6, #16]
{
 8001f4e:	9a11      	ldr	r2, [sp, #68]	; 0x44
 8001f50:	9807      	ldr	r0, [sp, #28]
 8001f52:	f8dd 8020 	ldr.w	r8, [sp, #32]
 8001f56:	9909      	ldr	r1, [sp, #36]	; 0x24
 8001f58:	9d0b      	ldr	r5, [sp, #44]	; 0x2c
    if (SysSettings.lawicelMode)
 8001f5a:	2b00      	cmp	r3, #0
 8001f5c:	d06f      	beq.n	800203e <BuildFrameToUSB+0x102>
 8001f5e:	9c0a      	ldr	r4, [sp, #40]	; 0x28
    	if(frame.header.IDE == CAN_ID_STD)//(frame.format == STANDARD)
 8001f60:	2900      	cmp	r1, #0
 8001f62:	d146      	bne.n	8001ff2 <BuildFrameToUSB+0xb6>
    		if(frame.header.RTR == CAN_RTR_DATA)//(frame.type == DATA)
 8001f64:	2c00      	cmp	r4, #0
 8001f66:	d142      	bne.n	8001fee <BuildFrameToUSB+0xb2>
    			buf[pointer++] = 't';
 8001f68:	2374      	movs	r3, #116	; 0x74
    			buf[pointer++] = 'r';
 8001f6a:	7013      	strb	r3, [r2, #0]
    		buf[pointer++] = ((frame.header.StdId >> 8) < 10) ? (frame.header.StdId >> 8) + '0' : (frame.header.StdId >> 8) + ('A' - 10);
 8001f6c:	0a03      	lsrs	r3, r0, #8
 8001f6e:	2b09      	cmp	r3, #9
 8001f70:	bf94      	ite	ls
 8001f72:	3330      	addls	r3, #48	; 0x30
 8001f74:	3337      	addhi	r3, #55	; 0x37
 8001f76:	b2db      	uxtb	r3, r3
 8001f78:	7053      	strb	r3, [r2, #1]
    		ShortToHex(frame.header.StdId & 0xFF, &buf[pointer]);
 8001f7a:	1c91      	adds	r1, r2, #2
 8001f7c:	b2c0      	uxtb	r0, r0
 8001f7e:	f7ff ffcf 	bl	8001f20 <ShortToHex>
    		pointer +=2;
 8001f82:	2304      	movs	r3, #4
    	buf[pointer++] = (frame.header.DLC  < 10) ? frame.header.DLC + '0' : frame.header.DLC + ('A' - 10);
 8001f84:	2d09      	cmp	r5, #9
 8001f86:	eb02 0103 	add.w	r1, r2, r3
 8001f8a:	f103 0801 	add.w	r8, r3, #1
 8001f8e:	bf94      	ite	ls
 8001f90:	f105 0330 	addls.w	r3, r5, #48	; 0x30
 8001f94:	f105 0337 	addhi.w	r3, r5, #55	; 0x37
 8001f98:	b2db      	uxtb	r3, r3
 8001f9a:	700b      	strb	r3, [r1, #0]
    	if(frame.header.RTR == CAN_RTR_DATA)//(frame.type == DATA)
 8001f9c:	b91c      	cbnz	r4, 8001fa6 <BuildFrameToUSB+0x6a>
    		for(int i = 0; i < frame.header.DLC; i++)
 8001f9e:	42ac      	cmp	r4, r5
 8001fa0:	d142      	bne.n	8002028 <BuildFrameToUSB+0xec>
 8001fa2:	eb08 0844 	add.w	r8, r8, r4, lsl #1
    	if(conf.timestamp_en || SysSettings.lawicelTimestamping == true)
 8001fa6:	4b40      	ldr	r3, [pc, #256]	; (80020a8 <BuildFrameToUSB+0x16c>)
 8001fa8:	785b      	ldrb	r3, [r3, #1]
 8001faa:	b913      	cbnz	r3, 8001fb2 <BuildFrameToUSB+0x76>
 8001fac:	7cb3      	ldrb	r3, [r6, #18]
 8001fae:	2b01      	cmp	r3, #1
 8001fb0:	d113      	bne.n	8001fda <BuildFrameToUSB+0x9e>
    		uint16_t timestamp = frame.timestamp % 60000u;
 8001fb2:	f64e 2160 	movw	r1, #60000	; 0xea60
 8001fb6:	fbb7 f3f1 	udiv	r3, r7, r1
 8001fba:	fb01 7713 	mls	r7, r1, r3, r7
    		ShortToHex(timestamp >> 8 , &buf[pointer]);
 8001fbe:	eb02 0108 	add.w	r1, r2, r8
 8001fc2:	f3c7 2007 	ubfx	r0, r7, #8, #8
 8001fc6:	f7ff ffab 	bl	8001f20 <ShortToHex>
    		pointer +=2;
 8001fca:	f108 0102 	add.w	r1, r8, #2
    		ShortToHex(timestamp & 0xFF , &buf[pointer]);
 8001fce:	4411      	add	r1, r2
 8001fd0:	b2f8      	uxtb	r0, r7
 8001fd2:	f7ff ffa5 	bl	8001f20 <ShortToHex>
    		pointer +=2;
 8001fd6:	f108 0804 	add.w	r8, r8, #4
    	buf[pointer++] = CR;
 8001fda:	230d      	movs	r3, #13
 8001fdc:	f108 0001 	add.w	r0, r8, #1
 8001fe0:	f802 3008 	strb.w	r3, [r2, r8]
}
 8001fe4:	b280      	uxth	r0, r0
 8001fe6:	e8bd 41f0 	ldmia.w	sp!, {r4, r5, r6, r7, r8, lr}
 8001fea:	b004      	add	sp, #16
 8001fec:	4770      	bx	lr
    			buf[pointer++] = 'r';
 8001fee:	2372      	movs	r3, #114	; 0x72
 8001ff0:	e7bb      	b.n	8001f6a <BuildFrameToUSB+0x2e>
    		if(frame.header.RTR == CAN_RTR_DATA)//(frame.type == DATA)
 8001ff2:	b9bc      	cbnz	r4, 8002024 <BuildFrameToUSB+0xe8>
    			buf[pointer++] = 'T';
 8001ff4:	2354      	movs	r3, #84	; 0x54
    			buf[pointer++] = 'R';
 8001ff6:	7013      	strb	r3, [r2, #0]
    		ShortToHex((frame.header.ExtId >> 24) & 0xFF, &buf[pointer]);
 8001ff8:	1c51      	adds	r1, r2, #1
 8001ffa:	ea4f 6018 	mov.w	r0, r8, lsr #24
 8001ffe:	f7ff ff8f 	bl	8001f20 <ShortToHex>
    		ShortToHex((frame.header.ExtId >> 16) & 0xFF, &buf[pointer]);
 8002002:	f3c8 4007 	ubfx	r0, r8, #16, #8
 8002006:	1cd1      	adds	r1, r2, #3
 8002008:	f7ff ff8a 	bl	8001f20 <ShortToHex>
    		ShortToHex((frame.header.ExtId >> 8) & 0xFF, &buf[pointer]);
 800200c:	f3c8 2007 	ubfx	r0, r8, #8, #8
 8002010:	1d51      	adds	r1, r2, #5
 8002012:	f7ff ff85 	bl	8001f20 <ShortToHex>
    		ShortToHex((frame.header.ExtId >> 0) & 0xFF, &buf[pointer]);
 8002016:	fa5f f088 	uxtb.w	r0, r8
 800201a:	1dd1      	adds	r1, r2, #7
 800201c:	f7ff ff80 	bl	8001f20 <ShortToHex>
    		pointer +=2;
 8002020:	2309      	movs	r3, #9
 8002022:	e7af      	b.n	8001f84 <BuildFrameToUSB+0x48>
    			buf[pointer++] = 'R';
 8002024:	2352      	movs	r3, #82	; 0x52
 8002026:	e7e6      	b.n	8001ff6 <BuildFrameToUSB+0xba>
    			ShortToHex(frame.data_byte[i], &buf[pointer]);
 8002028:	ab06      	add	r3, sp, #24
 800202a:	4423      	add	r3, r4
 800202c:	eb08 0144 	add.w	r1, r8, r4, lsl #1
 8002030:	4411      	add	r1, r2
 8002032:	f893 0020 	ldrb.w	r0, [r3, #32]
 8002036:	f7ff ff73 	bl	8001f20 <ShortToHex>
    		for(int i = 0; i < frame.header.DLC; i++)
 800203a:	3401      	adds	r4, #1
 800203c:	e7af      	b.n	8001f9e <BuildFrameToUSB+0x62>
        if (settings.useBinarySerialComm)
 800203e:	4b1b      	ldr	r3, [pc, #108]	; (80020ac <BuildFrameToUSB+0x170>)
 8002040:	f893 30d4 	ldrb.w	r3, [r3, #212]	; 0xd4
 8002044:	b363      	cbz	r3, 80020a0 <BuildFrameToUSB+0x164>
            buf[pointer++] = 0xF1;
 8002046:	23f1      	movs	r3, #241	; 0xf1
            if (frame.header.IDE == CAN_ID_EXT) id_temp = frame.header.ExtId | 1 << 31;
 8002048:	2904      	cmp	r1, #4
            buf[pointer++] = (uint8_t)(frame.timestamp >> 8);
 800204a:	ea4f 2117 	mov.w	r1, r7, lsr #8
            if (frame.header.IDE == CAN_ID_EXT) id_temp = frame.header.ExtId | 1 << 31;
 800204e:	bf08      	it	eq
 8002050:	f048 4000 	orreq.w	r0, r8, #2147483648	; 0x80000000
            buf[pointer++] = (uint8_t)(frame.timestamp >> 8);
 8002054:	70d1      	strb	r1, [r2, #3]
            buf[pointer++] = (uint8_t)(frame.timestamp >> 16);
 8002056:	0c39      	lsrs	r1, r7, #16
 8002058:	7111      	strb	r1, [r2, #4]
            buf[pointer++] = (uint8_t)(id_temp >> 8);
 800205a:	0a01      	lsrs	r1, r0, #8
 800205c:	71d1      	strb	r1, [r2, #7]
            buf[pointer++] = (uint8_t)(id_temp >> 16);
 800205e:	0c01      	lsrs	r1, r0, #16
 8002060:	7211      	strb	r1, [r2, #8]
            buf[pointer++] = frame.header.DLC + (uint8_t)(whichBus << 4);
 8002062:	9910      	ldr	r1, [sp, #64]	; 0x40
            buf[pointer++] = (uint8_t)(id_temp & 0xFF);
 8002064:	7190      	strb	r0, [r2, #6]
            buf[pointer++] = (uint8_t)(id_temp >> 24);
 8002066:	0e00      	lsrs	r0, r0, #24
            buf[pointer++] = 0xF1;
 8002068:	7013      	strb	r3, [r2, #0]
            buf[pointer++] = (uint8_t)(id_temp >> 24);
 800206a:	7250      	strb	r0, [r2, #9]
            buf[pointer++] = 0; //0 = canbus frame sending
 800206c:	2300      	movs	r3, #0
            buf[pointer++] = frame.header.DLC + (uint8_t)(whichBus << 4);
 800206e:	eb05 1001 	add.w	r0, r5, r1, lsl #4
 8002072:	4611      	mov	r1, r2
            buf[pointer++] = (uint8_t)(frame.timestamp & 0xFF);
 8002074:	7097      	strb	r7, [r2, #2]
            buf[pointer++] = (uint8_t)(frame.timestamp >> 24);
 8002076:	0e3f      	lsrs	r7, r7, #24
            buf[pointer++] = 0; //0 = canbus frame sending
 8002078:	7053      	strb	r3, [r2, #1]
            buf[pointer++] = (uint8_t)(frame.timestamp >> 24);
 800207a:	7157      	strb	r7, [r2, #5]
            buf[pointer++] = frame.header.DLC + (uint8_t)(whichBus << 4);
 800207c:	f801 0f0a 	strb.w	r0, [r1, #10]!
            for (int c = 0; c < frame.header.DLC; c++) {
 8002080:	42ab      	cmp	r3, r5
 8002082:	d105      	bne.n	8002090 <BuildFrameToUSB+0x154>
            buf[pointer++] = temp;
 8002084:	441a      	add	r2, r3
 8002086:	f103 000c 	add.w	r0, r3, #12
 800208a:	2300      	movs	r3, #0
 800208c:	72d3      	strb	r3, [r2, #11]
 800208e:	e7a9      	b.n	8001fe4 <BuildFrameToUSB+0xa8>
                buf[pointer++] = frame.data_byte[c];
 8002090:	a806      	add	r0, sp, #24
 8002092:	4418      	add	r0, r3
 8002094:	f890 0020 	ldrb.w	r0, [r0, #32]
            for (int c = 0; c < frame.header.DLC; c++) {
 8002098:	3301      	adds	r3, #1
                buf[pointer++] = frame.data_byte[c];
 800209a:	f801 0f01 	strb.w	r0, [r1, #1]!
 800209e:	e7ef      	b.n	8002080 <BuildFrameToUSB+0x144>
	uint32_t pointer = 0;
 80020a0:	4618      	mov	r0, r3
 80020a2:	e79f      	b.n	8001fe4 <BuildFrameToUSB+0xa8>
 80020a4:	200001a0 	.word	0x200001a0
 80020a8:	20000080 	.word	0x20000080
 80020ac:	2000009c 	.word	0x2000009c

080020b0 <CAN_Buffer_pull>:
{
 80020b0:	e92d 41f0 	stmdb	sp!, {r4, r5, r6, r7, r8, lr}
	if(CAN_Buffer.Pointer_Read != CAN_Buffer.Pointer_Write)
 80020b4:	4e18      	ldr	r6, [pc, #96]	; (8002118 <CAN_Buffer_pull+0x68>)
{
 80020b6:	b088      	sub	sp, #32
	if(CAN_Buffer.Pointer_Read != CAN_Buffer.Pointer_Write)
 80020b8:	8834      	ldrh	r4, [r6, #0]
 80020ba:	8873      	ldrh	r3, [r6, #2]
 80020bc:	42a3      	cmp	r3, r4
 80020be:	d027      	beq.n	8002110 <CAN_Buffer_pull+0x60>
		uint16_t length = BuildFrameToUSB(CAN_Buffer.Item[CAN_Buffer.Pointer_Read], 0, uart_tx_bufer);
 80020c0:	2328      	movs	r3, #40	; 0x28
 80020c2:	fb03 6404 	mla	r4, r3, r4, r6
 80020c6:	2300      	movs	r3, #0
 80020c8:	466d      	mov	r5, sp
 80020ca:	f8df 8054 	ldr.w	r8, [pc, #84]	; 8002120 <CAN_Buffer_pull+0x70>
 80020ce:	9306      	str	r3, [sp, #24]
 80020d0:	f8cd 801c 	str.w	r8, [sp, #28]
 80020d4:	f104 0708 	add.w	r7, r4, #8
 80020d8:	3418      	adds	r4, #24
 80020da:	cc0f      	ldmia	r4!, {r0, r1, r2, r3}
 80020dc:	c50f      	stmia	r5!, {r0, r1, r2, r3}
 80020de:	e894 0003 	ldmia.w	r4, {r0, r1}
 80020e2:	e885 0003 	stmia.w	r5, {r0, r1}
 80020e6:	e897 000f 	ldmia.w	r7, {r0, r1, r2, r3}
 80020ea:	f7ff ff27 	bl	8001f3c <BuildFrameToUSB>
		if(HAL_UART_Transmit_DMA(huart_active, uart_tx_bufer, length) == HAL_OK)
 80020ee:	4b0b      	ldr	r3, [pc, #44]	; (800211c <CAN_Buffer_pull+0x6c>)
 80020f0:	4602      	mov	r2, r0
 80020f2:	4641      	mov	r1, r8
 80020f4:	6818      	ldr	r0, [r3, #0]
 80020f6:	f7ff fcaf 	bl	8001a58 <HAL_UART_Transmit_DMA>
 80020fa:	b958      	cbnz	r0, 8002114 <CAN_Buffer_pull+0x64>
			CAN_Buffer.Pointer_Read = (CAN_Buffer.Pointer_Read < (CAN_BUFFER_SIZE-1)) ? (CAN_Buffer.Pointer_Read + 1) : 0;
 80020fc:	8833      	ldrh	r3, [r6, #0]
 80020fe:	2b3a      	cmp	r3, #58	; 0x3a
 8002100:	bf8e      	itee	hi
 8002102:	4603      	movhi	r3, r0
 8002104:	3301      	addls	r3, #1
 8002106:	b29b      	uxthls	r3, r3
 8002108:	8033      	strh	r3, [r6, #0]
}
 800210a:	b008      	add	sp, #32
 800210c:	e8bd 81f0 	ldmia.w	sp!, {r4, r5, r6, r7, r8, pc}
		return HAL_BUSY;
 8002110:	2002      	movs	r0, #2
 8002112:	e7fa      	b.n	800210a <CAN_Buffer_pull+0x5a>
			return HAL_ERROR;
 8002114:	2001      	movs	r0, #1
 8002116:	e7f8      	b.n	800210a <CAN_Buffer_pull+0x5a>
 8002118:	20000208 	.word	0x20000208
 800211c:	200019d4 	.word	0x200019d4
 8002120:	20001949 	.word	0x20001949

08002124 <Close_CAN_cannel>:
	}
	return HAL_ERROR;
}

HAL_StatusTypeDef Close_CAN_cannel(void)
{
 8002124:	b510      	push	{r4, lr}
	if(HAL_CAN_DeInit(&hcan) == HAL_OK)
 8002126:	4809      	ldr	r0, [pc, #36]	; (800214c <Close_CAN_cannel+0x28>)
 8002128:	f7fe f9b2 	bl	8000490 <HAL_CAN_DeInit>
 800212c:	4604      	mov	r4, r0
 800212e:	b958      	cbnz	r0, 8002148 <Close_CAN_cannel+0x24>
	{
		conf.state = IDLE_ST;
 8002130:	4b07      	ldr	r3, [pc, #28]	; (8002150 <Close_CAN_cannel+0x2c>)
		SysSettings.lawicelMode = false;
		HAL_GPIO_WritePin(ERROR_LED_GPIO_Port, ERROR_LED_Pin, GPIO_PIN_RESET);
 8002132:	4602      	mov	r2, r0
		conf.state = IDLE_ST;
 8002134:	7018      	strb	r0, [r3, #0]
		SysSettings.lawicelMode = false;
 8002136:	4b07      	ldr	r3, [pc, #28]	; (8002154 <Close_CAN_cannel+0x30>)
		HAL_GPIO_WritePin(ERROR_LED_GPIO_Port, ERROR_LED_Pin, GPIO_PIN_RESET);
 8002138:	f44f 7180 	mov.w	r1, #256	; 0x100
		SysSettings.lawicelMode = false;
 800213c:	7418      	strb	r0, [r3, #16]
		HAL_GPIO_WritePin(ERROR_LED_GPIO_Port, ERROR_LED_Pin, GPIO_PIN_RESET);
 800213e:	4806      	ldr	r0, [pc, #24]	; (8002158 <Close_CAN_cannel+0x34>)
 8002140:	f7fe fef8 	bl	8000f34 <HAL_GPIO_WritePin>
		return HAL_OK;
	}

	return HAL_ERROR;
}
 8002144:	4620      	mov	r0, r4
 8002146:	bd10      	pop	{r4, pc}
	return HAL_ERROR;
 8002148:	2401      	movs	r4, #1
 800214a:	e7fb      	b.n	8002144 <Close_CAN_cannel+0x20>
 800214c:	20000bd4 	.word	0x20000bd4
 8002150:	20000080 	.word	0x20000080
 8002154:	200001a0 	.word	0x200001a0
 8002158:	40010800 	.word	0x40010800

0800215c <Change_CAN_channel>:

void Change_CAN_channel(void)
{
 800215c:	b508      	push	{r3, lr}
	//Close_CAN_cannel();
	//Close_LIN_cannel();
	HAL_GPIO_WritePin(HS_CAN_EN_GPIO_Port, HS_CAN_EN_Pin, GPIO_PIN_RESET);
 800215e:	2200      	movs	r2, #0
 8002160:	2180      	movs	r1, #128	; 0x80
 8002162:	4817      	ldr	r0, [pc, #92]	; (80021c0 <Change_CAN_channel+0x64>)
 8002164:	f7fe fee6 	bl	8000f34 <HAL_GPIO_WritePin>
	HAL_GPIO_WritePin(FT_CAN_EN_GPIO_Port, FT_CAN_EN_Pin, GPIO_PIN_RESET);
 8002168:	2200      	movs	r2, #0
 800216a:	2140      	movs	r1, #64	; 0x40
 800216c:	4814      	ldr	r0, [pc, #80]	; (80021c0 <Change_CAN_channel+0x64>)
 800216e:	f7fe fee1 	bl	8000f34 <HAL_GPIO_WritePin>
	HAL_GPIO_WritePin(SW_CAN_EN_GPIO_Port, SW_CAN_EN_Pin, GPIO_PIN_RESET);
 8002172:	2200      	movs	r2, #0
 8002174:	2120      	movs	r1, #32
 8002176:	4812      	ldr	r0, [pc, #72]	; (80021c0 <Change_CAN_channel+0x64>)
 8002178:	f7fe fedc 	bl	8000f34 <HAL_GPIO_WritePin>
	HAL_GPIO_WritePin(LIN_EN_GPIO_Port, LIN_EN_Pin, GPIO_PIN_RESET);
 800217c:	2200      	movs	r2, #0
 800217e:	2110      	movs	r1, #16
 8002180:	480f      	ldr	r0, [pc, #60]	; (80021c0 <Change_CAN_channel+0x64>)
 8002182:	f7fe fed7 	bl	8000f34 <HAL_GPIO_WritePin>

	//SysSettings.numBus++;
	//if(SysSettings.numBus > 4) SysSettings.numBus = 0;

	HAL_Delay(50);
 8002186:	2032      	movs	r0, #50	; 0x32
 8002188:	f7fe f830 	bl	80001ec <HAL_Delay>

	switch(SysSettings.numBus)
 800218c:	4b0d      	ldr	r3, [pc, #52]	; (80021c4 <Change_CAN_channel+0x68>)
 800218e:	f993 3018 	ldrsb.w	r3, [r3, #24]
 8002192:	2b03      	cmp	r3, #3
 8002194:	d813      	bhi.n	80021be <Change_CAN_channel+0x62>
 8002196:	e8df f003 	tbb	[pc, r3]
 800219a:	0902      	.short	0x0902
 800219c:	0f0c      	.short	0x0f0c
	{
	default: break;
	case 0: HAL_GPIO_WritePin(HS_CAN_EN_GPIO_Port, HS_CAN_EN_Pin, GPIO_PIN_SET); break;
 800219e:	2201      	movs	r2, #1
 80021a0:	2180      	movs	r1, #128	; 0x80
    	else // CAN
    	{
    		Open_CAN_cannel();
    	}
	}*/
}
 80021a2:	e8bd 4008 	ldmia.w	sp!, {r3, lr}
	case 3: HAL_GPIO_WritePin(LIN_EN_GPIO_Port, LIN_EN_Pin, GPIO_PIN_SET); break;
 80021a6:	4806      	ldr	r0, [pc, #24]	; (80021c0 <Change_CAN_channel+0x64>)
 80021a8:	f7fe bec4 	b.w	8000f34 <HAL_GPIO_WritePin>
	case 1: HAL_GPIO_WritePin(FT_CAN_EN_GPIO_Port, FT_CAN_EN_Pin, GPIO_PIN_SET); break;
 80021ac:	2201      	movs	r2, #1
 80021ae:	2140      	movs	r1, #64	; 0x40
 80021b0:	e7f7      	b.n	80021a2 <Change_CAN_channel+0x46>
	case 2: HAL_GPIO_WritePin(SW_CAN_EN_GPIO_Port, SW_CAN_EN_Pin, GPIO_PIN_SET); break;
 80021b2:	2201      	movs	r2, #1
 80021b4:	2120      	movs	r1, #32
 80021b6:	e7f4      	b.n	80021a2 <Change_CAN_channel+0x46>
	case 3: HAL_GPIO_WritePin(LIN_EN_GPIO_Port, LIN_EN_Pin, GPIO_PIN_SET); break;
 80021b8:	2201      	movs	r2, #1
 80021ba:	2110      	movs	r1, #16
 80021bc:	e7f1      	b.n	80021a2 <Change_CAN_channel+0x46>
 80021be:	bd08      	pop	{r3, pc}
 80021c0:	40010c00 	.word	0x40010c00
 80021c4:	200001a0 	.word	0x200001a0

080021c8 <Open_CAN_cannel>:
{
 80021c8:	b508      	push	{r3, lr}
	Change_CAN_channel();
 80021ca:	f7ff ffc7 	bl	800215c <Change_CAN_channel>
	if(CAN_Init_Custom(SysSettings.CAN_Speed[SysSettings.numBus], SysSettings.CAN_mode[SysSettings.numBus]) == HAL_OK)//);CAN_MODE_LOOPBACK
 80021ce:	4b0f      	ldr	r3, [pc, #60]	; (800220c <Open_CAN_cannel+0x44>)
 80021d0:	f993 2018 	ldrsb.w	r2, [r3, #24]
 80021d4:	eb03 0182 	add.w	r1, r3, r2, lsl #2
 80021d8:	460b      	mov	r3, r1
 80021da:	6ac9      	ldr	r1, [r1, #44]	; 0x2c
 80021dc:	69d8      	ldr	r0, [r3, #28]
 80021de:	f7ff fe13 	bl	8001e08 <CAN_Init_Custom>
 80021e2:	b108      	cbz	r0, 80021e8 <Open_CAN_cannel+0x20>
	return HAL_ERROR;
 80021e4:	2001      	movs	r0, #1
 80021e6:	bd08      	pop	{r3, pc}
 80021e8:	f7ff fd9c 	bl	8001d24 <SetFilterCAN.part.0>
	  if(SetFilterCAN(0, 0) != HAL_OK) return HAL_ERROR;
 80021ec:	2800      	cmp	r0, #0
 80021ee:	d1f9      	bne.n	80021e4 <Open_CAN_cannel+0x1c>
		  if(HAL_CAN_Start(&hcan) != HAL_OK) return HAL_ERROR;
 80021f0:	4807      	ldr	r0, [pc, #28]	; (8002210 <Open_CAN_cannel+0x48>)
 80021f2:	f7fe f8f4 	bl	80003de <HAL_CAN_Start>
 80021f6:	2800      	cmp	r0, #0
 80021f8:	d1f4      	bne.n	80021e4 <Open_CAN_cannel+0x1c>
		  if(HAL_CAN_ActivateNotification(&hcan, CAN_IT_RX_FIFO0_MSG_PENDING |
 80021fa:	f240 4137 	movw	r1, #1079	; 0x437
 80021fe:	4804      	ldr	r0, [pc, #16]	; (8002210 <Open_CAN_cannel+0x48>)
 8002200:	f7fe fa1e 	bl	8000640 <HAL_CAN_ActivateNotification>
	  if(SetFilterCAN(0, 0) != HAL_OK) return HAL_ERROR;
 8002204:	3000      	adds	r0, #0
 8002206:	bf18      	it	ne
 8002208:	2001      	movne	r0, #1
}
 800220a:	bd08      	pop	{r3, pc}
 800220c:	200001a0 	.word	0x200001a0
 8002210:	20000bd4 	.word	0x20000bd4

08002214 <exec_usb_cmd>:
{
 8002214:	b570      	push	{r4, r5, r6, lr}
 8002216:	4604      	mov	r4, r0
    uint8_t cmd_len = strlen ((char *)cmd_buf);	// get command length
 8002218:	f7fd ff98 	bl	800014c <strlen>
    switch (cmd_buf[0]) {
 800221c:	7822      	ldrb	r2, [r4, #0]
    uint8_t cmd_len = strlen ((char *)cmd_buf);	// get command length
 800221e:	b2c3      	uxtb	r3, r0
    switch (cmd_buf[0]) {
 8002220:	3a41      	subs	r2, #65	; 0x41
 8002222:	2a35      	cmp	r2, #53	; 0x35
 8002224:	f200 80a9 	bhi.w	800237a <exec_usb_cmd+0x166>
 8002228:	e8df f012 	tbh	[pc, r2, lsl #1]
 800222c:	03120044 	.word	0x03120044
 8002230:	00a701b4 	.word	0x00a701b4
 8002234:	00820044 	.word	0x00820044
 8002238:	00a70044 	.word	0x00a70044
 800223c:	00a700a7 	.word	0x00a700a7
 8002240:	02b500a7 	.word	0x02b500a7
 8002244:	00360044 	.word	0x00360044
 8002248:	00a70196 	.word	0x00a70196
 800224c:	024700a7 	.word	0x024700a7
 8002250:	026f00b3 	.word	0x026f00b3
 8002254:	004602be 	.word	0x004602be
 8002258:	00a70044 	.word	0x00a70044
 800225c:	006900a7 	.word	0x006900a7
 8002260:	00a700a7 	.word	0x00a700a7
 8002264:	00a700a7 	.word	0x00a700a7
 8002268:	00a700a7 	.word	0x00a700a7
 800226c:	00a700a7 	.word	0x00a700a7
 8002270:	00a700a7 	.word	0x00a700a7
 8002274:	00a700a7 	.word	0x00a700a7
 8002278:	00a700a7 	.word	0x00a700a7
 800227c:	00a700a7 	.word	0x00a700a7
 8002280:	00a700a7 	.word	0x00a700a7
 8002284:	00a70044 	.word	0x00a70044
 8002288:	00a700a7 	.word	0x00a700a7
 800228c:	01dc00a7 	.word	0x01dc00a7
 8002290:	02070095 	.word	0x02070095
 8002294:	005802eb 	.word	0x005802eb
        	uart_tx_com_bufer[uart_tx_pointer++] = GET_SERIAL;
 8002298:	214e      	movs	r1, #78	; 0x4e
 800229a:	48c6      	ldr	r0, [pc, #792]	; (80025b4 <exec_usb_cmd+0x3a0>)
 800229c:	4bc6      	ldr	r3, [pc, #792]	; (80025b8 <exec_usb_cmd+0x3a4>)
 800229e:	6802      	ldr	r2, [r0, #0]
 80022a0:	5499      	strb	r1, [r3, r2]
            uart_tx_com_bufer[uart_tx_pointer++] = '0';
 80022a2:	4413      	add	r3, r2
            uart_tx_com_bufer[uart_tx_pointer++] = '1';
 80022a4:	3205      	adds	r2, #5
            uart_tx_com_bufer[uart_tx_pointer++] = '0';
 80022a6:	2130      	movs	r1, #48	; 0x30
            uart_tx_com_bufer[uart_tx_pointer++] = '1';
 80022a8:	6002      	str	r2, [r0, #0]
 80022aa:	2231      	movs	r2, #49	; 0x31
            uart_tx_com_bufer[uart_tx_pointer++] = '0';
 80022ac:	7059      	strb	r1, [r3, #1]
            uart_tx_com_bufer[uart_tx_pointer++] = '0';
 80022ae:	7099      	strb	r1, [r3, #2]
            uart_tx_com_bufer[uart_tx_pointer++] = '0';
 80022b0:	70d9      	strb	r1, [r3, #3]
            uart_tx_com_bufer[uart_tx_pointer++] = '1';
 80022b2:	711a      	strb	r2, [r3, #4]
            return CR;
 80022b4:	200d      	movs	r0, #13
 80022b6:	bd70      	pop	{r4, r5, r6, pc}
        	uart_tx_com_bufer[uart_tx_pointer++] = (GET_VERSION);
 80022b8:	2456      	movs	r4, #86	; 0x56
 80022ba:	48be      	ldr	r0, [pc, #760]	; (80025b4 <exec_usb_cmd+0x3a0>)
 80022bc:	4abe      	ldr	r2, [pc, #760]	; (80025b8 <exec_usb_cmd+0x3a4>)
 80022be:	6803      	ldr	r3, [r0, #0]
	out[0] = (temp < 10) ? temp + '0' : temp + ('A' - 10);
 80022c0:	2531      	movs	r5, #49	; 0x31
        	uart_tx_com_bufer[uart_tx_pointer++] = (GET_VERSION);
 80022c2:	54d4      	strb	r4, [r2, r3]
	out[1] = (temp < 10) ? temp + '0' : temp + ('A' - 10);
 80022c4:	2430      	movs	r4, #48	; 0x30
        	uart_tx_com_bufer[uart_tx_pointer++] = (GET_VERSION);
 80022c6:	1c59      	adds	r1, r3, #1
	out[0] = (temp < 10) ? temp + '0' : temp + ('A' - 10);
 80022c8:	5455      	strb	r5, [r2, r1]
	out[1] = (temp < 10) ? temp + '0' : temp + ('A' - 10);
 80022ca:	4411      	add	r1, r2
 80022cc:	704c      	strb	r4, [r1, #1]
            uart_tx_pointer +=2;
 80022ce:	1cd9      	adds	r1, r3, #3
	out[0] = (temp < 10) ? temp + '0' : temp + ('A' - 10);
 80022d0:	5455      	strb	r5, [r2, r1]
	out[1] = (temp < 10) ? temp + '0' : temp + ('A' - 10);
 80022d2:	440a      	add	r2, r1
 80022d4:	7054      	strb	r4, [r2, #1]
            uart_tx_pointer +=2;
 80022d6:	3305      	adds	r3, #5
 80022d8:	6003      	str	r3, [r0, #0]
 80022da:	e7eb      	b.n	80022b4 <exec_usb_cmd+0xa0>
        	uart_tx_com_bufer[uart_tx_pointer++] = (GET_SW_VERSION);
 80022dc:	2476      	movs	r4, #118	; 0x76
 80022de:	48b5      	ldr	r0, [pc, #724]	; (80025b4 <exec_usb_cmd+0x3a0>)
 80022e0:	4ab5      	ldr	r2, [pc, #724]	; (80025b8 <exec_usb_cmd+0x3a4>)
 80022e2:	6803      	ldr	r3, [r0, #0]
	out[1] = (temp < 10) ? temp + '0' : temp + ('A' - 10);
 80022e4:	2531      	movs	r5, #49	; 0x31
        	uart_tx_com_bufer[uart_tx_pointer++] = (GET_SW_VERSION);
 80022e6:	54d4      	strb	r4, [r2, r3]
	out[0] = (temp < 10) ? temp + '0' : temp + ('A' - 10);
 80022e8:	2430      	movs	r4, #48	; 0x30
        	uart_tx_com_bufer[uart_tx_pointer++] = (GET_SW_VERSION);
 80022ea:	1c59      	adds	r1, r3, #1
	out[0] = (temp < 10) ? temp + '0' : temp + ('A' - 10);
 80022ec:	5454      	strb	r4, [r2, r1]
	out[1] = (temp < 10) ? temp + '0' : temp + ('A' - 10);
 80022ee:	4411      	add	r1, r2
 80022f0:	704d      	strb	r5, [r1, #1]
            uart_tx_pointer +=2;
 80022f2:	1cd9      	adds	r1, r3, #3
	out[0] = (temp < 10) ? temp + '0' : temp + ('A' - 10);
 80022f4:	5454      	strb	r4, [r2, r1]
	out[1] = (temp < 10) ? temp + '0' : temp + ('A' - 10);
 80022f6:	440a      	add	r2, r1
 80022f8:	2141      	movs	r1, #65	; 0x41
 80022fa:	7051      	strb	r1, [r2, #1]
 80022fc:	e7eb      	b.n	80022d6 <exec_usb_cmd+0xc2>
            if(cmd_buf[1] == '1')
 80022fe:	7861      	ldrb	r1, [r4, #1]
 8002300:	4bae      	ldr	r3, [pc, #696]	; (80025bc <exec_usb_cmd+0x3a8>)
 8002302:	2931      	cmp	r1, #49	; 0x31
 8002304:	4aae      	ldr	r2, [pc, #696]	; (80025c0 <exec_usb_cmd+0x3ac>)
 8002306:	d103      	bne.n	8002310 <exec_usb_cmd+0xfc>
            	conf.timestamp_en = 1;
 8002308:	2101      	movs	r1, #1
            	conf.timestamp_en = 0;
 800230a:	7059      	strb	r1, [r3, #1]
            	SysSettings.lawicelTimestamping = false;
 800230c:	7491      	strb	r1, [r2, #18]
 800230e:	e7d1      	b.n	80022b4 <exec_usb_cmd+0xa0>
            else if(cmd_buf[1] == '0')
 8002310:	2930      	cmp	r1, #48	; 0x30
 8002312:	d101      	bne.n	8002318 <exec_usb_cmd+0x104>
            	conf.timestamp_en = 0;
 8002314:	2100      	movs	r1, #0
 8002316:	e7f8      	b.n	800230a <exec_usb_cmd+0xf6>
            	conf.timestamp_en = (conf.timestamp_en == 1) ? 0 : 1;
 8002318:	7859      	ldrb	r1, [r3, #1]
 800231a:	f111 31ff 	adds.w	r1, r1, #4294967295
 800231e:	bf18      	it	ne
 8002320:	2101      	movne	r1, #1
 8002322:	7059      	strb	r1, [r3, #1]
            	SysSettings.lawicelTimestamping = (SysSettings.lawicelTimestamping) ? false : true;
 8002324:	7c93      	ldrb	r3, [r2, #18]
 8002326:	fab3 f383 	clz	r3, r3
 800232a:	095b      	lsrs	r3, r3, #5
 800232c:	7493      	strb	r3, [r2, #18]
 800232e:	e7c1      	b.n	80022b4 <exec_usb_cmd+0xa0>
        	uart_tx_com_bufer[uart_tx_pointer++] = (READ_STATUS);
 8002330:	2146      	movs	r1, #70	; 0x46
 8002332:	4aa0      	ldr	r2, [pc, #640]	; (80025b4 <exec_usb_cmd+0x3a0>)
 8002334:	4ca0      	ldr	r4, [pc, #640]	; (80025b8 <exec_usb_cmd+0x3a4>)
 8002336:	6813      	ldr	r3, [r2, #0]
            uart_tx_com_bufer[uart_tx_pointer++] = HAL_CAN_GetState(&hcan) + '0';
 8002338:	48a2      	ldr	r0, [pc, #648]	; (80025c4 <exec_usb_cmd+0x3b0>)
        	uart_tx_com_bufer[uart_tx_pointer++] = (READ_STATUS);
 800233a:	54e1      	strb	r1, [r4, r3]
            uart_tx_com_bufer[uart_tx_pointer++] = '0';
 800233c:	2130      	movs	r1, #48	; 0x30
 800233e:	441c      	add	r4, r3
            uart_tx_com_bufer[uart_tx_pointer++] = HAL_CAN_GetState(&hcan) + '0';
 8002340:	3303      	adds	r3, #3
            uart_tx_com_bufer[uart_tx_pointer++] = '0';
 8002342:	7061      	strb	r1, [r4, #1]
            uart_tx_com_bufer[uart_tx_pointer++] = HAL_CAN_GetState(&hcan) + '0';
 8002344:	6013      	str	r3, [r2, #0]
 8002346:	f7fe fa91 	bl	800086c <HAL_CAN_GetState>
 800234a:	3030      	adds	r0, #48	; 0x30
 800234c:	70a0      	strb	r0, [r4, #2]
            HAL_CAN_ResetError(&hcan);
 800234e:	489d      	ldr	r0, [pc, #628]	; (80025c4 <exec_usb_cmd+0x3b0>)
 8002350:	f7fe faa1 	bl	8000896 <HAL_CAN_ResetError>
 8002354:	e7ae      	b.n	80022b4 <exec_usb_cmd+0xa0>
        	SysSettings.CAN_Speed[SysSettings.numBus] = 0;
 8002356:	4a9a      	ldr	r2, [pc, #616]	; (80025c0 <exec_usb_cmd+0x3ac>)
        		SysSettings.CAN_Speed[SysSettings.numBus] *= 10;
 8002358:	260a      	movs	r6, #10
        	SysSettings.CAN_Speed[SysSettings.numBus] = 0;
 800235a:	f992 1018 	ldrsb.w	r1, [r2, #24]
 800235e:	1c65      	adds	r5, r4, #1
 8002360:	3106      	adds	r1, #6
 8002362:	eb02 0281 	add.w	r2, r2, r1, lsl #2
 8002366:	2100      	movs	r1, #0
 8002368:	6051      	str	r1, [r2, #4]
        	for(int i = 1; i < cmd_len; i++)
 800236a:	1b29      	subs	r1, r5, r4
 800236c:	428b      	cmp	r3, r1
 800236e:	dda1      	ble.n	80022b4 <exec_usb_cmd+0xa0>
        		if(cmd_buf[i] < '0' || cmd_buf[i] > '9') return ERROR;
 8002370:	f815 1b01 	ldrb.w	r1, [r5], #1
 8002374:	3930      	subs	r1, #48	; 0x30
 8002376:	2909      	cmp	r1, #9
 8002378:	d901      	bls.n	800237e <exec_usb_cmd+0x16a>
            	return ERROR;
 800237a:	2007      	movs	r0, #7
}				// end exec_usb_cmd
 800237c:	bd70      	pop	{r4, r5, r6, pc}
        		SysSettings.CAN_Speed[SysSettings.numBus] *= 10;
 800237e:	6851      	ldr	r1, [r2, #4]
 8002380:	4371      	muls	r1, r6
 8002382:	6051      	str	r1, [r2, #4]
        		SysSettings.CAN_Speed[SysSettings.numBus] += HexTo4bits(cmd_buf[i]);
 8002384:	f815 0c01 	ldrb.w	r0, [r5, #-1]
 8002388:	f7ff fd1c 	bl	8001dc4 <HexTo4bits>
 800238c:	4408      	add	r0, r1
 800238e:	6050      	str	r0, [r2, #4]
 8002390:	e7eb      	b.n	800236a <exec_usb_cmd+0x156>
            if ((cmd_len != 5) && (cmd_len != 2))
 8002392:	2b05      	cmp	r3, #5
 8002394:	d001      	beq.n	800239a <exec_usb_cmd+0x186>
 8002396:	2b02      	cmp	r3, #2
 8002398:	d1ef      	bne.n	800237a <exec_usb_cmd+0x166>
            if (conf.state != IDLE_ST)
 800239a:	4b88      	ldr	r3, [pc, #544]	; (80025bc <exec_usb_cmd+0x3a8>)
 800239c:	781b      	ldrb	r3, [r3, #0]
 800239e:	2b00      	cmp	r3, #0
 80023a0:	d1eb      	bne.n	800237a <exec_usb_cmd+0x166>
            switch(cmd_buf[1])
 80023a2:	7863      	ldrb	r3, [r4, #1]
 80023a4:	3b30      	subs	r3, #48	; 0x30
 80023a6:	2b34      	cmp	r3, #52	; 0x34
 80023a8:	d8e7      	bhi.n	800237a <exec_usb_cmd+0x166>
 80023aa:	a201      	add	r2, pc, #4	; (adr r2, 80023b0 <exec_usb_cmd+0x19c>)
 80023ac:	f852 f023 	ldr.w	pc, [r2, r3, lsl #2]
 80023b0:	08002485 	.word	0x08002485
 80023b4:	08002497 	.word	0x08002497
 80023b8:	080024a7 	.word	0x080024a7
 80023bc:	080024b7 	.word	0x080024b7
 80023c0:	080024c5 	.word	0x080024c5
 80023c4:	080024d3 	.word	0x080024d3
 80023c8:	080024e1 	.word	0x080024e1
 80023cc:	080024ef 	.word	0x080024ef
 80023d0:	080024fd 	.word	0x080024fd
 80023d4:	0800250b 	.word	0x0800250b
 80023d8:	0800237b 	.word	0x0800237b
 80023dc:	0800237b 	.word	0x0800237b
 80023e0:	0800237b 	.word	0x0800237b
 80023e4:	0800237b 	.word	0x0800237b
 80023e8:	0800237b 	.word	0x0800237b
 80023ec:	0800237b 	.word	0x0800237b
 80023f0:	0800237b 	.word	0x0800237b
 80023f4:	08002519 	.word	0x08002519
 80023f8:	08002529 	.word	0x08002529
 80023fc:	08002539 	.word	0x08002539
 8002400:	08002549 	.word	0x08002549
 8002404:	0800237b 	.word	0x0800237b
 8002408:	0800237b 	.word	0x0800237b
 800240c:	0800237b 	.word	0x0800237b
 8002410:	0800237b 	.word	0x0800237b
 8002414:	0800237b 	.word	0x0800237b
 8002418:	0800237b 	.word	0x0800237b
 800241c:	0800237b 	.word	0x0800237b
 8002420:	0800237b 	.word	0x0800237b
 8002424:	0800237b 	.word	0x0800237b
 8002428:	0800237b 	.word	0x0800237b
 800242c:	0800237b 	.word	0x0800237b
 8002430:	0800237b 	.word	0x0800237b
 8002434:	0800237b 	.word	0x0800237b
 8002438:	0800237b 	.word	0x0800237b
 800243c:	0800237b 	.word	0x0800237b
 8002440:	0800237b 	.word	0x0800237b
 8002444:	0800237b 	.word	0x0800237b
 8002448:	0800237b 	.word	0x0800237b
 800244c:	0800237b 	.word	0x0800237b
 8002450:	0800237b 	.word	0x0800237b
 8002454:	0800237b 	.word	0x0800237b
 8002458:	0800237b 	.word	0x0800237b
 800245c:	0800237b 	.word	0x0800237b
 8002460:	0800237b 	.word	0x0800237b
 8002464:	0800237b 	.word	0x0800237b
 8002468:	0800237b 	.word	0x0800237b
 800246c:	0800237b 	.word	0x0800237b
 8002470:	0800237b 	.word	0x0800237b
 8002474:	08002519 	.word	0x08002519
 8002478:	08002529 	.word	0x08002529
 800247c:	08002539 	.word	0x08002539
 8002480:	08002549 	.word	0x08002549
            	SysSettings.CAN_Speed[SysSettings.numBus] = 10000;
 8002484:	4b4e      	ldr	r3, [pc, #312]	; (80025c0 <exec_usb_cmd+0x3ac>)
 8002486:	f993 2018 	ldrsb.w	r2, [r3, #24]
 800248a:	eb03 0382 	add.w	r3, r3, r2, lsl #2
 800248e:	f242 7210 	movw	r2, #10000	; 0x2710
            	SysSettings.CAN_Speed[SysSettings.numBus] = 50000;
 8002492:	61da      	str	r2, [r3, #28]
 8002494:	e70e      	b.n	80022b4 <exec_usb_cmd+0xa0>
            	SysSettings.CAN_Speed[SysSettings.numBus] = 20000;
 8002496:	4b4a      	ldr	r3, [pc, #296]	; (80025c0 <exec_usb_cmd+0x3ac>)
 8002498:	f993 2018 	ldrsb.w	r2, [r3, #24]
 800249c:	eb03 0382 	add.w	r3, r3, r2, lsl #2
 80024a0:	f644 6220 	movw	r2, #20000	; 0x4e20
 80024a4:	e7f5      	b.n	8002492 <exec_usb_cmd+0x27e>
            	SysSettings.CAN_Speed[SysSettings.numBus] = 50000;
 80024a6:	4b46      	ldr	r3, [pc, #280]	; (80025c0 <exec_usb_cmd+0x3ac>)
 80024a8:	f993 2018 	ldrsb.w	r2, [r3, #24]
 80024ac:	eb03 0382 	add.w	r3, r3, r2, lsl #2
 80024b0:	f24c 3250 	movw	r2, #50000	; 0xc350
 80024b4:	e7ed      	b.n	8002492 <exec_usb_cmd+0x27e>
            	SysSettings.CAN_Speed[SysSettings.numBus] = 100000;
 80024b6:	4b42      	ldr	r3, [pc, #264]	; (80025c0 <exec_usb_cmd+0x3ac>)
 80024b8:	f993 2018 	ldrsb.w	r2, [r3, #24]
 80024bc:	eb03 0382 	add.w	r3, r3, r2, lsl #2
 80024c0:	4a41      	ldr	r2, [pc, #260]	; (80025c8 <exec_usb_cmd+0x3b4>)
 80024c2:	e7e6      	b.n	8002492 <exec_usb_cmd+0x27e>
            	SysSettings.CAN_Speed[SysSettings.numBus] = 125000;
 80024c4:	4b3e      	ldr	r3, [pc, #248]	; (80025c0 <exec_usb_cmd+0x3ac>)
 80024c6:	f993 2018 	ldrsb.w	r2, [r3, #24]
 80024ca:	eb03 0382 	add.w	r3, r3, r2, lsl #2
 80024ce:	4a3f      	ldr	r2, [pc, #252]	; (80025cc <exec_usb_cmd+0x3b8>)
 80024d0:	e7df      	b.n	8002492 <exec_usb_cmd+0x27e>
            	SysSettings.CAN_Speed[SysSettings.numBus] = 250000;
 80024d2:	4b3b      	ldr	r3, [pc, #236]	; (80025c0 <exec_usb_cmd+0x3ac>)
 80024d4:	f993 2018 	ldrsb.w	r2, [r3, #24]
 80024d8:	eb03 0382 	add.w	r3, r3, r2, lsl #2
 80024dc:	4a3c      	ldr	r2, [pc, #240]	; (80025d0 <exec_usb_cmd+0x3bc>)
 80024de:	e7d8      	b.n	8002492 <exec_usb_cmd+0x27e>
            	SysSettings.CAN_Speed[SysSettings.numBus] = 500000;
 80024e0:	4b37      	ldr	r3, [pc, #220]	; (80025c0 <exec_usb_cmd+0x3ac>)
 80024e2:	f993 2018 	ldrsb.w	r2, [r3, #24]
 80024e6:	eb03 0382 	add.w	r3, r3, r2, lsl #2
 80024ea:	4a3a      	ldr	r2, [pc, #232]	; (80025d4 <exec_usb_cmd+0x3c0>)
 80024ec:	e7d1      	b.n	8002492 <exec_usb_cmd+0x27e>
            	SysSettings.CAN_Speed[SysSettings.numBus] = 800000;
 80024ee:	4b34      	ldr	r3, [pc, #208]	; (80025c0 <exec_usb_cmd+0x3ac>)
 80024f0:	f993 2018 	ldrsb.w	r2, [r3, #24]
 80024f4:	eb03 0382 	add.w	r3, r3, r2, lsl #2
 80024f8:	4a37      	ldr	r2, [pc, #220]	; (80025d8 <exec_usb_cmd+0x3c4>)
 80024fa:	e7ca      	b.n	8002492 <exec_usb_cmd+0x27e>
            	SysSettings.CAN_Speed[SysSettings.numBus] = 1000000;
 80024fc:	4b30      	ldr	r3, [pc, #192]	; (80025c0 <exec_usb_cmd+0x3ac>)
 80024fe:	f993 2018 	ldrsb.w	r2, [r3, #24]
 8002502:	eb03 0382 	add.w	r3, r3, r2, lsl #2
 8002506:	4a35      	ldr	r2, [pc, #212]	; (80025dc <exec_usb_cmd+0x3c8>)
 8002508:	e7c3      	b.n	8002492 <exec_usb_cmd+0x27e>
            	SysSettings.CAN_Speed[SysSettings.numBus] = 95238;
 800250a:	4b2d      	ldr	r3, [pc, #180]	; (80025c0 <exec_usb_cmd+0x3ac>)
 800250c:	f993 2018 	ldrsb.w	r2, [r3, #24]
 8002510:	eb03 0382 	add.w	r3, r3, r2, lsl #2
 8002514:	4a32      	ldr	r2, [pc, #200]	; (80025e0 <exec_usb_cmd+0x3cc>)
 8002516:	e7bc      	b.n	8002492 <exec_usb_cmd+0x27e>
            	SysSettings.CAN_Speed[SysSettings.numBus] = 8333;
 8002518:	4b29      	ldr	r3, [pc, #164]	; (80025c0 <exec_usb_cmd+0x3ac>)
 800251a:	f993 2018 	ldrsb.w	r2, [r3, #24]
 800251e:	eb03 0382 	add.w	r3, r3, r2, lsl #2
 8002522:	f242 028d 	movw	r2, #8333	; 0x208d
 8002526:	e7b4      	b.n	8002492 <exec_usb_cmd+0x27e>
            	SysSettings.CAN_Speed[SysSettings.numBus] = 47619;
 8002528:	4b25      	ldr	r3, [pc, #148]	; (80025c0 <exec_usb_cmd+0x3ac>)
 800252a:	f993 2018 	ldrsb.w	r2, [r3, #24]
 800252e:	eb03 0382 	add.w	r3, r3, r2, lsl #2
 8002532:	f64b 2203 	movw	r2, #47619	; 0xba03
 8002536:	e7ac      	b.n	8002492 <exec_usb_cmd+0x27e>
            	SysSettings.CAN_Speed[SysSettings.numBus] = 33333;
 8002538:	4b21      	ldr	r3, [pc, #132]	; (80025c0 <exec_usb_cmd+0x3ac>)
 800253a:	f993 2018 	ldrsb.w	r2, [r3, #24]
 800253e:	eb03 0382 	add.w	r3, r3, r2, lsl #2
 8002542:	f248 2235 	movw	r2, #33333	; 0x8235
 8002546:	e7a4      	b.n	8002492 <exec_usb_cmd+0x27e>
            	SysSettings.CAN_Speed[SysSettings.numBus] = 5000;
 8002548:	4b1d      	ldr	r3, [pc, #116]	; (80025c0 <exec_usb_cmd+0x3ac>)
 800254a:	f993 2018 	ldrsb.w	r2, [r3, #24]
 800254e:	eb03 0382 	add.w	r3, r3, r2, lsl #2
 8002552:	f241 3288 	movw	r2, #5000	; 0x1388
 8002556:	e79c      	b.n	8002492 <exec_usb_cmd+0x27e>
        	if(SysSettings.numBus == 3) // LIN
 8002558:	4c19      	ldr	r4, [pc, #100]	; (80025c0 <exec_usb_cmd+0x3ac>)
 800255a:	f994 3018 	ldrsb.w	r3, [r4, #24]
 800255e:	2b03      	cmp	r3, #3
 8002560:	d102      	bne.n	8002568 <exec_usb_cmd+0x354>
            	SysSettings.CAN_mode[SysSettings.numBus] = CAN_MODE_NORMAL;
 8002562:	2300      	movs	r3, #0
 8002564:	63a3      	str	r3, [r4, #56]	; 0x38
 8002566:	e708      	b.n	800237a <exec_usb_cmd+0x166>
                if (HAL_CAN_GetState(&hcan) != HAL_CAN_STATE_RESET) return ERROR;
 8002568:	4816      	ldr	r0, [pc, #88]	; (80025c4 <exec_usb_cmd+0x3b0>)
 800256a:	f7fe f97f 	bl	800086c <HAL_CAN_GetState>
 800256e:	2800      	cmp	r0, #0
 8002570:	f47f af03 	bne.w	800237a <exec_usb_cmd+0x166>
            	SysSettings.CAN_mode[SysSettings.numBus] = CAN_MODE_NORMAL;
 8002574:	f994 3018 	ldrsb.w	r3, [r4, #24]
 8002578:	eb04 0483 	add.w	r4, r4, r3, lsl #2
 800257c:	62e0      	str	r0, [r4, #44]	; 0x2c
        	if(Open_CAN_cannel() != HAL_OK) return ERROR;
 800257e:	f7ff fe23 	bl	80021c8 <Open_CAN_cannel>
 8002582:	2800      	cmp	r0, #0
 8002584:	f47f aef9 	bne.w	800237a <exec_usb_cmd+0x166>
    		conf.state = CAN_HACKER_CONNECT;
 8002588:	2301      	movs	r3, #1
 800258a:	4a0c      	ldr	r2, [pc, #48]	; (80025bc <exec_usb_cmd+0x3a8>)
 800258c:	7013      	strb	r3, [r2, #0]
    		SysSettings.lawicelMode = true;
 800258e:	4a0c      	ldr	r2, [pc, #48]	; (80025c0 <exec_usb_cmd+0x3ac>)
 8002590:	7413      	strb	r3, [r2, #16]
 8002592:	e68f      	b.n	80022b4 <exec_usb_cmd+0xa0>
        	if(SysSettings.numBus == 3) // LIN
 8002594:	4b0a      	ldr	r3, [pc, #40]	; (80025c0 <exec_usb_cmd+0x3ac>)
 8002596:	f993 3018 	ldrsb.w	r3, [r3, #24]
 800259a:	2b03      	cmp	r3, #3
 800259c:	f43f aeed 	beq.w	800237a <exec_usb_cmd+0x166>
        		HAL_CAN_ResetError(&hcan);
 80025a0:	4808      	ldr	r0, [pc, #32]	; (80025c4 <exec_usb_cmd+0x3b0>)
 80025a2:	f7fe f978 	bl	8000896 <HAL_CAN_ResetError>
        		if(Close_CAN_cannel() != HAL_OK) return ERROR;
 80025a6:	f7ff fdbd 	bl	8002124 <Close_CAN_cannel>
        	if(CAN_status != HAL_OK)
 80025aa:	2800      	cmp	r0, #0
 80025ac:	f47f aee5 	bne.w	800237a <exec_usb_cmd+0x166>
 80025b0:	e680      	b.n	80022b4 <exec_usb_cmd+0xa0>
 80025b2:	bf00      	nop
 80025b4:	20000078 	.word	0x20000078
 80025b8:	20001100 	.word	0x20001100
 80025bc:	20000080 	.word	0x20000080
 80025c0:	200001a0 	.word	0x200001a0
 80025c4:	20000bd4 	.word	0x20000bd4
 80025c8:	000186a0 	.word	0x000186a0
 80025cc:	0001e848 	.word	0x0001e848
 80025d0:	0003d090 	.word	0x0003d090
 80025d4:	0007a120 	.word	0x0007a120
 80025d8:	000c3500 	.word	0x000c3500
 80025dc:	000f4240 	.word	0x000f4240
 80025e0:	00017406 	.word	0x00017406
            if (conf.state == IDLE_ST)
 80025e4:	4aa1      	ldr	r2, [pc, #644]	; (800286c <exec_usb_cmd+0x658>)
 80025e6:	7812      	ldrb	r2, [r2, #0]
 80025e8:	2a00      	cmp	r2, #0
 80025ea:	f43f aec6 	beq.w	800237a <exec_usb_cmd+0x166>
            if (cmd_len != 5)
 80025ee:	2b05      	cmp	r3, #5
 80025f0:	f47f aec3 	bne.w	800237a <exec_usb_cmd+0x166>
        	CAN_TxHeader.StdId = (HexTo4bits(cmd_buf[1]) << 8) | HexToShort(cmd_buf[2], cmd_buf[3]);
 80025f4:	7860      	ldrb	r0, [r4, #1]
 80025f6:	f7ff fbe5 	bl	8001dc4 <HexTo4bits>
 80025fa:	78e1      	ldrb	r1, [r4, #3]
 80025fc:	4603      	mov	r3, r0
 80025fe:	78a0      	ldrb	r0, [r4, #2]
 8002600:	f7ff fbeb 	bl	8001dda <HexToShort>
 8002604:	ea40 2003 	orr.w	r0, r0, r3, lsl #8
        	CAN_TxHeader.IDE = CAN_ID_STD;
 8002608:	2300      	movs	r3, #0
        	CAN_TxHeader.StdId = (HexTo4bits(cmd_buf[1]) << 8) | HexToShort(cmd_buf[2], cmd_buf[3]);
 800260a:	4d99      	ldr	r5, [pc, #612]	; (8002870 <exec_usb_cmd+0x65c>)
        	CAN_TxHeader.IDE = CAN_ID_STD;
 800260c:	60ab      	str	r3, [r5, #8]
        	CAN_TxHeader.RTR = CAN_RTR_REMOTE;
 800260e:	2302      	movs	r3, #2
 8002610:	60eb      	str	r3, [r5, #12]
        	CAN_TxHeader.StdId = (HexTo4bits(cmd_buf[1]) << 8) | HexToShort(cmd_buf[2], cmd_buf[3]);
 8002612:	6028      	str	r0, [r5, #0]
        	CAN_TxHeader.DLC = HexTo4bits(cmd_buf[4]);
 8002614:	7920      	ldrb	r0, [r4, #4]
 8002616:	f7ff fbd5 	bl	8001dc4 <HexTo4bits>
        	HAL_GPIO_WritePin(TX_LED_GPIO_Port, TX_LED_Pin, GPIO_PIN_SET);
 800261a:	2201      	movs	r2, #1
        	CAN_TxHeader.DLC = HexTo4bits(cmd_buf[4]);
 800261c:	6128      	str	r0, [r5, #16]
        	HAL_GPIO_WritePin(TX_LED_GPIO_Port, TX_LED_Pin, GPIO_PIN_SET);
 800261e:	f44f 4100 	mov.w	r1, #32768	; 0x8000
 8002622:	4894      	ldr	r0, [pc, #592]	; (8002874 <exec_usb_cmd+0x660>)
 8002624:	f7fe fc86 	bl	8000f34 <HAL_GPIO_WritePin>
        	CAN_status = HAL_CAN_AddTxMessage(&hcan, &CAN_TxHeader, CAN_Tx_buffer, &CAN_mailbox);
 8002628:	4629      	mov	r1, r5
 800262a:	4b93      	ldr	r3, [pc, #588]	; (8002878 <exec_usb_cmd+0x664>)
 800262c:	4a93      	ldr	r2, [pc, #588]	; (800287c <exec_usb_cmd+0x668>)
 800262e:	4894      	ldr	r0, [pc, #592]	; (8002880 <exec_usb_cmd+0x66c>)
 8002630:	f7fd ff42 	bl	80004b8 <HAL_CAN_AddTxMessage>
 8002634:	4b93      	ldr	r3, [pc, #588]	; (8002884 <exec_usb_cmd+0x670>)
 8002636:	7018      	strb	r0, [r3, #0]
 8002638:	e7b7      	b.n	80025aa <exec_usb_cmd+0x396>
            if (conf.state == IDLE_ST)
 800263a:	4a8c      	ldr	r2, [pc, #560]	; (800286c <exec_usb_cmd+0x658>)
 800263c:	7812      	ldrb	r2, [r2, #0]
 800263e:	2a00      	cmp	r2, #0
 8002640:	f43f ae9b 	beq.w	800237a <exec_usb_cmd+0x166>
            if ((cmd_len < 5) || (cmd_len > 21))
 8002644:	1f5d      	subs	r5, r3, #5
 8002646:	b2eb      	uxtb	r3, r5
 8002648:	2b10      	cmp	r3, #16
 800264a:	f63f ae96 	bhi.w	800237a <exec_usb_cmd+0x166>
        	CAN_TxHeader.StdId = (HexTo4bits(cmd_buf[1]) << 8) | HexToShort(cmd_buf[2], cmd_buf[3]);
 800264e:	7860      	ldrb	r0, [r4, #1]
 8002650:	f7ff fbb8 	bl	8001dc4 <HexTo4bits>
 8002654:	78e1      	ldrb	r1, [r4, #3]
 8002656:	4603      	mov	r3, r0
 8002658:	78a0      	ldrb	r0, [r4, #2]
 800265a:	f7ff fbbe 	bl	8001dda <HexToShort>
 800265e:	ea40 2003 	orr.w	r0, r0, r3, lsl #8
        	CAN_TxHeader.IDE = CAN_ID_STD;
 8002662:	2300      	movs	r3, #0
        	CAN_TxHeader.StdId = (HexTo4bits(cmd_buf[1]) << 8) | HexToShort(cmd_buf[2], cmd_buf[3]);
 8002664:	4982      	ldr	r1, [pc, #520]	; (8002870 <exec_usb_cmd+0x65c>)
        	CAN_TxHeader.IDE = CAN_ID_STD;
 8002666:	608b      	str	r3, [r1, #8]
        	CAN_TxHeader.RTR = CAN_RTR_DATA;
 8002668:	60cb      	str	r3, [r1, #12]
        	CAN_TxHeader.StdId = (HexTo4bits(cmd_buf[1]) << 8) | HexToShort(cmd_buf[2], cmd_buf[3]);
 800266a:	6008      	str	r0, [r1, #0]
        	CAN_TxHeader.DLC = HexTo4bits(cmd_buf[4]);
 800266c:	7920      	ldrb	r0, [r4, #4]
 800266e:	f7ff fba9 	bl	8001dc4 <HexTo4bits>
 8002672:	6108      	str	r0, [r1, #16]
            if (CAN_TxHeader.DLC != ((cmd_len - 5) / 2))
 8002674:	2102      	movs	r1, #2
 8002676:	fb95 f5f1 	sdiv	r5, r5, r1
 800267a:	42a8      	cmp	r0, r5
        	CAN_TxHeader.DLC = HexTo4bits(cmd_buf[4]);
 800267c:	4602      	mov	r2, r0
            if (CAN_TxHeader.DLC != ((cmd_len - 5) / 2))
 800267e:	f47f ae7c 	bne.w	800237a <exec_usb_cmd+0x166>
            if (CAN_TxHeader.DLC > 8)
 8002682:	2808      	cmp	r0, #8
 8002684:	f63f ae79 	bhi.w	800237a <exec_usb_cmd+0x166>
        		CAN_Tx_buffer[i] = HexToShort(cmd_buf[i*2+5], cmd_buf[i*2+6]);
 8002688:	4d7c      	ldr	r5, [pc, #496]	; (800287c <exec_usb_cmd+0x668>)
 800268a:	3405      	adds	r4, #5
        	for(int i = 0; i < CAN_TxHeader.DLC; i++)
 800268c:	429a      	cmp	r2, r3
 800268e:	f104 0402 	add.w	r4, r4, #2
 8002692:	d809      	bhi.n	80026a8 <exec_usb_cmd+0x494>
        	HAL_GPIO_WritePin(TX_LED_GPIO_Port, TX_LED_Pin, GPIO_PIN_SET);
 8002694:	2201      	movs	r2, #1
 8002696:	f44f 4100 	mov.w	r1, #32768	; 0x8000
 800269a:	4876      	ldr	r0, [pc, #472]	; (8002874 <exec_usb_cmd+0x660>)
 800269c:	f7fe fc4a 	bl	8000f34 <HAL_GPIO_WritePin>
        	CAN_status = HAL_CAN_AddTxMessage(&hcan, &CAN_TxHeader, CAN_Tx_buffer, &CAN_mailbox);
 80026a0:	4b75      	ldr	r3, [pc, #468]	; (8002878 <exec_usb_cmd+0x664>)
 80026a2:	4a76      	ldr	r2, [pc, #472]	; (800287c <exec_usb_cmd+0x668>)
 80026a4:	4972      	ldr	r1, [pc, #456]	; (8002870 <exec_usb_cmd+0x65c>)
 80026a6:	e7c2      	b.n	800262e <exec_usb_cmd+0x41a>
        		CAN_Tx_buffer[i] = HexToShort(cmd_buf[i*2+5], cmd_buf[i*2+6]);
 80026a8:	f814 1c01 	ldrb.w	r1, [r4, #-1]
 80026ac:	f814 0c02 	ldrb.w	r0, [r4, #-2]
 80026b0:	f7ff fb93 	bl	8001dda <HexToShort>
 80026b4:	54e8      	strb	r0, [r5, r3]
        	for(int i = 0; i < CAN_TxHeader.DLC; i++)
 80026b6:	3301      	adds	r3, #1
 80026b8:	e7e8      	b.n	800268c <exec_usb_cmd+0x478>
            if (conf.state == IDLE_ST) return ERROR;
 80026ba:	4a6c      	ldr	r2, [pc, #432]	; (800286c <exec_usb_cmd+0x658>)
 80026bc:	7812      	ldrb	r2, [r2, #0]
 80026be:	2a00      	cmp	r2, #0
 80026c0:	f43f ae5b 	beq.w	800237a <exec_usb_cmd+0x166>
            if (cmd_len != 10)      return ERROR;	// check valid cmd length
 80026c4:	2b0a      	cmp	r3, #10
 80026c6:	f47f ae58 	bne.w	800237a <exec_usb_cmd+0x166>
        	CAN_TxHeader.ExtId = (HexToShort(cmd_buf[1],cmd_buf[2]) << 24) |
 80026ca:	78a1      	ldrb	r1, [r4, #2]
 80026cc:	7860      	ldrb	r0, [r4, #1]
 80026ce:	f7ff fb84 	bl	8001dda <HexToShort>
        						 (HexToShort(cmd_buf[3],cmd_buf[4]) << 16) |
 80026d2:	7921      	ldrb	r1, [r4, #4]
        	CAN_TxHeader.ExtId = (HexToShort(cmd_buf[1],cmd_buf[2]) << 24) |
 80026d4:	4603      	mov	r3, r0
        						 (HexToShort(cmd_buf[3],cmd_buf[4]) << 16) |
 80026d6:	78e0      	ldrb	r0, [r4, #3]
 80026d8:	f7ff fb7f 	bl	8001dda <HexToShort>
 80026dc:	0400      	lsls	r0, r0, #16
        	CAN_TxHeader.ExtId = (HexToShort(cmd_buf[1],cmd_buf[2]) << 24) |
 80026de:	ea40 6303 	orr.w	r3, r0, r3, lsl #24
								 (HexToShort(cmd_buf[5],cmd_buf[6]) << 8) |
 80026e2:	79a1      	ldrb	r1, [r4, #6]
 80026e4:	7960      	ldrb	r0, [r4, #5]
 80026e6:	f7ff fb78 	bl	8001dda <HexToShort>
								  HexToShort(cmd_buf[7],cmd_buf[8]);
 80026ea:	7a21      	ldrb	r1, [r4, #8]
								 (HexToShort(cmd_buf[5],cmd_buf[6]) << 8) |
 80026ec:	4602      	mov	r2, r0
								  HexToShort(cmd_buf[7],cmd_buf[8]);
 80026ee:	79e0      	ldrb	r0, [r4, #7]
 80026f0:	f7ff fb73 	bl	8001dda <HexToShort>
								 (HexToShort(cmd_buf[5],cmd_buf[6]) << 8) |
 80026f4:	4318      	orrs	r0, r3
        	CAN_TxHeader.IDE = CAN_ID_EXT;
 80026f6:	2304      	movs	r3, #4
        	CAN_TxHeader.ExtId = (HexToShort(cmd_buf[1],cmd_buf[2]) << 24) |
 80026f8:	4d5d      	ldr	r5, [pc, #372]	; (8002870 <exec_usb_cmd+0x65c>)
								 (HexToShort(cmd_buf[5],cmd_buf[6]) << 8) |
 80026fa:	ea40 2002 	orr.w	r0, r0, r2, lsl #8
        	CAN_TxHeader.IDE = CAN_ID_EXT;
 80026fe:	60ab      	str	r3, [r5, #8]
        	CAN_TxHeader.RTR = CAN_RTR_REMOTE;
 8002700:	2302      	movs	r3, #2
 8002702:	60eb      	str	r3, [r5, #12]
        	CAN_TxHeader.ExtId = (HexToShort(cmd_buf[1],cmd_buf[2]) << 24) |
 8002704:	6068      	str	r0, [r5, #4]
        	CAN_TxHeader.DLC = HexTo4bits(cmd_buf[9]);
 8002706:	7a60      	ldrb	r0, [r4, #9]
 8002708:	e785      	b.n	8002616 <exec_usb_cmd+0x402>
            if (conf.state == IDLE_ST) return ERROR;
 800270a:	4a58      	ldr	r2, [pc, #352]	; (800286c <exec_usb_cmd+0x658>)
 800270c:	7812      	ldrb	r2, [r2, #0]
 800270e:	2a00      	cmp	r2, #0
 8002710:	f43f ae33 	beq.w	800237a <exec_usb_cmd+0x166>
            if ((cmd_len < 10) || (cmd_len > 26))
 8002714:	f1a3 050a 	sub.w	r5, r3, #10
 8002718:	b2eb      	uxtb	r3, r5
 800271a:	2b10      	cmp	r3, #16
 800271c:	f63f ae2d 	bhi.w	800237a <exec_usb_cmd+0x166>
        	CAN_TxHeader.ExtId = (HexToShort(cmd_buf[1],cmd_buf[2]) << 24) |
 8002720:	78a1      	ldrb	r1, [r4, #2]
 8002722:	7860      	ldrb	r0, [r4, #1]
 8002724:	f7ff fb59 	bl	8001dda <HexToShort>
        						 (HexToShort(cmd_buf[3],cmd_buf[4]) << 16) |
 8002728:	7921      	ldrb	r1, [r4, #4]
        	CAN_TxHeader.ExtId = (HexToShort(cmd_buf[1],cmd_buf[2]) << 24) |
 800272a:	4602      	mov	r2, r0
        						 (HexToShort(cmd_buf[3],cmd_buf[4]) << 16) |
 800272c:	78e0      	ldrb	r0, [r4, #3]
 800272e:	f7ff fb54 	bl	8001dda <HexToShort>
 8002732:	0400      	lsls	r0, r0, #16
        	CAN_TxHeader.ExtId = (HexToShort(cmd_buf[1],cmd_buf[2]) << 24) |
 8002734:	ea40 6202 	orr.w	r2, r0, r2, lsl #24
								 (HexToShort(cmd_buf[5],cmd_buf[6]) << 8) |
 8002738:	79a1      	ldrb	r1, [r4, #6]
 800273a:	7960      	ldrb	r0, [r4, #5]
 800273c:	f7ff fb4d 	bl	8001dda <HexToShort>
								 HexToShort(cmd_buf[7], cmd_buf[8]);
 8002740:	7a21      	ldrb	r1, [r4, #8]
								 (HexToShort(cmd_buf[5],cmd_buf[6]) << 8) |
 8002742:	4603      	mov	r3, r0
								 HexToShort(cmd_buf[7], cmd_buf[8]);
 8002744:	79e0      	ldrb	r0, [r4, #7]
 8002746:	f7ff fb48 	bl	8001dda <HexToShort>
								 (HexToShort(cmd_buf[5],cmd_buf[6]) << 8) |
 800274a:	4310      	orrs	r0, r2
 800274c:	ea40 2003 	orr.w	r0, r0, r3, lsl #8
        	CAN_TxHeader.IDE = CAN_ID_EXT;
 8002750:	2304      	movs	r3, #4
        	CAN_TxHeader.ExtId = (HexToShort(cmd_buf[1],cmd_buf[2]) << 24) |
 8002752:	4947      	ldr	r1, [pc, #284]	; (8002870 <exec_usb_cmd+0x65c>)
        	CAN_TxHeader.IDE = CAN_ID_EXT;
 8002754:	608b      	str	r3, [r1, #8]
        	CAN_TxHeader.RTR = CAN_RTR_DATA;
 8002756:	2300      	movs	r3, #0
 8002758:	60cb      	str	r3, [r1, #12]
        	CAN_TxHeader.ExtId = (HexToShort(cmd_buf[1],cmd_buf[2]) << 24) |
 800275a:	6048      	str	r0, [r1, #4]
        	CAN_TxHeader.DLC = HexTo4bits(cmd_buf[9]);
 800275c:	7a60      	ldrb	r0, [r4, #9]
 800275e:	f7ff fb31 	bl	8001dc4 <HexTo4bits>
 8002762:	6108      	str	r0, [r1, #16]
            if (CAN_TxHeader.DLC != ((cmd_len - 10) / 2))
 8002764:	2102      	movs	r1, #2
 8002766:	fb95 f5f1 	sdiv	r5, r5, r1
 800276a:	42a8      	cmp	r0, r5
        	CAN_TxHeader.DLC = HexTo4bits(cmd_buf[9]);
 800276c:	4602      	mov	r2, r0
            if (CAN_TxHeader.DLC != ((cmd_len - 10) / 2))
 800276e:	f47f ae04 	bne.w	800237a <exec_usb_cmd+0x166>
            if (CAN_TxHeader.DLC > 8)
 8002772:	2808      	cmp	r0, #8
 8002774:	f63f ae01 	bhi.w	800237a <exec_usb_cmd+0x166>
        		CAN_Tx_buffer[i] = HexToShort(cmd_buf[i*2+10], cmd_buf[i*2+11]);
 8002778:	4d40      	ldr	r5, [pc, #256]	; (800287c <exec_usb_cmd+0x668>)
 800277a:	340a      	adds	r4, #10
        	for(int i = 0; i < CAN_TxHeader.DLC; i++)
 800277c:	429a      	cmp	r2, r3
 800277e:	f104 0402 	add.w	r4, r4, #2
 8002782:	d987      	bls.n	8002694 <exec_usb_cmd+0x480>
        		CAN_Tx_buffer[i] = HexToShort(cmd_buf[i*2+10], cmd_buf[i*2+11]);
 8002784:	f814 1c01 	ldrb.w	r1, [r4, #-1]
 8002788:	f814 0c02 	ldrb.w	r0, [r4, #-2]
 800278c:	f7ff fb25 	bl	8001dda <HexToShort>
 8002790:	54e8      	strb	r0, [r5, r3]
        	for(int i = 0; i < CAN_TxHeader.DLC; i++)
 8002792:	3301      	adds	r3, #1
 8002794:	e7f2      	b.n	800277c <exec_usb_cmd+0x568>
        	SysSettings.CAN_mode[SysSettings.numBus] = CAN_MODE_SILENT;
 8002796:	4b3c      	ldr	r3, [pc, #240]	; (8002888 <exec_usb_cmd+0x674>)
 8002798:	f993 2018 	ldrsb.w	r2, [r3, #24]
 800279c:	eb03 0382 	add.w	r3, r3, r2, lsl #2
 80027a0:	f04f 4200 	mov.w	r2, #2147483648	; 0x80000000
 80027a4:	62da      	str	r2, [r3, #44]	; 0x2c
 80027a6:	e6ea      	b.n	800257e <exec_usb_cmd+0x36a>
        	switch (cmd_buf[1])
 80027a8:	7863      	ldrb	r3, [r4, #1]
 80027aa:	4c38      	ldr	r4, [pc, #224]	; (800288c <exec_usb_cmd+0x678>)
 80027ac:	3b30      	subs	r3, #48	; 0x30
 80027ae:	2b06      	cmp	r3, #6
 80027b0:	d825      	bhi.n	80027fe <exec_usb_cmd+0x5ea>
 80027b2:	e8df f003 	tbb	[pc, r3]
 80027b6:	1204      	.short	0x1204
 80027b8:	1e1b1815 	.word	0x1e1b1815
 80027bc:	21          	.byte	0x21
 80027bd:	00          	.byte	0x00
        	case '0': uart_speed = 230400; break;
 80027be:	f44f 3361 	mov.w	r3, #230400	; 0x38400
        	HAL_UART_DeInit(huart_active);
 80027c2:	4d33      	ldr	r5, [pc, #204]	; (8002890 <exec_usb_cmd+0x67c>)
        	default: uart_speed = 1000000; break;
 80027c4:	6023      	str	r3, [r4, #0]
        	HAL_UART_DeInit(huart_active);
 80027c6:	6828      	ldr	r0, [r5, #0]
 80027c8:	f7ff f933 	bl	8001a32 <HAL_UART_DeInit>
        	huart3.Init.BaudRate = uart_speed;
 80027cc:	6822      	ldr	r2, [r4, #0]
 80027ce:	4b31      	ldr	r3, [pc, #196]	; (8002894 <exec_usb_cmd+0x680>)
        	if (HAL_UART_Init(huart_active) != HAL_OK)
 80027d0:	6828      	ldr	r0, [r5, #0]
        	huart3.Init.BaudRate = uart_speed;
 80027d2:	605a      	str	r2, [r3, #4]
        	if (HAL_UART_Init(huart_active) != HAL_OK)
 80027d4:	f7ff f8c6 	bl	8001964 <HAL_UART_Init>
 80027d8:	e6e7      	b.n	80025aa <exec_usb_cmd+0x396>
        	case '1': uart_speed = 115200; break;
 80027da:	f44f 33e1 	mov.w	r3, #115200	; 0x1c200
 80027de:	e7f0      	b.n	80027c2 <exec_usb_cmd+0x5ae>
        	case '2': uart_speed = 57600; break;
 80027e0:	f44f 4361 	mov.w	r3, #57600	; 0xe100
 80027e4:	e7ed      	b.n	80027c2 <exec_usb_cmd+0x5ae>
        	case '3': uart_speed = 38400; break;
 80027e6:	f44f 4316 	mov.w	r3, #38400	; 0x9600
 80027ea:	e7ea      	b.n	80027c2 <exec_usb_cmd+0x5ae>
        	case '4': uart_speed = 19200; break;
 80027ec:	f44f 4396 	mov.w	r3, #19200	; 0x4b00
 80027f0:	e7e7      	b.n	80027c2 <exec_usb_cmd+0x5ae>
        	case '5': uart_speed = 9600; break;
 80027f2:	f44f 5316 	mov.w	r3, #9600	; 0x2580
 80027f6:	e7e4      	b.n	80027c2 <exec_usb_cmd+0x5ae>
        	case '6': uart_speed = 2400; break;
 80027f8:	f44f 6316 	mov.w	r3, #2400	; 0x960
 80027fc:	e7e1      	b.n	80027c2 <exec_usb_cmd+0x5ae>
        	default: uart_speed = 1000000; break;
 80027fe:	4b26      	ldr	r3, [pc, #152]	; (8002898 <exec_usb_cmd+0x684>)
 8002800:	e7df      	b.n	80027c2 <exec_usb_cmd+0x5ae>
        	uart_speed = 0;
 8002802:	2200      	movs	r2, #0
        		uart_speed *= 10;
 8002804:	260a      	movs	r6, #10
        	uart_speed = 0;
 8002806:	4d21      	ldr	r5, [pc, #132]	; (800288c <exec_usb_cmd+0x678>)
 8002808:	1c61      	adds	r1, r4, #1
 800280a:	602a      	str	r2, [r5, #0]
        	for(int i = 1; i < cmd_len; i++)
 800280c:	1b0a      	subs	r2, r1, r4
 800280e:	4293      	cmp	r3, r2
 8002810:	dc0e      	bgt.n	8002830 <exec_usb_cmd+0x61c>
        	if(uart_speed < 200 || uart_speed > 2000000) return ERROR;
 8002812:	682b      	ldr	r3, [r5, #0]
 8002814:	4a21      	ldr	r2, [pc, #132]	; (800289c <exec_usb_cmd+0x688>)
 8002816:	3bc8      	subs	r3, #200	; 0xc8
 8002818:	4293      	cmp	r3, r2
 800281a:	f63f adae 	bhi.w	800237a <exec_usb_cmd+0x166>
        	HAL_UART_DeInit(huart_active);
 800281e:	4c1c      	ldr	r4, [pc, #112]	; (8002890 <exec_usb_cmd+0x67c>)
 8002820:	6820      	ldr	r0, [r4, #0]
 8002822:	f7ff f906 	bl	8001a32 <HAL_UART_DeInit>
        	huart3.Init.BaudRate = uart_speed;
 8002826:	682a      	ldr	r2, [r5, #0]
 8002828:	4b1a      	ldr	r3, [pc, #104]	; (8002894 <exec_usb_cmd+0x680>)
        	if (HAL_UART_Init(huart_active) != HAL_OK)
 800282a:	6820      	ldr	r0, [r4, #0]
        	huart3.Init.BaudRate = uart_speed;
 800282c:	605a      	str	r2, [r3, #4]
 800282e:	e7d1      	b.n	80027d4 <exec_usb_cmd+0x5c0>
        		if(cmd_buf[i] < '0' || cmd_buf[i] > '9') return ERROR;
 8002830:	f811 2b01 	ldrb.w	r2, [r1], #1
 8002834:	3a30      	subs	r2, #48	; 0x30
 8002836:	2a09      	cmp	r2, #9
 8002838:	f63f ad9f 	bhi.w	800237a <exec_usb_cmd+0x166>
        		uart_speed *= 10;
 800283c:	682a      	ldr	r2, [r5, #0]
 800283e:	4372      	muls	r2, r6
 8002840:	602a      	str	r2, [r5, #0]
        		uart_speed += HexTo4bits(cmd_buf[i]);
 8002842:	f811 0c01 	ldrb.w	r0, [r1, #-1]
 8002846:	f7ff fabd 	bl	8001dc4 <HexTo4bits>
 800284a:	4410      	add	r0, r2
 800284c:	6028      	str	r0, [r5, #0]
 800284e:	e7dd      	b.n	800280c <exec_usb_cmd+0x5f8>
        	if(cmd_buf[1] < '0' || cmd_buf[1] > '4') return ERROR;
 8002850:	7860      	ldrb	r0, [r4, #1]
 8002852:	f1a0 0330 	sub.w	r3, r0, #48	; 0x30
 8002856:	2b04      	cmp	r3, #4
 8002858:	f63f ad8f 	bhi.w	800237a <exec_usb_cmd+0x166>
        	SysSettings.numBus = HexTo4bits(cmd_buf[1]) - 1;
 800285c:	f7ff fab2 	bl	8001dc4 <HexTo4bits>
 8002860:	4b09      	ldr	r3, [pc, #36]	; (8002888 <exec_usb_cmd+0x674>)
 8002862:	3801      	subs	r0, #1
 8002864:	7618      	strb	r0, [r3, #24]
        	Change_CAN_channel();
 8002866:	f7ff fc79 	bl	800215c <Change_CAN_channel>
 800286a:	e523      	b.n	80022b4 <exec_usb_cmd+0xa0>
 800286c:	20000080 	.word	0x20000080
 8002870:	20000084 	.word	0x20000084
 8002874:	40010800 	.word	0x40010800
 8002878:	200001e0 	.word	0x200001e0
 800287c:	2000002c 	.word	0x2000002c
 8002880:	20000bd4 	.word	0x20000bd4
 8002884:	200001dc 	.word	0x200001dc
 8002888:	200001a0 	.word	0x200001a0
 800288c:	200001e4 	.word	0x200001e4
 8002890:	200019d4 	.word	0x200019d4
 8002894:	20001ac8 	.word	0x20001ac8
 8002898:	000f4240 	.word	0x000f4240
 800289c:	001e83b8 	.word	0x001e83b8

080028a0 <Check_Command>:
    serialCnt++;
 80028a0:	4aa8      	ldr	r2, [pc, #672]	; (8002b44 <Check_Command+0x2a4>)
{
 80028a2:	b5f8      	push	{r3, r4, r5, r6, r7, lr}
    serialCnt++;
 80028a4:	6813      	ldr	r3, [r2, #0]
 80028a6:	3301      	adds	r3, #1
 80028a8:	6013      	str	r3, [r2, #0]
    switch (state) {
 80028aa:	4ba7      	ldr	r3, [pc, #668]	; (8002b48 <Check_Command+0x2a8>)
 80028ac:	781a      	ldrb	r2, [r3, #0]
 80028ae:	2a0d      	cmp	r2, #13
 80028b0:	f200 8246 	bhi.w	8002d40 <Check_Command+0x4a0>
 80028b4:	e8df f012 	tbh	[pc, r2, lsl #1]
 80028b8:	0043000e 	.word	0x0043000e
 80028bc:	00d3012b 	.word	0x00d3012b
 80028c0:	02440244 	.word	0x02440244
 80028c4:	019b0198 	.word	0x019b0198
 80028c8:	02440244 	.word	0x02440244
 80028cc:	0223021c 	.word	0x0223021c
 80028d0:	022e0227 	.word	0x022e0227
        if (in_byte == 0xF1) state = GET_COMMAND;
 80028d4:	28f1      	cmp	r0, #241	; 0xf1
 80028d6:	d102      	bne.n	80028de <Check_Command+0x3e>
 80028d8:	2201      	movs	r2, #1
        state = IDLE;
 80028da:	701a      	strb	r2, [r3, #0]
        break;
 80028dc:	bdf8      	pop	{r3, r4, r5, r6, r7, pc}
        else if (in_byte == 0xE7) {
 80028de:	28e7      	cmp	r0, #231	; 0xe7
 80028e0:	d107      	bne.n	80028f2 <Check_Command+0x52>
            settings.useBinarySerialComm = true;
 80028e2:	2201      	movs	r2, #1
 80028e4:	4b99      	ldr	r3, [pc, #612]	; (8002b4c <Check_Command+0x2ac>)
 80028e6:	f883 20d4 	strb.w	r2, [r3, #212]	; 0xd4
            SysSettings.lawicelMode = false;
 80028ea:	2200      	movs	r2, #0
 80028ec:	4b98      	ldr	r3, [pc, #608]	; (8002b50 <Check_Command+0x2b0>)
 80028ee:	741a      	strb	r2, [r3, #16]
 80028f0:	bdf8      	pop	{r3, r4, r5, r6, r7, pc}
        	if (in_byte == CR)	// check for end of command
 80028f2:	280d      	cmp	r0, #13
 80028f4:	d116      	bne.n	8002924 <Check_Command+0x84>
	            temp_char = exec_usb_cmd (cmd_buf);
 80028f6:	4897      	ldr	r0, [pc, #604]	; (8002b54 <Check_Command+0x2b4>)
 80028f8:	f7ff fc8c 	bl	8002214 <exec_usb_cmd>
	            uart_tx_com_bufer[uart_tx_pointer++] = temp_char;
 80028fc:	4a96      	ldr	r2, [pc, #600]	; (8002b58 <Check_Command+0x2b8>)
 80028fe:	6813      	ldr	r3, [r2, #0]
 8002900:	1c59      	adds	r1, r3, #1
 8002902:	6011      	str	r1, [r2, #0]
 8002904:	4a95      	ldr	r2, [pc, #596]	; (8002b5c <Check_Command+0x2bc>)
 8002906:	4996      	ldr	r1, [pc, #600]	; (8002b60 <Check_Command+0x2c0>)
 8002908:	54d0      	strb	r0, [r2, r3]
	            uart_answ_ready = 1;
 800290a:	2201      	movs	r2, #1
 800290c:	4b95      	ldr	r3, [pc, #596]	; (8002b64 <Check_Command+0x2c4>)
 800290e:	701a      	strb	r2, [r3, #0]
	            for (buf_ind = 0; buf_ind < CMD_BUFFER_LENGTH; buf_ind++)
 8002910:	2300      	movs	r3, #0
	                cmd_buf[buf_ind] = 0x00;
 8002912:	461a      	mov	r2, r3
	            for (buf_ind = 0; buf_ind < CMD_BUFFER_LENGTH; buf_ind++)
 8002914:	3301      	adds	r3, #1
 8002916:	b2db      	uxtb	r3, r3
 8002918:	2b1e      	cmp	r3, #30
	                cmd_buf[buf_ind] = 0x00;
 800291a:	f801 2f01 	strb.w	r2, [r1, #1]!
	            for (buf_ind = 0; buf_ind < CMD_BUFFER_LENGTH; buf_ind++)
 800291e:	d1f9      	bne.n	8002914 <Check_Command+0x74>
	            buf_ind = 0;	// point to start of command
 8002920:	4b91      	ldr	r3, [pc, #580]	; (8002b68 <Check_Command+0x2c8>)
 8002922:	e7da      	b.n	80028da <Check_Command+0x3a>
	        else if (in_byte != 0)	// store new char in buffer
 8002924:	2800      	cmp	r0, #0
 8002926:	f000 820b 	beq.w	8002d40 <Check_Command+0x4a0>
	            cmd_buf[buf_ind] = in_byte;	// store char
 800292a:	4a8f      	ldr	r2, [pc, #572]	; (8002b68 <Check_Command+0x2c8>)
 800292c:	4989      	ldr	r1, [pc, #548]	; (8002b54 <Check_Command+0x2b4>)
 800292e:	7813      	ldrb	r3, [r2, #0]
	            if (buf_ind < sizeof (cmd_buf) - 1)
 8002930:	2b1c      	cmp	r3, #28
	            cmd_buf[buf_ind] = in_byte;	// store char
 8002932:	54c8      	strb	r0, [r1, r3]
	            if (buf_ind < sizeof (cmd_buf) - 1)
 8002934:	f200 8204 	bhi.w	8002d40 <Check_Command+0x4a0>
	                buf_ind++;
 8002938:	3301      	adds	r3, #1
 800293a:	7013      	strb	r3, [r2, #0]
 800293c:	bdf8      	pop	{r3, r4, r5, r6, r7, pc}
        switch (in_byte) {
 800293e:	280e      	cmp	r0, #14
 8002940:	f200 81fe 	bhi.w	8002d40 <Check_Command+0x4a0>
 8002944:	e8df f010 	tbh	[pc, r0, lsl #1]
 8002948:	0014000f 	.word	0x0014000f
 800294c:	008b008b 	.word	0x008b008b
 8002950:	0033002e 	.word	0x0033002e
 8002954:	00700039 	.word	0x00700039
 8002958:	0096008d 	.word	0x0096008d
 800295c:	00ad00a8 	.word	0x00ad00a8
 8002960:	00bc00af 	.word	0x00bc00af
 8002964:	00e1      	.short	0x00e1
            state = BUILD_CAN_FRAME;
 8002966:	2202      	movs	r2, #2
            state = ECHO_CAN_FRAME;
 8002968:	701a      	strb	r2, [r3, #0]
            uart_tx_com_bufer[0] = 0xF1;
 800296a:	22f1      	movs	r2, #241	; 0xf1
 800296c:	4b7b      	ldr	r3, [pc, #492]	; (8002b5c <Check_Command+0x2bc>)
 800296e:	e07c      	b.n	8002a6a <Check_Command+0x1ca>
            state = IDLE;//TIME_SYNC;
 8002970:	2200      	movs	r2, #0
 8002972:	701a      	strb	r2, [r3, #0]
            step = 0;
 8002974:	4b7d      	ldr	r3, [pc, #500]	; (8002b6c <Check_Command+0x2cc>)
            uart_tx_com_bufer[uart_tx_pointer++] = 0xF1;
 8002976:	4c78      	ldr	r4, [pc, #480]	; (8002b58 <Check_Command+0x2b8>)
            step = 0;
 8002978:	601a      	str	r2, [r3, #0]
            now = HAL_GetTick();
 800297a:	f7fd fc31 	bl	80001e0 <HAL_GetTick>
            uart_tx_com_bufer[uart_tx_pointer++] = 0xF1;
 800297e:	21f1      	movs	r1, #241	; 0xf1
 8002980:	6822      	ldr	r2, [r4, #0]
 8002982:	4b76      	ldr	r3, [pc, #472]	; (8002b5c <Check_Command+0x2bc>)
            uart_tx_com_bufer[uart_tx_pointer++] = (uint8_t)(now >> 8);
 8002984:	0a05      	lsrs	r5, r0, #8
            uart_tx_com_bufer[uart_tx_pointer++] = 0xF1;
 8002986:	5499      	strb	r1, [r3, r2]
            uart_tx_com_bufer[uart_tx_pointer++] = 1; //time sync
 8002988:	2101      	movs	r1, #1
 800298a:	4413      	add	r3, r2
            uart_tx_com_bufer[uart_tx_pointer++] = (uint8_t)(now & 0xFF);
 800298c:	7098      	strb	r0, [r3, #2]
            uart_tx_com_bufer[uart_tx_pointer++] = (uint8_t)(now >> 8);
 800298e:	70dd      	strb	r5, [r3, #3]
            uart_tx_com_bufer[uart_tx_pointer++] = (uint8_t)(now >> 16);
 8002990:	0c05      	lsrs	r5, r0, #16
            uart_tx_com_bufer[uart_tx_pointer++] = (uint8_t)(now >> 24);
 8002992:	0e00      	lsrs	r0, r0, #24
            uart_tx_com_bufer[uart_tx_pointer++] = 1; //time sync
 8002994:	7059      	strb	r1, [r3, #1]
            uart_tx_com_bufer[uart_tx_pointer++] = (uint8_t)(now >> 16);
 8002996:	711d      	strb	r5, [r3, #4]
            uart_tx_com_bufer[uart_tx_pointer++] = (uint8_t)(now >> 24);
 8002998:	3206      	adds	r2, #6
 800299a:	7158      	strb	r0, [r3, #5]
            uart_answ_ready = 1;
 800299c:	4b71      	ldr	r3, [pc, #452]	; (8002b64 <Check_Command+0x2c4>)
            uart_tx_com_bufer[uart_tx_pointer++] = (uint8_t)(now >> 24);
 800299e:	6022      	str	r2, [r4, #0]
            state = IDLE;
 80029a0:	7019      	strb	r1, [r3, #0]
            break;
 80029a2:	bdf8      	pop	{r3, r4, r5, r6, r7, pc}
            state = SET_DIG_OUTPUTS;
 80029a4:	2206      	movs	r2, #6
 80029a6:	701a      	strb	r2, [r3, #0]
            uart_tx_com_bufer[0] = 0xF1;
 80029a8:	22f1      	movs	r2, #241	; 0xf1
 80029aa:	4b6c      	ldr	r3, [pc, #432]	; (8002b5c <Check_Command+0x2bc>)
 80029ac:	e795      	b.n	80028da <Check_Command+0x3a>
            state = SETUP_CANBUS;
 80029ae:	2207      	movs	r2, #7
            state = SETUP_EXT_BUSES;
 80029b0:	701a      	strb	r2, [r3, #0]
            step = 0;
 80029b2:	2200      	movs	r2, #0
 80029b4:	4b6d      	ldr	r3, [pc, #436]	; (8002b6c <Check_Command+0x2cc>)
 80029b6:	601a      	str	r2, [r3, #0]
 80029b8:	e7f6      	b.n	80029a8 <Check_Command+0x108>
        	SysSettings.CAN_Speed[0] = 500000;
 80029ba:	4a65      	ldr	r2, [pc, #404]	; (8002b50 <Check_Command+0x2b0>)
 80029bc:	496c      	ldr	r1, [pc, #432]	; (8002b70 <Check_Command+0x2d0>)
        	uart_tx_com_bufer[uart_tx_pointer++] = 0xF1;
 80029be:	4e66      	ldr	r6, [pc, #408]	; (8002b58 <Check_Command+0x2b8>)
        	SysSettings.CAN_Speed[0] = 500000;
 80029c0:	61d1      	str	r1, [r2, #28]
        	SysSettings.CAN_Speed[1] = 95238;
 80029c2:	496c      	ldr	r1, [pc, #432]	; (8002b74 <Check_Command+0x2d4>)
        	uart_tx_com_bufer[uart_tx_pointer++] = settings.CAN0_Enabled + ((unsigned char)settings.CAN0ListenOnly << 4);
 80029c4:	4c61      	ldr	r4, [pc, #388]	; (8002b4c <Check_Command+0x2ac>)
        	SysSettings.CAN_Speed[1] = 95238;
 80029c6:	6211      	str	r1, [r2, #32]
        	SysSettings.CAN_Speed[2] = 33333;
 80029c8:	f248 2135 	movw	r1, #33333	; 0x8235
 80029cc:	6251      	str	r1, [r2, #36]	; 0x24
        	SysSettings.CAN_Speed[3] = 9600;
 80029ce:	f44f 5116 	mov.w	r1, #9600	; 0x2580
 80029d2:	6291      	str	r1, [r2, #40]	; 0x28
        	uart_tx_com_bufer[uart_tx_pointer++] = 0xF1;
 80029d4:	21f1      	movs	r1, #241	; 0xf1
 80029d6:	6830      	ldr	r0, [r6, #0]
 80029d8:	4a60      	ldr	r2, [pc, #384]	; (8002b5c <Check_Command+0x2bc>)
        	uart_tx_com_bufer[uart_tx_pointer++] = settings.CAN0_Enabled + ((unsigned char)settings.CAN0ListenOnly << 4);
 80029da:	f894 5100 	ldrb.w	r5, [r4, #256]	; 0x100
        	uart_tx_com_bufer[uart_tx_pointer++] = 0xF1;
 80029de:	5411      	strb	r1, [r2, r0]
        	uart_tx_com_bufer[uart_tx_pointer++] = settings.CAN0_Enabled + ((unsigned char)settings.CAN0ListenOnly << 4);
 80029e0:	7c21      	ldrb	r1, [r4, #16]
        	uart_tx_com_bufer[uart_tx_pointer++] = 6;
 80029e2:	4402      	add	r2, r0
        	uart_tx_com_bufer[uart_tx_pointer++] = settings.CAN0_Enabled + ((unsigned char)settings.CAN0ListenOnly << 4);
 80029e4:	eb01 1105 	add.w	r1, r1, r5, lsl #4
 80029e8:	7091      	strb	r1, [r2, #2]
        	uart_tx_com_bufer[uart_tx_pointer++] = SysSettings.CAN_Speed[0];
 80029ea:	2120      	movs	r1, #32
 80029ec:	70d1      	strb	r1, [r2, #3]
        	uart_tx_com_bufer[uart_tx_pointer++] = SysSettings.CAN_Speed[0] >> 8;
 80029ee:	21a1      	movs	r1, #161	; 0xa1
 80029f0:	7111      	strb	r1, [r2, #4]
        	uart_tx_com_bufer[uart_tx_pointer++] = SysSettings.CAN_Speed[0] >> 16;
 80029f2:	2107      	movs	r1, #7
        	uart_tx_com_bufer[uart_tx_pointer++] = 6;
 80029f4:	2706      	movs	r7, #6
        	uart_tx_com_bufer[uart_tx_pointer++] = SysSettings.CAN_Speed[0] >> 16;
 80029f6:	7151      	strb	r1, [r2, #5]
        	uart_tx_com_bufer[uart_tx_pointer++] = settings.CAN1_Enabled + ((unsigned char)settings.CAN1ListenOnly << 4) + ((unsigned char)settings.singleWire_Enabled << 6);
 80029f8:	7ca1      	ldrb	r1, [r4, #18]
 80029fa:	f894 e101 	ldrb.w	lr, [r4, #257]	; 0x101
 80029fe:	40b9      	lsls	r1, r7
 8002a00:	7c64      	ldrb	r4, [r4, #17]
 8002a02:	eb01 110e 	add.w	r1, r1, lr, lsl #4
 8002a06:	4421      	add	r1, r4
 8002a08:	71d1      	strb	r1, [r2, #7]
        	uart_tx_com_bufer[uart_tx_pointer++] = SysSettings.CAN_Speed[1] >> 8;
 8002a0a:	2174      	movs	r1, #116	; 0x74
        	uart_tx_com_bufer[uart_tx_pointer++] = SysSettings.CAN_Speed[0] >> 24;
 8002a0c:	2500      	movs	r5, #0
        	uart_tx_com_bufer[uart_tx_pointer++] = SysSettings.CAN_Speed[1] >> 8;
 8002a0e:	7251      	strb	r1, [r2, #9]
        	uart_tx_com_bufer[uart_tx_pointer++] = SysSettings.CAN_Speed[1] >> 16;
 8002a10:	2101      	movs	r1, #1
        	uart_tx_com_bufer[uart_tx_pointer++] = 6;
 8002a12:	7057      	strb	r7, [r2, #1]
        	uart_tx_com_bufer[uart_tx_pointer++] = SysSettings.CAN_Speed[0] >> 24;
 8002a14:	7195      	strb	r5, [r2, #6]
        	uart_tx_com_bufer[uart_tx_pointer++] = SysSettings.CAN_Speed[1];
 8002a16:	7217      	strb	r7, [r2, #8]
        	uart_tx_com_bufer[uart_tx_pointer++] = SysSettings.CAN_Speed[1] >> 16;
 8002a18:	7291      	strb	r1, [r2, #10]
        	uart_tx_com_bufer[uart_tx_pointer++] = SysSettings.CAN_Speed[1] >> 24;
 8002a1a:	72d5      	strb	r5, [r2, #11]
            uart_answ_ready = 1;
 8002a1c:	4a51      	ldr	r2, [pc, #324]	; (8002b64 <Check_Command+0x2c4>)
        	uart_tx_com_bufer[uart_tx_pointer++] = SysSettings.CAN_Speed[1] >> 24;
 8002a1e:	300c      	adds	r0, #12
            uart_answ_ready = 1;
 8002a20:	7011      	strb	r1, [r2, #0]
        	uart_tx_com_bufer[uart_tx_pointer++] = SysSettings.CAN_Speed[1] >> 24;
 8002a22:	6030      	str	r0, [r6, #0]
            state = IDLE;
 8002a24:	701d      	strb	r5, [r3, #0]
            break;
 8002a26:	bdf8      	pop	{r3, r4, r5, r6, r7, pc}
        	uart_tx_com_bufer[uart_tx_pointer++] = 0xF1;
 8002a28:	20f1      	movs	r0, #241	; 0xf1
 8002a2a:	4d4b      	ldr	r5, [pc, #300]	; (8002b58 <Check_Command+0x2b8>)
 8002a2c:	4a4b      	ldr	r2, [pc, #300]	; (8002b5c <Check_Command+0x2bc>)
 8002a2e:	6829      	ldr	r1, [r5, #0]
        	uart_tx_com_bufer[uart_tx_pointer++] = (CFG_BUILD_NUM >> 8);
 8002a30:	2401      	movs	r4, #1
        	uart_tx_com_bufer[uart_tx_pointer++] = 0xF1;
 8002a32:	5450      	strb	r0, [r2, r1]
        	uart_tx_com_bufer[uart_tx_pointer++] = 7;
 8002a34:	2007      	movs	r0, #7
 8002a36:	440a      	add	r2, r1
 8002a38:	7050      	strb	r0, [r2, #1]
        	uart_tx_com_bufer[uart_tx_pointer++] = CFG_BUILD_NUM & 0xFF;
 8002a3a:	2057      	movs	r0, #87	; 0x57
 8002a3c:	7090      	strb	r0, [r2, #2]
        	uart_tx_com_bufer[uart_tx_pointer++] = EEPROM_VER;
 8002a3e:	2017      	movs	r0, #23
 8002a40:	7110      	strb	r0, [r2, #4]
        	uart_tx_com_bufer[uart_tx_pointer++] = (unsigned char)settings.fileOutputType;
 8002a42:	4842      	ldr	r0, [pc, #264]	; (8002b4c <Check_Command+0x2ac>)
        	uart_tx_com_bufer[uart_tx_pointer++] = settings.singleWire_Enabled;
 8002a44:	3108      	adds	r1, #8
        	uart_tx_com_bufer[uart_tx_pointer++] = (unsigned char)settings.fileOutputType;
 8002a46:	f890 60d5 	ldrb.w	r6, [r0, #213]	; 0xd5
        	uart_tx_com_bufer[uart_tx_pointer++] = settings.singleWire_Enabled;
 8002a4a:	6029      	str	r1, [r5, #0]
        	uart_tx_com_bufer[uart_tx_pointer++] = (unsigned char)settings.fileOutputType;
 8002a4c:	7156      	strb	r6, [r2, #5]
        	uart_tx_com_bufer[uart_tx_pointer++] = settings.singleWire_Enabled;
 8002a4e:	7c81      	ldrb	r1, [r0, #18]
        	uart_tx_com_bufer[uart_tx_pointer++] = (unsigned char)settings.autoStartLogging;
 8002a50:	f890 60fb 	ldrb.w	r6, [r0, #251]	; 0xfb
        	uart_tx_com_bufer[uart_tx_pointer++] = (CFG_BUILD_NUM >> 8);
 8002a54:	70d4      	strb	r4, [r2, #3]
        	uart_tx_com_bufer[uart_tx_pointer++] = (unsigned char)settings.autoStartLogging;
 8002a56:	7196      	strb	r6, [r2, #6]
        	uart_tx_com_bufer[uart_tx_pointer++] = settings.singleWire_Enabled;
 8002a58:	71d1      	strb	r1, [r2, #7]
            uart_answ_ready = 1;
 8002a5a:	4a42      	ldr	r2, [pc, #264]	; (8002b64 <Check_Command+0x2c4>)
 8002a5c:	7014      	strb	r4, [r2, #0]
        state = IDLE;
 8002a5e:	2200      	movs	r2, #0
 8002a60:	e73b      	b.n	80028da <Check_Command+0x3a>
            uart_tx_com_bufer[0] = 0xF1;
 8002a62:	21f1      	movs	r1, #241	; 0xf1
 8002a64:	4a3d      	ldr	r2, [pc, #244]	; (8002b5c <Check_Command+0x2bc>)
 8002a66:	7011      	strb	r1, [r2, #0]
            state = SET_SINGLEWIRE_MODE;
 8002a68:	220a      	movs	r2, #10
 8002a6a:	701a      	strb	r2, [r3, #0]
            step = 0;
 8002a6c:	2200      	movs	r2, #0
 8002a6e:	4b3f      	ldr	r3, [pc, #252]	; (8002b6c <Check_Command+0x2cc>)
 8002a70:	601a      	str	r2, [r3, #0]
            break;
 8002a72:	bdf8      	pop	{r3, r4, r5, r6, r7, pc}
        	uart_tx_com_bufer[uart_tx_pointer++] = 0xF1;
 8002a74:	24f1      	movs	r4, #241	; 0xf1
 8002a76:	4838      	ldr	r0, [pc, #224]	; (8002b58 <Check_Command+0x2b8>)
 8002a78:	4a38      	ldr	r2, [pc, #224]	; (8002b5c <Check_Command+0x2bc>)
 8002a7a:	6801      	ldr	r1, [r0, #0]
 8002a7c:	5454      	strb	r4, [r2, r1]
        	uart_tx_com_bufer[uart_tx_pointer++] = 0x09;
 8002a7e:	2409      	movs	r4, #9
 8002a80:	440a      	add	r2, r1
        	uart_tx_com_bufer[uart_tx_pointer++] = 0xAD;
 8002a82:	3104      	adds	r1, #4
        	uart_tx_com_bufer[uart_tx_pointer++] = 0x09;
 8002a84:	7054      	strb	r4, [r2, #1]
        	uart_tx_com_bufer[uart_tx_pointer++] = 0xAD;
 8002a86:	6001      	str	r1, [r0, #0]
        	uart_tx_com_bufer[uart_tx_pointer++] = 0xDE;
 8002a88:	24de      	movs	r4, #222	; 0xde
        	uart_tx_com_bufer[uart_tx_pointer++] = 0xAD;
 8002a8a:	21ad      	movs	r1, #173	; 0xad
        	uart_tx_com_bufer[uart_tx_pointer++] = 0xDE;
 8002a8c:	7094      	strb	r4, [r2, #2]
        	uart_tx_com_bufer[uart_tx_pointer++] = 0xAD;
 8002a8e:	70d1      	strb	r1, [r2, #3]
            uart_answ_ready = 1;
 8002a90:	2101      	movs	r1, #1
 8002a92:	4a34      	ldr	r2, [pc, #208]	; (8002b64 <Check_Command+0x2c4>)
 8002a94:	7011      	strb	r1, [r2, #0]
 8002a96:	e7e2      	b.n	8002a5e <Check_Command+0x1be>
            uart_tx_com_bufer[0] = 0xF1;
 8002a98:	21f1      	movs	r1, #241	; 0xf1
 8002a9a:	4a30      	ldr	r2, [pc, #192]	; (8002b5c <Check_Command+0x2bc>)
 8002a9c:	7011      	strb	r1, [r2, #0]
            state = SET_SYSTYPE;
 8002a9e:	220b      	movs	r2, #11
 8002aa0:	e7e3      	b.n	8002a6a <Check_Command+0x1ca>
            state = ECHO_CAN_FRAME;
 8002aa2:	220c      	movs	r2, #12
 8002aa4:	e760      	b.n	8002968 <Check_Command+0xc8>
            uart_tx_com_bufer[uart_tx_pointer++] = 0xF1;
 8002aa6:	24f1      	movs	r4, #241	; 0xf1
 8002aa8:	482b      	ldr	r0, [pc, #172]	; (8002b58 <Check_Command+0x2b8>)
 8002aaa:	4a2c      	ldr	r2, [pc, #176]	; (8002b5c <Check_Command+0x2bc>)
 8002aac:	6801      	ldr	r1, [r0, #0]
 8002aae:	5454      	strb	r4, [r2, r1]
            uart_tx_com_bufer[uart_tx_pointer++] = 12;
 8002ab0:	440a      	add	r2, r1
            uart_tx_com_bufer[uart_tx_pointer++] = 4; //CAN0, CAN1, SWCAN
 8002ab2:	3103      	adds	r1, #3
            uart_tx_com_bufer[uart_tx_pointer++] = 12;
 8002ab4:	240c      	movs	r4, #12
            uart_tx_com_bufer[uart_tx_pointer++] = 4; //CAN0, CAN1, SWCAN
 8002ab6:	6001      	str	r1, [r0, #0]
 8002ab8:	2104      	movs	r1, #4
            uart_tx_com_bufer[uart_tx_pointer++] = 12;
 8002aba:	7054      	strb	r4, [r2, #1]
            uart_tx_com_bufer[uart_tx_pointer++] = 4; //CAN0, CAN1, SWCAN
 8002abc:	7091      	strb	r1, [r2, #2]
 8002abe:	e7e7      	b.n	8002a90 <Check_Command+0x1f0>
            uart_tx_com_bufer[0] = 0xF1;
 8002ac0:	21f1      	movs	r1, #241	; 0xf1
 8002ac2:	4a26      	ldr	r2, [pc, #152]	; (8002b5c <Check_Command+0x2bc>)
            uart_tx_com_bufer[2] = settings.singleWire_Enabled + ((unsigned char)settings.SWCANListenOnly << 4);
 8002ac4:	4821      	ldr	r0, [pc, #132]	; (8002b4c <Check_Command+0x2ac>)
            uart_tx_com_bufer[0] = 0xF1;
 8002ac6:	7011      	strb	r1, [r2, #0]
            uart_tx_com_bufer[1] = 13;
 8002ac8:	210d      	movs	r1, #13
            uart_tx_com_bufer[2] = settings.singleWire_Enabled + ((unsigned char)settings.SWCANListenOnly << 4);
 8002aca:	f890 4102 	ldrb.w	r4, [r0, #258]	; 0x102
            uart_tx_com_bufer[1] = 13;
 8002ace:	7051      	strb	r1, [r2, #1]
            uart_tx_com_bufer[2] = settings.singleWire_Enabled + ((unsigned char)settings.SWCANListenOnly << 4);
 8002ad0:	7c81      	ldrb	r1, [r0, #18]
            uart_tx_com_bufer[3] = SysSettings.CAN_Speed[2];
 8002ad2:	481f      	ldr	r0, [pc, #124]	; (8002b50 <Check_Command+0x2b0>)
            uart_tx_com_bufer[2] = settings.singleWire_Enabled + ((unsigned char)settings.SWCANListenOnly << 4);
 8002ad4:	eb01 1104 	add.w	r1, r1, r4, lsl #4
 8002ad8:	7091      	strb	r1, [r2, #2]
            uart_tx_com_bufer[3] = SysSettings.CAN_Speed[2];
 8002ada:	6a41      	ldr	r1, [r0, #36]	; 0x24
            uart_tx_com_bufer[8] = SysSettings.CAN_Speed[3]; //fourth bus speed (4 bytes)
 8002adc:	6a80      	ldr	r0, [r0, #40]	; 0x28
            uart_tx_com_bufer[4] = SysSettings.CAN_Speed[2] >> 8;
 8002ade:	0a0c      	lsrs	r4, r1, #8
            uart_tx_com_bufer[3] = SysSettings.CAN_Speed[2];
 8002ae0:	70d1      	strb	r1, [r2, #3]
            uart_tx_com_bufer[4] = SysSettings.CAN_Speed[2] >> 8;
 8002ae2:	7114      	strb	r4, [r2, #4]
            uart_tx_com_bufer[5] = SysSettings.CAN_Speed[2] >> 16;
 8002ae4:	0c0c      	lsrs	r4, r1, #16
            uart_tx_com_bufer[6] = SysSettings.CAN_Speed[2] >> 24;
 8002ae6:	0e09      	lsrs	r1, r1, #24
 8002ae8:	7191      	strb	r1, [r2, #6]
            uart_tx_com_bufer[7] = 0; //fourth bus enabled
 8002aea:	2100      	movs	r1, #0
            uart_tx_com_bufer[5] = SysSettings.CAN_Speed[2] >> 16;
 8002aec:	7154      	strb	r4, [r2, #5]
            uart_tx_com_bufer[9] = SysSettings.CAN_Speed[3] >> 8;
 8002aee:	0a04      	lsrs	r4, r0, #8
            uart_tx_com_bufer[8] = SysSettings.CAN_Speed[3]; //fourth bus speed (4 bytes)
 8002af0:	7210      	strb	r0, [r2, #8]
            uart_tx_com_bufer[9] = SysSettings.CAN_Speed[3] >> 8;
 8002af2:	7254      	strb	r4, [r2, #9]
            uart_tx_com_bufer[10] = SysSettings.CAN_Speed[3] >> 16;
 8002af4:	0c04      	lsrs	r4, r0, #16
            uart_tx_com_bufer[11] = SysSettings.CAN_Speed[3] >> 24;
 8002af6:	0e00      	lsrs	r0, r0, #24
            uart_tx_com_bufer[7] = 0; //fourth bus enabled
 8002af8:	71d1      	strb	r1, [r2, #7]
            uart_tx_com_bufer[10] = SysSettings.CAN_Speed[3] >> 16;
 8002afa:	7294      	strb	r4, [r2, #10]
            uart_tx_com_bufer[11] = SysSettings.CAN_Speed[3] >> 24;
 8002afc:	72d0      	strb	r0, [r2, #11]
            uart_tx_com_bufer[12] = 0; //fifth bus enabled
 8002afe:	7311      	strb	r1, [r2, #12]
            uart_tx_com_bufer[13] = 0; //fifth bus speed (4 bytes)
 8002b00:	7351      	strb	r1, [r2, #13]
            uart_tx_com_bufer[14] = 0;
 8002b02:	7391      	strb	r1, [r2, #14]
            uart_tx_com_bufer[15] = 0;
 8002b04:	73d1      	strb	r1, [r2, #15]
            uart_tx_com_bufer[16] = 0;
 8002b06:	7411      	strb	r1, [r2, #16]
 8002b08:	e74a      	b.n	80029a0 <Check_Command+0x100>
            state = SETUP_EXT_BUSES;
 8002b0a:	220d      	movs	r2, #13
 8002b0c:	e750      	b.n	80029b0 <Check_Command+0x110>
        uart_tx_com_bufer[1 + step] = in_byte;
 8002b0e:	4c17      	ldr	r4, [pc, #92]	; (8002b6c <Check_Command+0x2cc>)
 8002b10:	4912      	ldr	r1, [pc, #72]	; (8002b5c <Check_Command+0x2bc>)
 8002b12:	6822      	ldr	r2, [r4, #0]
 8002b14:	4411      	add	r1, r2
 8002b16:	7048      	strb	r0, [r1, #1]
        switch (step) {
 8002b18:	2a05      	cmp	r2, #5
 8002b1a:	d84b      	bhi.n	8002bb4 <Check_Command+0x314>
 8002b1c:	e8df f002 	tbb	[pc, r2]
 8002b20:	2e0c0603 	.word	0x2e0c0603
 8002b24:	403c      	.short	0x403c
        	CAN_TxHeader.StdId = in_byte;
 8002b26:	4b14      	ldr	r3, [pc, #80]	; (8002b78 <Check_Command+0x2d8>)
            build_int = in_byte;
 8002b28:	6018      	str	r0, [r3, #0]
            break;
 8002b2a:	e035      	b.n	8002b98 <Check_Command+0x2f8>
        	CAN_TxHeader.StdId |= in_byte << 8;
 8002b2c:	4a12      	ldr	r2, [pc, #72]	; (8002b78 <Check_Command+0x2d8>)
            build_int |= in_byte << 8;
 8002b2e:	6813      	ldr	r3, [r2, #0]
 8002b30:	ea43 2000 	orr.w	r0, r3, r0, lsl #8
 8002b34:	6010      	str	r0, [r2, #0]
            break;
 8002b36:	e02f      	b.n	8002b98 <Check_Command+0x2f8>
        	CAN_TxHeader.StdId |= in_byte << 16;
 8002b38:	4a0f      	ldr	r2, [pc, #60]	; (8002b78 <Check_Command+0x2d8>)
            build_int |= in_byte << 16;
 8002b3a:	6813      	ldr	r3, [r2, #0]
 8002b3c:	ea43 4000 	orr.w	r0, r3, r0, lsl #16
 8002b40:	e7f8      	b.n	8002b34 <Check_Command+0x294>
 8002b42:	bf00      	nop
 8002b44:	2000003c 	.word	0x2000003c
 8002b48:	20000040 	.word	0x20000040
 8002b4c:	2000009c 	.word	0x2000009c
 8002b50:	200001a0 	.word	0x200001a0
 8002b54:	200001e8 	.word	0x200001e8
 8002b58:	20000078 	.word	0x20000078
 8002b5c:	20001100 	.word	0x20001100
 8002b60:	200001e7 	.word	0x200001e7
 8002b64:	20000075 	.word	0x20000075
 8002b68:	20000034 	.word	0x20000034
 8002b6c:	20000044 	.word	0x20000044
 8002b70:	0007a120 	.word	0x0007a120
 8002b74:	00017406 	.word	0x00017406
 8002b78:	20000084 	.word	0x20000084
        	CAN_TxHeader.StdId |= in_byte << 24;
 8002b7c:	4a7a      	ldr	r2, [pc, #488]	; (8002d68 <Check_Command+0x4c8>)
 8002b7e:	6813      	ldr	r3, [r2, #0]
 8002b80:	ea43 6000 	orr.w	r0, r3, r0, lsl #24
            if (CAN_TxHeader.StdId & 1 << 31) {
 8002b84:	2800      	cmp	r0, #0
            	CAN_TxHeader.IDE = CAN_ID_EXT;
 8002b86:	bfb4      	ite	lt
 8002b88:	2304      	movlt	r3, #4
            } else CAN_TxHeader.IDE = CAN_ID_STD;
 8002b8a:	2300      	movge	r3, #0
        	CAN_TxHeader.StdId |= in_byte << 24;
 8002b8c:	6010      	str	r0, [r2, #0]
            	CAN_TxHeader.ExtId = CAN_TxHeader.StdId & 0x7FFFFFFF;
 8002b8e:	bfbc      	itt	lt
 8002b90:	f020 4000 	biclt.w	r0, r0, #2147483648	; 0x80000000
 8002b94:	6050      	strlt	r0, [r2, #4]
            } else CAN_TxHeader.IDE = CAN_ID_STD;
 8002b96:	6093      	str	r3, [r2, #8]
        step++;
 8002b98:	6823      	ldr	r3, [r4, #0]
 8002b9a:	3301      	adds	r3, #1
 8002b9c:	6023      	str	r3, [r4, #0]
        break;
 8002b9e:	bdf8      	pop	{r3, r4, r5, r6, r7, pc}
 8002ba0:	f000 000f 	and.w	r0, r0, #15
            if (CAN_TxHeader.DLC > 8) CAN_TxHeader.DLC = 8;
 8002ba4:	2808      	cmp	r0, #8
 8002ba6:	bf88      	it	hi
 8002ba8:	2208      	movhi	r2, #8
 8002baa:	4b6f      	ldr	r3, [pc, #444]	; (8002d68 <Check_Command+0x4c8>)
        	CAN_TxHeader.DLC = in_byte & 0xF;
 8002bac:	bf94      	ite	ls
 8002bae:	6118      	strls	r0, [r3, #16]
            if (CAN_TxHeader.DLC > 8) CAN_TxHeader.DLC = 8;
 8002bb0:	611a      	strhi	r2, [r3, #16]
 8002bb2:	e7f1      	b.n	8002b98 <Check_Command+0x2f8>
            if (step < CAN_TxHeader.DLC + 6) {
 8002bb4:	4d6c      	ldr	r5, [pc, #432]	; (8002d68 <Check_Command+0x4c8>)
 8002bb6:	6929      	ldr	r1, [r5, #16]
 8002bb8:	3106      	adds	r1, #6
 8002bba:	4291      	cmp	r1, r2
 8002bbc:	d904      	bls.n	8002bc8 <Check_Command+0x328>
            	CAN_Tx_buffer[step - 6] = in_byte;
 8002bbe:	4b6b      	ldr	r3, [pc, #428]	; (8002d6c <Check_Command+0x4cc>)
 8002bc0:	441a      	add	r2, r3
 8002bc2:	f802 0c06 	strb.w	r0, [r2, #-6]
 8002bc6:	e7e7      	b.n	8002b98 <Check_Command+0x2f8>
                state = IDLE;
 8002bc8:	2600      	movs	r6, #0
                HAL_GPIO_WritePin(TX_LED_GPIO_Port, TX_LED_Pin, GPIO_PIN_SET);
 8002bca:	2201      	movs	r2, #1
 8002bcc:	f44f 4100 	mov.w	r1, #32768	; 0x8000
 8002bd0:	4867      	ldr	r0, [pc, #412]	; (8002d70 <Check_Command+0x4d0>)
                state = IDLE;
 8002bd2:	701e      	strb	r6, [r3, #0]
                HAL_GPIO_WritePin(TX_LED_GPIO_Port, TX_LED_Pin, GPIO_PIN_SET);
 8002bd4:	f7fe f9ae 	bl	8000f34 <HAL_GPIO_WritePin>
                HAL_CAN_AddTxMessage(&hcan, &CAN_TxHeader, CAN_Tx_buffer, &CAN_mailbox);
 8002bd8:	4b66      	ldr	r3, [pc, #408]	; (8002d74 <Check_Command+0x4d4>)
 8002bda:	4a64      	ldr	r2, [pc, #400]	; (8002d6c <Check_Command+0x4cc>)
 8002bdc:	4629      	mov	r1, r5
 8002bde:	4866      	ldr	r0, [pc, #408]	; (8002d78 <Check_Command+0x4d8>)
                CAN_TxHeader.RTR = CAN_RTR_DATA;
 8002be0:	60ee      	str	r6, [r5, #12]
                HAL_CAN_AddTxMessage(&hcan, &CAN_TxHeader, CAN_Tx_buffer, &CAN_mailbox);
 8002be2:	f7fd fc69 	bl	80004b8 <HAL_CAN_AddTxMessage>
 8002be6:	e7d7      	b.n	8002b98 <Check_Command+0x2f8>
        uart_tx_com_bufer[1] = in_byte;
 8002be8:	4a64      	ldr	r2, [pc, #400]	; (8002d7c <Check_Command+0x4dc>)
 8002bea:	7050      	strb	r0, [r2, #1]
 8002bec:	e737      	b.n	8002a5e <Check_Command+0x1be>
        switch (step) {
 8002bee:	4c64      	ldr	r4, [pc, #400]	; (8002d80 <Check_Command+0x4e0>)
 8002bf0:	6822      	ldr	r2, [r4, #0]
 8002bf2:	2a07      	cmp	r2, #7
 8002bf4:	d8d0      	bhi.n	8002b98 <Check_Command+0x2f8>
 8002bf6:	e8df f002 	tbb	[pc, r2]
 8002bfa:	5351      	.short	0x5351
 8002bfc:	53510455 	.word	0x53510455
 8002c00:	5755      	.short	0x5755
            build_int |= in_byte << 24;
 8002c02:	4d60      	ldr	r5, [pc, #384]	; (8002d84 <Check_Command+0x4e4>)
 8002c04:	4e60      	ldr	r6, [pc, #384]	; (8002d88 <Check_Command+0x4e8>)
 8002c06:	682f      	ldr	r7, [r5, #0]
 8002c08:	ea47 6700 	orr.w	r7, r7, r0, lsl #24
 8002c0c:	602f      	str	r7, [r5, #0]
            if (build_int > 0) {
 8002c0e:	2f00      	cmp	r7, #0
 8002c10:	d040      	beq.n	8002c94 <Check_Command+0x3f4>
            	Close_CAN_cannel();
 8002c12:	f7ff fa87 	bl	8002124 <Close_CAN_cannel>
            	SysSettings.CAN_Speed[SysSettings.numBus] = build_int & 0xFFFFF;
 8002c16:	4a5d      	ldr	r2, [pc, #372]	; (8002d8c <Check_Command+0x4ec>)
 8002c18:	6829      	ldr	r1, [r5, #0]
 8002c1a:	f992 3018 	ldrsb.w	r3, [r2, #24]
 8002c1e:	f3c1 0713 	ubfx	r7, r1, #0, #20
 8002c22:	eb02 0083 	add.w	r0, r2, r3, lsl #2
                if (build_int & 0x80000000) { //signals that enabled and listen only status are also being passed
 8002c26:	2900      	cmp	r1, #0
            	SysSettings.CAN_Speed[SysSettings.numBus] = build_int & 0xFFFFF;
 8002c28:	61c7      	str	r7, [r0, #28]
                if (build_int & 0x80000000) { //signals that enabled and listen only status are also being passed
 8002c2a:	da26      	bge.n	8002c7a <Check_Command+0x3da>
                	if ((build_int & 0x60000000) == 0x60000000) {
 8002c2c:	f001 40c0 	and.w	r0, r1, #1610612736	; 0x60000000
 8002c30:	f1b0 4fc0 	cmp.w	r0, #1610612736	; 0x60000000
 8002c34:	d112      	bne.n	8002c5c <Check_Command+0x3bc>
                        SysSettings.CAN_mode[SysSettings.numBus] = CAN_MODE_SILENT;
 8002c36:	eb02 0383 	add.w	r3, r2, r3, lsl #2
                        settings.CAN0ListenOnly = true;
 8002c3a:	2101      	movs	r1, #1
                        SysSettings.CAN_mode[SysSettings.numBus] = CAN_MODE_SILENT;
 8002c3c:	f04f 4200 	mov.w	r2, #2147483648	; 0x80000000
                        settings.CAN0ListenOnly = true;
 8002c40:	f886 1100 	strb.w	r1, [r6, #256]	; 0x100
                        SysSettings.CAN_mode[SysSettings.numBus] = CAN_MODE_SILENT;
 8002c44:	62da      	str	r2, [r3, #44]	; 0x2c
                        conf.state = SAVVYCAN_CONNECT;
 8002c46:	2202      	movs	r2, #2
 8002c48:	4b51      	ldr	r3, [pc, #324]	; (8002d90 <Check_Command+0x4f0>)
 8002c4a:	701a      	strb	r2, [r3, #0]
                        Open_CAN_cannel();
 8002c4c:	f7ff fabc 	bl	80021c8 <Open_CAN_cannel>
                build_int = build_int & 0xFFFFF;
 8002c50:	682b      	ldr	r3, [r5, #0]
 8002c52:	f3c3 0313 	ubfx	r3, r3, #0, #20
 8002c56:	602b      	str	r3, [r5, #0]
                settings.CAN0Speed = build_int;
 8002c58:	6073      	str	r3, [r6, #4]
 8002c5a:	e79d      	b.n	8002b98 <Check_Command+0x2f8>
                    } else if (build_int & 0x40000000) {
 8002c5c:	f011 4180 	ands.w	r1, r1, #1073741824	; 0x40000000
 8002c60:	d007      	beq.n	8002c72 <Check_Command+0x3d2>
                        SysSettings.CAN_mode[SysSettings.numBus] = CAN_MODE_NORMAL;
 8002c62:	330a      	adds	r3, #10
 8002c64:	eb02 0383 	add.w	r3, r2, r3, lsl #2
                        settings.CAN0_Enabled = true;
 8002c68:	2101      	movs	r1, #1
                        SysSettings.CAN_mode[SysSettings.numBus] = CAN_MODE_NORMAL;
 8002c6a:	2200      	movs	r2, #0
                        settings.CAN0_Enabled = true;
 8002c6c:	7431      	strb	r1, [r6, #16]
                        SysSettings.CAN_mode[SysSettings.numBus] = CAN_MODE_NORMAL;
 8002c6e:	605a      	str	r2, [r3, #4]
 8002c70:	e7e9      	b.n	8002c46 <Check_Command+0x3a6>
                        settings.CAN0_Enabled = false;
 8002c72:	7431      	strb	r1, [r6, #16]
                        Close_CAN_cannel();
 8002c74:	f7ff fa56 	bl	8002124 <Close_CAN_cannel>
 8002c78:	e7ea      	b.n	8002c50 <Check_Command+0x3b0>
                	SysSettings.CAN_mode[SysSettings.numBus] = CAN_MODE_NORMAL;
 8002c7a:	330a      	adds	r3, #10
 8002c7c:	eb02 0383 	add.w	r3, r2, r3, lsl #2
                	conf.state = SAVVYCAN_CONNECT;
 8002c80:	2002      	movs	r0, #2
                	SysSettings.CAN_mode[SysSettings.numBus] = CAN_MODE_NORMAL;
 8002c82:	2200      	movs	r2, #0
                	conf.state = SAVVYCAN_CONNECT;
 8002c84:	4942      	ldr	r1, [pc, #264]	; (8002d90 <Check_Command+0x4f0>)
                	SysSettings.CAN_mode[SysSettings.numBus] = CAN_MODE_NORMAL;
 8002c86:	605a      	str	r2, [r3, #4]
                	conf.state = SAVVYCAN_CONNECT;
 8002c88:	7008      	strb	r0, [r1, #0]
                    Open_CAN_cannel(); //if not using extended status mode then just default to enabling - this was old behavior
 8002c8a:	f7ff fa9d 	bl	80021c8 <Open_CAN_cannel>
                    settings.CAN0_Enabled = true;
 8002c8e:	2301      	movs	r3, #1
 8002c90:	7433      	strb	r3, [r6, #16]
 8002c92:	e7dd      	b.n	8002c50 <Check_Command+0x3b0>
                Close_CAN_cannel();
 8002c94:	f7ff fa46 	bl	8002124 <Close_CAN_cannel>
                settings.CAN0_Enabled = false;
 8002c98:	7437      	strb	r7, [r6, #16]
 8002c9a:	e77d      	b.n	8002b98 <Check_Command+0x2f8>
            build_int = in_byte;
 8002c9c:	4b39      	ldr	r3, [pc, #228]	; (8002d84 <Check_Command+0x4e4>)
 8002c9e:	e743      	b.n	8002b28 <Check_Command+0x288>
            build_int |= in_byte << 8;
 8002ca0:	4a38      	ldr	r2, [pc, #224]	; (8002d84 <Check_Command+0x4e4>)
 8002ca2:	e744      	b.n	8002b2e <Check_Command+0x28e>
            build_int |= in_byte << 16;
 8002ca4:	4a37      	ldr	r2, [pc, #220]	; (8002d84 <Check_Command+0x4e4>)
 8002ca6:	e748      	b.n	8002b3a <Check_Command+0x29a>
            build_int |= in_byte << 24;
 8002ca8:	4936      	ldr	r1, [pc, #216]	; (8002d84 <Check_Command+0x4e4>)
 8002caa:	680a      	ldr	r2, [r1, #0]
 8002cac:	ea42 6000 	orr.w	r0, r2, r0, lsl #24
            if (build_int > 0) {
 8002cb0:	2800      	cmp	r0, #0
            build_int |= in_byte << 24;
 8002cb2:	6008      	str	r0, [r1, #0]
 8002cb4:	4a34      	ldr	r2, [pc, #208]	; (8002d88 <Check_Command+0x4e8>)
            if (build_int > 0) {
 8002cb6:	d019      	beq.n	8002cec <Check_Command+0x44c>
                if (build_int & 0x80000000) { //signals that enabled and listen only status are also being passed
 8002cb8:	da15      	bge.n	8002ce6 <Check_Command+0x446>
                    if (build_int & 0x40000000) {
 8002cba:	f010 4580 	ands.w	r5, r0, #1073741824	; 0x40000000
                        settings.CAN1_Enabled = true;
 8002cbe:	bf18      	it	ne
 8002cc0:	2501      	movne	r5, #1
                        settings.CAN1_Enabled = false;
 8002cc2:	7455      	strb	r5, [r2, #17]
                    if (build_int & 0x20000000) {
 8002cc4:	f010 5500 	ands.w	r5, r0, #536870912	; 0x20000000
                        settings.CAN1ListenOnly = true;
 8002cc8:	bf18      	it	ne
 8002cca:	2501      	movne	r5, #1
                        settings.CAN1ListenOnly = false;
 8002ccc:	f882 5101 	strb.w	r5, [r2, #257]	; 0x101
                if (build_int > 1000000) build_int = 1000000;
 8002cd0:	4d30      	ldr	r5, [pc, #192]	; (8002d94 <Check_Command+0x4f4>)
                build_int = build_int & 0xFFFFF;
 8002cd2:	f3c0 0013 	ubfx	r0, r0, #0, #20
 8002cd6:	42a8      	cmp	r0, r5
 8002cd8:	bf28      	it	cs
 8002cda:	4628      	movcs	r0, r5
 8002cdc:	6008      	str	r0, [r1, #0]
                settings.CAN1Speed = build_int;
 8002cde:	6090      	str	r0, [r2, #8]
            state = IDLE;
 8002ce0:	2200      	movs	r2, #0
 8002ce2:	701a      	strb	r2, [r3, #0]
 8002ce4:	e758      	b.n	8002b98 <Check_Command+0x2f8>
                    settings.CAN1_Enabled = true;
 8002ce6:	2501      	movs	r5, #1
 8002ce8:	7455      	strb	r5, [r2, #17]
 8002cea:	e7f1      	b.n	8002cd0 <Check_Command+0x430>
                settings.CAN1_Enabled = false;
 8002cec:	7450      	strb	r0, [r2, #17]
 8002cee:	e7f7      	b.n	8002ce0 <Check_Command+0x440>
        if (in_byte == 0x10) {
 8002cf0:	2810      	cmp	r0, #16
            settings.singleWire_Enabled = true;
 8002cf2:	bf0c      	ite	eq
 8002cf4:	2101      	moveq	r1, #1
            settings.singleWire_Enabled = false;
 8002cf6:	2100      	movne	r1, #0
 8002cf8:	4a23      	ldr	r2, [pc, #140]	; (8002d88 <Check_Command+0x4e8>)
 8002cfa:	7491      	strb	r1, [r2, #18]
 8002cfc:	e6af      	b.n	8002a5e <Check_Command+0x1be>
        settings.sysType = in_byte;
 8002cfe:	4a22      	ldr	r2, [pc, #136]	; (8002d88 <Check_Command+0x4e8>)
 8002d00:	f882 00fd 	strb.w	r0, [r2, #253]	; 0xfd
 8002d04:	e6ab      	b.n	8002a5e <Check_Command+0x1be>
        uart_tx_com_bufer[1 + step] = in_byte;
 8002d06:	4a1e      	ldr	r2, [pc, #120]	; (8002d80 <Check_Command+0x4e0>)
 8002d08:	491c      	ldr	r1, [pc, #112]	; (8002d7c <Check_Command+0x4dc>)
 8002d0a:	6813      	ldr	r3, [r2, #0]
 8002d0c:	3301      	adds	r3, #1
 8002d0e:	54c8      	strb	r0, [r1, r3]
        step++;
 8002d10:	6013      	str	r3, [r2, #0]
        break;
 8002d12:	bdf8      	pop	{r3, r4, r5, r6, r7, pc}
        switch (step) {
 8002d14:	491a      	ldr	r1, [pc, #104]	; (8002d80 <Check_Command+0x4e0>)
 8002d16:	680a      	ldr	r2, [r1, #0]
 8002d18:	2a0b      	cmp	r2, #11
 8002d1a:	d80f      	bhi.n	8002d3c <Check_Command+0x49c>
 8002d1c:	e8df f002 	tbb	[pc, r2]
 8002d20:	0616110c 	.word	0x0616110c
 8002d24:	0616110c 	.word	0x0616110c
 8002d28:	1b16110c 	.word	0x1b16110c
            build_int |= in_byte << 24;
 8002d2c:	4c15      	ldr	r4, [pc, #84]	; (8002d84 <Check_Command+0x4e4>)
 8002d2e:	6823      	ldr	r3, [r4, #0]
 8002d30:	ea43 6000 	orr.w	r0, r3, r0, lsl #24
            build_int |= in_byte << 16;
 8002d34:	6020      	str	r0, [r4, #0]
            break;
 8002d36:	e001      	b.n	8002d3c <Check_Command+0x49c>
            build_int = in_byte;
 8002d38:	4b12      	ldr	r3, [pc, #72]	; (8002d84 <Check_Command+0x4e4>)
 8002d3a:	6018      	str	r0, [r3, #0]
        step++;
 8002d3c:	3201      	adds	r2, #1
 8002d3e:	600a      	str	r2, [r1, #0]
 8002d40:	bdf8      	pop	{r3, r4, r5, r6, r7, pc}
            build_int |= in_byte << 8;
 8002d42:	4c10      	ldr	r4, [pc, #64]	; (8002d84 <Check_Command+0x4e4>)
 8002d44:	6823      	ldr	r3, [r4, #0]
 8002d46:	ea43 2000 	orr.w	r0, r3, r0, lsl #8
 8002d4a:	e7f3      	b.n	8002d34 <Check_Command+0x494>
            build_int |= in_byte << 16;
 8002d4c:	4c0d      	ldr	r4, [pc, #52]	; (8002d84 <Check_Command+0x4e4>)
 8002d4e:	6823      	ldr	r3, [r4, #0]
 8002d50:	ea43 4000 	orr.w	r0, r3, r0, lsl #16
 8002d54:	e7ee      	b.n	8002d34 <Check_Command+0x494>
            build_int |= in_byte << 24;
 8002d56:	4d0b      	ldr	r5, [pc, #44]	; (8002d84 <Check_Command+0x4e4>)
 8002d58:	682c      	ldr	r4, [r5, #0]
 8002d5a:	ea44 6000 	orr.w	r0, r4, r0, lsl #24
 8002d5e:	6028      	str	r0, [r5, #0]
            state = IDLE;
 8002d60:	2000      	movs	r0, #0
 8002d62:	7018      	strb	r0, [r3, #0]
            break;
 8002d64:	e7ea      	b.n	8002d3c <Check_Command+0x49c>
 8002d66:	bf00      	nop
 8002d68:	20000084 	.word	0x20000084
 8002d6c:	2000002c 	.word	0x2000002c
 8002d70:	40010800 	.word	0x40010800
 8002d74:	200001e0 	.word	0x200001e0
 8002d78:	20000bd4 	.word	0x20000bd4
 8002d7c:	20001100 	.word	0x20001100
 8002d80:	20000044 	.word	0x20000044
 8002d84:	20000038 	.word	0x20000038
 8002d88:	2000009c 	.word	0x2000009c
 8002d8c:	200001a0 	.word	0x200001a0
 8002d90:	20000080 	.word	0x20000080
 8002d94:	000f4240 	.word	0x000f4240

08002d98 <Next_CAN_channel>:

void Next_CAN_channel (void)
{
	SysSettings.numBus++;
 8002d98:	4a04      	ldr	r2, [pc, #16]	; (8002dac <Next_CAN_channel+0x14>)
 8002d9a:	7e13      	ldrb	r3, [r2, #24]
 8002d9c:	3301      	adds	r3, #1
 8002d9e:	b25b      	sxtb	r3, r3
	if(SysSettings.numBus >= 4) SysSettings.numBus = 0;
 8002da0:	2b03      	cmp	r3, #3
 8002da2:	bfc8      	it	gt
 8002da4:	2300      	movgt	r3, #0
 8002da6:	7613      	strb	r3, [r2, #24]
	Change_CAN_channel();
 8002da8:	f7ff b9d8 	b.w	800215c <Change_CAN_channel>
 8002dac:	200001a0 	.word	0x200001a0

08002db0 <HAL_CAN_TxMailbox0CompleteCallback>:
 8002db0:	4770      	bx	lr

08002db2 <HAL_CAN_TxMailbox1CompleteCallback>:
 8002db2:	4770      	bx	lr

08002db4 <HAL_CAN_TxMailbox2CompleteCallback>:
void HAL_CAN_TxMailbox1CompleteCallback(CAN_HandleTypeDef *hcan)
{
	//HAL_GPIO_WritePin(TX_LED_GPIO_Port, TX_LED_Pin, GPIO_PIN_RESET);
}
void HAL_CAN_TxMailbox2CompleteCallback(CAN_HandleTypeDef *hcan)
{
 8002db4:	4770      	bx	lr
	...

08002db8 <HAL_CAN_ErrorCallback>:
	//HAL_GPIO_WritePin(TX_LED_GPIO_Port, TX_LED_Pin, GPIO_PIN_RESET);
}
void HAL_CAN_ErrorCallback(CAN_HandleTypeDef *hcan)
{
	HAL_GPIO_WritePin(ERROR_LED_GPIO_Port, ERROR_LED_Pin, GPIO_PIN_SET);
 8002db8:	2201      	movs	r2, #1
 8002dba:	f44f 7180 	mov.w	r1, #256	; 0x100
 8002dbe:	4801      	ldr	r0, [pc, #4]	; (8002dc4 <HAL_CAN_ErrorCallback+0xc>)
 8002dc0:	f7fe b8b8 	b.w	8000f34 <HAL_GPIO_WritePin>
 8002dc4:	40010800 	.word	0x40010800

08002dc8 <Button_rutine>:
 *      Author: Arh
 */
#include "button.h"

t_button_state Button_rutine (t_button_var * var, int pressed)
{
 8002dc8:	b538      	push	{r3, r4, r5, lr}
	t_button_state button_state = RELISED;

	switch (var->state) {
 8002dca:	8883      	ldrh	r3, [r0, #4]
{
 8002dcc:	4605      	mov	r5, r0
 8002dce:	460c      	mov	r4, r1
	switch (var->state) {
 8002dd0:	2b08      	cmp	r3, #8
 8002dd2:	d853      	bhi.n	8002e7c <Button_rutine+0xb4>
 8002dd4:	e8df f003 	tbb	[pc, r3]
 8002dd8:	2b1c0e05 	.word	0x2b1c0e05
 8002ddc:	64544638 	.word	0x64544638
 8002de0:	72          	.byte	0x72
 8002de1:	00          	.byte	0x00
	case 0:	// 
		if (pressed){
 8002de2:	b909      	cbnz	r1, 8002de8 <Button_rutine+0x20>
	t_button_state button_state = RELISED;
 8002de4:	2000      	movs	r0, #0
 8002de6:	bd38      	pop	{r3, r4, r5, pc}
			var->time_stamp = GetTimeMs();
 8002de8:	f7fd f9fa 	bl	80001e0 <HAL_GetTick>
			var->state = 1;
 8002dec:	2301      	movs	r3, #1
			var->time_stamp = GetTimeMs();
 8002dee:	6028      	str	r0, [r5, #0]
			var->state = 8;
		}
		break;
	case 8: //  
		if(pressed){
			var->state = 7;
 8002df0:	80ab      	strh	r3, [r5, #4]
 8002df2:	e7f7      	b.n	8002de4 <Button_rutine+0x1c>
		if (pressed){
 8002df4:	2900      	cmp	r1, #0
 8002df6:	d041      	beq.n	8002e7c <Button_rutine+0xb4>
			if(GetTimeMs() - var->time_stamp > BUT_DEBOUNSE){
 8002df8:	f7fd f9f2 	bl	80001e0 <HAL_GetTick>
 8002dfc:	682b      	ldr	r3, [r5, #0]
 8002dfe:	1ac0      	subs	r0, r0, r3
 8002e00:	2801      	cmp	r0, #1
 8002e02:	d9ef      	bls.n	8002de4 <Button_rutine+0x1c>
				var->time_stamp = GetTimeMs();
 8002e04:	f7fd f9ec 	bl	80001e0 <HAL_GetTick>
 8002e08:	6028      	str	r0, [r5, #0]
				var->state = 2;
 8002e0a:	2002      	movs	r0, #2
				var->state = 0;
			}
		}
		break;
	default:
		var->state = 0;
 8002e0c:	80a8      	strh	r0, [r5, #4]
		break;
 8002e0e:	bd38      	pop	{r3, r4, r5, pc}
		if (pressed){
 8002e10:	b141      	cbz	r1, 8002e24 <Button_rutine+0x5c>
			if(GetTimeMs() - var->time_stamp > BUT_LONG){
 8002e12:	f7fd f9e5 	bl	80001e0 <HAL_GetTick>
 8002e16:	682b      	ldr	r3, [r5, #0]
 8002e18:	1ac0      	subs	r0, r0, r3
 8002e1a:	f5b0 7f2f 	cmp.w	r0, #700	; 0x2bc
 8002e1e:	d846      	bhi.n	8002eae <Button_rutine+0xe6>
				button_state = DOWN;
 8002e20:	2001      	movs	r0, #1
 8002e22:	bd38      	pop	{r3, r4, r5, pc}
			var->time_stamp = GetTimeMs();
 8002e24:	f7fd f9dc 	bl	80001e0 <HAL_GetTick>
			var->state = 4;
 8002e28:	2304      	movs	r3, #4
			var->time_stamp = GetTimeMs();
 8002e2a:	6028      	str	r0, [r5, #0]
 8002e2c:	e7e0      	b.n	8002df0 <Button_rutine+0x28>
		if (pressed){
 8002e2e:	b329      	cbz	r1, 8002e7c <Button_rutine+0xb4>
			if(GetTimeMs() - var->time_stamp > BUT_REPEAT){
 8002e30:	f7fd f9d6 	bl	80001e0 <HAL_GetTick>
 8002e34:	682b      	ldr	r3, [r5, #0]
 8002e36:	1ac0      	subs	r0, r0, r3
 8002e38:	f5b0 7f96 	cmp.w	r0, #300	; 0x12c
 8002e3c:	d9f0      	bls.n	8002e20 <Button_rutine+0x58>
				var->time_stamp = GetTimeMs();
 8002e3e:	f7fd f9cf 	bl	80001e0 <HAL_GetTick>
 8002e42:	6028      	str	r0, [r5, #0]
				button_state = REPEAT_PRESS;
 8002e44:	2006      	movs	r0, #6
 8002e46:	bd38      	pop	{r3, r4, r5, pc}
		if(pressed){
 8002e48:	bb31      	cbnz	r1, 8002e98 <Button_rutine+0xd0>
			if(GetTimeMs() - var->time_stamp > BUT_DEBOUNSE){
 8002e4a:	f7fd f9c9 	bl	80001e0 <HAL_GetTick>
 8002e4e:	682b      	ldr	r3, [r5, #0]
 8002e50:	1ac0      	subs	r0, r0, r3
 8002e52:	2801      	cmp	r0, #1
 8002e54:	d9c6      	bls.n	8002de4 <Button_rutine+0x1c>
				var->time_stamp = GetTimeMs();
 8002e56:	f7fd f9c3 	bl	80001e0 <HAL_GetTick>
				var->state = 5;
 8002e5a:	2305      	movs	r3, #5
				var->time_stamp = GetTimeMs();
 8002e5c:	6028      	str	r0, [r5, #0]
				var->state = 5;
 8002e5e:	80ab      	strh	r3, [r5, #4]
				button_state = CLICKED;
 8002e60:	2003      	movs	r0, #3
 8002e62:	bd38      	pop	{r3, r4, r5, pc}
		if(pressed){
 8002e64:	b121      	cbz	r1, 8002e70 <Button_rutine+0xa8>
			var->time_stamp = GetTimeMs();
 8002e66:	f7fd f9bb 	bl	80001e0 <HAL_GetTick>
			var->state = 6;
 8002e6a:	2306      	movs	r3, #6
			var->time_stamp = GetTimeMs();
 8002e6c:	6028      	str	r0, [r5, #0]
 8002e6e:	e7bf      	b.n	8002df0 <Button_rutine+0x28>
			if(GetTimeMs() - var->time_stamp > BUT_DOUBLE){
 8002e70:	f7fd f9b6 	bl	80001e0 <HAL_GetTick>
 8002e74:	682b      	ldr	r3, [r5, #0]
 8002e76:	1ac0      	subs	r0, r0, r3
 8002e78:	28c8      	cmp	r0, #200	; 0xc8
 8002e7a:	d9b3      	bls.n	8002de4 <Button_rutine+0x1c>
		var->state = 0;
 8002e7c:	2000      	movs	r0, #0
 8002e7e:	e7c5      	b.n	8002e0c <Button_rutine+0x44>
		if (pressed){
 8002e80:	b161      	cbz	r1, 8002e9c <Button_rutine+0xd4>
			if(GetTimeMs() - var->time_stamp > BUT_DEBOUNSE){
 8002e82:	f7fd f9ad 	bl	80001e0 <HAL_GetTick>
 8002e86:	682b      	ldr	r3, [r5, #0]
 8002e88:	1ac0      	subs	r0, r0, r3
 8002e8a:	2801      	cmp	r0, #1
 8002e8c:	d9aa      	bls.n	8002de4 <Button_rutine+0x1c>
				var->time_stamp = GetTimeMs();
 8002e8e:	f7fd f9a7 	bl	80001e0 <HAL_GetTick>
				var->state = 7;
 8002e92:	2307      	movs	r3, #7
				var->time_stamp = GetTimeMs();
 8002e94:	6028      	str	r0, [r5, #0]
				var->state = 7;
 8002e96:	80ab      	strh	r3, [r5, #4]
			button_state = 2;
 8002e98:	2002      	movs	r0, #2
	}
	return button_state;
}
 8002e9a:	bd38      	pop	{r3, r4, r5, pc}
			var->state = 5;
 8002e9c:	2305      	movs	r3, #5
 8002e9e:	e7a7      	b.n	8002df0 <Button_rutine+0x28>
		if (pressed){
 8002ea0:	2900      	cmp	r1, #0
 8002ea2:	d1b6      	bne.n	8002e12 <Button_rutine+0x4a>
			var->time_stamp = GetTimeMs();
 8002ea4:	f7fd f99c 	bl	80001e0 <HAL_GetTick>
			var->state = 8;
 8002ea8:	2308      	movs	r3, #8
			var->time_stamp = GetTimeMs();
 8002eaa:	6028      	str	r0, [r5, #0]
 8002eac:	e7a0      	b.n	8002df0 <Button_rutine+0x28>
				var->time_stamp = GetTimeMs();
 8002eae:	f7fd f997 	bl	80001e0 <HAL_GetTick>
				var->state = 3;
 8002eb2:	2303      	movs	r3, #3
				var->time_stamp = GetTimeMs();
 8002eb4:	6028      	str	r0, [r5, #0]
				var->state = 3;
 8002eb6:	80ab      	strh	r3, [r5, #4]
				button_state = LONG_PRESSED;
 8002eb8:	2004      	movs	r0, #4
 8002eba:	bd38      	pop	{r3, r4, r5, pc}
		if(pressed){
 8002ebc:	b109      	cbz	r1, 8002ec2 <Button_rutine+0xfa>
			var->state = 7;
 8002ebe:	2307      	movs	r3, #7
 8002ec0:	e796      	b.n	8002df0 <Button_rutine+0x28>
			if(GetTimeMs() - var->time_stamp > BUT_DEBOUNSE){
 8002ec2:	f7fd f98d 	bl	80001e0 <HAL_GetTick>
 8002ec6:	682b      	ldr	r3, [r5, #0]
 8002ec8:	1ac0      	subs	r0, r0, r3
 8002eca:	2801      	cmp	r0, #1
 8002ecc:	d98a      	bls.n	8002de4 <Button_rutine+0x1c>
				var->time_stamp = GetTimeMs();
 8002ece:	f7fd f987 	bl	80001e0 <HAL_GetTick>
				var->state = 0;
 8002ed2:	80ac      	strh	r4, [r5, #4]
				var->time_stamp = GetTimeMs();
 8002ed4:	6028      	str	r0, [r5, #0]
				button_state = DOUBLE_CLICKED;
 8002ed6:	2005      	movs	r0, #5
 8002ed8:	bd38      	pop	{r3, r4, r5, pc}
	...

08002edc <MX_CAN_Init>:

CAN_HandleTypeDef hcan;

/* CAN init function */
void MX_CAN_Init(void)
{
 8002edc:	b508      	push	{r3, lr}

  hcan.Instance = CAN1;
  hcan.Init.Prescaler = 16;
 8002ede:	f04f 0e10 	mov.w	lr, #16
  hcan.Instance = CAN1;
 8002ee2:	480b      	ldr	r0, [pc, #44]	; (8002f10 <MX_CAN_Init+0x34>)
  hcan.Init.Prescaler = 16;
 8002ee4:	4b0b      	ldr	r3, [pc, #44]	; (8002f14 <MX_CAN_Init+0x38>)
 8002ee6:	e880 4008 	stmia.w	r0, {r3, lr}
  hcan.Init.Mode = CAN_MODE_NORMAL;
 8002eea:	2300      	movs	r3, #0
 8002eec:	6083      	str	r3, [r0, #8]
  hcan.Init.SyncJumpWidth = CAN_SJW_1TQ;
 8002eee:	60c3      	str	r3, [r0, #12]
  hcan.Init.TimeSeg1 = CAN_BS1_1TQ;
 8002ef0:	6103      	str	r3, [r0, #16]
  hcan.Init.TimeSeg2 = CAN_BS2_1TQ;
 8002ef2:	6143      	str	r3, [r0, #20]
  hcan.Init.TimeTriggeredMode = DISABLE;
 8002ef4:	7603      	strb	r3, [r0, #24]
  hcan.Init.AutoBusOff = DISABLE;
 8002ef6:	7643      	strb	r3, [r0, #25]
  hcan.Init.AutoWakeUp = DISABLE;
 8002ef8:	7683      	strb	r3, [r0, #26]
  hcan.Init.AutoRetransmission = DISABLE;
 8002efa:	76c3      	strb	r3, [r0, #27]
  hcan.Init.ReceiveFifoLocked = DISABLE;
 8002efc:	7703      	strb	r3, [r0, #28]
  hcan.Init.TransmitFifoPriority = DISABLE;
 8002efe:	7743      	strb	r3, [r0, #29]
  if (HAL_CAN_Init(&hcan) != HAL_OK)
 8002f00:	f7fd f986 	bl	8000210 <HAL_CAN_Init>
 8002f04:	b118      	cbz	r0, 8002f0e <MX_CAN_Init+0x32>
  {
    Error_Handler();
  }

}
 8002f06:	e8bd 4008 	ldmia.w	sp!, {r3, lr}
    Error_Handler();
 8002f0a:	f000 bb29 	b.w	8003560 <Error_Handler>
 8002f0e:	bd08      	pop	{r3, pc}
 8002f10:	20000bd4 	.word	0x20000bd4
 8002f14:	40006400 	.word	0x40006400

08002f18 <HAL_CAN_MspInit>:

void HAL_CAN_MspInit(CAN_HandleTypeDef* canHandle)
{
 8002f18:	b510      	push	{r4, lr}
 8002f1a:	4604      	mov	r4, r0
 8002f1c:	b086      	sub	sp, #24

  GPIO_InitTypeDef GPIO_InitStruct = {0};
 8002f1e:	2210      	movs	r2, #16
 8002f20:	2100      	movs	r1, #0
 8002f22:	a802      	add	r0, sp, #8
 8002f24:	f000 fe06 	bl	8003b34 <memset>
  if(canHandle->Instance==CAN1)
 8002f28:	6822      	ldr	r2, [r4, #0]
 8002f2a:	4b22      	ldr	r3, [pc, #136]	; (8002fb4 <HAL_CAN_MspInit+0x9c>)
 8002f2c:	429a      	cmp	r2, r3
 8002f2e:	d13e      	bne.n	8002fae <HAL_CAN_MspInit+0x96>
  {
  /* USER CODE BEGIN CAN1_MspInit 0 */

  /* USER CODE END CAN1_MspInit 0 */
    /* CAN1 clock enable */
    __HAL_RCC_CAN1_CLK_ENABLE();
 8002f30:	f503 33d6 	add.w	r3, r3, #109568	; 0x1ac00
 8002f34:	69da      	ldr	r2, [r3, #28]
    PB9     ------> CAN_TX 
    */
    GPIO_InitStruct.Pin = GPIO_PIN_8;
    GPIO_InitStruct.Mode = GPIO_MODE_INPUT;
    GPIO_InitStruct.Pull = GPIO_NOPULL;
    HAL_GPIO_Init(GPIOB, &GPIO_InitStruct);
 8002f36:	a902      	add	r1, sp, #8
    __HAL_RCC_CAN1_CLK_ENABLE();
 8002f38:	f042 7200 	orr.w	r2, r2, #33554432	; 0x2000000
 8002f3c:	61da      	str	r2, [r3, #28]
 8002f3e:	69da      	ldr	r2, [r3, #28]
    HAL_GPIO_Init(GPIOB, &GPIO_InitStruct);
 8002f40:	481d      	ldr	r0, [pc, #116]	; (8002fb8 <HAL_CAN_MspInit+0xa0>)
    __HAL_RCC_CAN1_CLK_ENABLE();
 8002f42:	f002 7200 	and.w	r2, r2, #33554432	; 0x2000000
 8002f46:	9200      	str	r2, [sp, #0]
 8002f48:	9a00      	ldr	r2, [sp, #0]
    __HAL_RCC_GPIOB_CLK_ENABLE();
 8002f4a:	699a      	ldr	r2, [r3, #24]
 8002f4c:	f042 0208 	orr.w	r2, r2, #8
 8002f50:	619a      	str	r2, [r3, #24]
 8002f52:	699b      	ldr	r3, [r3, #24]
 8002f54:	f003 0308 	and.w	r3, r3, #8
 8002f58:	9301      	str	r3, [sp, #4]
 8002f5a:	9b01      	ldr	r3, [sp, #4]
    GPIO_InitStruct.Pin = GPIO_PIN_8;
 8002f5c:	f44f 7380 	mov.w	r3, #256	; 0x100
 8002f60:	9302      	str	r3, [sp, #8]
    HAL_GPIO_Init(GPIOB, &GPIO_InitStruct);
 8002f62:	f7fd fe91 	bl	8000c88 <HAL_GPIO_Init>

    GPIO_InitStruct.Pin = GPIO_PIN_9;
 8002f66:	f44f 7300 	mov.w	r3, #512	; 0x200
 8002f6a:	9302      	str	r3, [sp, #8]
    GPIO_InitStruct.Mode = GPIO_MODE_AF_PP;
 8002f6c:	2302      	movs	r3, #2
 8002f6e:	9303      	str	r3, [sp, #12]
    GPIO_InitStruct.Speed = GPIO_SPEED_FREQ_HIGH;
 8002f70:	2303      	movs	r3, #3
    HAL_GPIO_Init(GPIOB, &GPIO_InitStruct);
 8002f72:	a902      	add	r1, sp, #8
 8002f74:	4810      	ldr	r0, [pc, #64]	; (8002fb8 <HAL_CAN_MspInit+0xa0>)
    GPIO_InitStruct.Speed = GPIO_SPEED_FREQ_HIGH;
 8002f76:	9305      	str	r3, [sp, #20]
    HAL_GPIO_Init(GPIOB, &GPIO_InitStruct);
 8002f78:	f7fd fe86 	bl	8000c88 <HAL_GPIO_Init>

    __HAL_AFIO_REMAP_CAN1_2();
 8002f7c:	4a0f      	ldr	r2, [pc, #60]	; (8002fbc <HAL_CAN_MspInit+0xa4>)

    /* CAN1 interrupt Init */
    HAL_NVIC_SetPriority(USB_HP_CAN1_TX_IRQn, 0, 0);
 8002f7e:	2013      	movs	r0, #19
    __HAL_AFIO_REMAP_CAN1_2();
 8002f80:	6853      	ldr	r3, [r2, #4]
 8002f82:	f423 43c0 	bic.w	r3, r3, #24576	; 0x6000
 8002f86:	f043 63e0 	orr.w	r3, r3, #117440512	; 0x7000000
 8002f8a:	f443 4380 	orr.w	r3, r3, #16384	; 0x4000
 8002f8e:	6053      	str	r3, [r2, #4]
    HAL_NVIC_SetPriority(USB_HP_CAN1_TX_IRQn, 0, 0);
 8002f90:	2200      	movs	r2, #0
 8002f92:	4611      	mov	r1, r2
 8002f94:	f7fd fca0 	bl	80008d8 <HAL_NVIC_SetPriority>
    HAL_NVIC_EnableIRQ(USB_HP_CAN1_TX_IRQn);
 8002f98:	2013      	movs	r0, #19
 8002f9a:	f7fd fcd1 	bl	8000940 <HAL_NVIC_EnableIRQ>
    HAL_NVIC_SetPriority(USB_LP_CAN1_RX0_IRQn, 0, 0);
 8002f9e:	2200      	movs	r2, #0
 8002fa0:	2014      	movs	r0, #20
 8002fa2:	4611      	mov	r1, r2
 8002fa4:	f7fd fc98 	bl	80008d8 <HAL_NVIC_SetPriority>
    HAL_NVIC_EnableIRQ(USB_LP_CAN1_RX0_IRQn);
 8002fa8:	2014      	movs	r0, #20
 8002faa:	f7fd fcc9 	bl	8000940 <HAL_NVIC_EnableIRQ>
  /* USER CODE BEGIN CAN1_MspInit 1 */

  /* USER CODE END CAN1_MspInit 1 */
  }
}
 8002fae:	b006      	add	sp, #24
 8002fb0:	bd10      	pop	{r4, pc}
 8002fb2:	bf00      	nop
 8002fb4:	40006400 	.word	0x40006400
 8002fb8:	40010c00 	.word	0x40010c00
 8002fbc:	40010000 	.word	0x40010000

08002fc0 <HAL_CAN_MspDeInit>:

void HAL_CAN_MspDeInit(CAN_HandleTypeDef* canHandle)
{
 8002fc0:	b508      	push	{r3, lr}

  if(canHandle->Instance==CAN1)
 8002fc2:	6802      	ldr	r2, [r0, #0]
 8002fc4:	4b0a      	ldr	r3, [pc, #40]	; (8002ff0 <HAL_CAN_MspDeInit+0x30>)
 8002fc6:	429a      	cmp	r2, r3
 8002fc8:	d111      	bne.n	8002fee <HAL_CAN_MspDeInit+0x2e>
  {
  /* USER CODE BEGIN CAN1_MspDeInit 0 */

  /* USER CODE END CAN1_MspDeInit 0 */
    /* Peripheral clock disable */
    __HAL_RCC_CAN1_CLK_DISABLE();
 8002fca:	4a0a      	ldr	r2, [pc, #40]	; (8002ff4 <HAL_CAN_MspDeInit+0x34>)
  
    /**CAN GPIO Configuration    
    PB8     ------> CAN_RX
    PB9     ------> CAN_TX 
    */
    HAL_GPIO_DeInit(GPIOB, GPIO_PIN_8|GPIO_PIN_9);
 8002fcc:	f44f 7140 	mov.w	r1, #768	; 0x300
    __HAL_RCC_CAN1_CLK_DISABLE();
 8002fd0:	69d3      	ldr	r3, [r2, #28]
    HAL_GPIO_DeInit(GPIOB, GPIO_PIN_8|GPIO_PIN_9);
 8002fd2:	4809      	ldr	r0, [pc, #36]	; (8002ff8 <HAL_CAN_MspDeInit+0x38>)
    __HAL_RCC_CAN1_CLK_DISABLE();
 8002fd4:	f023 7300 	bic.w	r3, r3, #33554432	; 0x2000000
 8002fd8:	61d3      	str	r3, [r2, #28]
    HAL_GPIO_DeInit(GPIOB, GPIO_PIN_8|GPIO_PIN_9);
 8002fda:	f7fd ff35 	bl	8000e48 <HAL_GPIO_DeInit>

    /* CAN1 interrupt Deinit */
    HAL_NVIC_DisableIRQ(USB_HP_CAN1_TX_IRQn);
 8002fde:	2013      	movs	r0, #19
 8002fe0:	f7fd fcba 	bl	8000958 <HAL_NVIC_DisableIRQ>
    HAL_NVIC_DisableIRQ(USB_LP_CAN1_RX0_IRQn);
  /* USER CODE BEGIN CAN1_MspDeInit 1 */

  /* USER CODE END CAN1_MspDeInit 1 */
  }
} 
 8002fe4:	e8bd 4008 	ldmia.w	sp!, {r3, lr}
    HAL_NVIC_DisableIRQ(USB_LP_CAN1_RX0_IRQn);
 8002fe8:	2014      	movs	r0, #20
 8002fea:	f7fd bcb5 	b.w	8000958 <HAL_NVIC_DisableIRQ>
 8002fee:	bd08      	pop	{r3, pc}
 8002ff0:	40006400 	.word	0x40006400
 8002ff4:	40021000 	.word	0x40021000
 8002ff8:	40010c00 	.word	0x40010c00

08002ffc <MX_DMA_Init>:
  * Enable DMA controller clock
  */
void MX_DMA_Init(void) 
{
  /* DMA controller clock enable */
  __HAL_RCC_DMA1_CLK_ENABLE();
 8002ffc:	4b12      	ldr	r3, [pc, #72]	; (8003048 <MX_DMA_Init+0x4c>)
{
 8002ffe:	b507      	push	{r0, r1, r2, lr}
  __HAL_RCC_DMA1_CLK_ENABLE();
 8003000:	695a      	ldr	r2, [r3, #20]

  /* DMA interrupt init */
  /* DMA1_Channel2_IRQn interrupt configuration */
  HAL_NVIC_SetPriority(DMA1_Channel2_IRQn, 0, 0);
 8003002:	200c      	movs	r0, #12
  __HAL_RCC_DMA1_CLK_ENABLE();
 8003004:	f042 0201 	orr.w	r2, r2, #1
 8003008:	615a      	str	r2, [r3, #20]
  HAL_NVIC_SetPriority(DMA1_Channel2_IRQn, 0, 0);
 800300a:	2200      	movs	r2, #0
  __HAL_RCC_DMA1_CLK_ENABLE();
 800300c:	695b      	ldr	r3, [r3, #20]
  HAL_NVIC_SetPriority(DMA1_Channel2_IRQn, 0, 0);
 800300e:	4611      	mov	r1, r2
  __HAL_RCC_DMA1_CLK_ENABLE();
 8003010:	f003 0301 	and.w	r3, r3, #1
 8003014:	9301      	str	r3, [sp, #4]
 8003016:	9b01      	ldr	r3, [sp, #4]
  HAL_NVIC_SetPriority(DMA1_Channel2_IRQn, 0, 0);
 8003018:	f7fd fc5e 	bl	80008d8 <HAL_NVIC_SetPriority>
  HAL_NVIC_EnableIRQ(DMA1_Channel2_IRQn);
 800301c:	200c      	movs	r0, #12
 800301e:	f7fd fc8f 	bl	8000940 <HAL_NVIC_EnableIRQ>
  /* DMA1_Channel4_IRQn interrupt configuration */
  HAL_NVIC_SetPriority(DMA1_Channel4_IRQn, 0, 0);
 8003022:	2200      	movs	r2, #0
 8003024:	200e      	movs	r0, #14
 8003026:	4611      	mov	r1, r2
 8003028:	f7fd fc56 	bl	80008d8 <HAL_NVIC_SetPriority>
  HAL_NVIC_EnableIRQ(DMA1_Channel4_IRQn);
 800302c:	200e      	movs	r0, #14
 800302e:	f7fd fc87 	bl	8000940 <HAL_NVIC_EnableIRQ>
  /* DMA1_Channel7_IRQn interrupt configuration */
  HAL_NVIC_SetPriority(DMA1_Channel7_IRQn, 0, 0);
 8003032:	2200      	movs	r2, #0
 8003034:	2011      	movs	r0, #17
 8003036:	4611      	mov	r1, r2
 8003038:	f7fd fc4e 	bl	80008d8 <HAL_NVIC_SetPriority>
  HAL_NVIC_EnableIRQ(DMA1_Channel7_IRQn);
 800303c:	2011      	movs	r0, #17
 800303e:	f7fd fc7f 	bl	8000940 <HAL_NVIC_EnableIRQ>

}
 8003042:	b003      	add	sp, #12
 8003044:	f85d fb04 	ldr.w	pc, [sp], #4
 8003048:	40021000 	.word	0x40021000

0800304c <MX_GPIO_Init>:
        * EXTI
*/
void MX_GPIO_Init(void)
{

  GPIO_InitTypeDef GPIO_InitStruct = {0};
 800304c:	2210      	movs	r2, #16
{
 800304e:	e92d 43f0 	stmdb	sp!, {r4, r5, r6, r7, r8, r9, lr}
 8003052:	b089      	sub	sp, #36	; 0x24
  GPIO_InitTypeDef GPIO_InitStruct = {0};
 8003054:	eb0d 0002 	add.w	r0, sp, r2
 8003058:	2100      	movs	r1, #0
 800305a:	f000 fd6b 	bl	8003b34 <memset>

  /* GPIO Ports Clock Enable */
  __HAL_RCC_GPIOC_CLK_ENABLE();
 800305e:	4b3f      	ldr	r3, [pc, #252]	; (800315c <MX_GPIO_Init+0x110>)
  __HAL_RCC_GPIOD_CLK_ENABLE();
  __HAL_RCC_GPIOA_CLK_ENABLE();
  __HAL_RCC_GPIOB_CLK_ENABLE();

  /*Configure GPIO pin Output Level */
  HAL_GPIO_WritePin(LED_GPIO_Port, LED_Pin, GPIO_PIN_RESET);
 8003060:	f8df 9100 	ldr.w	r9, [pc, #256]	; 8003164 <MX_GPIO_Init+0x118>
  __HAL_RCC_GPIOC_CLK_ENABLE();
 8003064:	699a      	ldr	r2, [r3, #24]

  /*Configure GPIO pin Output Level */
  HAL_GPIO_WritePin(EEPROM_CS_GPIO_Port, EEPROM_CS_Pin, GPIO_PIN_SET);
 8003066:	4d3e      	ldr	r5, [pc, #248]	; (8003160 <MX_GPIO_Init+0x114>)
  __HAL_RCC_GPIOC_CLK_ENABLE();
 8003068:	f042 0210 	orr.w	r2, r2, #16
 800306c:	619a      	str	r2, [r3, #24]
 800306e:	699a      	ldr	r2, [r3, #24]
  HAL_GPIO_WritePin(LED_GPIO_Port, LED_Pin, GPIO_PIN_RESET);
 8003070:	4648      	mov	r0, r9
  __HAL_RCC_GPIOC_CLK_ENABLE();
 8003072:	f002 0210 	and.w	r2, r2, #16
 8003076:	9200      	str	r2, [sp, #0]
 8003078:	9a00      	ldr	r2, [sp, #0]
  __HAL_RCC_GPIOD_CLK_ENABLE();
 800307a:	699a      	ldr	r2, [r3, #24]

  /*Configure GPIO pin Output Level */
  HAL_GPIO_WritePin(GPIOA, ERROR_LED_Pin|TX_LED_Pin, GPIO_PIN_RESET);
 800307c:	f8df 80e8 	ldr.w	r8, [pc, #232]	; 8003168 <MX_GPIO_Init+0x11c>
  __HAL_RCC_GPIOD_CLK_ENABLE();
 8003080:	f042 0220 	orr.w	r2, r2, #32
 8003084:	619a      	str	r2, [r3, #24]
 8003086:	699a      	ldr	r2, [r3, #24]
  HAL_GPIO_WritePin(LED_GPIO_Port, LED_Pin, GPIO_PIN_RESET);
 8003088:	f44f 5100 	mov.w	r1, #8192	; 0x2000
  __HAL_RCC_GPIOD_CLK_ENABLE();
 800308c:	f002 0220 	and.w	r2, r2, #32
 8003090:	9201      	str	r2, [sp, #4]
 8003092:	9a01      	ldr	r2, [sp, #4]
  __HAL_RCC_GPIOA_CLK_ENABLE();
 8003094:	699a      	ldr	r2, [r3, #24]
                          |HS_CAN_EN_Pin, GPIO_PIN_RESET);

  /*Configure GPIO pin : PtPin */
  GPIO_InitStruct.Pin = LED_Pin;
  GPIO_InitStruct.Mode = GPIO_MODE_OUTPUT_PP;
  GPIO_InitStruct.Pull = GPIO_NOPULL;
 8003096:	2400      	movs	r4, #0
  __HAL_RCC_GPIOA_CLK_ENABLE();
 8003098:	f042 0204 	orr.w	r2, r2, #4
 800309c:	619a      	str	r2, [r3, #24]
 800309e:	699a      	ldr	r2, [r3, #24]
  GPIO_InitStruct.Mode = GPIO_MODE_OUTPUT_PP;
 80030a0:	2601      	movs	r6, #1
  __HAL_RCC_GPIOA_CLK_ENABLE();
 80030a2:	f002 0204 	and.w	r2, r2, #4
 80030a6:	9202      	str	r2, [sp, #8]
 80030a8:	9a02      	ldr	r2, [sp, #8]
  __HAL_RCC_GPIOB_CLK_ENABLE();
 80030aa:	699a      	ldr	r2, [r3, #24]
  GPIO_InitStruct.Speed = GPIO_SPEED_FREQ_HIGH;
 80030ac:	2703      	movs	r7, #3
  __HAL_RCC_GPIOB_CLK_ENABLE();
 80030ae:	f042 0208 	orr.w	r2, r2, #8
 80030b2:	619a      	str	r2, [r3, #24]
 80030b4:	699b      	ldr	r3, [r3, #24]
  HAL_GPIO_WritePin(LED_GPIO_Port, LED_Pin, GPIO_PIN_RESET);
 80030b6:	2200      	movs	r2, #0
  __HAL_RCC_GPIOB_CLK_ENABLE();
 80030b8:	f003 0308 	and.w	r3, r3, #8
 80030bc:	9303      	str	r3, [sp, #12]
 80030be:	9b03      	ldr	r3, [sp, #12]
  HAL_GPIO_WritePin(LED_GPIO_Port, LED_Pin, GPIO_PIN_RESET);
 80030c0:	f7fd ff38 	bl	8000f34 <HAL_GPIO_WritePin>
  HAL_GPIO_WritePin(EEPROM_CS_GPIO_Port, EEPROM_CS_Pin, GPIO_PIN_SET);
 80030c4:	4628      	mov	r0, r5
 80030c6:	2201      	movs	r2, #1
 80030c8:	f44f 5180 	mov.w	r1, #4096	; 0x1000
 80030cc:	f7fd ff32 	bl	8000f34 <HAL_GPIO_WritePin>
  HAL_GPIO_WritePin(GPIOA, ERROR_LED_Pin|TX_LED_Pin, GPIO_PIN_RESET);
 80030d0:	4640      	mov	r0, r8
 80030d2:	2200      	movs	r2, #0
 80030d4:	f44f 4101 	mov.w	r1, #33024	; 0x8100
 80030d8:	f7fd ff2c 	bl	8000f34 <HAL_GPIO_WritePin>
  HAL_GPIO_WritePin(GPIOB, RX_LED_Pin|LIN_EN_Pin|SW_CAN_EN_Pin|FT_CAN_EN_Pin 
 80030dc:	2200      	movs	r2, #0
 80030de:	4628      	mov	r0, r5
 80030e0:	21f8      	movs	r1, #248	; 0xf8
 80030e2:	f7fd ff27 	bl	8000f34 <HAL_GPIO_WritePin>
  GPIO_InitStruct.Pin = LED_Pin;
 80030e6:	f44f 5300 	mov.w	r3, #8192	; 0x2000
  HAL_GPIO_Init(LED_GPIO_Port, &GPIO_InitStruct);
 80030ea:	a904      	add	r1, sp, #16
 80030ec:	4648      	mov	r0, r9
  GPIO_InitStruct.Pin = LED_Pin;
 80030ee:	9304      	str	r3, [sp, #16]
  GPIO_InitStruct.Speed = GPIO_SPEED_FREQ_HIGH;
 80030f0:	9707      	str	r7, [sp, #28]
  GPIO_InitStruct.Mode = GPIO_MODE_OUTPUT_PP;
 80030f2:	9605      	str	r6, [sp, #20]
  GPIO_InitStruct.Pull = GPIO_NOPULL;
 80030f4:	9406      	str	r4, [sp, #24]
  HAL_GPIO_Init(LED_GPIO_Port, &GPIO_InitStruct);
 80030f6:	f7fd fdc7 	bl	8000c88 <HAL_GPIO_Init>

  /*Configure GPIO pins : PBPin PBPin */
  GPIO_InitStruct.Pin = MODE_SEL_Pin|BUTTON_Pin;
  GPIO_InitStruct.Mode = GPIO_MODE_INPUT;
  GPIO_InitStruct.Pull = GPIO_PULLUP;
  HAL_GPIO_Init(GPIOB, &GPIO_InitStruct);
 80030fa:	a904      	add	r1, sp, #16
 80030fc:	4628      	mov	r0, r5
  GPIO_InitStruct.Pin = MODE_SEL_Pin|BUTTON_Pin;
 80030fe:	9704      	str	r7, [sp, #16]
  GPIO_InitStruct.Mode = GPIO_MODE_INPUT;
 8003100:	9405      	str	r4, [sp, #20]
  GPIO_InitStruct.Pull = GPIO_PULLUP;
 8003102:	9606      	str	r6, [sp, #24]
  HAL_GPIO_Init(GPIOB, &GPIO_InitStruct);
 8003104:	f7fd fdc0 	bl	8000c88 <HAL_GPIO_Init>

  /*Configure GPIO pin : PtPin */
  GPIO_InitStruct.Pin = BOOT1_Pin;
 8003108:	2304      	movs	r3, #4
  GPIO_InitStruct.Mode = GPIO_MODE_INPUT;
  GPIO_InitStruct.Pull = GPIO_NOPULL;
  HAL_GPIO_Init(BOOT1_GPIO_Port, &GPIO_InitStruct);
 800310a:	a904      	add	r1, sp, #16
 800310c:	4628      	mov	r0, r5
  GPIO_InitStruct.Pin = BOOT1_Pin;
 800310e:	9304      	str	r3, [sp, #16]
  GPIO_InitStruct.Mode = GPIO_MODE_INPUT;
 8003110:	9405      	str	r4, [sp, #20]
  GPIO_InitStruct.Pull = GPIO_NOPULL;
 8003112:	9406      	str	r4, [sp, #24]
  HAL_GPIO_Init(BOOT1_GPIO_Port, &GPIO_InitStruct);
 8003114:	f7fd fdb8 	bl	8000c88 <HAL_GPIO_Init>

  /*Configure GPIO pin : PtPin */
  GPIO_InitStruct.Pin = EEPROM_CS_Pin;
 8003118:	f44f 5380 	mov.w	r3, #4096	; 0x1000
  GPIO_InitStruct.Mode = GPIO_MODE_OUTPUT_PP;
  GPIO_InitStruct.Pull = GPIO_NOPULL;
  GPIO_InitStruct.Speed = GPIO_SPEED_FREQ_HIGH;
  HAL_GPIO_Init(EEPROM_CS_GPIO_Port, &GPIO_InitStruct);
 800311c:	a904      	add	r1, sp, #16
 800311e:	4628      	mov	r0, r5
  GPIO_InitStruct.Pin = EEPROM_CS_Pin;
 8003120:	9304      	str	r3, [sp, #16]
  GPIO_InitStruct.Speed = GPIO_SPEED_FREQ_HIGH;
 8003122:	9707      	str	r7, [sp, #28]
  GPIO_InitStruct.Mode = GPIO_MODE_OUTPUT_PP;
 8003124:	9605      	str	r6, [sp, #20]

  /*Configure GPIO pins : PAPin PAPin */
  GPIO_InitStruct.Pin = ERROR_LED_Pin|TX_LED_Pin;
  GPIO_InitStruct.Mode = GPIO_MODE_OUTPUT_PP;
  GPIO_InitStruct.Pull = GPIO_NOPULL;
  GPIO_InitStruct.Speed = GPIO_SPEED_FREQ_LOW;
 8003126:	2702      	movs	r7, #2
  GPIO_InitStruct.Pull = GPIO_NOPULL;
 8003128:	9406      	str	r4, [sp, #24]
  HAL_GPIO_Init(EEPROM_CS_GPIO_Port, &GPIO_InitStruct);
 800312a:	f7fd fdad 	bl	8000c88 <HAL_GPIO_Init>
  GPIO_InitStruct.Pin = ERROR_LED_Pin|TX_LED_Pin;
 800312e:	f44f 4301 	mov.w	r3, #33024	; 0x8100
  HAL_GPIO_Init(GPIOA, &GPIO_InitStruct);
 8003132:	a904      	add	r1, sp, #16
 8003134:	4640      	mov	r0, r8
  GPIO_InitStruct.Pin = ERROR_LED_Pin|TX_LED_Pin;
 8003136:	9304      	str	r3, [sp, #16]
  GPIO_InitStruct.Mode = GPIO_MODE_OUTPUT_PP;
 8003138:	9605      	str	r6, [sp, #20]
  GPIO_InitStruct.Pull = GPIO_NOPULL;
 800313a:	9406      	str	r4, [sp, #24]
  GPIO_InitStruct.Speed = GPIO_SPEED_FREQ_LOW;
 800313c:	9707      	str	r7, [sp, #28]
  HAL_GPIO_Init(GPIOA, &GPIO_InitStruct);
 800313e:	f7fd fda3 	bl	8000c88 <HAL_GPIO_Init>

  /*Configure GPIO pins : PBPin PBPin PBPin PBPin 
                           PBPin */
  GPIO_InitStruct.Pin = RX_LED_Pin|LIN_EN_Pin|SW_CAN_EN_Pin|FT_CAN_EN_Pin 
 8003142:	23f8      	movs	r3, #248	; 0xf8
                          |HS_CAN_EN_Pin;
  GPIO_InitStruct.Mode = GPIO_MODE_OUTPUT_PP;
  GPIO_InitStruct.Pull = GPIO_NOPULL;
  GPIO_InitStruct.Speed = GPIO_SPEED_FREQ_LOW;
  HAL_GPIO_Init(GPIOB, &GPIO_InitStruct);
 8003144:	a904      	add	r1, sp, #16
 8003146:	4628      	mov	r0, r5
  GPIO_InitStruct.Pin = RX_LED_Pin|LIN_EN_Pin|SW_CAN_EN_Pin|FT_CAN_EN_Pin 
 8003148:	9304      	str	r3, [sp, #16]
  GPIO_InitStruct.Mode = GPIO_MODE_OUTPUT_PP;
 800314a:	9605      	str	r6, [sp, #20]
  GPIO_InitStruct.Pull = GPIO_NOPULL;
 800314c:	9406      	str	r4, [sp, #24]
  GPIO_InitStruct.Speed = GPIO_SPEED_FREQ_LOW;
 800314e:	9707      	str	r7, [sp, #28]
  HAL_GPIO_Init(GPIOB, &GPIO_InitStruct);
 8003150:	f7fd fd9a 	bl	8000c88 <HAL_GPIO_Init>

}
 8003154:	b009      	add	sp, #36	; 0x24
 8003156:	e8bd 83f0 	ldmia.w	sp!, {r4, r5, r6, r7, r8, r9, pc}
 800315a:	bf00      	nop
 800315c:	40021000 	.word	0x40021000
 8003160:	40010c00 	.word	0x40010c00
 8003164:	40011000 	.word	0x40011000
 8003168:	40010800 	.word	0x40010800

0800316c <UART_Check_Data_Ready>:
/* USER CODE BEGIN 0 */
uint8_t txt_hallo[] = "CAN temperature logger\r\n";
uint8_t timestamp[] = "1234567890";

void UART_Check_Data_Ready(void)
{
 800316c:	b570      	push	{r4, r5, r6, lr}
	if(uart_answ_ready == 1)
 800316e:	4d14      	ldr	r5, [pc, #80]	; (80031c0 <UART_Check_Data_Ready+0x54>)
 8003170:	782a      	ldrb	r2, [r5, #0]
 8003172:	2a01      	cmp	r2, #1
 8003174:	d117      	bne.n	80031a6 <UART_Check_Data_Ready+0x3a>
	{
		for(int i = 0; i < uart_tx_pointer; i++)
 8003176:	2200      	movs	r2, #0
 8003178:	4c12      	ldr	r4, [pc, #72]	; (80031c4 <UART_Check_Data_Ready+0x58>)
		{
			uart_tx_bufer[i] = uart_tx_com_bufer[i];
 800317a:	4b13      	ldr	r3, [pc, #76]	; (80031c8 <UART_Check_Data_Ready+0x5c>)
		for(int i = 0; i < uart_tx_pointer; i++)
 800317c:	6821      	ldr	r1, [r4, #0]
			uart_tx_bufer[i] = uart_tx_com_bufer[i];
 800317e:	4813      	ldr	r0, [pc, #76]	; (80031cc <UART_Check_Data_Ready+0x60>)
		for(int i = 0; i < uart_tx_pointer; i++)
 8003180:	428a      	cmp	r2, r1
 8003182:	d10c      	bne.n	800319e <UART_Check_Data_Ready+0x32>
		}
		HAL_UART_Transmit_DMA(huart_active, uart_tx_bufer, uart_tx_pointer);
 8003184:	4b12      	ldr	r3, [pc, #72]	; (80031d0 <UART_Check_Data_Ready+0x64>)
 8003186:	b292      	uxth	r2, r2
 8003188:	490f      	ldr	r1, [pc, #60]	; (80031c8 <UART_Check_Data_Ready+0x5c>)
 800318a:	6818      	ldr	r0, [r3, #0]
 800318c:	f7fe fc64 	bl	8001a58 <HAL_UART_Transmit_DMA>
		uart_tx_pointer = 0;
 8003190:	2300      	movs	r3, #0
		uart_busy = 1;
 8003192:	2101      	movs	r1, #1
 8003194:	4a0f      	ldr	r2, [pc, #60]	; (80031d4 <UART_Check_Data_Ready+0x68>)
		uart_answ_ready = 0;
 8003196:	702b      	strb	r3, [r5, #0]
		uart_busy = 1;
 8003198:	7011      	strb	r1, [r2, #0]
		uart_tx_pointer = 0;
 800319a:	6023      	str	r3, [r4, #0]
 800319c:	bd70      	pop	{r4, r5, r6, pc}
			uart_tx_bufer[i] = uart_tx_com_bufer[i];
 800319e:	5c16      	ldrb	r6, [r2, r0]
 80031a0:	54d6      	strb	r6, [r2, r3]
		for(int i = 0; i < uart_tx_pointer; i++)
 80031a2:	3201      	adds	r2, #1
 80031a4:	e7ec      	b.n	8003180 <UART_Check_Data_Ready+0x14>
	}
	else
	{
		if(conf.state == CAN_HACKER_CONNECT || conf.state == SAVVYCAN_CONNECT)
 80031a6:	4b0c      	ldr	r3, [pc, #48]	; (80031d8 <UART_Check_Data_Ready+0x6c>)
 80031a8:	781b      	ldrb	r3, [r3, #0]
 80031aa:	3b01      	subs	r3, #1
 80031ac:	2b01      	cmp	r3, #1
 80031ae:	d805      	bhi.n	80031bc <UART_Check_Data_Ready+0x50>
		{
			if(CAN_Buffer_pull() == HAL_OK)
 80031b0:	f7fe ff7e 	bl	80020b0 <CAN_Buffer_pull>
 80031b4:	b910      	cbnz	r0, 80031bc <UART_Check_Data_Ready+0x50>
			{
				uart_busy = 1;
 80031b6:	2201      	movs	r2, #1
 80031b8:	4b06      	ldr	r3, [pc, #24]	; (80031d4 <UART_Check_Data_Ready+0x68>)
 80031ba:	701a      	strb	r2, [r3, #0]
 80031bc:	bd70      	pop	{r4, r5, r6, pc}
 80031be:	bf00      	nop
 80031c0:	20000075 	.word	0x20000075
 80031c4:	20000078 	.word	0x20000078
 80031c8:	20001949 	.word	0x20001949
 80031cc:	20001100 	.word	0x20001100
 80031d0:	200019d4 	.word	0x200019d4
 80031d4:	20000076 	.word	0x20000076
 80031d8:	20000080 	.word	0x20000080

080031dc <HAL_UART_TxCpltCallback>:

}

void HAL_UART_TxCpltCallback(UART_HandleTypeDef *huart)
{
	uart_busy = 0;
 80031dc:	2200      	movs	r2, #0
 80031de:	4b02      	ldr	r3, [pc, #8]	; (80031e8 <HAL_UART_TxCpltCallback+0xc>)
 80031e0:	701a      	strb	r2, [r3, #0]
	UART_Check_Data_Ready();
 80031e2:	f7ff bfc3 	b.w	800316c <UART_Check_Data_Ready>
 80031e6:	bf00      	nop
 80031e8:	20000076 	.word	0x20000076

080031ec <HAL_CAN_RxFifo1MsgPendingCallback>:
	//HAL_GPIO_WritePin(RX_LED_GPIO_Port, RX_LED_Pin, GPIO_PIN_RESET);
}

void HAL_CAN_RxFifo1MsgPendingCallback(CAN_HandleTypeDef *hcan)
{
 80031ec:	b570      	push	{r4, r5, r6, lr}
	HAL_CAN_GetRxMessage(hcan, CAN_RX_FIFO1, &can_rx_buf[0].header, can_rx_buf[1].data_byte);
 80031ee:	4c11      	ldr	r4, [pc, #68]	; (8003234 <HAL_CAN_RxFifo1MsgPendingCallback+0x48>)
{
 80031f0:	b086      	sub	sp, #24
	HAL_CAN_GetRxMessage(hcan, CAN_RX_FIFO1, &can_rx_buf[0].header, can_rx_buf[1].data_byte);
 80031f2:	4623      	mov	r3, r4
 80031f4:	f1a4 0244 	sub.w	r2, r4, #68	; 0x44
 80031f8:	2101      	movs	r1, #1
 80031fa:	f7fd f9ab 	bl	8000554 <HAL_CAN_GetRxMessage>
	can_rx_buf[1].timestamp = HAL_GetTick();
	CAN_Buffer_Write_Data(can_rx_buf[1]);
 80031fe:	466d      	mov	r5, sp
	can_rx_buf[1].timestamp = HAL_GetTick();
 8003200:	f7fc ffee 	bl	80001e0 <HAL_GetTick>
	CAN_Buffer_Write_Data(can_rx_buf[1]);
 8003204:	f1a4 0610 	sub.w	r6, r4, #16
	can_rx_buf[1].timestamp = HAL_GetTick();
 8003208:	f844 0c20 	str.w	r0, [r4, #-32]
	CAN_Buffer_Write_Data(can_rx_buf[1]);
 800320c:	ce0f      	ldmia	r6!, {r0, r1, r2, r3}
 800320e:	c50f      	stmia	r5!, {r0, r1, r2, r3}
 8003210:	e896 0003 	ldmia.w	r6, {r0, r1}
 8003214:	e885 0003 	stmia.w	r5, {r0, r1}
 8003218:	3c20      	subs	r4, #32
 800321a:	e894 000f 	ldmia.w	r4, {r0, r1, r2, r3}
 800321e:	f7fe fda3 	bl	8001d68 <CAN_Buffer_Write_Data>
	HAL_GPIO_WritePin(RX_LED_GPIO_Port, RX_LED_Pin, GPIO_PIN_SET);
 8003222:	2201      	movs	r2, #1
 8003224:	2108      	movs	r1, #8
 8003226:	4804      	ldr	r0, [pc, #16]	; (8003238 <HAL_CAN_RxFifo1MsgPendingCallback+0x4c>)
}
 8003228:	b006      	add	sp, #24
 800322a:	e8bd 4070 	ldmia.w	sp!, {r4, r5, r6, lr}
	HAL_GPIO_WritePin(RX_LED_GPIO_Port, RX_LED_Pin, GPIO_PIN_SET);
 800322e:	f7fd be81 	b.w	8000f34 <HAL_GPIO_WritePin>
 8003232:	bf00      	nop
 8003234:	20000c48 	.word	0x20000c48
 8003238:	40010c00 	.word	0x40010c00

0800323c <HAL_CAN_RxFifo0MsgPendingCallback>:

void HAL_CAN_RxFifo0MsgPendingCallback(CAN_HandleTypeDef *hcan)
{
 800323c:	b570      	push	{r4, r5, r6, lr}
	HAL_CAN_GetRxMessage(hcan, CAN_RX_FIFO0, &can_rx_buf[0].header, can_rx_buf[0].data_byte);
 800323e:	4c11      	ldr	r4, [pc, #68]	; (8003284 <HAL_CAN_RxFifo0MsgPendingCallback+0x48>)
{
 8003240:	b086      	sub	sp, #24
	HAL_CAN_GetRxMessage(hcan, CAN_RX_FIFO0, &can_rx_buf[0].header, can_rx_buf[0].data_byte);
 8003242:	4623      	mov	r3, r4
 8003244:	f1a4 021c 	sub.w	r2, r4, #28
 8003248:	2100      	movs	r1, #0
 800324a:	f7fd f983 	bl	8000554 <HAL_CAN_GetRxMessage>
	can_rx_buf[0].timestamp = HAL_GetTick();
 800324e:	f7fc ffc7 	bl	80001e0 <HAL_GetTick>
	CAN_Buffer_Write_Data(can_rx_buf[0]);
 8003252:	466d      	mov	r5, sp
	can_rx_buf[0].timestamp = HAL_GetTick();
 8003254:	f844 0c20 	str.w	r0, [r4, #-32]
 8003258:	f1a4 0620 	sub.w	r6, r4, #32
	CAN_Buffer_Write_Data(can_rx_buf[0]);
 800325c:	3c10      	subs	r4, #16
 800325e:	cc0f      	ldmia	r4!, {r0, r1, r2, r3}
 8003260:	c50f      	stmia	r5!, {r0, r1, r2, r3}
 8003262:	e894 0003 	ldmia.w	r4, {r0, r1}
 8003266:	e885 0003 	stmia.w	r5, {r0, r1}
 800326a:	e896 000f 	ldmia.w	r6, {r0, r1, r2, r3}
 800326e:	f7fe fd7b 	bl	8001d68 <CAN_Buffer_Write_Data>
	HAL_GPIO_WritePin(RX_LED_GPIO_Port, RX_LED_Pin, GPIO_PIN_SET);
 8003272:	2201      	movs	r2, #1
 8003274:	2108      	movs	r1, #8
 8003276:	4804      	ldr	r0, [pc, #16]	; (8003288 <HAL_CAN_RxFifo0MsgPendingCallback+0x4c>)
}
 8003278:	b006      	add	sp, #24
 800327a:	e8bd 4070 	ldmia.w	sp!, {r4, r5, r6, lr}
	HAL_GPIO_WritePin(RX_LED_GPIO_Port, RX_LED_Pin, GPIO_PIN_SET);
 800327e:	f7fd be59 	b.w	8000f34 <HAL_GPIO_WritePin>
 8003282:	bf00      	nop
 8003284:	20000c20 	.word	0x20000c20
 8003288:	40010c00 	.word	0x40010c00

0800328c <SystemClock_Config>:
  * @brief System Clock Configuration
  * @retval None
  */
void SystemClock_Config(void)
{
  RCC_OscInitTypeDef RCC_OscInitStruct = {0};
 800328c:	2228      	movs	r2, #40	; 0x28
{
 800328e:	b530      	push	{r4, r5, lr}
 8003290:	b095      	sub	sp, #84	; 0x54
  RCC_OscInitTypeDef RCC_OscInitStruct = {0};
 8003292:	eb0d 0002 	add.w	r0, sp, r2
 8003296:	2100      	movs	r1, #0
 8003298:	f000 fc4c 	bl	8003b34 <memset>
  RCC_ClkInitTypeDef RCC_ClkInitStruct = {0};
 800329c:	2214      	movs	r2, #20
 800329e:	2100      	movs	r1, #0
 80032a0:	eb0d 0002 	add.w	r0, sp, r2
 80032a4:	f000 fc46 	bl	8003b34 <memset>
  RCC_PeriphCLKInitTypeDef PeriphClkInit = {0};
 80032a8:	2210      	movs	r2, #16
 80032aa:	2100      	movs	r1, #0
 80032ac:	a801      	add	r0, sp, #4
 80032ae:	f000 fc41 	bl	8003b34 <memset>

  /** Initializes the CPU, AHB and APB busses clocks 
  */
  RCC_OscInitStruct.OscillatorType = RCC_OSCILLATORTYPE_HSE|RCC_OSCILLATORTYPE_LSE;
 80032b2:	2305      	movs	r3, #5
 80032b4:	930a      	str	r3, [sp, #40]	; 0x28
  RCC_OscInitStruct.HSEState = RCC_HSE_ON;
 80032b6:	f44f 3380 	mov.w	r3, #65536	; 0x10000
  RCC_OscInitStruct.HSEPredivValue = RCC_HSE_PREDIV_DIV1;
  RCC_OscInitStruct.LSEState = RCC_LSE_ON;
 80032ba:	2401      	movs	r4, #1
  RCC_OscInitStruct.HSIState = RCC_HSI_ON;
  RCC_OscInitStruct.PLL.PLLState = RCC_PLL_ON;
 80032bc:	2502      	movs	r5, #2
  RCC_OscInitStruct.HSEState = RCC_HSE_ON;
 80032be:	930b      	str	r3, [sp, #44]	; 0x2c
  RCC_OscInitStruct.PLL.PLLSource = RCC_PLLSOURCE_HSE;
 80032c0:	9312      	str	r3, [sp, #72]	; 0x48
  RCC_OscInitStruct.PLL.PLLMUL = RCC_PLL_MUL9;
 80032c2:	f44f 13e0 	mov.w	r3, #1835008	; 0x1c0000
  if (HAL_RCC_OscConfig(&RCC_OscInitStruct) != HAL_OK)
 80032c6:	a80a      	add	r0, sp, #40	; 0x28
  RCC_OscInitStruct.PLL.PLLMUL = RCC_PLL_MUL9;
 80032c8:	9313      	str	r3, [sp, #76]	; 0x4c
  RCC_OscInitStruct.LSEState = RCC_LSE_ON;
 80032ca:	940d      	str	r4, [sp, #52]	; 0x34
  RCC_OscInitStruct.HSIState = RCC_HSI_ON;
 80032cc:	940e      	str	r4, [sp, #56]	; 0x38
  RCC_OscInitStruct.PLL.PLLState = RCC_PLL_ON;
 80032ce:	9511      	str	r5, [sp, #68]	; 0x44
  if (HAL_RCC_OscConfig(&RCC_OscInitStruct) != HAL_OK)
 80032d0:	f7fd fe40 	bl	8000f54 <HAL_RCC_OscConfig>
  {
    Error_Handler();
  }
  /** Initializes the CPU, AHB and APB busses clocks 
  */
  RCC_ClkInitStruct.ClockType = RCC_CLOCKTYPE_HCLK|RCC_CLOCKTYPE_SYSCLK
 80032d4:	230f      	movs	r3, #15
                              |RCC_CLOCKTYPE_PCLK1|RCC_CLOCKTYPE_PCLK2;
  RCC_ClkInitStruct.SYSCLKSource = RCC_SYSCLKSOURCE_PLLCLK;
  RCC_ClkInitStruct.AHBCLKDivider = RCC_SYSCLK_DIV1;
  RCC_ClkInitStruct.APB1CLKDivider = RCC_HCLK_DIV2;
 80032d6:	f44f 6280 	mov.w	r2, #1024	; 0x400
  RCC_ClkInitStruct.ClockType = RCC_CLOCKTYPE_HCLK|RCC_CLOCKTYPE_SYSCLK
 80032da:	9305      	str	r3, [sp, #20]
  RCC_ClkInitStruct.AHBCLKDivider = RCC_SYSCLK_DIV1;
 80032dc:	2300      	movs	r3, #0
  RCC_ClkInitStruct.APB2CLKDivider = RCC_HCLK_DIV1;

  if (HAL_RCC_ClockConfig(&RCC_ClkInitStruct, FLASH_LATENCY_2) != HAL_OK)
 80032de:	4629      	mov	r1, r5
 80032e0:	a805      	add	r0, sp, #20
  RCC_ClkInitStruct.AHBCLKDivider = RCC_SYSCLK_DIV1;
 80032e2:	9307      	str	r3, [sp, #28]
  RCC_ClkInitStruct.APB1CLKDivider = RCC_HCLK_DIV2;
 80032e4:	9208      	str	r2, [sp, #32]
  RCC_ClkInitStruct.APB2CLKDivider = RCC_HCLK_DIV1;
 80032e6:	9309      	str	r3, [sp, #36]	; 0x24
  RCC_ClkInitStruct.SYSCLKSource = RCC_SYSCLKSOURCE_PLLCLK;
 80032e8:	9506      	str	r5, [sp, #24]
  if (HAL_RCC_ClockConfig(&RCC_ClkInitStruct, FLASH_LATENCY_2) != HAL_OK)
 80032ea:	f7fd fffb 	bl	80012e4 <HAL_RCC_ClockConfig>
  {
    Error_Handler();
  }
  PeriphClkInit.PeriphClockSelection = RCC_PERIPHCLK_RTC;
  PeriphClkInit.RTCClockSelection = RCC_RTCCLKSOURCE_LSE;
 80032ee:	f44f 7380 	mov.w	r3, #256	; 0x100
  if (HAL_RCCEx_PeriphCLKConfig(&PeriphClkInit) != HAL_OK)
 80032f2:	a801      	add	r0, sp, #4
  PeriphClkInit.PeriphClockSelection = RCC_PERIPHCLK_RTC;
 80032f4:	9401      	str	r4, [sp, #4]
  PeriphClkInit.RTCClockSelection = RCC_RTCCLKSOURCE_LSE;
 80032f6:	9302      	str	r3, [sp, #8]
  if (HAL_RCCEx_PeriphCLKConfig(&PeriphClkInit) != HAL_OK)
 80032f8:	f7fe f8c6 	bl	8001488 <HAL_RCCEx_PeriphCLKConfig>
  {
    Error_Handler();
  }
}
 80032fc:	b015      	add	sp, #84	; 0x54
 80032fe:	bd30      	pop	{r4, r5, pc}

08003300 <main>:
{
 8003300:	e92d 43f8 	stmdb	sp!, {r3, r4, r5, r6, r7, r8, r9, lr}
	CAN_Buffer_Init();
 8003304:	f7fe fd28 	bl	8001d58 <CAN_Buffer_Init>
  huart_active = &huart3;
 8003308:	4c7d      	ldr	r4, [pc, #500]	; (8003500 <main+0x200>)
  HAL_Init();
 800330a:	f7fc ff4b 	bl	80001a4 <HAL_Init>
  huart_active = &huart3;
 800330e:	4b7d      	ldr	r3, [pc, #500]	; (8003504 <main+0x204>)
  huart_lin = &huart1;
 8003310:	4a7d      	ldr	r2, [pc, #500]	; (8003508 <main+0x208>)
  huart_active = &huart3;
 8003312:	601c      	str	r4, [r3, #0]
  huart_lin = &huart1;
 8003314:	4b7d      	ldr	r3, [pc, #500]	; (800350c <main+0x20c>)
 8003316:	601a      	str	r2, [r3, #0]
  SystemClock_Config();
 8003318:	f7ff ffb8 	bl	800328c <SystemClock_Config>
  MX_GPIO_Init();
 800331c:	f7ff fe96 	bl	800304c <MX_GPIO_Init>
  MX_DMA_Init();
 8003320:	f7ff fe6c 	bl	8002ffc <MX_DMA_Init>
  MX_RTC_Init();
 8003324:	f000 f91e 	bl	8003564 <MX_RTC_Init>
  MX_USART3_UART_Init();
 8003328:	f000 fa62 	bl	80037f0 <MX_USART3_UART_Init>
  MX_USART2_UART_Init();
 800332c:	f000 fa44 	bl	80037b8 <MX_USART2_UART_Init>
  MX_USART1_UART_Init();
 8003330:	f000 fa28 	bl	8003784 <MX_USART1_UART_Init>
  MX_CAN_Init();
 8003334:	f7ff fdd2 	bl	8002edc <MX_CAN_Init>
  MX_SPI2_Init();
 8003338:	f000 f948 	bl	80035cc <MX_SPI2_Init>
  HAL_Delay(100);
 800333c:	2064      	movs	r0, #100	; 0x64
 800333e:	f7fc ff55 	bl	80001ec <HAL_Delay>
  HAL_Delay(100);
 8003342:	2064      	movs	r0, #100	; 0x64
 8003344:	f7fc ff52 	bl	80001ec <HAL_Delay>
  if(HAL_GPIO_ReadPin(BOOT1_GPIO_Port, BOOT1_Pin) == 1)
 8003348:	2104      	movs	r1, #4
 800334a:	4871      	ldr	r0, [pc, #452]	; (8003510 <main+0x210>)
 800334c:	f7fd fdec 	bl	8000f28 <HAL_GPIO_ReadPin>
 8003350:	2801      	cmp	r0, #1
 8003352:	f040 8099 	bne.w	8003488 <main+0x188>
	  huart3.Init.BaudRate = 115200;
 8003356:	f44f 33e1 	mov.w	r3, #115200	; 0x1c200
  HAL_UART_Init(&huart3);
 800335a:	4869      	ldr	r0, [pc, #420]	; (8003500 <main+0x200>)
	  huart3.Init.BaudRate = (eeprom_settings.UART_Speed > 0 && eeprom_settings.UART_Speed < 10000000) ? eeprom_settings.UART_Speed : 115200;
 800335c:	6063      	str	r3, [r4, #4]
  HAL_UART_Init(&huart3);
 800335e:	f7fe fb01 	bl	8001964 <HAL_UART_Init>
			HAL_GPIO_TogglePin(LED_GPIO_Port, LED_Pin);
 8003362:	4f6c      	ldr	r7, [pc, #432]	; (8003514 <main+0x214>)
		if(Button_rutine(&button_var, HAL_GPIO_ReadPin(BUTTON_GPIO_Port, BUTTON_Pin) == 1) == DOUBLE_CLICKED)
 8003364:	4e6a      	ldr	r6, [pc, #424]	; (8003510 <main+0x210>)
		if(HAL_GPIO_ReadPin(TX_LED_GPIO_Port, TX_LED_Pin) == GPIO_PIN_SET)
 8003366:	4c6c      	ldr	r4, [pc, #432]	; (8003518 <main+0x218>)
	  if(USART3->SR & USART_SR_RXNE) // TODO     USART3
 8003368:	4b6c      	ldr	r3, [pc, #432]	; (800351c <main+0x21c>)
 800336a:	681a      	ldr	r2, [r3, #0]
 800336c:	0692      	lsls	r2, r2, #26
 800336e:	d511      	bpl.n	8003394 <main+0x94>
		  uart_rx_char = USART3->DR;
 8003370:	6858      	ldr	r0, [r3, #4]
 8003372:	4b6b      	ldr	r3, [pc, #428]	; (8003520 <main+0x220>)
 8003374:	b2c0      	uxtb	r0, r0
 8003376:	7018      	strb	r0, [r3, #0]
		  debug_buf[debug_pt++] = uart_rx_char;
 8003378:	4b6a      	ldr	r3, [pc, #424]	; (8003524 <main+0x224>)
 800337a:	4d6b      	ldr	r5, [pc, #428]	; (8003528 <main+0x228>)
 800337c:	6819      	ldr	r1, [r3, #0]
 800337e:	1c4a      	adds	r2, r1, #1
		  if(debug_pt == 1024) debug_pt = 0;
 8003380:	f5b2 6f80 	cmp.w	r2, #1024	; 0x400
		  debug_buf[debug_pt++] = uart_rx_char;
 8003384:	601a      	str	r2, [r3, #0]
		  if(debug_pt == 1024) debug_pt = 0;
 8003386:	bf08      	it	eq
 8003388:	2200      	moveq	r2, #0
		  debug_buf[debug_pt++] = uart_rx_char;
 800338a:	5468      	strb	r0, [r5, r1]
		  if(debug_pt == 1024) debug_pt = 0;
 800338c:	bf08      	it	eq
 800338e:	601a      	streq	r2, [r3, #0]
		  Check_Command(uart_rx_char);
 8003390:	f7ff fa86 	bl	80028a0 <Check_Command>
		if(HAL_GetTick() - time_stamp_UART >= 20 && uart_busy == 0)
 8003394:	f7fc ff24 	bl	80001e0 <HAL_GetTick>
 8003398:	2100      	movs	r1, #0
 800339a:	4d64      	ldr	r5, [pc, #400]	; (800352c <main+0x22c>)
 800339c:	e9d5 2300 	ldrd	r2, r3, [r5]
 80033a0:	1a80      	subs	r0, r0, r2
 80033a2:	eb61 0103 	sbc.w	r1, r1, r3
 80033a6:	2900      	cmp	r1, #0
 80033a8:	bf08      	it	eq
 80033aa:	2814      	cmpeq	r0, #20
 80033ac:	d30a      	bcc.n	80033c4 <main+0xc4>
 80033ae:	4b60      	ldr	r3, [pc, #384]	; (8003530 <main+0x230>)
 80033b0:	781b      	ldrb	r3, [r3, #0]
 80033b2:	f003 08ff 	and.w	r8, r3, #255	; 0xff
 80033b6:	b92b      	cbnz	r3, 80033c4 <main+0xc4>
			time_stamp_UART = HAL_GetTick();
 80033b8:	f7fc ff12 	bl	80001e0 <HAL_GetTick>
 80033bc:	e885 0101 	stmia.w	r5, {r0, r8}
			UART_Check_Data_Ready();
 80033c0:	f7ff fed4 	bl	800316c <UART_Check_Data_Ready>
		if(HAL_GetTick() - time_stamp_LED >= 500)
 80033c4:	f7fc ff0c 	bl	80001e0 <HAL_GetTick>
 80033c8:	2100      	movs	r1, #0
 80033ca:	4d5a      	ldr	r5, [pc, #360]	; (8003534 <main+0x234>)
 80033cc:	e9d5 2300 	ldrd	r2, r3, [r5]
 80033d0:	1a80      	subs	r0, r0, r2
 80033d2:	eb61 0103 	sbc.w	r1, r1, r3
 80033d6:	2900      	cmp	r1, #0
 80033d8:	bf08      	it	eq
 80033da:	f5b0 7ffa 	cmpeq.w	r0, #500	; 0x1f4
 80033de:	d309      	bcc.n	80033f4 <main+0xf4>
			time_stamp_LED = HAL_GetTick();
 80033e0:	f7fc fefe 	bl	80001e0 <HAL_GetTick>
 80033e4:	2300      	movs	r3, #0
 80033e6:	6028      	str	r0, [r5, #0]
			HAL_GPIO_TogglePin(LED_GPIO_Port, LED_Pin);
 80033e8:	f44f 5100 	mov.w	r1, #8192	; 0x2000
 80033ec:	4638      	mov	r0, r7
			time_stamp_LED = HAL_GetTick();
 80033ee:	606b      	str	r3, [r5, #4]
			HAL_GPIO_TogglePin(LED_GPIO_Port, LED_Pin);
 80033f0:	f7fd fda5 	bl	8000f3e <HAL_GPIO_TogglePin>
		if(Button_rutine(&button_var, HAL_GPIO_ReadPin(BUTTON_GPIO_Port, BUTTON_Pin) == 1) == DOUBLE_CLICKED)
 80033f4:	2102      	movs	r1, #2
 80033f6:	4630      	mov	r0, r6
 80033f8:	f7fd fd96 	bl	8000f28 <HAL_GPIO_ReadPin>
 80033fc:	1e43      	subs	r3, r0, #1
 80033fe:	4259      	negs	r1, r3
 8003400:	4159      	adcs	r1, r3
 8003402:	484d      	ldr	r0, [pc, #308]	; (8003538 <main+0x238>)
 8003404:	f7ff fce0 	bl	8002dc8 <Button_rutine>
 8003408:	2805      	cmp	r0, #5
 800340a:	d101      	bne.n	8003410 <main+0x110>
			Next_CAN_channel();
 800340c:	f7ff fcc4 	bl	8002d98 <Next_CAN_channel>
		if(HAL_GPIO_ReadPin(RX_LED_GPIO_Port, RX_LED_Pin) == GPIO_PIN_SET)
 8003410:	2108      	movs	r1, #8
 8003412:	4630      	mov	r0, r6
 8003414:	f7fd fd88 	bl	8000f28 <HAL_GPIO_ReadPin>
 8003418:	2801      	cmp	r0, #1
 800341a:	d10b      	bne.n	8003434 <main+0x134>
			if(rx_led_z1 == 0)
 800341c:	f8df 8134 	ldr.w	r8, [pc, #308]	; 8003554 <main+0x254>
 8003420:	4d46      	ldr	r5, [pc, #280]	; (800353c <main+0x23c>)
 8003422:	f898 3000 	ldrb.w	r3, [r8]
 8003426:	2b00      	cmp	r3, #0
 8003428:	d137      	bne.n	800349a <main+0x19a>
				rx_led_z1 = 1;
 800342a:	f888 0000 	strb.w	r0, [r8]
				rx_led_ts = HAL_GetTick();
 800342e:	f7fc fed7 	bl	80001e0 <HAL_GetTick>
 8003432:	6028      	str	r0, [r5, #0]
		if(HAL_GPIO_ReadPin(TX_LED_GPIO_Port, TX_LED_Pin) == GPIO_PIN_SET)
 8003434:	f44f 4100 	mov.w	r1, #32768	; 0x8000
 8003438:	4620      	mov	r0, r4
 800343a:	f7fd fd75 	bl	8000f28 <HAL_GPIO_ReadPin>
 800343e:	2801      	cmp	r0, #1
 8003440:	d109      	bne.n	8003456 <main+0x156>
			if(tx_led_z1 == 0)
 8003442:	4d3f      	ldr	r5, [pc, #252]	; (8003540 <main+0x240>)
 8003444:	f8df 8110 	ldr.w	r8, [pc, #272]	; 8003558 <main+0x258>
 8003448:	782b      	ldrb	r3, [r5, #0]
 800344a:	bbab      	cbnz	r3, 80034b8 <main+0x1b8>
				tx_led_z1 = 1;
 800344c:	7028      	strb	r0, [r5, #0]
				tx_led_ts = HAL_GetTick();
 800344e:	f7fc fec7 	bl	80001e0 <HAL_GetTick>
 8003452:	f8c8 0000 	str.w	r0, [r8]
		if(HAL_GPIO_ReadPin(ERROR_LED_GPIO_Port, ERROR_LED_Pin) == GPIO_PIN_SET)
 8003456:	f44f 7180 	mov.w	r1, #256	; 0x100
 800345a:	4620      	mov	r0, r4
 800345c:	f7fd fd64 	bl	8000f28 <HAL_GPIO_ReadPin>
 8003460:	2801      	cmp	r0, #1
 8003462:	4681      	mov	r9, r0
 8003464:	d180      	bne.n	8003368 <main+0x68>
			if(HAL_CAN_GetError(&hcan) == HAL_CAN_ERROR_BOF) break;
 8003466:	4837      	ldr	r0, [pc, #220]	; (8003544 <main+0x244>)
 8003468:	f7fd fa13 	bl	8000892 <HAL_CAN_GetError>
 800346c:	2804      	cmp	r0, #4
 800346e:	d044      	beq.n	80034fa <main+0x1fa>
			if(error_led_z1 == 0)
 8003470:	4d35      	ldr	r5, [pc, #212]	; (8003548 <main+0x248>)
 8003472:	f8df 80e8 	ldr.w	r8, [pc, #232]	; 800355c <main+0x25c>
 8003476:	782b      	ldrb	r3, [r5, #0]
 8003478:	bb73      	cbnz	r3, 80034d8 <main+0x1d8>
				error_led_z1 = 1;
 800347a:	f885 9000 	strb.w	r9, [r5]
				error_led_ts = HAL_GetTick();
 800347e:	f7fc feaf 	bl	80001e0 <HAL_GetTick>
 8003482:	f8c8 0000 	str.w	r0, [r8]
 8003486:	e76f      	b.n	8003368 <main+0x68>
	  huart3.Init.BaudRate = (eeprom_settings.UART_Speed > 0 && eeprom_settings.UART_Speed < 10000000) ? eeprom_settings.UART_Speed : 115200;
 8003488:	4b30      	ldr	r3, [pc, #192]	; (800354c <main+0x24c>)
 800348a:	4a31      	ldr	r2, [pc, #196]	; (8003550 <main+0x250>)
 800348c:	6ddb      	ldr	r3, [r3, #92]	; 0x5c
 800348e:	1e59      	subs	r1, r3, #1
 8003490:	4291      	cmp	r1, r2
 8003492:	bf88      	it	hi
 8003494:	f44f 33e1 	movhi.w	r3, #115200	; 0x1c200
 8003498:	e75f      	b.n	800335a <main+0x5a>
			else if(HAL_GetTick() - rx_led_ts > 3)
 800349a:	f7fc fea1 	bl	80001e0 <HAL_GetTick>
 800349e:	682b      	ldr	r3, [r5, #0]
 80034a0:	1ac0      	subs	r0, r0, r3
 80034a2:	2803      	cmp	r0, #3
 80034a4:	d9c6      	bls.n	8003434 <main+0x134>
				HAL_GPIO_WritePin(RX_LED_GPIO_Port, RX_LED_Pin, GPIO_PIN_RESET);
 80034a6:	2200      	movs	r2, #0
 80034a8:	2108      	movs	r1, #8
 80034aa:	4630      	mov	r0, r6
 80034ac:	f7fd fd42 	bl	8000f34 <HAL_GPIO_WritePin>
				rx_led_z1 = 0;
 80034b0:	2300      	movs	r3, #0
 80034b2:	f888 3000 	strb.w	r3, [r8]
 80034b6:	e7ba      	b.n	800342e <main+0x12e>
			else if(HAL_GetTick() - tx_led_ts > 3)
 80034b8:	f7fc fe92 	bl	80001e0 <HAL_GetTick>
 80034bc:	f8d8 3000 	ldr.w	r3, [r8]
 80034c0:	1ac0      	subs	r0, r0, r3
 80034c2:	2803      	cmp	r0, #3
 80034c4:	d9c7      	bls.n	8003456 <main+0x156>
				HAL_GPIO_WritePin(TX_LED_GPIO_Port, TX_LED_Pin, GPIO_PIN_RESET);
 80034c6:	2200      	movs	r2, #0
 80034c8:	f44f 4100 	mov.w	r1, #32768	; 0x8000
 80034cc:	4620      	mov	r0, r4
 80034ce:	f7fd fd31 	bl	8000f34 <HAL_GPIO_WritePin>
				tx_led_z1 = 0;
 80034d2:	2300      	movs	r3, #0
 80034d4:	702b      	strb	r3, [r5, #0]
 80034d6:	e7be      	b.n	8003456 <main+0x156>
			else if(HAL_GetTick() - error_led_ts > 100)
 80034d8:	f7fc fe82 	bl	80001e0 <HAL_GetTick>
 80034dc:	f8d8 3000 	ldr.w	r3, [r8]
 80034e0:	1ac0      	subs	r0, r0, r3
 80034e2:	2864      	cmp	r0, #100	; 0x64
 80034e4:	f67f af40 	bls.w	8003368 <main+0x68>
				HAL_GPIO_WritePin(ERROR_LED_GPIO_Port, ERROR_LED_Pin, GPIO_PIN_RESET);
 80034e8:	2200      	movs	r2, #0
 80034ea:	f44f 7180 	mov.w	r1, #256	; 0x100
 80034ee:	4620      	mov	r0, r4
 80034f0:	f7fd fd20 	bl	8000f34 <HAL_GPIO_WritePin>
				error_led_z1 = 0;
 80034f4:	2300      	movs	r3, #0
 80034f6:	702b      	strb	r3, [r5, #0]
 80034f8:	e736      	b.n	8003368 <main+0x68>
}
 80034fa:	2000      	movs	r0, #0
 80034fc:	e8bd 83f8 	ldmia.w	sp!, {r3, r4, r5, r6, r7, r8, r9, pc}
 8003500:	20001ac8 	.word	0x20001ac8
 8003504:	200019d4 	.word	0x200019d4
 8003508:	20001bd4 	.word	0x20001bd4
 800350c:	200019d8 	.word	0x200019d8
 8003510:	40010c00 	.word	0x40010c00
 8003514:	40011000 	.word	0x40011000
 8003518:	40010800 	.word	0x40010800
 800351c:	40004800 	.word	0x40004800
 8003520:	20001948 	.word	0x20001948
 8003524:	20000048 	.word	0x20000048
 8003528:	20001120 	.word	0x20001120
 800352c:	20000068 	.word	0x20000068
 8003530:	20000076 	.word	0x20000076
 8003534:	20000060 	.word	0x20000060
 8003538:	200019cc 	.word	0x200019cc
 800353c:	20000054 	.word	0x20000054
 8003540:	20000074 	.word	0x20000074
 8003544:	20000bd4 	.word	0x20000bd4
 8003548:	20000050 	.word	0x20000050
 800354c:	20000b70 	.word	0x20000b70
 8003550:	0098967e 	.word	0x0098967e
 8003554:	20000058 	.word	0x20000058
 8003558:	20000070 	.word	0x20000070
 800355c:	2000004c 	.word	0x2000004c

08003560 <Error_Handler>:
/**
  * @brief  This function is executed in case of error occurrence.
  * @retval None
  */
void Error_Handler(void)
{
 8003560:	4770      	bx	lr
	...

08003564 <MX_RTC_Init>:

RTC_HandleTypeDef hrtc;

/* RTC init function */
void MX_RTC_Init(void)
{
 8003564:	b508      	push	{r3, lr}

  /** Initialize RTC Only 
  */
  hrtc.Instance = RTC;
  hrtc.Init.AsynchPrediv = RTC_AUTO_1_SECOND;
  hrtc.Init.OutPut = RTC_OUTPUTSOURCE_ALARM;
 8003566:	f04f 32ff 	mov.w	r2, #4294967295
 800356a:	f44f 7380 	mov.w	r3, #256	; 0x100
  hrtc.Instance = RTC;
 800356e:	4806      	ldr	r0, [pc, #24]	; (8003588 <MX_RTC_Init+0x24>)
  hrtc.Init.OutPut = RTC_OUTPUTSOURCE_ALARM;
 8003570:	4906      	ldr	r1, [pc, #24]	; (800358c <MX_RTC_Init+0x28>)
 8003572:	e880 000e 	stmia.w	r0, {r1, r2, r3}
  if (HAL_RTC_Init(&hrtc) != HAL_OK)
 8003576:	f7fe f8bf 	bl	80016f8 <HAL_RTC_Init>
 800357a:	b118      	cbz	r0, 8003584 <MX_RTC_Init+0x20>
  {
    Error_Handler();
  }

}
 800357c:	e8bd 4008 	ldmia.w	sp!, {r3, lr}
    Error_Handler();
 8003580:	f7ff bfee 	b.w	8003560 <Error_Handler>
 8003584:	bd08      	pop	{r3, pc}
 8003586:	bf00      	nop
 8003588:	20001a5c 	.word	0x20001a5c
 800358c:	40002800 	.word	0x40002800

08003590 <HAL_RTC_MspInit>:

void HAL_RTC_MspInit(RTC_HandleTypeDef* rtcHandle)
{
 8003590:	b507      	push	{r0, r1, r2, lr}

  if(rtcHandle->Instance==RTC)
 8003592:	4b0b      	ldr	r3, [pc, #44]	; (80035c0 <HAL_RTC_MspInit+0x30>)
 8003594:	6802      	ldr	r2, [r0, #0]
 8003596:	429a      	cmp	r2, r3
 8003598:	d10e      	bne.n	80035b8 <HAL_RTC_MspInit+0x28>
  {
  /* USER CODE BEGIN RTC_MspInit 0 */

  /* USER CODE END RTC_MspInit 0 */
    HAL_PWR_EnableBkUpAccess();
 800359a:	f7fd fcd5 	bl	8000f48 <HAL_PWR_EnableBkUpAccess>
    /* Enable BKP CLK enable for backup registers */
    __HAL_RCC_BKP_CLK_ENABLE();
 800359e:	4b09      	ldr	r3, [pc, #36]	; (80035c4 <HAL_RTC_MspInit+0x34>)
 80035a0:	69da      	ldr	r2, [r3, #28]
 80035a2:	f042 6200 	orr.w	r2, r2, #134217728	; 0x8000000
 80035a6:	61da      	str	r2, [r3, #28]
    /* RTC clock enable */
    __HAL_RCC_RTC_ENABLE();
 80035a8:	2201      	movs	r2, #1
    __HAL_RCC_BKP_CLK_ENABLE();
 80035aa:	69db      	ldr	r3, [r3, #28]
 80035ac:	f003 6300 	and.w	r3, r3, #134217728	; 0x8000000
 80035b0:	9301      	str	r3, [sp, #4]
 80035b2:	9b01      	ldr	r3, [sp, #4]
    __HAL_RCC_RTC_ENABLE();
 80035b4:	4b04      	ldr	r3, [pc, #16]	; (80035c8 <HAL_RTC_MspInit+0x38>)
 80035b6:	601a      	str	r2, [r3, #0]
  /* USER CODE BEGIN RTC_MspInit 1 */

  /* USER CODE END RTC_MspInit 1 */
  }
}
 80035b8:	b003      	add	sp, #12
 80035ba:	f85d fb04 	ldr.w	pc, [sp], #4
 80035be:	bf00      	nop
 80035c0:	40002800 	.word	0x40002800
 80035c4:	40021000 	.word	0x40021000
 80035c8:	4242043c 	.word	0x4242043c

080035cc <MX_SPI2_Init>:

SPI_HandleTypeDef hspi2;

/* SPI2 init function */
void MX_SPI2_Init(void)
{
 80035cc:	b508      	push	{r3, lr}

  hspi2.Instance = SPI2;
  hspi2.Init.Mode = SPI_MODE_MASTER;
 80035ce:	f44f 7e82 	mov.w	lr, #260	; 0x104
  hspi2.Instance = SPI2;
 80035d2:	480d      	ldr	r0, [pc, #52]	; (8003608 <MX_SPI2_Init+0x3c>)
  hspi2.Init.Mode = SPI_MODE_MASTER;
 80035d4:	4b0d      	ldr	r3, [pc, #52]	; (800360c <MX_SPI2_Init+0x40>)
  hspi2.Init.Direction = SPI_DIRECTION_2LINES;
  hspi2.Init.DataSize = SPI_DATASIZE_8BIT;
  hspi2.Init.CLKPolarity = SPI_POLARITY_LOW;
  hspi2.Init.CLKPhase = SPI_PHASE_1EDGE;
  hspi2.Init.NSS = SPI_NSS_SOFT;
 80035d6:	f44f 7200 	mov.w	r2, #512	; 0x200
  hspi2.Init.Mode = SPI_MODE_MASTER;
 80035da:	e880 4008 	stmia.w	r0, {r3, lr}
  hspi2.Init.Direction = SPI_DIRECTION_2LINES;
 80035de:	2300      	movs	r3, #0
  hspi2.Init.NSS = SPI_NSS_SOFT;
 80035e0:	6182      	str	r2, [r0, #24]
  hspi2.Init.Direction = SPI_DIRECTION_2LINES;
 80035e2:	6083      	str	r3, [r0, #8]
  hspi2.Init.DataSize = SPI_DATASIZE_8BIT;
 80035e4:	60c3      	str	r3, [r0, #12]
  hspi2.Init.CLKPolarity = SPI_POLARITY_LOW;
 80035e6:	6103      	str	r3, [r0, #16]
  hspi2.Init.CLKPhase = SPI_PHASE_1EDGE;
 80035e8:	6143      	str	r3, [r0, #20]
  hspi2.Init.BaudRatePrescaler = SPI_BAUDRATEPRESCALER_64;
 80035ea:	2228      	movs	r2, #40	; 0x28
  hspi2.Init.FirstBit = SPI_FIRSTBIT_MSB;
 80035ec:	6203      	str	r3, [r0, #32]
  hspi2.Init.TIMode = SPI_TIMODE_DISABLE;
 80035ee:	6243      	str	r3, [r0, #36]	; 0x24
  hspi2.Init.CRCCalculation = SPI_CRCCALCULATION_DISABLE;
 80035f0:	6283      	str	r3, [r0, #40]	; 0x28
  hspi2.Init.CRCPolynomial = 10;
 80035f2:	230a      	movs	r3, #10
  hspi2.Init.BaudRatePrescaler = SPI_BAUDRATEPRESCALER_64;
 80035f4:	61c2      	str	r2, [r0, #28]
  hspi2.Init.CRCPolynomial = 10;
 80035f6:	62c3      	str	r3, [r0, #44]	; 0x2c
  if (HAL_SPI_Init(&hspi2) != HAL_OK)
 80035f8:	f7fe f8ce 	bl	8001798 <HAL_SPI_Init>
 80035fc:	b118      	cbz	r0, 8003606 <MX_SPI2_Init+0x3a>
  {
    Error_Handler();
  }

}
 80035fe:	e8bd 4008 	ldmia.w	sp!, {r3, lr}
    Error_Handler();
 8003602:	f7ff bfad 	b.w	8003560 <Error_Handler>
 8003606:	bd08      	pop	{r3, pc}
 8003608:	20001a70 	.word	0x20001a70
 800360c:	40003800 	.word	0x40003800

08003610 <HAL_SPI_MspInit>:

void HAL_SPI_MspInit(SPI_HandleTypeDef* spiHandle)
{
 8003610:	b510      	push	{r4, lr}
 8003612:	4604      	mov	r4, r0
 8003614:	b086      	sub	sp, #24

  GPIO_InitTypeDef GPIO_InitStruct = {0};
 8003616:	2210      	movs	r2, #16
 8003618:	2100      	movs	r1, #0
 800361a:	a802      	add	r0, sp, #8
 800361c:	f000 fa8a 	bl	8003b34 <memset>
  if(spiHandle->Instance==SPI2)
 8003620:	6822      	ldr	r2, [r4, #0]
 8003622:	4b17      	ldr	r3, [pc, #92]	; (8003680 <HAL_SPI_MspInit+0x70>)
 8003624:	429a      	cmp	r2, r3
 8003626:	d128      	bne.n	800367a <HAL_SPI_MspInit+0x6a>
  {
  /* USER CODE BEGIN SPI2_MspInit 0 */

  /* USER CODE END SPI2_MspInit 0 */
    /* SPI2 clock enable */
    __HAL_RCC_SPI2_CLK_ENABLE();
 8003628:	f503 33ec 	add.w	r3, r3, #120832	; 0x1d800
 800362c:	69da      	ldr	r2, [r3, #28]
    PB15     ------> SPI2_MOSI 
    */
    GPIO_InitStruct.Pin = GPIO_PIN_13|GPIO_PIN_15;
    GPIO_InitStruct.Mode = GPIO_MODE_AF_PP;
    GPIO_InitStruct.Speed = GPIO_SPEED_FREQ_HIGH;
    HAL_GPIO_Init(GPIOB, &GPIO_InitStruct);
 800362e:	a902      	add	r1, sp, #8
    __HAL_RCC_SPI2_CLK_ENABLE();
 8003630:	f442 4280 	orr.w	r2, r2, #16384	; 0x4000
 8003634:	61da      	str	r2, [r3, #28]
 8003636:	69da      	ldr	r2, [r3, #28]
    HAL_GPIO_Init(GPIOB, &GPIO_InitStruct);
 8003638:	4812      	ldr	r0, [pc, #72]	; (8003684 <HAL_SPI_MspInit+0x74>)
    __HAL_RCC_SPI2_CLK_ENABLE();
 800363a:	f402 4280 	and.w	r2, r2, #16384	; 0x4000
 800363e:	9200      	str	r2, [sp, #0]
 8003640:	9a00      	ldr	r2, [sp, #0]
    __HAL_RCC_GPIOB_CLK_ENABLE();
 8003642:	699a      	ldr	r2, [r3, #24]
 8003644:	f042 0208 	orr.w	r2, r2, #8
 8003648:	619a      	str	r2, [r3, #24]
 800364a:	699b      	ldr	r3, [r3, #24]
 800364c:	f003 0308 	and.w	r3, r3, #8
 8003650:	9301      	str	r3, [sp, #4]
 8003652:	9b01      	ldr	r3, [sp, #4]
    GPIO_InitStruct.Pin = GPIO_PIN_13|GPIO_PIN_15;
 8003654:	f44f 4320 	mov.w	r3, #40960	; 0xa000
 8003658:	9302      	str	r3, [sp, #8]
    GPIO_InitStruct.Mode = GPIO_MODE_AF_PP;
 800365a:	2302      	movs	r3, #2
 800365c:	9303      	str	r3, [sp, #12]
    GPIO_InitStruct.Speed = GPIO_SPEED_FREQ_HIGH;
 800365e:	2303      	movs	r3, #3
 8003660:	9305      	str	r3, [sp, #20]
    HAL_GPIO_Init(GPIOB, &GPIO_InitStruct);
 8003662:	f7fd fb11 	bl	8000c88 <HAL_GPIO_Init>

    GPIO_InitStruct.Pin = GPIO_PIN_14;
 8003666:	f44f 4380 	mov.w	r3, #16384	; 0x4000
 800366a:	9302      	str	r3, [sp, #8]
    GPIO_InitStruct.Mode = GPIO_MODE_INPUT;
 800366c:	2300      	movs	r3, #0
    GPIO_InitStruct.Pull = GPIO_NOPULL;
    HAL_GPIO_Init(GPIOB, &GPIO_InitStruct);
 800366e:	a902      	add	r1, sp, #8
 8003670:	4804      	ldr	r0, [pc, #16]	; (8003684 <HAL_SPI_MspInit+0x74>)
    GPIO_InitStruct.Mode = GPIO_MODE_INPUT;
 8003672:	9303      	str	r3, [sp, #12]
    GPIO_InitStruct.Pull = GPIO_NOPULL;
 8003674:	9304      	str	r3, [sp, #16]
    HAL_GPIO_Init(GPIOB, &GPIO_InitStruct);
 8003676:	f7fd fb07 	bl	8000c88 <HAL_GPIO_Init>

  /* USER CODE BEGIN SPI2_MspInit 1 */

  /* USER CODE END SPI2_MspInit 1 */
  }
}
 800367a:	b006      	add	sp, #24
 800367c:	bd10      	pop	{r4, pc}
 800367e:	bf00      	nop
 8003680:	40003800 	.word	0x40003800
 8003684:	40010c00 	.word	0x40010c00

08003688 <HAL_MspInit>:
{
  /* USER CODE BEGIN MspInit 0 */

  /* USER CODE END MspInit 0 */

  __HAL_RCC_AFIO_CLK_ENABLE();
 8003688:	4b0e      	ldr	r3, [pc, #56]	; (80036c4 <HAL_MspInit+0x3c>)
{
 800368a:	b082      	sub	sp, #8
  __HAL_RCC_AFIO_CLK_ENABLE();
 800368c:	699a      	ldr	r2, [r3, #24]
 800368e:	f042 0201 	orr.w	r2, r2, #1
 8003692:	619a      	str	r2, [r3, #24]
 8003694:	699a      	ldr	r2, [r3, #24]
 8003696:	f002 0201 	and.w	r2, r2, #1
 800369a:	9200      	str	r2, [sp, #0]
 800369c:	9a00      	ldr	r2, [sp, #0]
  __HAL_RCC_PWR_CLK_ENABLE();
 800369e:	69da      	ldr	r2, [r3, #28]
 80036a0:	f042 5280 	orr.w	r2, r2, #268435456	; 0x10000000
 80036a4:	61da      	str	r2, [r3, #28]
 80036a6:	69db      	ldr	r3, [r3, #28]

  /* System interrupt init*/

  /** NOJTAG: JTAG-DP Disabled and SW-DP Enabled 
  */
  __HAL_AFIO_REMAP_SWJ_NOJTAG();
 80036a8:	4a07      	ldr	r2, [pc, #28]	; (80036c8 <HAL_MspInit+0x40>)
  __HAL_RCC_PWR_CLK_ENABLE();
 80036aa:	f003 5380 	and.w	r3, r3, #268435456	; 0x10000000
 80036ae:	9301      	str	r3, [sp, #4]
 80036b0:	9b01      	ldr	r3, [sp, #4]
  __HAL_AFIO_REMAP_SWJ_NOJTAG();
 80036b2:	6853      	ldr	r3, [r2, #4]
 80036b4:	f023 63e0 	bic.w	r3, r3, #117440512	; 0x7000000
 80036b8:	f043 7300 	orr.w	r3, r3, #33554432	; 0x2000000
 80036bc:	6053      	str	r3, [r2, #4]

  /* USER CODE BEGIN MspInit 1 */

  /* USER CODE END MspInit 1 */
}
 80036be:	b002      	add	sp, #8
 80036c0:	4770      	bx	lr
 80036c2:	bf00      	nop
 80036c4:	40021000 	.word	0x40021000
 80036c8:	40010000 	.word	0x40010000

080036cc <NMI_Handler>:
 80036cc:	4770      	bx	lr

080036ce <HardFault_Handler>:

/**
  * @brief This function handles Hard fault interrupt.
  */
void HardFault_Handler(void)
{
 80036ce:	e7fe      	b.n	80036ce <HardFault_Handler>

080036d0 <MemManage_Handler>:

/**
  * @brief This function handles Memory management fault.
  */
void MemManage_Handler(void)
{
 80036d0:	e7fe      	b.n	80036d0 <MemManage_Handler>

080036d2 <BusFault_Handler>:

/**
  * @brief This function handles Prefetch fault, memory access fault.
  */
void BusFault_Handler(void)
{
 80036d2:	e7fe      	b.n	80036d2 <BusFault_Handler>

080036d4 <UsageFault_Handler>:

/**
  * @brief This function handles Undefined instruction or illegal state.
  */
void UsageFault_Handler(void)
{
 80036d4:	e7fe      	b.n	80036d4 <UsageFault_Handler>

080036d6 <SVC_Handler>:
 80036d6:	4770      	bx	lr

080036d8 <DebugMon_Handler>:
 80036d8:	4770      	bx	lr

080036da <PendSV_Handler>:

/**
  * @brief This function handles Pendable request for system service.
  */
void PendSV_Handler(void)
{
 80036da:	4770      	bx	lr

080036dc <SysTick_Handler>:
void SysTick_Handler(void)
{
  /* USER CODE BEGIN SysTick_IRQn 0 */

  /* USER CODE END SysTick_IRQn 0 */
  HAL_IncTick();
 80036dc:	f7fc bd74 	b.w	80001c8 <HAL_IncTick>

080036e0 <DMA1_Channel2_IRQHandler>:
void DMA1_Channel2_IRQHandler(void)
{
  /* USER CODE BEGIN DMA1_Channel2_IRQn 0 */

  /* USER CODE END DMA1_Channel2_IRQn 0 */
  HAL_DMA_IRQHandler(&hdma_usart3_tx);
 80036e0:	4801      	ldr	r0, [pc, #4]	; (80036e8 <DMA1_Channel2_IRQHandler+0x8>)
 80036e2:	f7fd ba3d 	b.w	8000b60 <HAL_DMA_IRQHandler>
 80036e6:	bf00      	nop
 80036e8:	20001b08 	.word	0x20001b08

080036ec <DMA1_Channel4_IRQHandler>:
void DMA1_Channel4_IRQHandler(void)
{
  /* USER CODE BEGIN DMA1_Channel4_IRQn 0 */

  /* USER CODE END DMA1_Channel4_IRQn 0 */
  HAL_DMA_IRQHandler(&hdma_usart1_tx);
 80036ec:	4801      	ldr	r0, [pc, #4]	; (80036f4 <DMA1_Channel4_IRQHandler+0x8>)
 80036ee:	f7fd ba37 	b.w	8000b60 <HAL_DMA_IRQHandler>
 80036f2:	bf00      	nop
 80036f4:	20001b4c 	.word	0x20001b4c

080036f8 <DMA1_Channel7_IRQHandler>:
void DMA1_Channel7_IRQHandler(void)
{
  /* USER CODE BEGIN DMA1_Channel7_IRQn 0 */

  /* USER CODE END DMA1_Channel7_IRQn 0 */
  HAL_DMA_IRQHandler(&hdma_usart2_tx);
 80036f8:	4801      	ldr	r0, [pc, #4]	; (8003700 <DMA1_Channel7_IRQHandler+0x8>)
 80036fa:	f7fd ba31 	b.w	8000b60 <HAL_DMA_IRQHandler>
 80036fe:	bf00      	nop
 8003700:	20001b90 	.word	0x20001b90

08003704 <USB_LP_CAN1_RX0_IRQHandler>:
void USB_LP_CAN1_RX0_IRQHandler(void)
{
  /* USER CODE BEGIN USB_LP_CAN1_RX0_IRQn 0 */

  /* USER CODE END USB_LP_CAN1_RX0_IRQn 0 */
  HAL_CAN_IRQHandler(&hcan);
 8003704:	4801      	ldr	r0, [pc, #4]	; (800370c <USB_LP_CAN1_RX0_IRQHandler+0x8>)
 8003706:	f7fc bfb3 	b.w	8000670 <HAL_CAN_IRQHandler>
 800370a:	bf00      	nop
 800370c:	20000bd4 	.word	0x20000bd4

08003710 <USB_HP_CAN1_TX_IRQHandler>:
 8003710:	f7ff bff8 	b.w	8003704 <USB_LP_CAN1_RX0_IRQHandler>

08003714 <USART1_IRQHandler>:
void USART1_IRQHandler(void)
{
  /* USER CODE BEGIN USART1_IRQn 0 */

  /* USER CODE END USART1_IRQn 0 */
  HAL_UART_IRQHandler(&huart1);
 8003714:	4801      	ldr	r0, [pc, #4]	; (800371c <USART1_IRQHandler+0x8>)
 8003716:	f7fe ba5d 	b.w	8001bd4 <HAL_UART_IRQHandler>
 800371a:	bf00      	nop
 800371c:	20001bd4 	.word	0x20001bd4

08003720 <USART2_IRQHandler>:
void USART2_IRQHandler(void)
{
  /* USER CODE BEGIN USART2_IRQn 0 */

  /* USER CODE END USART2_IRQn 0 */
  HAL_UART_IRQHandler(&huart2);
 8003720:	4801      	ldr	r0, [pc, #4]	; (8003728 <USART2_IRQHandler+0x8>)
 8003722:	f7fe ba57 	b.w	8001bd4 <HAL_UART_IRQHandler>
 8003726:	bf00      	nop
 8003728:	20001c14 	.word	0x20001c14

0800372c <USART3_IRQHandler>:
void USART3_IRQHandler(void)
{
  /* USER CODE BEGIN USART3_IRQn 0 */

  /* USER CODE END USART3_IRQn 0 */
  HAL_UART_IRQHandler(&huart3);
 800372c:	4801      	ldr	r0, [pc, #4]	; (8003734 <USART3_IRQHandler+0x8>)
 800372e:	f7fe ba51 	b.w	8001bd4 <HAL_UART_IRQHandler>
 8003732:	bf00      	nop
 8003734:	20001ac8 	.word	0x20001ac8

08003738 <SystemInit>:
  */
void SystemInit (void)
{
  /* Reset the RCC clock configuration to the default reset state(for debug purpose) */
  /* Set HSION bit */
  RCC->CR |= 0x00000001U;
 8003738:	4b0f      	ldr	r3, [pc, #60]	; (8003778 <SystemInit+0x40>)
 800373a:	681a      	ldr	r2, [r3, #0]
 800373c:	f042 0201 	orr.w	r2, r2, #1
 8003740:	601a      	str	r2, [r3, #0]

  /* Reset SW, HPRE, PPRE1, PPRE2, ADCPRE and MCO bits */
#if !defined(STM32F105xC) && !defined(STM32F107xC)
  RCC->CFGR &= 0xF8FF0000U;
 8003742:	6859      	ldr	r1, [r3, #4]
 8003744:	4a0d      	ldr	r2, [pc, #52]	; (800377c <SystemInit+0x44>)
 8003746:	400a      	ands	r2, r1
 8003748:	605a      	str	r2, [r3, #4]
#else
  RCC->CFGR &= 0xF0FF0000U;
#endif /* STM32F105xC */   
  
  /* Reset HSEON, CSSON and PLLON bits */
  RCC->CR &= 0xFEF6FFFFU;
 800374a:	681a      	ldr	r2, [r3, #0]
 800374c:	f022 7284 	bic.w	r2, r2, #17301504	; 0x1080000
 8003750:	f422 3280 	bic.w	r2, r2, #65536	; 0x10000
 8003754:	601a      	str	r2, [r3, #0]

  /* Reset HSEBYP bit */
  RCC->CR &= 0xFFFBFFFFU;
 8003756:	681a      	ldr	r2, [r3, #0]
 8003758:	f422 2280 	bic.w	r2, r2, #262144	; 0x40000
 800375c:	601a      	str	r2, [r3, #0]

  /* Reset PLLSRC, PLLXTPRE, PLLMUL and USBPRE/OTGFSPRE bits */
  RCC->CFGR &= 0xFF80FFFFU;
 800375e:	685a      	ldr	r2, [r3, #4]
 8003760:	f422 02fe 	bic.w	r2, r2, #8323072	; 0x7f0000
 8003764:	605a      	str	r2, [r3, #4]

  /* Reset CFGR2 register */
  RCC->CFGR2 = 0x00000000U;      
#else
  /* Disable all interrupts and clear pending bits  */
  RCC->CIR = 0x009F0000U;
 8003766:	f44f 021f 	mov.w	r2, #10420224	; 0x9f0000
 800376a:	609a      	str	r2, [r3, #8]
#endif 

#ifdef VECT_TAB_SRAM
  SCB->VTOR = SRAM_BASE | VECT_TAB_OFFSET; /* Vector Table Relocation in Internal SRAM. */
#else
  SCB->VTOR = FLASH_BASE | VECT_TAB_OFFSET; /* Vector Table Relocation in Internal FLASH. */
 800376c:	f04f 6200 	mov.w	r2, #134217728	; 0x8000000
 8003770:	4b03      	ldr	r3, [pc, #12]	; (8003780 <SystemInit+0x48>)
 8003772:	609a      	str	r2, [r3, #8]
 8003774:	4770      	bx	lr
 8003776:	bf00      	nop
 8003778:	40021000 	.word	0x40021000
 800377c:	f8ff0000 	.word	0xf8ff0000
 8003780:	e000ed00 	.word	0xe000ed00

08003784 <MX_USART1_UART_Init>:
DMA_HandleTypeDef hdma_usart3_tx;

/* USART1 init function */

void MX_USART1_UART_Init(void)
{
 8003784:	b508      	push	{r3, lr}

  huart1.Instance = USART1;
  huart1.Init.BaudRate = 9600;
 8003786:	f44f 5316 	mov.w	r3, #9600	; 0x2580
  huart1.Instance = USART1;
 800378a:	4809      	ldr	r0, [pc, #36]	; (80037b0 <MX_USART1_UART_Init+0x2c>)
  huart1.Init.BaudRate = 9600;
 800378c:	4909      	ldr	r1, [pc, #36]	; (80037b4 <MX_USART1_UART_Init+0x30>)
 800378e:	e880 000a 	stmia.w	r0, {r1, r3}
  huart1.Init.WordLength = UART_WORDLENGTH_8B;
 8003792:	2100      	movs	r1, #0
  huart1.Init.StopBits = UART_STOPBITS_1;
  huart1.Init.Parity = UART_PARITY_NONE;
  huart1.Init.Mode = UART_MODE_TX_RX;
 8003794:	230c      	movs	r3, #12
  huart1.Init.WordLength = UART_WORDLENGTH_8B;
 8003796:	6081      	str	r1, [r0, #8]
  huart1.Init.StopBits = UART_STOPBITS_1;
 8003798:	60c1      	str	r1, [r0, #12]
  huart1.Init.Parity = UART_PARITY_NONE;
 800379a:	6101      	str	r1, [r0, #16]
  huart1.Init.Mode = UART_MODE_TX_RX;
 800379c:	6143      	str	r3, [r0, #20]
  huart1.Init.HwFlowCtl = UART_HWCONTROL_NONE;
 800379e:	6181      	str	r1, [r0, #24]
  if (HAL_LIN_Init(&huart1, UART_LINBREAKDETECTLENGTH_10B) != HAL_OK)
 80037a0:	f7fe f90e 	bl	80019c0 <HAL_LIN_Init>
 80037a4:	b118      	cbz	r0, 80037ae <MX_USART1_UART_Init+0x2a>
  {
    Error_Handler();
  }

}
 80037a6:	e8bd 4008 	ldmia.w	sp!, {r3, lr}
    Error_Handler();
 80037aa:	f7ff bed9 	b.w	8003560 <Error_Handler>
 80037ae:	bd08      	pop	{r3, pc}
 80037b0:	20001bd4 	.word	0x20001bd4
 80037b4:	40013800 	.word	0x40013800

080037b8 <MX_USART2_UART_Init>:
/* USART2 init function */

void MX_USART2_UART_Init(void)
{
 80037b8:	b508      	push	{r3, lr}

  huart2.Instance = USART2;
  huart2.Init.BaudRate = 115200;
 80037ba:	f44f 3ee1 	mov.w	lr, #115200	; 0x1c200
  huart2.Instance = USART2;
 80037be:	480a      	ldr	r0, [pc, #40]	; (80037e8 <MX_USART2_UART_Init+0x30>)
  huart2.Init.BaudRate = 115200;
 80037c0:	4b0a      	ldr	r3, [pc, #40]	; (80037ec <MX_USART2_UART_Init+0x34>)
  huart2.Init.WordLength = UART_WORDLENGTH_8B;
  huart2.Init.StopBits = UART_STOPBITS_1;
  huart2.Init.Parity = UART_PARITY_NONE;
  huart2.Init.Mode = UART_MODE_TX_RX;
 80037c2:	220c      	movs	r2, #12
  huart2.Init.BaudRate = 115200;
 80037c4:	e880 4008 	stmia.w	r0, {r3, lr}
  huart2.Init.WordLength = UART_WORDLENGTH_8B;
 80037c8:	2300      	movs	r3, #0
  huart2.Init.Mode = UART_MODE_TX_RX;
 80037ca:	6142      	str	r2, [r0, #20]
  huart2.Init.WordLength = UART_WORDLENGTH_8B;
 80037cc:	6083      	str	r3, [r0, #8]
  huart2.Init.StopBits = UART_STOPBITS_1;
 80037ce:	60c3      	str	r3, [r0, #12]
  huart2.Init.Parity = UART_PARITY_NONE;
 80037d0:	6103      	str	r3, [r0, #16]
  huart2.Init.HwFlowCtl = UART_HWCONTROL_NONE;
 80037d2:	6183      	str	r3, [r0, #24]
  huart2.Init.OverSampling = UART_OVERSAMPLING_16;
 80037d4:	61c3      	str	r3, [r0, #28]
  if (HAL_UART_Init(&huart2) != HAL_OK)
 80037d6:	f7fe f8c5 	bl	8001964 <HAL_UART_Init>
 80037da:	b118      	cbz	r0, 80037e4 <MX_USART2_UART_Init+0x2c>
  {
    Error_Handler();
  }

}
 80037dc:	e8bd 4008 	ldmia.w	sp!, {r3, lr}
    Error_Handler();
 80037e0:	f7ff bebe 	b.w	8003560 <Error_Handler>
 80037e4:	bd08      	pop	{r3, pc}
 80037e6:	bf00      	nop
 80037e8:	20001c14 	.word	0x20001c14
 80037ec:	40004400 	.word	0x40004400

080037f0 <MX_USART3_UART_Init>:
/* USART3 init function */

void MX_USART3_UART_Init(void)
{
 80037f0:	b508      	push	{r3, lr}

  huart3.Instance = USART3;
  huart3.Init.BaudRate = 115200;
 80037f2:	f44f 3ee1 	mov.w	lr, #115200	; 0x1c200
  huart3.Instance = USART3;
 80037f6:	480a      	ldr	r0, [pc, #40]	; (8003820 <MX_USART3_UART_Init+0x30>)
  huart3.Init.BaudRate = 115200;
 80037f8:	4b0a      	ldr	r3, [pc, #40]	; (8003824 <MX_USART3_UART_Init+0x34>)
  huart3.Init.WordLength = UART_WORDLENGTH_8B;
  huart3.Init.StopBits = UART_STOPBITS_1;
  huart3.Init.Parity = UART_PARITY_NONE;
  huart3.Init.Mode = UART_MODE_TX_RX;
 80037fa:	220c      	movs	r2, #12
  huart3.Init.BaudRate = 115200;
 80037fc:	e880 4008 	stmia.w	r0, {r3, lr}
  huart3.Init.WordLength = UART_WORDLENGTH_8B;
 8003800:	2300      	movs	r3, #0
  huart3.Init.Mode = UART_MODE_TX_RX;
 8003802:	6142      	str	r2, [r0, #20]
  huart3.Init.WordLength = UART_WORDLENGTH_8B;
 8003804:	6083      	str	r3, [r0, #8]
  huart3.Init.StopBits = UART_STOPBITS_1;
 8003806:	60c3      	str	r3, [r0, #12]
  huart3.Init.Parity = UART_PARITY_NONE;
 8003808:	6103      	str	r3, [r0, #16]
  huart3.Init.HwFlowCtl = UART_HWCONTROL_NONE;
 800380a:	6183      	str	r3, [r0, #24]
  huart3.Init.OverSampling = UART_OVERSAMPLING_16;
 800380c:	61c3      	str	r3, [r0, #28]
  if (HAL_UART_Init(&huart3) != HAL_OK)
 800380e:	f7fe f8a9 	bl	8001964 <HAL_UART_Init>
 8003812:	b118      	cbz	r0, 800381c <MX_USART3_UART_Init+0x2c>
  {
    Error_Handler();
  }

}
 8003814:	e8bd 4008 	ldmia.w	sp!, {r3, lr}
    Error_Handler();
 8003818:	f7ff bea2 	b.w	8003560 <Error_Handler>
 800381c:	bd08      	pop	{r3, pc}
 800381e:	bf00      	nop
 8003820:	20001ac8 	.word	0x20001ac8
 8003824:	40004800 	.word	0x40004800

08003828 <HAL_UART_MspInit>:

void HAL_UART_MspInit(UART_HandleTypeDef* uartHandle)
{
 8003828:	b5f0      	push	{r4, r5, r6, r7, lr}

  GPIO_InitTypeDef GPIO_InitStruct = {0};
 800382a:	2710      	movs	r7, #16
{
 800382c:	4605      	mov	r5, r0
 800382e:	b08b      	sub	sp, #44	; 0x2c
  GPIO_InitTypeDef GPIO_InitStruct = {0};
 8003830:	463a      	mov	r2, r7
 8003832:	2100      	movs	r1, #0
 8003834:	a806      	add	r0, sp, #24
 8003836:	f000 f97d 	bl	8003b34 <memset>
  if(uartHandle->Instance==USART1)
 800383a:	682b      	ldr	r3, [r5, #0]
 800383c:	4a67      	ldr	r2, [pc, #412]	; (80039dc <HAL_UART_MspInit+0x1b4>)
 800383e:	4293      	cmp	r3, r2
 8003840:	d144      	bne.n	80038cc <HAL_UART_MspInit+0xa4>
  {
  /* USER CODE BEGIN USART1_MspInit 0 */

  /* USER CODE END USART1_MspInit 0 */
    /* USART1 clock enable */
    __HAL_RCC_USART1_CLK_ENABLE();
 8003842:	4b67      	ldr	r3, [pc, #412]	; (80039e0 <HAL_UART_MspInit+0x1b8>)
    PA10     ------> USART1_RX 
    */
    GPIO_InitStruct.Pin = LIN_TX_Pin;
    GPIO_InitStruct.Mode = GPIO_MODE_AF_PP;
    GPIO_InitStruct.Speed = GPIO_SPEED_FREQ_HIGH;
    HAL_GPIO_Init(LIN_TX_GPIO_Port, &GPIO_InitStruct);
 8003844:	a906      	add	r1, sp, #24
    __HAL_RCC_USART1_CLK_ENABLE();
 8003846:	699a      	ldr	r2, [r3, #24]
    HAL_GPIO_Init(LIN_TX_GPIO_Port, &GPIO_InitStruct);
 8003848:	4866      	ldr	r0, [pc, #408]	; (80039e4 <HAL_UART_MspInit+0x1bc>)
    __HAL_RCC_USART1_CLK_ENABLE();
 800384a:	f442 4280 	orr.w	r2, r2, #16384	; 0x4000
 800384e:	619a      	str	r2, [r3, #24]
 8003850:	699a      	ldr	r2, [r3, #24]

    GPIO_InitStruct.Pin = LIN_RX_Pin;
    GPIO_InitStruct.Mode = GPIO_MODE_INPUT;
 8003852:	2600      	movs	r6, #0
    __HAL_RCC_USART1_CLK_ENABLE();
 8003854:	f402 4280 	and.w	r2, r2, #16384	; 0x4000
 8003858:	9200      	str	r2, [sp, #0]
 800385a:	9a00      	ldr	r2, [sp, #0]
    __HAL_RCC_GPIOA_CLK_ENABLE();
 800385c:	699a      	ldr	r2, [r3, #24]
    GPIO_InitStruct.Pull = GPIO_NOPULL;
    HAL_GPIO_Init(LIN_RX_GPIO_Port, &GPIO_InitStruct);

    /* USART1 DMA Init */
    /* USART1_TX Init */
    hdma_usart1_tx.Instance = DMA1_Channel4;
 800385e:	4c62      	ldr	r4, [pc, #392]	; (80039e8 <HAL_UART_MspInit+0x1c0>)
    __HAL_RCC_GPIOA_CLK_ENABLE();
 8003860:	f042 0204 	orr.w	r2, r2, #4
 8003864:	619a      	str	r2, [r3, #24]
 8003866:	699b      	ldr	r3, [r3, #24]
 8003868:	f003 0304 	and.w	r3, r3, #4
 800386c:	9301      	str	r3, [sp, #4]
 800386e:	9b01      	ldr	r3, [sp, #4]
    GPIO_InitStruct.Pin = LIN_TX_Pin;
 8003870:	f44f 7300 	mov.w	r3, #512	; 0x200
 8003874:	9306      	str	r3, [sp, #24]
    GPIO_InitStruct.Mode = GPIO_MODE_AF_PP;
 8003876:	2302      	movs	r3, #2
 8003878:	9307      	str	r3, [sp, #28]
    GPIO_InitStruct.Speed = GPIO_SPEED_FREQ_HIGH;
 800387a:	2303      	movs	r3, #3
 800387c:	9309      	str	r3, [sp, #36]	; 0x24
    HAL_GPIO_Init(LIN_TX_GPIO_Port, &GPIO_InitStruct);
 800387e:	f7fd fa03 	bl	8000c88 <HAL_GPIO_Init>
    GPIO_InitStruct.Pin = LIN_RX_Pin;
 8003882:	f44f 6380 	mov.w	r3, #1024	; 0x400
    HAL_GPIO_Init(LIN_RX_GPIO_Port, &GPIO_InitStruct);
 8003886:	4857      	ldr	r0, [pc, #348]	; (80039e4 <HAL_UART_MspInit+0x1bc>)
 8003888:	a906      	add	r1, sp, #24
    GPIO_InitStruct.Pin = LIN_RX_Pin;
 800388a:	9306      	str	r3, [sp, #24]
    GPIO_InitStruct.Mode = GPIO_MODE_INPUT;
 800388c:	9607      	str	r6, [sp, #28]
    GPIO_InitStruct.Pull = GPIO_NOPULL;
 800388e:	9608      	str	r6, [sp, #32]
    HAL_GPIO_Init(LIN_RX_GPIO_Port, &GPIO_InitStruct);
 8003890:	f7fd f9fa 	bl	8000c88 <HAL_GPIO_Init>
    hdma_usart1_tx.Instance = DMA1_Channel4;
 8003894:	4b55      	ldr	r3, [pc, #340]	; (80039ec <HAL_UART_MspInit+0x1c4>)
    hdma_usart1_tx.Init.MemInc = DMA_MINC_ENABLE;
    hdma_usart1_tx.Init.PeriphDataAlignment = DMA_PDATAALIGN_BYTE;
    hdma_usart1_tx.Init.MemDataAlignment = DMA_MDATAALIGN_BYTE;
    hdma_usart1_tx.Init.Mode = DMA_NORMAL;
    hdma_usart1_tx.Init.Priority = DMA_PRIORITY_LOW;
    if (HAL_DMA_Init(&hdma_usart1_tx) != HAL_OK)
 8003896:	4620      	mov	r0, r4
    hdma_usart1_tx.Init.Direction = DMA_MEMORY_TO_PERIPH;
 8003898:	e884 0088 	stmia.w	r4, {r3, r7}
    hdma_usart1_tx.Init.MemInc = DMA_MINC_ENABLE;
 800389c:	2380      	movs	r3, #128	; 0x80
    hdma_usart1_tx.Init.PeriphInc = DMA_PINC_DISABLE;
 800389e:	60a6      	str	r6, [r4, #8]
    hdma_usart1_tx.Init.MemInc = DMA_MINC_ENABLE;
 80038a0:	60e3      	str	r3, [r4, #12]
    hdma_usart1_tx.Init.PeriphDataAlignment = DMA_PDATAALIGN_BYTE;
 80038a2:	6126      	str	r6, [r4, #16]
    hdma_usart1_tx.Init.MemDataAlignment = DMA_MDATAALIGN_BYTE;
 80038a4:	6166      	str	r6, [r4, #20]
    hdma_usart1_tx.Init.Mode = DMA_NORMAL;
 80038a6:	61a6      	str	r6, [r4, #24]
    hdma_usart1_tx.Init.Priority = DMA_PRIORITY_LOW;
 80038a8:	61e6      	str	r6, [r4, #28]
    if (HAL_DMA_Init(&hdma_usart1_tx) != HAL_OK)
 80038aa:	f7fd f879 	bl	80009a0 <HAL_DMA_Init>
 80038ae:	b108      	cbz	r0, 80038b4 <HAL_UART_MspInit+0x8c>
    {
      Error_Handler();
 80038b0:	f7ff fe56 	bl	8003560 <Error_Handler>
    }

    __HAL_LINKDMA(uartHandle,hdmatx,hdma_usart1_tx);

    /* USART1 interrupt Init */
    HAL_NVIC_SetPriority(USART1_IRQn, 0, 0);
 80038b4:	2200      	movs	r2, #0
 80038b6:	2025      	movs	r0, #37	; 0x25
    __HAL_LINKDMA(uartHandle,hdmatx,hdma_usart1_tx);
 80038b8:	632c      	str	r4, [r5, #48]	; 0x30
    HAL_NVIC_SetPriority(USART1_IRQn, 0, 0);
 80038ba:	4611      	mov	r1, r2
    __HAL_LINKDMA(uartHandle,hdmatx,hdma_usart1_tx);
 80038bc:	6265      	str	r5, [r4, #36]	; 0x24
    HAL_NVIC_SetPriority(USART1_IRQn, 0, 0);
 80038be:	f7fd f80b 	bl	80008d8 <HAL_NVIC_SetPriority>
    HAL_NVIC_EnableIRQ(USART1_IRQn);
 80038c2:	2025      	movs	r0, #37	; 0x25

    __HAL_LINKDMA(uartHandle,hdmatx,hdma_usart3_tx);

    /* USART3 interrupt Init */
    HAL_NVIC_SetPriority(USART3_IRQn, 0, 0);
    HAL_NVIC_EnableIRQ(USART3_IRQn);
 80038c4:	f7fd f83c 	bl	8000940 <HAL_NVIC_EnableIRQ>
  /* USER CODE BEGIN USART3_MspInit 1 */

  /* USER CODE END USART3_MspInit 1 */
  }
}
 80038c8:	b00b      	add	sp, #44	; 0x2c
 80038ca:	bdf0      	pop	{r4, r5, r6, r7, pc}
  else if(uartHandle->Instance==USART2)
 80038cc:	4a48      	ldr	r2, [pc, #288]	; (80039f0 <HAL_UART_MspInit+0x1c8>)
 80038ce:	4293      	cmp	r3, r2
 80038d0:	d13f      	bne.n	8003952 <HAL_UART_MspInit+0x12a>
    __HAL_RCC_USART2_CLK_ENABLE();
 80038d2:	4b43      	ldr	r3, [pc, #268]	; (80039e0 <HAL_UART_MspInit+0x1b8>)
    HAL_GPIO_Init(GPIOA, &GPIO_InitStruct);
 80038d4:	a906      	add	r1, sp, #24
    __HAL_RCC_USART2_CLK_ENABLE();
 80038d6:	69da      	ldr	r2, [r3, #28]
    HAL_GPIO_Init(GPIOA, &GPIO_InitStruct);
 80038d8:	4842      	ldr	r0, [pc, #264]	; (80039e4 <HAL_UART_MspInit+0x1bc>)
    __HAL_RCC_USART2_CLK_ENABLE();
 80038da:	f442 3200 	orr.w	r2, r2, #131072	; 0x20000
 80038de:	61da      	str	r2, [r3, #28]
 80038e0:	69da      	ldr	r2, [r3, #28]
    GPIO_InitStruct.Mode = GPIO_MODE_INPUT;
 80038e2:	2600      	movs	r6, #0
    __HAL_RCC_USART2_CLK_ENABLE();
 80038e4:	f402 3200 	and.w	r2, r2, #131072	; 0x20000
 80038e8:	9202      	str	r2, [sp, #8]
 80038ea:	9a02      	ldr	r2, [sp, #8]
    __HAL_RCC_GPIOA_CLK_ENABLE();
 80038ec:	699a      	ldr	r2, [r3, #24]
    hdma_usart2_tx.Instance = DMA1_Channel7;
 80038ee:	4c41      	ldr	r4, [pc, #260]	; (80039f4 <HAL_UART_MspInit+0x1cc>)
    __HAL_RCC_GPIOA_CLK_ENABLE();
 80038f0:	f042 0204 	orr.w	r2, r2, #4
 80038f4:	619a      	str	r2, [r3, #24]
 80038f6:	699b      	ldr	r3, [r3, #24]
 80038f8:	f003 0304 	and.w	r3, r3, #4
 80038fc:	9303      	str	r3, [sp, #12]
 80038fe:	9b03      	ldr	r3, [sp, #12]
    GPIO_InitStruct.Pin = GPIO_PIN_2;
 8003900:	2304      	movs	r3, #4
 8003902:	9306      	str	r3, [sp, #24]
    GPIO_InitStruct.Mode = GPIO_MODE_AF_PP;
 8003904:	2302      	movs	r3, #2
 8003906:	9307      	str	r3, [sp, #28]
    GPIO_InitStruct.Speed = GPIO_SPEED_FREQ_HIGH;
 8003908:	2303      	movs	r3, #3
 800390a:	9309      	str	r3, [sp, #36]	; 0x24
    HAL_GPIO_Init(GPIOA, &GPIO_InitStruct);
 800390c:	f7fd f9bc 	bl	8000c88 <HAL_GPIO_Init>
    GPIO_InitStruct.Pin = GPIO_PIN_3;
 8003910:	2308      	movs	r3, #8
    HAL_GPIO_Init(GPIOA, &GPIO_InitStruct);
 8003912:	4834      	ldr	r0, [pc, #208]	; (80039e4 <HAL_UART_MspInit+0x1bc>)
 8003914:	a906      	add	r1, sp, #24
    GPIO_InitStruct.Pin = GPIO_PIN_3;
 8003916:	9306      	str	r3, [sp, #24]
    GPIO_InitStruct.Mode = GPIO_MODE_INPUT;
 8003918:	9607      	str	r6, [sp, #28]
    GPIO_InitStruct.Pull = GPIO_NOPULL;
 800391a:	9608      	str	r6, [sp, #32]
    HAL_GPIO_Init(GPIOA, &GPIO_InitStruct);
 800391c:	f7fd f9b4 	bl	8000c88 <HAL_GPIO_Init>
    hdma_usart2_tx.Instance = DMA1_Channel7;
 8003920:	4b35      	ldr	r3, [pc, #212]	; (80039f8 <HAL_UART_MspInit+0x1d0>)
    if (HAL_DMA_Init(&hdma_usart2_tx) != HAL_OK)
 8003922:	4620      	mov	r0, r4
    hdma_usart2_tx.Init.Direction = DMA_MEMORY_TO_PERIPH;
 8003924:	e884 0088 	stmia.w	r4, {r3, r7}
    hdma_usart2_tx.Init.MemInc = DMA_MINC_ENABLE;
 8003928:	2380      	movs	r3, #128	; 0x80
    hdma_usart2_tx.Init.PeriphInc = DMA_PINC_DISABLE;
 800392a:	60a6      	str	r6, [r4, #8]
    hdma_usart2_tx.Init.MemInc = DMA_MINC_ENABLE;
 800392c:	60e3      	str	r3, [r4, #12]
    hdma_usart2_tx.Init.PeriphDataAlignment = DMA_PDATAALIGN_BYTE;
 800392e:	6126      	str	r6, [r4, #16]
    hdma_usart2_tx.Init.MemDataAlignment = DMA_MDATAALIGN_BYTE;
 8003930:	6166      	str	r6, [r4, #20]
    hdma_usart2_tx.Init.Mode = DMA_NORMAL;
 8003932:	61a6      	str	r6, [r4, #24]
    hdma_usart2_tx.Init.Priority = DMA_PRIORITY_LOW;
 8003934:	61e6      	str	r6, [r4, #28]
    if (HAL_DMA_Init(&hdma_usart2_tx) != HAL_OK)
 8003936:	f7fd f833 	bl	80009a0 <HAL_DMA_Init>
 800393a:	b108      	cbz	r0, 8003940 <HAL_UART_MspInit+0x118>
      Error_Handler();
 800393c:	f7ff fe10 	bl	8003560 <Error_Handler>
    HAL_NVIC_SetPriority(USART2_IRQn, 0, 0);
 8003940:	2200      	movs	r2, #0
 8003942:	2026      	movs	r0, #38	; 0x26
    __HAL_LINKDMA(uartHandle,hdmatx,hdma_usart2_tx);
 8003944:	632c      	str	r4, [r5, #48]	; 0x30
    HAL_NVIC_SetPriority(USART2_IRQn, 0, 0);
 8003946:	4611      	mov	r1, r2
    __HAL_LINKDMA(uartHandle,hdmatx,hdma_usart2_tx);
 8003948:	6265      	str	r5, [r4, #36]	; 0x24
    HAL_NVIC_SetPriority(USART2_IRQn, 0, 0);
 800394a:	f7fc ffc5 	bl	80008d8 <HAL_NVIC_SetPriority>
    HAL_NVIC_EnableIRQ(USART2_IRQn);
 800394e:	2026      	movs	r0, #38	; 0x26
 8003950:	e7b8      	b.n	80038c4 <HAL_UART_MspInit+0x9c>
  else if(uartHandle->Instance==USART3)
 8003952:	4a2a      	ldr	r2, [pc, #168]	; (80039fc <HAL_UART_MspInit+0x1d4>)
 8003954:	4293      	cmp	r3, r2
 8003956:	d1b7      	bne.n	80038c8 <HAL_UART_MspInit+0xa0>
    __HAL_RCC_USART3_CLK_ENABLE();
 8003958:	4b21      	ldr	r3, [pc, #132]	; (80039e0 <HAL_UART_MspInit+0x1b8>)
    HAL_GPIO_Init(USART3_TX_GPIO_Port, &GPIO_InitStruct);
 800395a:	a906      	add	r1, sp, #24
    __HAL_RCC_USART3_CLK_ENABLE();
 800395c:	69da      	ldr	r2, [r3, #28]
    HAL_GPIO_Init(USART3_TX_GPIO_Port, &GPIO_InitStruct);
 800395e:	4828      	ldr	r0, [pc, #160]	; (8003a00 <HAL_UART_MspInit+0x1d8>)
    __HAL_RCC_USART3_CLK_ENABLE();
 8003960:	f442 2280 	orr.w	r2, r2, #262144	; 0x40000
 8003964:	61da      	str	r2, [r3, #28]
 8003966:	69da      	ldr	r2, [r3, #28]
    GPIO_InitStruct.Mode = GPIO_MODE_INPUT;
 8003968:	2600      	movs	r6, #0
    __HAL_RCC_USART3_CLK_ENABLE();
 800396a:	f402 2280 	and.w	r2, r2, #262144	; 0x40000
 800396e:	9204      	str	r2, [sp, #16]
 8003970:	9a04      	ldr	r2, [sp, #16]
    __HAL_RCC_GPIOB_CLK_ENABLE();
 8003972:	699a      	ldr	r2, [r3, #24]
    hdma_usart3_tx.Instance = DMA1_Channel2;
 8003974:	4c23      	ldr	r4, [pc, #140]	; (8003a04 <HAL_UART_MspInit+0x1dc>)
    __HAL_RCC_GPIOB_CLK_ENABLE();
 8003976:	f042 0208 	orr.w	r2, r2, #8
 800397a:	619a      	str	r2, [r3, #24]
 800397c:	699b      	ldr	r3, [r3, #24]
 800397e:	f003 0308 	and.w	r3, r3, #8
 8003982:	9305      	str	r3, [sp, #20]
 8003984:	9b05      	ldr	r3, [sp, #20]
    GPIO_InitStruct.Pin = USART3_TX_Pin;
 8003986:	f44f 6380 	mov.w	r3, #1024	; 0x400
 800398a:	9306      	str	r3, [sp, #24]
    GPIO_InitStruct.Mode = GPIO_MODE_AF_PP;
 800398c:	2302      	movs	r3, #2
 800398e:	9307      	str	r3, [sp, #28]
    GPIO_InitStruct.Speed = GPIO_SPEED_FREQ_HIGH;
 8003990:	2303      	movs	r3, #3
 8003992:	9309      	str	r3, [sp, #36]	; 0x24
    HAL_GPIO_Init(USART3_TX_GPIO_Port, &GPIO_InitStruct);
 8003994:	f7fd f978 	bl	8000c88 <HAL_GPIO_Init>
    GPIO_InitStruct.Pin = USART3_RX_Pin;
 8003998:	f44f 6300 	mov.w	r3, #2048	; 0x800
    HAL_GPIO_Init(USART3_RX_GPIO_Port, &GPIO_InitStruct);
 800399c:	4818      	ldr	r0, [pc, #96]	; (8003a00 <HAL_UART_MspInit+0x1d8>)
 800399e:	a906      	add	r1, sp, #24
    GPIO_InitStruct.Pin = USART3_RX_Pin;
 80039a0:	9306      	str	r3, [sp, #24]
    GPIO_InitStruct.Mode = GPIO_MODE_INPUT;
 80039a2:	9607      	str	r6, [sp, #28]
    GPIO_InitStruct.Pull = GPIO_NOPULL;
 80039a4:	9608      	str	r6, [sp, #32]
    HAL_GPIO_Init(USART3_RX_GPIO_Port, &GPIO_InitStruct);
 80039a6:	f7fd f96f 	bl	8000c88 <HAL_GPIO_Init>
    hdma_usart3_tx.Instance = DMA1_Channel2;
 80039aa:	4b17      	ldr	r3, [pc, #92]	; (8003a08 <HAL_UART_MspInit+0x1e0>)
    if (HAL_DMA_Init(&hdma_usart3_tx) != HAL_OK)
 80039ac:	4620      	mov	r0, r4
    hdma_usart3_tx.Init.Direction = DMA_MEMORY_TO_PERIPH;
 80039ae:	e884 0088 	stmia.w	r4, {r3, r7}
    hdma_usart3_tx.Init.MemInc = DMA_MINC_ENABLE;
 80039b2:	2380      	movs	r3, #128	; 0x80
    hdma_usart3_tx.Init.PeriphInc = DMA_PINC_DISABLE;
 80039b4:	60a6      	str	r6, [r4, #8]
    hdma_usart3_tx.Init.MemInc = DMA_MINC_ENABLE;
 80039b6:	60e3      	str	r3, [r4, #12]
    hdma_usart3_tx.Init.PeriphDataAlignment = DMA_PDATAALIGN_BYTE;
 80039b8:	6126      	str	r6, [r4, #16]
    hdma_usart3_tx.Init.MemDataAlignment = DMA_MDATAALIGN_BYTE;
 80039ba:	6166      	str	r6, [r4, #20]
    hdma_usart3_tx.Init.Mode = DMA_NORMAL;
 80039bc:	61a6      	str	r6, [r4, #24]
    hdma_usart3_tx.Init.Priority = DMA_PRIORITY_LOW;
 80039be:	61e6      	str	r6, [r4, #28]
    if (HAL_DMA_Init(&hdma_usart3_tx) != HAL_OK)
 80039c0:	f7fc ffee 	bl	80009a0 <HAL_DMA_Init>
 80039c4:	b108      	cbz	r0, 80039ca <HAL_UART_MspInit+0x1a2>
      Error_Handler();
 80039c6:	f7ff fdcb 	bl	8003560 <Error_Handler>
    HAL_NVIC_SetPriority(USART3_IRQn, 0, 0);
 80039ca:	2200      	movs	r2, #0
 80039cc:	2027      	movs	r0, #39	; 0x27
    __HAL_LINKDMA(uartHandle,hdmatx,hdma_usart3_tx);
 80039ce:	632c      	str	r4, [r5, #48]	; 0x30
    HAL_NVIC_SetPriority(USART3_IRQn, 0, 0);
 80039d0:	4611      	mov	r1, r2
    __HAL_LINKDMA(uartHandle,hdmatx,hdma_usart3_tx);
 80039d2:	6265      	str	r5, [r4, #36]	; 0x24
    HAL_NVIC_SetPriority(USART3_IRQn, 0, 0);
 80039d4:	f7fc ff80 	bl	80008d8 <HAL_NVIC_SetPriority>
    HAL_NVIC_EnableIRQ(USART3_IRQn);
 80039d8:	2027      	movs	r0, #39	; 0x27
 80039da:	e773      	b.n	80038c4 <HAL_UART_MspInit+0x9c>
 80039dc:	40013800 	.word	0x40013800
 80039e0:	40021000 	.word	0x40021000
 80039e4:	40010800 	.word	0x40010800
 80039e8:	20001b4c 	.word	0x20001b4c
 80039ec:	40020044 	.word	0x40020044
 80039f0:	40004400 	.word	0x40004400
 80039f4:	20001b90 	.word	0x20001b90
 80039f8:	40020080 	.word	0x40020080
 80039fc:	40004800 	.word	0x40004800
 8003a00:	40010c00 	.word	0x40010c00
 8003a04:	20001b08 	.word	0x20001b08
 8003a08:	4002001c 	.word	0x4002001c

08003a0c <HAL_UART_MspDeInit>:

void HAL_UART_MspDeInit(UART_HandleTypeDef* uartHandle)
{

  if(uartHandle->Instance==USART1)
 8003a0c:	6803      	ldr	r3, [r0, #0]
 8003a0e:	4a1f      	ldr	r2, [pc, #124]	; (8003a8c <HAL_UART_MspDeInit+0x80>)
{
 8003a10:	b510      	push	{r4, lr}
  if(uartHandle->Instance==USART1)
 8003a12:	4293      	cmp	r3, r2
{
 8003a14:	4604      	mov	r4, r0
  if(uartHandle->Instance==USART1)
 8003a16:	d112      	bne.n	8003a3e <HAL_UART_MspDeInit+0x32>
  {
  /* USER CODE BEGIN USART1_MspDeInit 0 */

  /* USER CODE END USART1_MspDeInit 0 */
    /* Peripheral clock disable */
    __HAL_RCC_USART1_CLK_DISABLE();
 8003a18:	f502 4258 	add.w	r2, r2, #55296	; 0xd800
 8003a1c:	6993      	ldr	r3, [r2, #24]
  
    /**USART1 GPIO Configuration    
    PA9     ------> USART1_TX
    PA10     ------> USART1_RX 
    */
    HAL_GPIO_DeInit(GPIOA, LIN_TX_Pin|LIN_RX_Pin);
 8003a1e:	f44f 61c0 	mov.w	r1, #1536	; 0x600
    __HAL_RCC_USART1_CLK_DISABLE();
 8003a22:	f423 4380 	bic.w	r3, r3, #16384	; 0x4000
 8003a26:	6193      	str	r3, [r2, #24]
    HAL_GPIO_DeInit(GPIOA, LIN_TX_Pin|LIN_RX_Pin);
 8003a28:	4819      	ldr	r0, [pc, #100]	; (8003a90 <HAL_UART_MspDeInit+0x84>)
 8003a2a:	f7fd fa0d 	bl	8000e48 <HAL_GPIO_DeInit>

    /* USART1 DMA DeInit */
    HAL_DMA_DeInit(uartHandle->hdmatx);
 8003a2e:	6b20      	ldr	r0, [r4, #48]	; 0x30
 8003a30:	f7fc ffe6 	bl	8000a00 <HAL_DMA_DeInit>

    /* USART1 interrupt Deinit */
    HAL_NVIC_DisableIRQ(USART1_IRQn);
 8003a34:	2025      	movs	r0, #37	; 0x25
    HAL_NVIC_DisableIRQ(USART3_IRQn);
  /* USER CODE BEGIN USART3_MspDeInit 1 */

  /* USER CODE END USART3_MspDeInit 1 */
  }
} 
 8003a36:	e8bd 4010 	ldmia.w	sp!, {r4, lr}
    HAL_NVIC_DisableIRQ(USART3_IRQn);
 8003a3a:	f7fc bf8d 	b.w	8000958 <HAL_NVIC_DisableIRQ>
  else if(uartHandle->Instance==USART2)
 8003a3e:	4a15      	ldr	r2, [pc, #84]	; (8003a94 <HAL_UART_MspDeInit+0x88>)
 8003a40:	4293      	cmp	r3, r2
 8003a42:	d10e      	bne.n	8003a62 <HAL_UART_MspDeInit+0x56>
    __HAL_RCC_USART2_CLK_DISABLE();
 8003a44:	f502 32e6 	add.w	r2, r2, #117760	; 0x1cc00
 8003a48:	69d3      	ldr	r3, [r2, #28]
    HAL_GPIO_DeInit(GPIOA, GPIO_PIN_2|GPIO_PIN_3);
 8003a4a:	210c      	movs	r1, #12
    __HAL_RCC_USART2_CLK_DISABLE();
 8003a4c:	f423 3300 	bic.w	r3, r3, #131072	; 0x20000
 8003a50:	61d3      	str	r3, [r2, #28]
    HAL_GPIO_DeInit(GPIOA, GPIO_PIN_2|GPIO_PIN_3);
 8003a52:	480f      	ldr	r0, [pc, #60]	; (8003a90 <HAL_UART_MspDeInit+0x84>)
 8003a54:	f7fd f9f8 	bl	8000e48 <HAL_GPIO_DeInit>
    HAL_DMA_DeInit(uartHandle->hdmatx);
 8003a58:	6b20      	ldr	r0, [r4, #48]	; 0x30
 8003a5a:	f7fc ffd1 	bl	8000a00 <HAL_DMA_DeInit>
    HAL_NVIC_DisableIRQ(USART2_IRQn);
 8003a5e:	2026      	movs	r0, #38	; 0x26
 8003a60:	e7e9      	b.n	8003a36 <HAL_UART_MspDeInit+0x2a>
  else if(uartHandle->Instance==USART3)
 8003a62:	4a0d      	ldr	r2, [pc, #52]	; (8003a98 <HAL_UART_MspDeInit+0x8c>)
 8003a64:	4293      	cmp	r3, r2
 8003a66:	d10f      	bne.n	8003a88 <HAL_UART_MspDeInit+0x7c>
    __HAL_RCC_USART3_CLK_DISABLE();
 8003a68:	f502 32e4 	add.w	r2, r2, #116736	; 0x1c800
 8003a6c:	69d3      	ldr	r3, [r2, #28]
    HAL_GPIO_DeInit(GPIOB, USART3_TX_Pin|USART3_RX_Pin);
 8003a6e:	f44f 6140 	mov.w	r1, #3072	; 0xc00
    __HAL_RCC_USART3_CLK_DISABLE();
 8003a72:	f423 2380 	bic.w	r3, r3, #262144	; 0x40000
 8003a76:	61d3      	str	r3, [r2, #28]
    HAL_GPIO_DeInit(GPIOB, USART3_TX_Pin|USART3_RX_Pin);
 8003a78:	4808      	ldr	r0, [pc, #32]	; (8003a9c <HAL_UART_MspDeInit+0x90>)
 8003a7a:	f7fd f9e5 	bl	8000e48 <HAL_GPIO_DeInit>
    HAL_DMA_DeInit(uartHandle->hdmatx);
 8003a7e:	6b20      	ldr	r0, [r4, #48]	; 0x30
 8003a80:	f7fc ffbe 	bl	8000a00 <HAL_DMA_DeInit>
    HAL_NVIC_DisableIRQ(USART3_IRQn);
 8003a84:	2027      	movs	r0, #39	; 0x27
 8003a86:	e7d6      	b.n	8003a36 <HAL_UART_MspDeInit+0x2a>
 8003a88:	bd10      	pop	{r4, pc}
 8003a8a:	bf00      	nop
 8003a8c:	40013800 	.word	0x40013800
 8003a90:	40010800 	.word	0x40010800
 8003a94:	40004400 	.word	0x40004400
 8003a98:	40004800 	.word	0x40004800
 8003a9c:	40010c00 	.word	0x40010c00

08003aa0 <Reset_Handler>:
  .weak Reset_Handler
  .type Reset_Handler, %function
Reset_Handler:

/* Copy the data segment initializers from flash to SRAM */
  movs r1, #0
 8003aa0:	2100      	movs	r1, #0
  b LoopCopyDataInit
 8003aa2:	e003      	b.n	8003aac <LoopCopyDataInit>

08003aa4 <CopyDataInit>:

CopyDataInit:
  ldr r3, =_sidata
 8003aa4:	4b0b      	ldr	r3, [pc, #44]	; (8003ad4 <LoopFillZerobss+0x14>)
  ldr r3, [r3, r1]
 8003aa6:	585b      	ldr	r3, [r3, r1]
  str r3, [r0, r1]
 8003aa8:	5043      	str	r3, [r0, r1]
  adds r1, r1, #4
 8003aaa:	3104      	adds	r1, #4

08003aac <LoopCopyDataInit>:

LoopCopyDataInit:
  ldr r0, =_sdata
 8003aac:	480a      	ldr	r0, [pc, #40]	; (8003ad8 <LoopFillZerobss+0x18>)
  ldr r3, =_edata
 8003aae:	4b0b      	ldr	r3, [pc, #44]	; (8003adc <LoopFillZerobss+0x1c>)
  adds r2, r0, r1
 8003ab0:	1842      	adds	r2, r0, r1
  cmp r2, r3
 8003ab2:	429a      	cmp	r2, r3
  bcc CopyDataInit
 8003ab4:	d3f6      	bcc.n	8003aa4 <CopyDataInit>
  ldr r2, =_sbss
 8003ab6:	4a0a      	ldr	r2, [pc, #40]	; (8003ae0 <LoopFillZerobss+0x20>)
  b LoopFillZerobss
 8003ab8:	e002      	b.n	8003ac0 <LoopFillZerobss>

08003aba <FillZerobss>:
/* Zero fill the bss segment. */
FillZerobss:
  movs r3, #0
 8003aba:	2300      	movs	r3, #0
  str r3, [r2], #4
 8003abc:	f842 3b04 	str.w	r3, [r2], #4

08003ac0 <LoopFillZerobss>:

LoopFillZerobss:
  ldr r3, = _ebss
 8003ac0:	4b08      	ldr	r3, [pc, #32]	; (8003ae4 <LoopFillZerobss+0x24>)
  cmp r2, r3
 8003ac2:	429a      	cmp	r2, r3
  bcc FillZerobss
 8003ac4:	d3f9      	bcc.n	8003aba <FillZerobss>

/* Call the clock system intitialization function.*/
    bl  SystemInit
 8003ac6:	f7ff fe37 	bl	8003738 <SystemInit>
/* Call static constructors */
    bl __libc_init_array
 8003aca:	f000 f80f 	bl	8003aec <__libc_init_array>
/* Call the application's entry point.*/
  bl main
 8003ace:	f7ff fc17 	bl	8003300 <main>
  bx lr
 8003ad2:	4770      	bx	lr
  ldr r3, =_sidata
 8003ad4:	08003b9c 	.word	0x08003b9c
  ldr r0, =_sdata
 8003ad8:	20000000 	.word	0x20000000
  ldr r3, =_edata
 8003adc:	2000000c 	.word	0x2000000c
  ldr r2, =_sbss
 8003ae0:	20000010 	.word	0x20000010
  ldr r3, = _ebss
 8003ae4:	20001c54 	.word	0x20001c54

08003ae8 <ADC1_2_IRQHandler>:
 * @retval : None
*/
    .section .text.Default_Handler,"ax",%progbits
Default_Handler:
Infinite_Loop:
  b Infinite_Loop
 8003ae8:	e7fe      	b.n	8003ae8 <ADC1_2_IRQHandler>
	...

08003aec <__libc_init_array>:
 8003aec:	b570      	push	{r4, r5, r6, lr}
 8003aee:	2500      	movs	r5, #0
 8003af0:	4e0c      	ldr	r6, [pc, #48]	; (8003b24 <__libc_init_array+0x38>)
 8003af2:	4c0d      	ldr	r4, [pc, #52]	; (8003b28 <__libc_init_array+0x3c>)
 8003af4:	1ba4      	subs	r4, r4, r6
 8003af6:	10a4      	asrs	r4, r4, #2
 8003af8:	42a5      	cmp	r5, r4
 8003afa:	d109      	bne.n	8003b10 <__libc_init_array+0x24>
 8003afc:	f000 f822 	bl	8003b44 <_init>
 8003b00:	2500      	movs	r5, #0
 8003b02:	4e0a      	ldr	r6, [pc, #40]	; (8003b2c <__libc_init_array+0x40>)
 8003b04:	4c0a      	ldr	r4, [pc, #40]	; (8003b30 <__libc_init_array+0x44>)
 8003b06:	1ba4      	subs	r4, r4, r6
 8003b08:	10a4      	asrs	r4, r4, #2
 8003b0a:	42a5      	cmp	r5, r4
 8003b0c:	d105      	bne.n	8003b1a <__libc_init_array+0x2e>
 8003b0e:	bd70      	pop	{r4, r5, r6, pc}
 8003b10:	f856 3025 	ldr.w	r3, [r6, r5, lsl #2]
 8003b14:	4798      	blx	r3
 8003b16:	3501      	adds	r5, #1
 8003b18:	e7ee      	b.n	8003af8 <__libc_init_array+0xc>
 8003b1a:	f856 3025 	ldr.w	r3, [r6, r5, lsl #2]
 8003b1e:	4798      	blx	r3
 8003b20:	3501      	adds	r5, #1
 8003b22:	e7f2      	b.n	8003b0a <__libc_init_array+0x1e>
 8003b24:	08003b94 	.word	0x08003b94
 8003b28:	08003b94 	.word	0x08003b94
 8003b2c:	08003b94 	.word	0x08003b94
 8003b30:	08003b98 	.word	0x08003b98

08003b34 <memset>:
 8003b34:	4603      	mov	r3, r0
 8003b36:	4402      	add	r2, r0
 8003b38:	4293      	cmp	r3, r2
 8003b3a:	d100      	bne.n	8003b3e <memset+0xa>
 8003b3c:	4770      	bx	lr
 8003b3e:	f803 1b01 	strb.w	r1, [r3], #1
 8003b42:	e7f9      	b.n	8003b38 <memset+0x4>

08003b44 <_init>:
 8003b44:	b5f8      	push	{r3, r4, r5, r6, r7, lr}
 8003b46:	bf00      	nop
 8003b48:	bcf8      	pop	{r3, r4, r5, r6, r7}
 8003b4a:	bc08      	pop	{r3}
 8003b4c:	469e      	mov	lr, r3
 8003b4e:	4770      	bx	lr

08003b50 <_fini>:
 8003b50:	b5f8      	push	{r3, r4, r5, r6, r7, lr}
 8003b52:	bf00      	nop
 8003b54:	bcf8      	pop	{r3, r4, r5, r6, r7}
 8003b56:	bc08      	pop	{r3}
 8003b58:	469e      	mov	lr, r3
 8003b5a:	4770      	bx	lr
